

Microchip MPLAB XC8 Assembler V2.41 build 20230208172133 
                                                                                               Fri May 26 03:09:16 2023

Microchip MPLAB XC8 C Compiler v2.41 (Free license) build 20230208172133 Og1 
     1                           	processor	18F4620
     2                           	fnconf	rparam,??,?,0
     3                           	pagewidth 120
     4                           	opt	flic
     5                           	psect	idataCOMRAM,global,class=CODE,delta=1,noexec
     6                           	psect	idataBANK0,global,class=CODE,delta=1,noexec
     7                           	psect	idataBANK1,global,class=CODE,delta=1,noexec
     8                           	psect	smallconst,global,reloc=2,class=SMALLCONST,delta=1,noexec
     9                           	psect	cinit,global,reloc=2,class=CODE,delta=1
    10                           	psect	bssCOMRAM,global,class=COMRAM,space=1,delta=1,lowdata,noexec
    11                           	psect	dataCOMRAM,global,class=COMRAM,space=1,delta=1,lowdata,noexec
    12                           	psect	bssBANK0,global,class=BANK0,space=1,delta=1,lowdata,noexec
    13                           	psect	dataBANK0,global,class=BANK0,space=1,delta=1,lowdata,noexec
    14                           	psect	bssBANK1,global,class=BANK1,space=1,delta=1,lowdata,noexec
    15                           	psect	dataBANK1,global,class=BANK1,space=1,delta=1,lowdata,noexec
    16                           	psect	cstackBANK1,global,class=BANK1,space=1,delta=1,lowdata,noexec
    17                           	psect	cstackBANK0,global,class=BANK0,space=1,delta=1,lowdata,noexec
    18                           	psect	cstackCOMRAM,global,class=COMRAM,space=1,delta=1,lowdata,noexec
    19                           	psect	text0,global,reloc=2,class=CODE,delta=1
    20                           	psect	text1,global,reloc=2,class=CODE,delta=1
    21                           	psect	text2,global,reloc=2,class=CODE,delta=1
    22                           	psect	text3,global,reloc=2,class=CODE,delta=1
    23                           	psect	text4,global,reloc=2,class=CODE,delta=1
    24                           	psect	text5,global,reloc=2,class=CODE,delta=1
    25                           	psect	text6,global,reloc=2,class=CODE,delta=1
    26                           	psect	text7,global,reloc=2,class=CODE,delta=1,group=1
    27                           	psect	text8,global,reloc=2,class=CODE,delta=1
    28                           	psect	text9,global,reloc=2,class=CODE,delta=1
    29                           	psect	text10,global,reloc=2,class=CODE,delta=1,group=1
    30                           	psect	text11,global,reloc=2,class=CODE,delta=1,group=1
    31                           	psect	text12,global,reloc=2,class=CODE,delta=1,group=1
    32                           	psect	text13,global,reloc=2,class=CODE,delta=1,group=1
    33                           	psect	intcodelo,global,reloc=2,class=CODE,delta=1
    34                           	psect	text15,global,reloc=2,class=CODE,delta=1
    35                           	psect	text16,global,reloc=2,class=CODE,delta=1
    36                           	psect	text17,global,reloc=2,class=CODE,delta=1
    37                           	psect	text18,global,reloc=2,class=CODE,delta=1
    38                           	psect	text19,global,reloc=2,class=CODE,delta=1
    39                           	psect	text20,global,reloc=2,class=CODE,delta=1
    40                           	psect	text21,global,reloc=2,class=CODE,delta=1
    41                           	psect	text22,global,reloc=2,class=CODE,delta=1
    42                           	psect	text23,global,reloc=2,class=CODE,delta=1
    43                           	psect	text24,global,reloc=2,class=CODE,delta=1
    44                           	psect	text25,global,reloc=2,class=CODE,delta=1
    45                           	psect	text26,global,reloc=2,class=CODE,delta=1
    46                           	psect	text27,global,reloc=2,class=CODE,delta=1
    47                           	psect	text28,global,reloc=2,class=CODE,delta=1
    48                           	psect	text29,global,reloc=2,class=CODE,delta=1
    49                           	psect	text30,global,reloc=2,class=CODE,delta=1
    50                           	psect	text31,global,reloc=2,class=CODE,delta=1
    51                           	psect	text32,global,reloc=2,class=CODE,delta=1
    52                           	psect	text33,global,reloc=2,class=CODE,delta=1
    53                           	psect	intcode,global,reloc=2,class=CODE,delta=1
    54                           	psect	intcode_body,global,reloc=2,class=CODE,delta=1
    55                           	psect	text35,global,reloc=2,class=CODE,delta=1
    56                           	psect	text36,global,reloc=2,class=CODE,delta=1
    57                           	psect	text37,global,reloc=2,class=CODE,delta=1
    58                           	psect	text38,global,reloc=2,class=CODE,delta=1
    59                           	psect	text39,global,reloc=2,class=CODE,delta=1
    60                           	psect	text40,global,reloc=2,class=CODE,delta=1
    61                           	psect	text41,global,reloc=2,class=CODE,delta=1
    62                           	psect	text42,global,reloc=2,class=CODE,delta=1
    63                           	psect	text43,global,reloc=2,class=CODE,delta=1
    64                           	psect	text44,global,reloc=2,class=CODE,delta=1
    65                           	psect	text45,global,reloc=2,class=CODE,delta=1
    66                           	psect	text46,global,reloc=2,class=CODE,delta=1
    67                           	psect	text47,global,reloc=2,class=CODE,delta=1
    68                           	psect	text48,global,reloc=2,class=CODE,delta=1
    69                           	psect	text49,global,reloc=2,class=CODE,delta=1
    70                           	psect	text50,global,reloc=2,class=CODE,delta=1
    71                           	psect	text51,global,reloc=2,class=CODE,delta=1
    72                           	psect	text52,global,reloc=2,class=CODE,delta=1
    73                           	psect	text53,global,reloc=2,class=CODE,delta=1
    74                           	psect	intsave_regs,global,class=BIGRAM,space=1,delta=1,noexec
    75                           	psect	text54,global,reloc=2,class=CODE,delta=1
    76                           	psect	rparam,global,class=COMRAM,space=1,delta=1,noexec
    77                           	psect	temp,global,ovrld,common,class=COMRAM,space=1,delta=1
    78                           	psect	idloc,global,abs,ovrld,class=IDLOC,space=5,delta=1,noexec
    79                           	psect	config,global,abs,ovrld,class=CONFIG,space=4,delta=1,noexec
    80   000000                     
    81                           ; Version 2.40
    82                           ; Generated 17/11/2021 GMT
    83                           ; 
    84                           ; Copyright © 2021, Microchip Technology Inc. and its subsidiaries ("Microchip")
    85                           ; All rights reserved.
    86                           ; 
    87                           ; This software is developed by Microchip Technology Inc. and its subsidiaries ("Microch
      +                          ip").
    88                           ; 
    89                           ; Redistribution and use in source and binary forms, with or without modification, are
    90                           ; permitted provided that the following conditions are met:
    91                           ; 
    92                           ;     1. Redistributions of source code must retain the above copyright notice, this lis
      +                          t of
    93                           ;        conditions and the following disclaimer.
    94                           ; 
    95                           ;     2. Redistributions in binary form must reproduce the above copyright notice, this 
      +                          list
    96                           ;        of conditions and the following disclaimer in the documentation and/or other
    97                           ;        materials provided with the distribution. Publication is not required when
    98                           ;        this file is used in an embedded application.
    99                           ; 
   100                           ;     3. Microchip's name may not be used to endorse or promote products derived from th
      +                          is
   101                           ;        software without specific prior written permission.
   102                           ; 
   103                           ; THIS SOFTWARE IS PROVIDED BY MICROCHIP "AS IS" AND ANY EXPRESS OR IMPLIED WARRANTIES,
   104                           ; INCLUDING, BUT NOT LIMITED TO, THE IMPLIED WARRANTIES OF MERCHANTABILITY AND FITNESS F
      +                          OR
   105                           ; PURPOSE ARE DISCLAIMED.  IN NO EVENT SHALL MICROCHIP BE LIABLE FOR ANY DIRECT, INDIREC
      +                          T,
   106                           ; INCIDENTAL, SPECIAL, EXEMPLARY, OR CONSEQUENTIAL DAMAGES (INCLUDING BUT NOT LIMITED TO
   107                           ; PROCUREMENT OF SUBSTITUTE GOODS OR SERVICES; LOSS OF USE, DATA OR PROFITS; OR BUSINESS
   108                           ; INTERRUPTION) HOWSOEVER CAUSED AND ON ANY THEORY OF LIABILITY, WHETHER IN CONTRACT, ST
      +                          RICT
   109                           ; LIABILITY, OR TORT (INCLUDING NEGLIGENCE OR OTHERWISE) ARISING IN ANY WAY OUT OF THE U
      +                          SE OF
   110                           ; THIS SOFTWARE, EVEN IF ADVISED OF THE POSSIBILITY OF SUCH DAMAGE.
   111                           ; 
   112                           ; 
   113                           ; Code-generator required, PIC18F4620 Definitions
   114                           ; 
   115                           ; SFR Addresses
   116   000000                     
   117                           	psect	idataCOMRAM
   118   003386                     __pidataCOMRAM:
   119                           	callstack 0
   120                           
   121                           ;initializer for _led2
   122   003386  72                 	db	114
   123                           
   124                           ;initializer for _RB7_Flag
   125   003387  01                 	db	1
   126                           
   127                           ;initializer for _RB6_Flag
   128   003388  01                 	db	1
   129                           
   130                           ;initializer for _RB5_Flag
   131   003389  01                 	db	1
   132                           
   133                           ;initializer for _RB4_Flag
   134   00338A  01                 	db	1
   135                           
   136                           ;initializer for _led1
   137   00338B  62                 	db	98
   138                           
   139                           	psect	idataBANK0
   140   003184                     __pidataBANK0:
   141                           	callstack 0
   142                           
   143                           ;initializer for _lat_registers
   144   003184  89                 	db	137
   145   003185  0F                 	db	15
   146   003186  8A                 	db	138
   147   003187  0F                 	db	15
   148   003188  8B                 	db	139
   149   003189  0F                 	db	15
   150   00318A  8C                 	db	140
   151   00318B  0F                 	db	15
   152   00318C  8D                 	db	141
   153   00318D  0F                 	db	15
   154                           
   155                           ;initializer for _tris_registers
   156   00318E  92                 	db	146
   157   00318F  0F                 	db	15
   158   003190  93                 	db	147
   159   003191  0F                 	db	15
   160   003192  94                 	db	148
   161   003193  0F                 	db	15
   162   003194  95                 	db	149
   163   003195  0F                 	db	15
   164   003196  96                 	db	150
   165   003197  0F                 	db	15
   166                           
   167                           ;initializer for _lcd_1
   168   003198  02                 	db	2
   169   003199  0A                 	db	10
   170   00319A  12                 	db	18
   171   00319B  1A                 	db	26
   172   00319C  22                 	db	34
   173   00319D  2A                 	db	42
   174                           
   175                           ;initializer for _ccp1_obj
   176   00319E  02                 	db	2
   177   00319F  12                 	db	18
   178   0031A0  00                 	db	0
   179   0031A1  00                 	db	0
   180   0031A2  00                 	db	0
   181   0031A3  4E20               	dw	20000
   182   0031A5  11                 	db	17
   183                           
   184                           ;initializer for _timer1
   185   0031A6  24                 	db	low _timer1_interruptHundler
   186   0031A7  33                 	db	high _timer1_interruptHundler
   187   0031A8  01                 	db	1
   188   0031A9  0000               	dw	0
   189   0031AB  24                 	db	36
   190                           
   191                           ;initializer for _timer2
   192   0031AC  00                 	db	0
   193   0031AD  00                 	db	0
   194   0031AE  01                 	db	1
   195   0031AF  00                 	db	0
   196   0031B0  00                 	db	0
   197                           
   198                           	psect	idataBANK1
   199   003238                     __pidataBANK1:
   200                           	callstack 0
   201                           
   202                           ;initializer for _port_registers
   203   003238  80                 	db	128
   204   003239  0F                 	db	15
   205   00323A  81                 	db	129
   206   00323B  0F                 	db	15
   207   00323C  82                 	db	130
   208   00323D  0F                 	db	15
   209   00323E  83                 	db	131
   210   00323F  0F                 	db	15
   211   003240  84                 	db	132
   212   003241  0F                 	db	15
   213                           
   214                           ;initializer for _lcd_2
   215   003242  32                 	db	50
   216   003243  3A                 	db	58
   217   003244  03                 	db	3
   218   003245  0B                 	db	11
   219   003246  13                 	db	19
   220   003247  1B                 	db	27
   221   003248  23                 	db	35
   222   003249  2B                 	db	43
   223   00324A  33                 	db	51
   224   00324B  3B                 	db	59
   225                           
   226                           ;initializer for _timer0
   227   00324C  50                 	db	low _timer0_interruptHundler
   228   00324D  31                 	db	high _timer0_interruptHundler
   229   00324E  01                 	db	1
   230   00324F  04                 	db	4
   231   003250  0BDC               	dw	3036
   232   003252  07                 	db	7
   233   000000                     _PR2	set	4043
   234   000000                     _TMR3L	set	4018
   235   000000                     _TMR3H	set	4019
   236   000000                     _TMR2	set	4044
   237   000000                     _TMR1L	set	4046
   238   000000                     _TMR1H	set	4047
   239   000000                     _TMR0L	set	4054
   240   000000                     _TMR0H	set	4055
   241   000000                     _INTCON2bits	set	4081
   242   000000                     _EECON2	set	4007
   243   000000                     _ADCON1bits	set	4033
   244   000000                     _ADRESL	set	4035
   245   000000                     _ADRESH	set	4036
   246   000000                     _RCONbits	set	4048
   247   000000                     _TRISD	set	3989
   248   000000                     _TRISC	set	3988
   249   000000                     _TRISB	set	3987
   250   000000                     _TRISE	set	3990
   251   000000                     _PORTBbits	set	3969
   252   000000                     _PIE1bits	set	3997
   253   000000                     _ADCON2bits	set	4032
   254   000000                     _ADCON0bits	set	4034
   255   000000                     _PORTE	set	3972
   256   000000                     _PORTD	set	3971
   257   000000                     _PORTC	set	3970
   258   000000                     _PORTB	set	3969
   259   000000                     _PORTA	set	3968
   260   000000                     _LATA	set	3977
   261   000000                     _TRISA	set	3986
   262   000000                     _PIR2bits	set	4001
   263   000000                     _PIE2bits	set	4000
   264   000000                     _EECON1bits	set	4006
   265   000000                     _EEDATA	set	4008
   266   000000                     _EEADR	set	4009
   267   000000                     _EEADRH	set	4010
   268   000000                     _IPR1bits	set	3999
   269   000000                     _PIR1bits	set	3998
   270   000000                     _T0CONbits	set	4053
   271   000000                     _INTCON3bits	set	4080
   272   000000                     _INTCONbits	set	4082
   273   000000                     _T2CONbits	set	4042
   274   000000                     _T1CONbits	set	4045
   275   000000                     _T3CONbits	set	4017
   276   000000                     _LATE	set	3981
   277   000000                     _LATD	set	3980
   278   000000                     _LATC	set	3979
   279   000000                     _LATB	set	3978
   280   000000                     _CCP1CONbits	set	4029
   281   000000                     _CCPR1L	set	4030
   282                           
   283                           	psect	smallconst
   284   001000                     __psmallconst:
   285                           	callstack 0
   286   001000  00                 	db	0
   287   001001                     STR_1:
   288   001001  25                 	db	37
   289   001002  69                 	db	105	;'i'
   290   001003  00                 	db	0
   291   001004  00                 	db	0	; dummy byte at the end
   292   000000                     
   293                           ; #config settings
   294                           
   295                           	psect	cinit
   296   002D6C                     __pcinit:
   297                           	callstack 0
   298   002D6C                     start_initialization:
   299                           	callstack 0
   300   002D6C                     __initialization:
   301                           	callstack 0
   302                           
   303                           ; Initialize objects allocated to BANK1 (27 bytes)
   304                           ; load TBLPTR registers with __pidataBANK1
   305   002D6C  0E38               	movlw	low __pidataBANK1
   306   002D6E  6EF6               	movwf	tblptrl,c
   307   002D70  0E32               	movlw	high __pidataBANK1
   308   002D72  6EF7               	movwf	tblptrh,c
   309   002D74  0E00               	movlw	low (__pidataBANK1 shr (0+16))
   310   002D76  6EF8               	movwf	tblptru,c
   311   002D78  EE01  F023         	lfsr	0,__pdataBANK1
   312   002D7C  EE10 F01B          	lfsr	1,27
   313   002D80                     copy_data0:
   314   002D80  0009               	tblrd		*+
   315   002D82  CFF5 FFEE          	movff	tablat,postinc0
   316   002D86  50E5               	movf	postdec1,w,c
   317   002D88  50E1               	movf	fsr1l,w,c
   318   002D8A  E1FA               	bnz	copy_data0
   319                           
   320                           ; Initialize objects allocated to BANK0 (45 bytes)
   321                           ; load TBLPTR registers with __pidataBANK0
   322   002D8C  0E84               	movlw	low __pidataBANK0
   323   002D8E  6EF6               	movwf	tblptrl,c
   324   002D90  0E31               	movlw	high __pidataBANK0
   325   002D92  6EF7               	movwf	tblptrh,c
   326   002D94  0E00               	movlw	low (__pidataBANK0 shr (0+16))
   327   002D96  6EF8               	movwf	tblptru,c
   328   002D98  EE00  F0B8         	lfsr	0,__pdataBANK0
   329   002D9C  EE10 F02D          	lfsr	1,45
   330   002DA0                     copy_data1:
   331   002DA0  0009               	tblrd		*+
   332   002DA2  CFF5 FFEE          	movff	tablat,postinc0
   333   002DA6  50E5               	movf	postdec1,w,c
   334   002DA8  50E1               	movf	fsr1l,w,c
   335   002DAA  E1FA               	bnz	copy_data1
   336                           
   337                           ; Initialize objects allocated to COMRAM (6 bytes)
   338                           ; load TBLPTR registers with __pidataCOMRAM
   339   002DAC  0E86               	movlw	low __pidataCOMRAM
   340   002DAE  6EF6               	movwf	tblptrl,c
   341   002DB0  0E33               	movlw	high __pidataCOMRAM
   342   002DB2  6EF7               	movwf	tblptrh,c
   343   002DB4  0E00               	movlw	low (__pidataCOMRAM shr (0+16))
   344   002DB6  6EF8               	movwf	tblptru,c
   345   002DB8  EE00  F054         	lfsr	0,__pdataCOMRAM
   346   002DBC  EE10 F006          	lfsr	1,6
   347   002DC0                     copy_data2:
   348   002DC0  0009               	tblrd		*+
   349   002DC2  CFF5 FFEE          	movff	tablat,postinc0
   350   002DC6  50E5               	movf	postdec1,w,c
   351   002DC8  50E1               	movf	fsr1l,w,c
   352   002DCA  E1FA               	bnz	copy_data2
   353                           
   354                           ; Clear objects allocated to BANK1 (11 bytes)
   355   002DCC  EE01  F03E         	lfsr	0,__pbssBANK1
   356   002DD0  0E0B               	movlw	11
   357   002DD2                     clear_0:
   358   002DD2  6AEE               	clrf	postinc0,c
   359   002DD4  06E8               	decf	wreg,f,c
   360   002DD6  E1FD               	bnz	clear_0
   361                           
   362                           ; Clear objects allocated to BANK0 (26 bytes)
   363   002DD8  EE00  F0E5         	lfsr	0,__pbssBANK0
   364   002DDC  0E1A               	movlw	26
   365   002DDE                     clear_1:
   366   002DDE  6AEE               	clrf	postinc0,c
   367   002DE0  06E8               	decf	wreg,f,c
   368   002DE2  E1FD               	bnz	clear_1
   369                           
   370                           ; Clear objects allocated to COMRAM (31 bytes)
   371   002DE4  EE00  F035         	lfsr	0,__pbssCOMRAM
   372   002DE8  0E1F               	movlw	31
   373   002DEA                     clear_2:
   374   002DEA  6AEE               	clrf	postinc0,c
   375   002DEC  06E8               	decf	wreg,f,c
   376   002DEE  E1FD               	bnz	clear_2
   377   002DF0                     end_of_initialization:
   378                           	callstack 0
   379   002DF0                     __end_of__initialization:
   380                           	callstack 0
   381   002DF0  905A               	bcf	int$flags,0,c	;clear compiler interrupt flag (level 1)
   382   002DF2  925A               	bcf	int$flags,1,c	;clear compiler interrupt flag (level 2)
   383   002DF4  0100               	movlb	0
   384   002DF6  EFCD  F017         	goto	_main	;jump to C main() function
   385                           
   386                           	psect	bssCOMRAM
   387   000035                     __pbssCOMRAM:
   388                           	callstack 0
   389   000035                     _timer3_preload:
   390                           	callstack 0
   391   000035                     	ds	2
   392   000037                     _timer1_preload:
   393                           	callstack 0
   394   000037                     	ds	2
   395   000039                     _TMR1_InterruptHandler:
   396                           	callstack 0
   397   000039                     	ds	2
   398   00003B                     _timer0_preload:
   399                           	callstack 0
   400   00003B                     	ds	2
   401   00003D                     _TMR0_InterruptHandler:
   402                           	callstack 0
   403   00003D                     	ds	2
   404   00003F                     _RB5_InterruptHandler_HIGH:
   405                           	callstack 0
   406   00003F                     	ds	2
   407   000041                     _RB4_InterruptHandler_LOW:
   408                           	callstack 0
   409   000041                     	ds	2
   410   000043                     _RB4_InterruptHandler_HIGH:
   411                           	callstack 0
   412   000043                     	ds	2
   413   000045                     _INT2_InterruptHandler:
   414                           	callstack 0
   415   000045                     	ds	2
   416   000047                     _INT1_InterruptHandler:
   417                           	callstack 0
   418   000047                     	ds	2
   419   000049                     _INT0_InterruptHandler:
   420                           	callstack 0
   421   000049                     	ds	2
   422   00004B                     _ADC_InterruptHandler:
   423                           	callstack 0
   424   00004B                     	ds	2
   425   00004D                     _timer2_preload:
   426                           	callstack 0
   427   00004D                     	ds	1
   428   00004E                     _timer0_count:
   429                           	callstack 0
   430   00004E                     	ds	1
   431   00004F                     led_turn_toggle@F3063:
   432                           	callstack 0
   433   00004F                     	ds	1
   434   000050                     led_turn_off@F3058:
   435                           	callstack 0
   436   000050                     	ds	1
   437   000051                     led_turn_on@F3053:
   438                           	callstack 0
   439   000051                     	ds	1
   440   000052                     led_initialize@F3048:
   441                           	callstack 0
   442   000052                     	ds	1
   443   000053                     _timer1_count:
   444                           	callstack 0
   445   000053                     	ds	1
   446                           
   447                           	psect	dataCOMRAM
   448   000054                     __pdataCOMRAM:
   449                           	callstack 0
   450   000054                     _led2:
   451                           	callstack 0
   452   000054                     	ds	1
   453   000055                     _RB7_Flag:
   454                           	callstack 0
   455   000055                     	ds	1
   456   000056                     _RB6_Flag:
   457                           	callstack 0
   458   000056                     	ds	1
   459   000057                     _RB5_Flag:
   460                           	callstack 0
   461   000057                     	ds	1
   462   000058                     _RB4_Flag:
   463                           	callstack 0
   464   000058                     	ds	1
   465   000059                     _led1:
   466                           	callstack 0
   467   000059                     	ds	1
   468                           
   469                           	psect	bssBANK0
   470   0000E5                     __pbssBANK0:
   471                           	callstack 0
   472   0000E5                     	ds	6
   473   0000EB                     	ds	4
   474   0000EF                     __CCP1_InterruptHandler:
   475                           	callstack 0
   476   0000EF                     	ds	2
   477   0000F1                     _TMR3_InterruptHandler:
   478                           	callstack 0
   479   0000F1                     	ds	2
   480   0000F3                     _TMR2_InterruptHandler:
   481                           	callstack 0
   482   0000F3                     	ds	2
   483   0000F5                     _RB7_InterruptHandler_LOW:
   484                           	callstack 0
   485   0000F5                     	ds	2
   486   0000F7                     _RB7_InterruptHandler_HIGH:
   487                           	callstack 0
   488   0000F7                     	ds	2
   489   0000F9                     _RB6_InterruptHandler_LOW:
   490                           	callstack 0
   491   0000F9                     	ds	2
   492   0000FB                     _RB6_InterruptHandler_HIGH:
   493                           	callstack 0
   494   0000FB                     	ds	2
   495   0000FD                     _RB5_InterruptHandler_LOW:
   496                           	callstack 0
   497   0000FD                     	ds	2
   498                           
   499                           	psect	dataBANK0
   500   0000B8                     __pdataBANK0:
   501                           	callstack 0
   502   0000B8                     _lat_registers:
   503                           	callstack 0
   504   0000B8                     	ds	10
   505   0000C2                     _tris_registers:
   506                           	callstack 0
   507   0000C2                     	ds	10
   508   0000CC                     _lcd_1:
   509                           	callstack 0
   510   0000CC                     	ds	6
   511   0000D2                     _ccp1_obj:
   512                           	callstack 0
   513   0000D2                     	ds	8
   514   0000DA                     _timer1:
   515                           	callstack 0
   516   0000DA                     	ds	6
   517   0000E0                     _timer2:
   518                           	callstack 0
   519   0000E0                     	ds	5
   520                           
   521                           	psect	bssBANK1
   522   00013E                     __pbssBANK1:
   523                           	callstack 0
   524   00013E                     	ds	11
   525                           
   526                           	psect	dataBANK1
   527   000123                     __pdataBANK1:
   528                           	callstack 0
   529   000123                     _port_registers:
   530                           	callstack 0
   531   000123                     	ds	10
   532   00012D                     _lcd_2:
   533                           	callstack 0
   534   00012D                     	ds	10
   535   000137                     _timer0:
   536                           	callstack 0
   537   000137                     	ds	7
   538                           
   539                           	psect	cstackBANK1
   540   000100                     __pcstackBANK1:
   541                           	callstack 0
   542   000100                     ?___fladd:
   543                           	callstack 0
   544   000100                     ___fladd@b:
   545                           	callstack 0
   546                           
   547                           ; 4 bytes @ 0x0
   548   000100                     	ds	4
   549   000104                     ___fladd@a:
   550                           	callstack 0
   551                           
   552                           ; 4 bytes @ 0x4
   553   000104                     	ds	4
   554   000108                     ___fladd@signs:
   555                           	callstack 0
   556                           
   557                           ; 1 bytes @ 0x8
   558   000108                     	ds	1
   559   000109                     ___fladd@aexp:
   560                           	callstack 0
   561                           
   562                           ; 1 bytes @ 0x9
   563   000109                     	ds	1
   564   00010A                     ___fladd@bexp:
   565                           	callstack 0
   566                           
   567                           ; 1 bytes @ 0xA
   568   00010A                     	ds	1
   569   00010B                     ___fladd@grs:
   570                           	callstack 0
   571                           
   572                           ; 1 bytes @ 0xB
   573   00010B                     	ds	1
   574   00010C                     ?___fltol:
   575                           	callstack 0
   576   00010C                     ___fltol@f1:
   577                           	callstack 0
   578                           
   579                           ; 4 bytes @ 0xC
   580   00010C                     	ds	4
   581   000110                     ??___fltol:
   582                           
   583                           ; 1 bytes @ 0x10
   584   000110                     	ds	4
   585   000114                     ??_CCP1_PWM1_Set_Duty_Cycle:
   586   000114                     CCP1_Init@_ccp:
   587                           	callstack 0
   588                           
   589                           ; 2 bytes @ 0x14
   590   000114                     	ds	2
   591   000116                     ??_CCP1_Init:
   592   000116                     _CCP1_PWM1_Set_Duty_Cycle$4196:
   593                           	callstack 0
   594                           
   595                           ; 4 bytes @ 0x16
   596   000116                     	ds	2
   597   000118                     _CCP1_Init$4298:
   598                           	callstack 0
   599                           
   600                           ; 4 bytes @ 0x18
   601   000118                     	ds	2
   602   00011A                     CCP1_PWM1_Set_Duty_Cycle@_duty:
   603                           	callstack 0
   604                           
   605                           ; 1 bytes @ 0x1A
   606   00011A                     	ds	1
   607   00011B                     CCP1_PWM1_Set_Duty_Cycle@l_duty_temp:
   608                           	callstack 0
   609                           
   610                           ; 2 bytes @ 0x1B
   611   00011B                     	ds	1
   612   00011C                     _CCP1_Init$4299:
   613                           	callstack 0
   614                           
   615                           ; 4 bytes @ 0x1C
   616   00011C                     	ds	4
   617   000120                     CCP1_Init@ret:
   618                           	callstack 0
   619                           
   620                           ; 1 bytes @ 0x20
   621   000120                     	ds	1
   622   000121                     main@i:
   623                           	callstack 0
   624                           
   625                           ; 2 bytes @ 0x21
   626   000121                     	ds	2
   627                           
   628                           	psect	cstackBANK0
   629   000080                     __pcstackBANK0:
   630                           	callstack 0
   631   000080                     ?___flmul:
   632                           	callstack 0
   633   000080                     ___flmul@b:
   634                           	callstack 0
   635                           
   636                           ; 4 bytes @ 0x0
   637   000080                     	ds	4
   638   000084                     ___flmul@a:
   639                           	callstack 0
   640                           
   641                           ; 4 bytes @ 0x4
   642   000084                     	ds	4
   643   000088                     ??___flmul:
   644                           
   645                           ; 1 bytes @ 0x8
   646   000088                     	ds	4
   647   00008C                     ___flmul@sign:
   648                           	callstack 0
   649                           
   650                           ; 1 bytes @ 0xC
   651   00008C                     	ds	1
   652   00008D                     ___flmul@aexp:
   653                           	callstack 0
   654                           
   655                           ; 1 bytes @ 0xD
   656   00008D                     	ds	1
   657   00008E                     ___flmul@grs:
   658                           	callstack 0
   659                           
   660                           ; 4 bytes @ 0xE
   661   00008E                     	ds	4
   662   000092                     ___flmul@bexp:
   663                           	callstack 0
   664                           
   665                           ; 1 bytes @ 0x12
   666   000092                     	ds	1
   667   000093                     ___flmul@prod:
   668                           	callstack 0
   669                           
   670                           ; 4 bytes @ 0x13
   671   000093                     	ds	4
   672   000097                     ___flmul@temp:
   673                           	callstack 0
   674                           
   675                           ; 2 bytes @ 0x17
   676   000097                     	ds	2
   677   000099                     ?___fldiv:
   678                           	callstack 0
   679   000099                     ___fldiv@b:
   680                           	callstack 0
   681                           
   682                           ; 4 bytes @ 0x19
   683   000099                     	ds	4
   684   00009D                     ___fldiv@a:
   685                           	callstack 0
   686                           
   687                           ; 4 bytes @ 0x1D
   688   00009D                     	ds	4
   689   0000A1                     ??___fldiv:
   690                           
   691                           ; 1 bytes @ 0x21
   692   0000A1                     	ds	4
   693   0000A5                     ___fldiv@rem:
   694                           	callstack 0
   695                           
   696                           ; 4 bytes @ 0x25
   697   0000A5                     	ds	4
   698   0000A9                     ___fldiv@sign:
   699                           	callstack 0
   700                           
   701                           ; 1 bytes @ 0x29
   702   0000A9                     	ds	1
   703   0000AA                     ___fldiv@new_exp:
   704                           	callstack 0
   705                           
   706                           ; 2 bytes @ 0x2A
   707   0000AA                     	ds	2
   708   0000AC                     ___fldiv@grs:
   709                           	callstack 0
   710                           
   711                           ; 4 bytes @ 0x2C
   712   0000AC                     	ds	4
   713   0000B0                     ___fldiv@bexp:
   714                           	callstack 0
   715                           
   716                           ; 1 bytes @ 0x30
   717   0000B0                     	ds	1
   718   0000B1                     ___fldiv@aexp:
   719                           	callstack 0
   720                           
   721                           ; 1 bytes @ 0x31
   722   0000B1                     	ds	1
   723   0000B2                     ??___fladd:
   724                           
   725                           ; 1 bytes @ 0x32
   726   0000B2                     	ds	4
   727   0000B6                     ___fltol@sign1:
   728                           	callstack 0
   729                           
   730                           ; 1 bytes @ 0x36
   731   0000B6                     	ds	1
   732   0000B7                     ___fltol@exp1:
   733                           	callstack 0
   734                           
   735                           ; 1 bytes @ 0x37
   736   0000B7                     	ds	1
   737                           
   738                           	psect	cstackCOMRAM
   739   000001                     __pcstackCOMRAM:
   740                           	callstack 0
   741   000001                     i2RB4_ISR@RB4_Source:
   742                           	callstack 0
   743   000001                     i2RB5_ISR@RB5_Source:
   744                           	callstack 0
   745   000001                     i2RB6_ISR@RB6_Source:
   746                           	callstack 0
   747   000001                     i2RB7_ISR@RB7_Source:
   748                           	callstack 0
   749   000001                     i2gpio_pin_toggle_logic@_pin_config:
   750                           	callstack 0
   751   000001                     i2Timer1_Write_value@_timer:
   752                           	callstack 0
   753   000001                     i2Timer1_Read_value@_timer:
   754                           	callstack 0
   755                           
   756                           ; 2 bytes @ 0x0
   757   000001                     	ds	2
   758   000003                     ??i2_gpio_pin_toggle_logic:
   759   000003                     i2Timer1_Write_value@_value:
   760                           	callstack 0
   761   000003                     i2Timer1_Read_value@_value:
   762                           	callstack 0
   763                           
   764                           ; 2 bytes @ 0x2
   765   000003                     	ds	2
   766   000005                     ??i2_Timer1_Read_value:
   767                           
   768                           ; 1 bytes @ 0x4
   769   000005                     	ds	2
   770   000007                     i2Timer1_Read_value@tmr1l:
   771                           	callstack 0
   772                           
   773                           ; 1 bytes @ 0x6
   774   000007                     	ds	1
   775   000008                     i2Timer1_Read_value@tmr1h:
   776                           	callstack 0
   777   000008                     i2led_turn_toggle@led:
   778                           	callstack 0
   779                           
   780                           ; 2 bytes @ 0x7
   781   000008                     	ds	1
   782   000009                     
   783                           ; 1 bytes @ 0x8
   784   000009                     	ds	1
   785   00000A                     ??i2_led_turn_toggle:
   786                           
   787                           ; 1 bytes @ 0x9
   788   00000A                     	ds	1
   789   00000B                     i2led_turn_toggle@pin_obj:
   790                           	callstack 0
   791                           
   792                           ; 1 bytes @ 0xA
   793   00000B                     	ds	1
   794   00000C                     ??_InterruptManagerHigh:
   795   00000C                     
   796                           ; 1 bytes @ 0xB
   797   00000C                     	ds	6
   798   000012                     RB4_ISR@RB4_Source:
   799                           	callstack 0
   800   000012                     RB5_ISR@RB5_Source:
   801                           	callstack 0
   802   000012                     RB6_ISR@RB6_Source:
   803                           	callstack 0
   804   000012                     RB7_ISR@RB7_Source:
   805                           	callstack 0
   806   000012                     gpio_pin_toggle_logic@_pin_config:
   807                           	callstack 0
   808   000012                     Timer1_Write_value@_timer:
   809                           	callstack 0
   810   000012                     Timer1_Read_value@_timer:
   811                           	callstack 0
   812                           
   813                           ; 2 bytes @ 0x11
   814   000012                     	ds	2
   815   000014                     ??_gpio_pin_toggle_logic:
   816   000014                     Timer1_Write_value@_value:
   817                           	callstack 0
   818   000014                     Timer1_Read_value@_value:
   819                           	callstack 0
   820                           
   821                           ; 2 bytes @ 0x13
   822   000014                     	ds	2
   823   000016                     ??_Timer1_Read_value:
   824                           
   825                           ; 1 bytes @ 0x15
   826   000016                     	ds	2
   827   000018                     Timer1_Read_value@tmr1l:
   828                           	callstack 0
   829                           
   830                           ; 1 bytes @ 0x17
   831   000018                     	ds	1
   832   000019                     Timer1_Read_value@tmr1h:
   833                           	callstack 0
   834   000019                     led_turn_toggle@led:
   835                           	callstack 0
   836                           
   837                           ; 2 bytes @ 0x18
   838   000019                     	ds	1
   839   00001A                     
   840                           ; 1 bytes @ 0x19
   841   00001A                     	ds	1
   842   00001B                     ??_led_turn_toggle:
   843                           
   844                           ; 1 bytes @ 0x1A
   845   00001B                     	ds	1
   846   00001C                     led_turn_toggle@pin_obj:
   847                           	callstack 0
   848                           
   849                           ; 1 bytes @ 0x1B
   850   00001C                     	ds	1
   851   00001D                     ??_InterruptManagerLow:
   852                           
   853                           ; 1 bytes @ 0x1C
   854   00001D                     	ds	9
   855   000026                     ?___xxtofl:
   856                           	callstack 0
   857   000026                     CCP1_PWM1_Start@ret:
   858                           	callstack 0
   859   000026                     gpio_pin_direction_intialize@_pin_config:
   860                           	callstack 0
   861   000026                     gpio_pin_write_logic@_pin_config:
   862                           	callstack 0
   863   000026                     Timer2_Init@_timer:
   864                           	callstack 0
   865   000026                     ___xxtofl@val:
   866                           	callstack 0
   867                           
   868                           ; 4 bytes @ 0x25
   869   000026                     	ds	2
   870   000028                     ??_gpio_pin_direction_intialize:
   871   000028                     ??_Timer2_Init:
   872   000028                     gpio_pin_write_logic@logic:
   873                           	callstack 0
   874                           
   875                           ; 1 bytes @ 0x27
   876   000028                     	ds	1
   877   000029                     ??_gpio_pin_write_logic:
   878   000029                     Timer2_Init@ret:
   879                           	callstack 0
   880                           
   881                           ; 1 bytes @ 0x28
   882   000029                     	ds	1
   883   00002A                     ??___xxtofl:
   884                           
   885                           ; 1 bytes @ 0x29
   886   00002A                     	ds	4
   887   00002E                     gpio_pin_direction_intialize@ret:
   888                           	callstack 0
   889   00002E                     ___xxtofl@sign:
   890                           	callstack 0
   891                           
   892                           ; 1 bytes @ 0x2D
   893   00002E                     	ds	1
   894   00002F                     gpio_pin_write_logic@ret:
   895                           	callstack 0
   896   00002F                     ___xxtofl@exp:
   897                           	callstack 0
   898                           
   899                           ; 1 bytes @ 0x2E
   900   00002F                     	ds	1
   901   000030                     gpio_pin_intialize@_pin_config:
   902                           	callstack 0
   903   000030                     ___xxtofl@arg:
   904                           	callstack 0
   905                           
   906                           ; 4 bytes @ 0x2F
   907   000030                     	ds	2
   908   000032                     gpio_pin_intialize@ret:
   909                           	callstack 0
   910                           
   911                           ; 1 bytes @ 0x31
   912   000032                     	ds	2
   913   000034                     ??_main:
   914                           
   915                           ; 1 bytes @ 0x33
   916   000034                     	ds	1
   917                           
   918 ;;
   919 ;;Main: autosize = 0, tempsize = 1, incstack = 0, save=0
   920 ;;
   921 ;; *************** function _main *****************
   922 ;; Defined at:
   923 ;;		line 55 in file "application.c"
   924 ;; Parameters:    Size  Location     Type
   925 ;;		None
   926 ;; Auto vars:     Size  Location     Type
   927 ;;  i               2   33[BANK1 ] int 
   928 ;;  ret             1    0        unsigned char 
   929 ;; Return value:  Size  Location     Type
   930 ;;                  2  1083[None  ] int 
   931 ;; Registers used:
   932 ;;		wreg, fsr2l, fsr2h, status,2, status,0, prodl, prodh, cstack
   933 ;; Tracked objects:
   934 ;;		On entry : 0/0
   935 ;;		On exit  : 0/0
   936 ;;		Unchanged: 0/0
   937 ;; Data sizes:     COMRAM   BANK0   BANK1   BANK2   BANK3   BANK4   BANK5   BANK6   BANK7   BANK8   BANK9  BANK10  BANK1
      +1  BANK12  BANK13  BANK14  BANK15
   938 ;;      Params:         0       0       0       0       0       0       0       0       0       0       0       0       
      +0       0       0       0       0
   939 ;;      Locals:         0       0       2       0       0       0       0       0       0       0       0       0       
      +0       0       0       0       0
   940 ;;      Temps:          1       0       0       0       0       0       0       0       0       0       0       0       
      +0       0       0       0       0
   941 ;;      Totals:         1       0       2       0       0       0       0       0       0       0       0       0       
      +0       0       0       0       0
   942 ;;Total ram usage:        3 bytes
   943 ;; Hardware stack levels required when called: 16
   944 ;; This function calls:
   945 ;;		_CCP1_PWM1_Set_Duty_Cycle
   946 ;;		_CCP1_PWM1_Start
   947 ;;		_app_intialize
   948 ;; This function is called by:
   949 ;;		Startup code after reset
   950 ;; This function uses a non-reentrant model
   951 ;;
   952                           
   953                           	psect	text0
   954   002F9A                     __ptext0:
   955                           	callstack 0
   956   002F9A                     _main:
   957                           	callstack 15
   958   002F9A                     
   959                           ;application.c: 57:     app_intialize();
   960   002F9A  EC0E  F019         	call	_app_intialize	;wreg free
   961   002F9E  0E55               	movlw	85
   962   002FA0  EC2A  F015         	call	_CCP1_PWM1_Set_Duty_Cycle
   963   002FA4  EC9E  F019         	call	_CCP1_PWM1_Start	;wreg free
   964   002FA8                     l8132:
   965                           
   966                           ;application.c: 61:         for(int i= 1 ;i<=100;i+=5){
   967   002FA8  0E00               	movlw	0
   968   002FAA  0101               	movlb	1	; () banked
   969   002FAC  6F22               	movwf	(main@i+1)& (0+255),b
   970   002FAE  0E01               	movlw	1
   971   002FB0  6F21               	movwf	main@i& (0+255),b
   972   002FB2                     l8138:
   973                           
   974                           ; BSR set to: 1
   975   002FB2  5121               	movf	main@i& (0+255),w,b
   976   002FB4  EC2A  F015         	call	_CCP1_PWM1_Set_Duty_Cycle
   977   002FB8                     
   978                           ;application.c: 63:             _delay((unsigned long)((5)*(8000000UL/4000.0)));
   979   002FB8  0E0D               	movlw	13
   980   002FBA  6E34               	movwf	??_main^0,c
   981   002FBC  0EFC               	movlw	252
   982   002FBE                     u8967:
   983   002FBE  2EE8               	decfsz	wreg,f,c
   984   002FC0  D7FE               	bra	u8967
   985   002FC2  2E34               	decfsz	??_main^0,f,c
   986   002FC4  D7FC               	bra	u8967
   987   002FC6                     
   988                           ;application.c: 64:         }
   989   002FC6  0E05               	movlw	5
   990   002FC8  0101               	movlb	1	; () banked
   991   002FCA  2721               	addwf	main@i& (0+255),f,b
   992   002FCC  0E00               	movlw	0
   993   002FCE  2322               	addwfc	(main@i+1)& (0+255),f,b
   994   002FD0                     
   995                           ; BSR set to: 1
   996   002FD0  BF22               	btfsc	(main@i+1)& (0+255),7,b
   997   002FD2  EFF4  F017         	goto	u8951
   998   002FD6  5122               	movf	(main@i+1)& (0+255),w,b
   999   002FD8  E109               	bnz	u8950
  1000   002FDA  0E65               	movlw	101
  1001   002FDC  5D21               	subwf	main@i& (0+255),w,b
  1002   002FDE  A0D8               	btfss	status,0,c
  1003   002FE0  EFF4  F017         	goto	u8951
  1004   002FE4  EFF6  F017         	goto	u8950
  1005   002FE8                     u8951:
  1006   002FE8  EFD9  F017         	goto	l8138
  1007   002FEC                     u8950:
  1008   002FEC  EFD4  F017         	goto	l8132
  1009   002FF0  EF35  F000         	goto	start
  1010   002FF4                     __end_of_main:
  1011                           	callstack 0
  1012                           
  1013 ;; *************** function _app_intialize *****************
  1014 ;; Defined at:
  1015 ;;		line 70 in file "application.c"
  1016 ;; Parameters:    Size  Location     Type
  1017 ;;		None
  1018 ;; Auto vars:     Size  Location     Type
  1019 ;;  ret             1    0        unsigned char 
  1020 ;; Return value:  Size  Location     Type
  1021 ;;                  1    wreg      void 
  1022 ;; Registers used:
  1023 ;;		wreg, fsr2l, fsr2h, status,2, status,0, prodl, prodh, cstack
  1024 ;; Tracked objects:
  1025 ;;		On entry : 0/0
  1026 ;;		On exit  : 0/0
  1027 ;;		Unchanged: 0/0
  1028 ;; Data sizes:     COMRAM   BANK0   BANK1   BANK2   BANK3   BANK4   BANK5   BANK6   BANK7   BANK8   BANK9  BANK10  BANK1
      +1  BANK12  BANK13  BANK14  BANK15
  1029 ;;      Params:         0       0       0       0       0       0       0       0       0       0       0       0       
      +0       0       0       0       0
  1030 ;;      Locals:         0       0       0       0       0       0       0       0       0       0       0       0       
      +0       0       0       0       0
  1031 ;;      Temps:          0       0       0       0       0       0       0       0       0       0       0       0       
      +0       0       0       0       0
  1032 ;;      Totals:         0       0       0       0       0       0       0       0       0       0       0       0       
      +0       0       0       0       0
  1033 ;;Total ram usage:        0 bytes
  1034 ;; Hardware stack levels used: 1
  1035 ;; Hardware stack levels required when called: 15
  1036 ;; This function calls:
  1037 ;;		_CCP1_Init
  1038 ;;		_Timer2_Init
  1039 ;; This function is called by:
  1040 ;;		_main
  1041 ;; This function uses a non-reentrant model
  1042 ;;
  1043                           
  1044                           	psect	text1
  1045   00321C                     __ptext1:
  1046                           	callstack 0
  1047   00321C                     _app_intialize:
  1048                           	callstack 15
  1049   00321C  0EE0               	movlw	low _timer2
  1050   00321E  6E26               	movwf	Timer2_Init@_timer^0,c
  1051   003220  0E00               	movlw	high _timer2
  1052   003222  6E27               	movwf	(Timer2_Init@_timer+1)^0,c
  1053   003224  ECB5  F015         	call	_Timer2_Init	;wreg free
  1054   003228  0ED2               	movlw	low _ccp1_obj
  1055   00322A  0101               	movlb	1	; () banked
  1056   00322C  6F14               	movwf	CCP1_Init@_ccp& (0+255),b
  1057   00322E  0E00               	movlw	high _ccp1_obj
  1058   003230  6F15               	movwf	(CCP1_Init@_ccp+1)& (0+255),b
  1059   003232  EC85  F011         	call	_CCP1_Init	;wreg free
  1060   003236  0012               	return		;funcret
  1061   003238                     __end_of_app_intialize:
  1062                           	callstack 0
  1063                           
  1064 ;; *************** function _Timer2_Init *****************
  1065 ;; Defined at:
  1066 ;;		line 20 in file "MCAL_Layer/Timer/Timer2/hal_timer2.c"
  1067 ;; Parameters:    Size  Location     Type
  1068 ;;  _timer          2   37[COMRAM] PTR const struct .
  1069 ;;		 -> timer2(5), 
  1070 ;; Auto vars:     Size  Location     Type
  1071 ;;  ret             1   40[COMRAM] unsigned char 
  1072 ;; Return value:  Size  Location     Type
  1073 ;;                  1    wreg      unsigned char 
  1074 ;; Registers used:
  1075 ;;		wreg, fsr2l, fsr2h, status,2, status,0
  1076 ;; Tracked objects:
  1077 ;;		On entry : 0/0
  1078 ;;		On exit  : 0/0
  1079 ;;		Unchanged: 0/0
  1080 ;; Data sizes:     COMRAM   BANK0   BANK1   BANK2   BANK3   BANK4   BANK5   BANK6   BANK7   BANK8   BANK9  BANK10  BANK1
      +1  BANK12  BANK13  BANK14  BANK15
  1081 ;;      Params:         2       0       0       0       0       0       0       0       0       0       0       0       
      +0       0       0       0       0
  1082 ;;      Locals:         1       0       0       0       0       0       0       0       0       0       0       0       
      +0       0       0       0       0
  1083 ;;      Temps:          1       0       0       0       0       0       0       0       0       0       0       0       
      +0       0       0       0       0
  1084 ;;      Totals:         4       0       0       0       0       0       0       0       0       0       0       0       
      +0       0       0       0       0
  1085 ;;Total ram usage:        4 bytes
  1086 ;; Hardware stack levels used: 1
  1087 ;; Hardware stack levels required when called: 12
  1088 ;; This function calls:
  1089 ;;		Nothing
  1090 ;; This function is called by:
  1091 ;;		_app_intialize
  1092 ;; This function uses a non-reentrant model
  1093 ;;
  1094                           
  1095                           	psect	text2
  1096   002B6A                     __ptext2:
  1097                           	callstack 0
  1098   002B6A                     _Timer2_Init:
  1099                           	callstack 17
  1100   002B6A                     
  1101                           ;MCAL_Layer/Timer/Timer2/hal_timer2.c: 22:     if(((void*)0) == _timer){
  1102   002B6A  5026               	movf	Timer2_Init@_timer^0,w,c
  1103   002B6C  1027               	iorwf	(Timer2_Init@_timer+1)^0,w,c
  1104   002B6E  A4D8               	btfss	status,2,c
  1105   002B70  EFBC  F015         	goto	u8511
  1106   002B74  EFBE  F015         	goto	u8510
  1107   002B78                     u8511:
  1108   002B78  EFC2  F015         	goto	l1122
  1109   002B7C                     u8510:
  1110   002B7C                     
  1111                           ;MCAL_Layer/Timer/Timer2/hal_timer2.c: 23:         ret = (Std_ReturnType)0x00;
  1112   002B7C  0E00               	movlw	0
  1113   002B7E  6E29               	movwf	Timer2_Init@ret^0,c
  1114                           
  1115                           ;MCAL_Layer/Timer/Timer2/hal_timer2.c: 24:     }
  1116   002B80  EF22  F016         	goto	l1123
  1117   002B84                     l1122:
  1118                           
  1119                           ;MCAL_Layer/Timer/Timer2/hal_timer2.c: 26:     {;MCAL_Layer/Timer/Timer2/hal_timer2.c: 2
      +                          7:         (T2CONbits.TMR2ON = 0);
  1120   002B84  94CA               	bcf	202,2,c	;volatile
  1121   002B86                     
  1122                           ;MCAL_Layer/Timer/Timer2/hal_timer2.c: 28:         (T2CONbits.T2CKPS = _timer->timer2_pr
      +                          escaler_value);
  1123   002B86  EE20 F004          	lfsr	2,4
  1124   002B8A  5026               	movf	Timer2_Init@_timer^0,w,c
  1125   002B8C  26D9               	addwf	fsr2l,f,c
  1126   002B8E  5027               	movf	(Timer2_Init@_timer+1)^0,w,c
  1127   002B90  22DA               	addwfc	fsr2h,f,c
  1128   002B92  38DF               	swapf	223,w,c
  1129   002B94  0B03               	andlw	3
  1130   002B96  6E28               	movwf	??_Timer2_Init^0,c
  1131   002B98  50CA               	movf	202,w,c	;volatile
  1132   002B9A  1828               	xorwf	??_Timer2_Init^0,w,c
  1133   002B9C  0BFC               	andlw	-4
  1134   002B9E  1828               	xorwf	??_Timer2_Init^0,w,c
  1135   002BA0  6ECA               	movwf	202,c	;volatile
  1136                           
  1137                           ;MCAL_Layer/Timer/Timer2/hal_timer2.c: 29:         (T2CONbits.TOUTPS = _timer->timer2_po
      +                          stscaler_value);
  1138   002BA2  EE20 F004          	lfsr	2,4
  1139   002BA6  5026               	movf	Timer2_Init@_timer^0,w,c
  1140   002BA8  26D9               	addwf	fsr2l,f,c
  1141   002BAA  5027               	movf	(Timer2_Init@_timer+1)^0,w,c
  1142   002BAC  22DA               	addwfc	fsr2h,f,c
  1143   002BAE  50DF               	movf	223,w,c
  1144   002BB0  0B0F               	andlw	15
  1145   002BB2  6E28               	movwf	??_Timer2_Init^0,c
  1146   002BB4  4628               	rlncf	??_Timer2_Init^0,f,c
  1147   002BB6  4628               	rlncf	??_Timer2_Init^0,f,c
  1148   002BB8  4628               	rlncf	??_Timer2_Init^0,f,c
  1149   002BBA  50CA               	movf	202,w,c	;volatile
  1150   002BBC  1828               	xorwf	??_Timer2_Init^0,w,c
  1151   002BBE  0B87               	andlw	-121
  1152   002BC0  1828               	xorwf	??_Timer2_Init^0,w,c
  1153   002BC2  6ECA               	movwf	202,c	;volatile
  1154                           
  1155                           ;MCAL_Layer/Timer/Timer2/hal_timer2.c: 30:         TMR2 = (_timer->timer2_preload_value)
      +                          ;
  1156   002BC4  EE20 F003          	lfsr	2,3
  1157   002BC8  5026               	movf	Timer2_Init@_timer^0,w,c
  1158   002BCA  26D9               	addwf	fsr2l,f,c
  1159   002BCC  5027               	movf	(Timer2_Init@_timer+1)^0,w,c
  1160   002BCE  22DA               	addwfc	fsr2h,f,c
  1161   002BD0  50DF               	movf	indf2,w,c
  1162   002BD2  6ECC               	movwf	204,c	;volatile
  1163                           
  1164                           ;MCAL_Layer/Timer/Timer2/hal_timer2.c: 31:         timer2_preload = _timer->timer2_prelo
      +                          ad_value;
  1165   002BD4  EE20 F003          	lfsr	2,3
  1166   002BD8  5026               	movf	Timer2_Init@_timer^0,w,c
  1167   002BDA  26D9               	addwf	fsr2l,f,c
  1168   002BDC  5027               	movf	(Timer2_Init@_timer+1)^0,w,c
  1169   002BDE  22DA               	addwfc	fsr2h,f,c
  1170   002BE0  50DF               	movf	indf2,w,c
  1171   002BE2  6E4D               	movwf	_timer2_preload^0,c
  1172   002BE4                     
  1173                           ;MCAL_Layer/Timer/Timer2/hal_timer2.c: 35:         (PIE1bits.TMR2IE = 1);
  1174   002BE4  829D               	bsf	157,1,c	;volatile
  1175   002BE6                     
  1176                           ;MCAL_Layer/Timer/Timer2/hal_timer2.c: 36:         (PIR1bits.TMR2IF = 0);
  1177   002BE6  929E               	bcf	158,1,c	;volatile
  1178   002BE8                     
  1179                           ;MCAL_Layer/Timer/Timer2/hal_timer2.c: 37:         TMR2_InterruptHandler = _timer->TMR2_
      +                          InterruptHandler;
  1180   002BE8  C026  FFD9         	movff	Timer2_Init@_timer,fsr2l
  1181   002BEC  C027  FFDA         	movff	Timer2_Init@_timer+1,fsr2h
  1182   002BF0  CFDE F0F3          	movff	postinc2,_TMR2_InterruptHandler
  1183   002BF4  CFDD F0F4          	movff	postdec2,_TMR2_InterruptHandler+1
  1184   002BF8                     
  1185                           ;MCAL_Layer/Timer/Timer2/hal_timer2.c: 39:         (RCONbits.IPEN = 1);
  1186   002BF8  8ED0               	bsf	208,7,c	;volatile
  1187   002BFA                     
  1188                           ;MCAL_Layer/Timer/Timer2/hal_timer2.c: 40:         if(INTERRUPT_HIGH_PRIORITY == _timer-
      +                          >priority){
  1189   002BFA  EE20 F002          	lfsr	2,2
  1190   002BFE  5026               	movf	Timer2_Init@_timer^0,w,c
  1191   002C00  26D9               	addwf	fsr2l,f,c
  1192   002C02  5027               	movf	(Timer2_Init@_timer+1)^0,w,c
  1193   002C04  22DA               	addwfc	fsr2h,f,c
  1194   002C06  04DE               	decf	postinc2,w,c
  1195   002C08  A4D8               	btfss	status,2,c
  1196   002C0A  EF09  F016         	goto	u8521
  1197   002C0E  EF0B  F016         	goto	u8520
  1198   002C12                     u8521:
  1199   002C12  EF0F  F016         	goto	l7604
  1200   002C16                     u8520:
  1201   002C16                     
  1202                           ;MCAL_Layer/Timer/Timer2/hal_timer2.c: 41:             (INTCONbits.GIEH = 1);
  1203   002C16  8EF2               	bsf	242,7,c	;volatile
  1204                           
  1205                           ;MCAL_Layer/Timer/Timer2/hal_timer2.c: 42:             (IPR1bits.TMR1IP = 1);
  1206   002C18  809F               	bsf	159,0,c	;volatile
  1207                           
  1208                           ;MCAL_Layer/Timer/Timer2/hal_timer2.c: 43:         }else if(INTERRUPT_LOW_PRIORITY == _t
      +                          imer->priority){
  1209   002C1A  EF1F  F016         	goto	l1125
  1210   002C1E                     l7604:
  1211   002C1E  EE20 F002          	lfsr	2,2
  1212   002C22  5026               	movf	Timer2_Init@_timer^0,w,c
  1213   002C24  26D9               	addwf	fsr2l,f,c
  1214   002C26  5027               	movf	(Timer2_Init@_timer+1)^0,w,c
  1215   002C28  22DA               	addwfc	fsr2h,f,c
  1216   002C2A  50DF               	movf	indf2,w,c
  1217   002C2C  A4D8               	btfss	status,2,c
  1218   002C2E  EF1B  F016         	goto	u8531
  1219   002C32  EF1D  F016         	goto	u8530
  1220   002C36                     u8531:
  1221   002C36  EF1F  F016         	goto	l1125
  1222   002C3A                     u8530:
  1223   002C3A                     
  1224                           ;MCAL_Layer/Timer/Timer2/hal_timer2.c: 44:             (INTCONbits.GIEL = 1);
  1225   002C3A  8CF2               	bsf	242,6,c	;volatile
  1226                           
  1227                           ;MCAL_Layer/Timer/Timer2/hal_timer2.c: 45:             (IPR1bits.TMR1IP = 0);
  1228   002C3C  909F               	bcf	159,0,c	;volatile
  1229   002C3E                     l1125:
  1230                           
  1231                           ;MCAL_Layer/Timer/Timer2/hal_timer2.c: 53:         (T2CONbits.TMR2ON = 1);
  1232   002C3E  84CA               	bsf	202,2,c	;volatile
  1233   002C40                     
  1234                           ;MCAL_Layer/Timer/Timer2/hal_timer2.c: 55:         ret = (Std_ReturnType)0x01;
  1235   002C40  0E01               	movlw	1
  1236   002C42  6E29               	movwf	Timer2_Init@ret^0,c
  1237   002C44                     l1123:
  1238                           
  1239                           ;MCAL_Layer/Timer/Timer2/hal_timer2.c: 58:     return ret;
  1240   002C44  5029               	movf	Timer2_Init@ret^0,w,c
  1241   002C46  0012               	return		;funcret
  1242   002C48                     __end_of_Timer2_Init:
  1243                           	callstack 0
  1244                           
  1245 ;; *************** function _CCP1_Init *****************
  1246 ;; Defined at:
  1247 ;;		line 16 in file "MCAL_Layer/CCP/CCP1/hal_ccp1.c"
  1248 ;; Parameters:    Size  Location     Type
  1249 ;;  _ccp            2   20[BANK1 ] PTR const struct .
  1250 ;;		 -> ccp1_obj(8), 
  1251 ;; Auto vars:     Size  Location     Type
  1252 ;;  ret             1   32[BANK1 ] unsigned char 
  1253 ;; Return value:  Size  Location     Type
  1254 ;;                  1    wreg      unsigned char 
  1255 ;; Registers used:
  1256 ;;		wreg, fsr2l, fsr2h, status,2, status,0, prodl, prodh, cstack
  1257 ;; Tracked objects:
  1258 ;;		On entry : 0/0
  1259 ;;		On exit  : 0/0
  1260 ;;		Unchanged: 0/0
  1261 ;; Data sizes:     COMRAM   BANK0   BANK1   BANK2   BANK3   BANK4   BANK5   BANK6   BANK7   BANK8   BANK9  BANK10  BANK1
      +1  BANK12  BANK13  BANK14  BANK15
  1262 ;;      Params:         0       0       2       0       0       0       0       0       0       0       0       0       
      +0       0       0       0       0
  1263 ;;      Locals:         0       0       9       0       0       0       0       0       0       0       0       0       
      +0       0       0       0       0
  1264 ;;      Temps:          0       0       2       0       0       0       0       0       0       0       0       0       
      +0       0       0       0       0
  1265 ;;      Totals:         0       0      13       0       0       0       0       0       0       0       0       0       
      +0       0       0       0       0
  1266 ;;Total ram usage:       13 bytes
  1267 ;; Hardware stack levels used: 1
  1268 ;; Hardware stack levels required when called: 14
  1269 ;; This function calls:
  1270 ;;		___fladd
  1271 ;;		___fldiv
  1272 ;;		___flmul
  1273 ;;		___fltol
  1274 ;;		___xxtofl
  1275 ;;		_gpio_pin_intialize
  1276 ;; This function is called by:
  1277 ;;		_app_intialize
  1278 ;; This function uses a non-reentrant model
  1279 ;;
  1280                           
  1281                           	psect	text3
  1282   00230A                     __ptext3:
  1283                           	callstack 0
  1284   00230A                     _CCP1_Init:
  1285                           	callstack 15
  1286   00230A                     
  1287                           ;MCAL_Layer/CCP/CCP1/hal_ccp1.c: 17:     Std_ReturnType ret = (Std_ReturnType)0x01;
  1288   00230A  0E01               	movlw	1
  1289   00230C  0101               	movlb	1	; () banked
  1290   00230E  6F20               	movwf	CCP1_Init@ret& (0+255),b
  1291   002310                     
  1292                           ; BSR set to: 1
  1293                           ;MCAL_Layer/CCP/CCP1/hal_ccp1.c: 18:     if(((void*)0) == _ccp){
  1294   002310  5114               	movf	CCP1_Init@_ccp& (0+255),w,b
  1295   002312  1115               	iorwf	(CCP1_Init@_ccp+1)& (0+255),w,b
  1296   002314  A4D8               	btfss	status,2,c
  1297   002316  EF8F  F011         	goto	u8541
  1298   00231A  EF91  F011         	goto	u8540
  1299   00231E                     u8541:
  1300   00231E  EF95  F011         	goto	l7618
  1301   002322                     u8540:
  1302   002322                     
  1303                           ; BSR set to: 1
  1304                           ;MCAL_Layer/CCP/CCP1/hal_ccp1.c: 19:         ret = (Std_ReturnType)0x00;
  1305   002322  0E00               	movlw	0
  1306   002324  6F20               	movwf	CCP1_Init@ret& (0+255),b
  1307                           
  1308                           ;MCAL_Layer/CCP/CCP1/hal_ccp1.c: 20:     }
  1309   002326  EF87  F012         	goto	l7644
  1310   00232A                     l7618:
  1311                           
  1312                           ; BSR set to: 1
  1313                           ;MCAL_Layer/CCP/CCP1/hal_ccp1.c: 22:     {;MCAL_Layer/CCP/CCP1/hal_ccp1.c: 24:         (
      +                          CCP1CONbits.CCP1M = ((uint8)0x00));
  1314   00232A  0EF0               	movlw	-16
  1315   00232C  16BD               	andwf	189,f,c	;volatile
  1316                           
  1317                           ;MCAL_Layer/CCP/CCP1/hal_ccp1.c: 31:         (CCP1CONbits.CCP1M = ((uint8)0x0C));
  1318   00232E  50BD               	movf	189,w,c	;volatile
  1319   002330  0BF0               	andlw	-16
  1320   002332  090C               	iorlw	12
  1321   002334  6EBD               	movwf	189,c	;volatile
  1322   002336                     
  1323                           ; BSR set to: 1
  1324                           ;MCAL_Layer/CCP/CCP1/hal_ccp1.c: 32:         PR2 = (uint8)(((8000000UL)/(_ccp->PWM_Frequ
      +                          ency * 4.0 *
  1325   002336  0E00               	movlw	0
  1326   002338  0100               	movlb	0	; () banked
  1327   00233A  6F84               	movwf	___flmul@a& (0+255),b
  1328   00233C  0E00               	movlw	0
  1329   00233E  6F85               	movwf	(___flmul@a+1)& (0+255),b
  1330   002340  0E80               	movlw	128
  1331   002342  6F86               	movwf	(___flmul@a+2)& (0+255),b
  1332   002344  0E40               	movlw	64
  1333   002346  6F87               	movwf	(___flmul@a+3)& (0+255),b
  1334   002348  0101               	movlb	1	; () banked
  1335   00234A  EE20 F005          	lfsr	2,5
  1336   00234E  5114               	movf	CCP1_Init@_ccp& (0+255),w,b
  1337   002350  26D9               	addwf	fsr2l,f,c
  1338   002352  5115               	movf	(CCP1_Init@_ccp+1)& (0+255),w,b
  1339   002354  22DA               	addwfc	fsr2h,f,c
  1340   002356  CFDE F116          	movff	postinc2,??_CCP1_Init
  1341   00235A  CFDD F117          	movff	postdec2,??_CCP1_Init+1
  1342   00235E  C116  F026         	movff	??_CCP1_Init,___xxtofl@val
  1343   002362  C117  F027         	movff	??_CCP1_Init+1,___xxtofl@val+1
  1344   002366  6A28               	clrf	(___xxtofl@val+2)^0,c
  1345   002368  6A29               	clrf	(___xxtofl@val+3)^0,c
  1346   00236A  0E00               	movlw	0
  1347   00236C  EC89  F012         	call	___xxtofl
  1348   002370  C026  F080         	movff	?___xxtofl,___flmul@b
  1349   002374  C027  F081         	movff	?___xxtofl+1,___flmul@b+1
  1350   002378  C028  F082         	movff	?___xxtofl+2,___flmul@b+2
  1351   00237C  C029  F083         	movff	?___xxtofl+3,___flmul@b+3
  1352   002380  EC7F  F00A         	call	___flmul	;wreg free
  1353   002384  C080  F118         	movff	?___flmul,_CCP1_Init$4298
  1354   002388  C081  F119         	movff	?___flmul+1,_CCP1_Init$4298+1
  1355   00238C  C082  F11A         	movff	?___flmul+2,_CCP1_Init$4298+2
  1356   002390  C083  F11B         	movff	?___flmul+3,_CCP1_Init$4298+3
  1357   002394                     
  1358                           ;MCAL_Layer/CCP/CCP1/hal_ccp1.c: 32:         PR2 = (uint8)(((8000000UL)/(_ccp->PWM_Frequ
      +                          ency * 4.0 *
  1359   002394  0101               	movlb	1	; () banked
  1360   002396  EE20 F007          	lfsr	2,7
  1361   00239A  5114               	movf	CCP1_Init@_ccp& (0+255),w,b
  1362   00239C  26D9               	addwf	fsr2l,f,c
  1363   00239E  5115               	movf	(CCP1_Init@_ccp+1)& (0+255),w,b
  1364   0023A0  22DA               	addwfc	fsr2h,f,c
  1365   0023A2  50DF               	movf	223,w,c
  1366   0023A4  0B0F               	andlw	15
  1367   0023A6  6F16               	movwf	??_CCP1_Init& (0+255),b
  1368   0023A8  5116               	movf	??_CCP1_Init& (0+255),w,b
  1369   0023AA  6E26               	movwf	___xxtofl@val^0,c
  1370   0023AC  6A27               	clrf	(___xxtofl@val+1)^0,c
  1371   0023AE  6A28               	clrf	(___xxtofl@val+2)^0,c
  1372   0023B0  6A29               	clrf	(___xxtofl@val+3)^0,c
  1373   0023B2  0E01               	movlw	1
  1374   0023B4  EC89  F012         	call	___xxtofl
  1375   0023B8  C026  F084         	movff	?___xxtofl,___flmul@a
  1376   0023BC  C027  F085         	movff	?___xxtofl+1,___flmul@a+1
  1377   0023C0  C028  F086         	movff	?___xxtofl+2,___flmul@a+2
  1378   0023C4  C029  F087         	movff	?___xxtofl+3,___flmul@a+3
  1379   0023C8  C118  F080         	movff	_CCP1_Init$4298,___flmul@b
  1380   0023CC  C119  F081         	movff	_CCP1_Init$4298+1,___flmul@b+1
  1381   0023D0  C11A  F082         	movff	_CCP1_Init$4298+2,___flmul@b+2
  1382   0023D4  C11B  F083         	movff	_CCP1_Init$4298+3,___flmul@b+3
  1383   0023D8  EC7F  F00A         	call	___flmul	;wreg free
  1384   0023DC  C080  F11C         	movff	?___flmul,_CCP1_Init$4299
  1385   0023E0  C081  F11D         	movff	?___flmul+1,_CCP1_Init$4299+1
  1386   0023E4  C082  F11E         	movff	?___flmul+2,_CCP1_Init$4299+2
  1387   0023E8  C083  F11F         	movff	?___flmul+3,_CCP1_Init$4299+3
  1388   0023EC                     
  1389                           ;MCAL_Layer/CCP/CCP1/hal_ccp1.c: 32:         PR2 = (uint8)(((8000000UL)/(_ccp->PWM_Frequ
      +                          ency * 4.0 *
  1390   0023EC  0E00               	movlw	0
  1391   0023EE  0101               	movlb	1	; () banked
  1392   0023F0  6F04               	movwf	___fladd@a& (0+255),b
  1393   0023F2  0E00               	movlw	0
  1394   0023F4  6F05               	movwf	(___fladd@a+1)& (0+255),b
  1395   0023F6  0E80               	movlw	128
  1396   0023F8  6F06               	movwf	(___fladd@a+2)& (0+255),b
  1397   0023FA  0EBF               	movlw	191
  1398   0023FC  6F07               	movwf	(___fladd@a+3)& (0+255),b
  1399   0023FE  EE20 F007          	lfsr	2,7
  1400   002402  5114               	movf	CCP1_Init@_ccp& (0+255),w,b
  1401   002404  26D9               	addwf	fsr2l,f,c
  1402   002406  5115               	movf	(CCP1_Init@_ccp+1)& (0+255),w,b
  1403   002408  22DA               	addwfc	fsr2h,f,c
  1404   00240A  38DF               	swapf	223,w,c
  1405   00240C  0B03               	andlw	3
  1406   00240E  6F16               	movwf	??_CCP1_Init& (0+255),b
  1407   002410  5116               	movf	??_CCP1_Init& (0+255),w,b
  1408   002412  6E26               	movwf	___xxtofl@val^0,c
  1409   002414  6A27               	clrf	(___xxtofl@val+1)^0,c
  1410   002416  6A28               	clrf	(___xxtofl@val+2)^0,c
  1411   002418  6A29               	clrf	(___xxtofl@val+3)^0,c
  1412   00241A  0E01               	movlw	1
  1413   00241C  EC89  F012         	call	___xxtofl
  1414   002420  C026  F084         	movff	?___xxtofl,___flmul@a
  1415   002424  C027  F085         	movff	?___xxtofl+1,___flmul@a+1
  1416   002428  C028  F086         	movff	?___xxtofl+2,___flmul@a+2
  1417   00242C  C029  F087         	movff	?___xxtofl+3,___flmul@a+3
  1418   002430  C11C  F080         	movff	_CCP1_Init$4299,___flmul@b
  1419   002434  C11D  F081         	movff	_CCP1_Init$4299+1,___flmul@b+1
  1420   002438  C11E  F082         	movff	_CCP1_Init$4299+2,___flmul@b+2
  1421   00243C  C11F  F083         	movff	_CCP1_Init$4299+3,___flmul@b+3
  1422   002440  EC7F  F00A         	call	___flmul	;wreg free
  1423   002444  C080  F09D         	movff	?___flmul,___fldiv@a
  1424   002448  C081  F09E         	movff	?___flmul+1,___fldiv@a+1
  1425   00244C  C082  F09F         	movff	?___flmul+2,___fldiv@a+2
  1426   002450  C083  F0A0         	movff	?___flmul+3,___fldiv@a+3
  1427   002454  0E00               	movlw	0
  1428   002456  0100               	movlb	0	; () banked
  1429   002458  6F99               	movwf	___fldiv@b& (0+255),b
  1430   00245A  0E24               	movlw	36
  1431   00245C  6F9A               	movwf	(___fldiv@b+1)& (0+255),b
  1432   00245E  0EF4               	movlw	244
  1433   002460  6F9B               	movwf	(___fldiv@b+2)& (0+255),b
  1434   002462  0E4A               	movlw	74
  1435   002464  6F9C               	movwf	(___fldiv@b+3)& (0+255),b
  1436   002466  EC95  F00C         	call	___fldiv	;wreg free
  1437   00246A  C099  F100         	movff	?___fldiv,___fladd@b
  1438   00246E  C09A  F101         	movff	?___fldiv+1,___fladd@b+1
  1439   002472  C09B  F102         	movff	?___fldiv+2,___fladd@b+2
  1440   002476  C09C  F103         	movff	?___fldiv+3,___fladd@b+3
  1441   00247A  EC03  F008         	call	___fladd	;wreg free
  1442   00247E  C100  F10C         	movff	?___fladd,___fltol@f1
  1443   002482  C101  F10D         	movff	?___fladd+1,___fltol@f1+1
  1444   002486  C102  F10E         	movff	?___fladd+2,___fltol@f1+2
  1445   00248A  C103  F10F         	movff	?___fladd+3,___fltol@f1+3
  1446   00248E  EC9B  F014         	call	___fltol	;wreg free
  1447   002492  0101               	movlb	1	; () banked
  1448   002494  510C               	movf	?___fltol& (0+255),w,b
  1449   002496  6ECB               	movwf	203,c	;volatile
  1450   002498                     
  1451                           ; BSR set to: 1
  1452                           ;MCAL_Layer/CCP/CCP1/hal_ccp1.c: 37:         ret &= gpio_pin_intialize(&(_ccp->ccp1_pin)
      +                          );
  1453   002498  0E01               	movlw	1
  1454   00249A  2514               	addwf	CCP1_Init@_ccp& (0+255),w,b
  1455   00249C  6E30               	movwf	gpio_pin_intialize@_pin_config^0,c
  1456   00249E  0E00               	movlw	0
  1457   0024A0  2115               	addwfc	(CCP1_Init@_ccp+1)& (0+255),w,b
  1458   0024A2  6E31               	movwf	(gpio_pin_intialize@_pin_config+1)^0,c
  1459   0024A4  ECFA  F017         	call	_gpio_pin_intialize	;wreg free
  1460   0024A8  0101               	movlb	1	; () banked
  1461   0024AA  1720               	andwf	CCP1_Init@ret& (0+255),f,b
  1462   0024AC                     
  1463                           ; BSR set to: 1
  1464                           ;MCAL_Layer/CCP/CCP1/hal_ccp1.c: 41:         (PIE1bits.CCP1IE = 1);
  1465   0024AC  849D               	bsf	157,2,c	;volatile
  1466   0024AE                     
  1467                           ; BSR set to: 1
  1468                           ;MCAL_Layer/CCP/CCP1/hal_ccp1.c: 42:         (PIR1bits.CCP1IF = 0);
  1469   0024AE  949E               	bcf	158,2,c	;volatile
  1470   0024B0                     
  1471                           ; BSR set to: 1
  1472                           ;MCAL_Layer/CCP/CCP1/hal_ccp1.c: 43:         _CCP1_InterruptHandler = _ccp->CCP1_Interru
      +                          ptHandler;
  1473   0024B0  EE20 F002          	lfsr	2,2
  1474   0024B4  5114               	movf	CCP1_Init@_ccp& (0+255),w,b
  1475   0024B6  26D9               	addwf	fsr2l,f,c
  1476   0024B8  5115               	movf	(CCP1_Init@_ccp+1)& (0+255),w,b
  1477   0024BA  22DA               	addwfc	fsr2h,f,c
  1478   0024BC  CFDE F0EF          	movff	postinc2,__CCP1_InterruptHandler
  1479   0024C0  CFDD F0F0          	movff	postdec2,__CCP1_InterruptHandler+1
  1480   0024C4                     
  1481                           ; BSR set to: 1
  1482                           ;MCAL_Layer/CCP/CCP1/hal_ccp1.c: 45:         (RCONbits.IPEN = 1);
  1483   0024C4  8ED0               	bsf	208,7,c	;volatile
  1484   0024C6                     
  1485                           ; BSR set to: 1
  1486                           ;MCAL_Layer/CCP/CCP1/hal_ccp1.c: 46:         if(INTERRUPT_HIGH_PRIORITY == _ccp->priorit
      +                          y){
  1487   0024C6  EE20 F004          	lfsr	2,4
  1488   0024CA  5114               	movf	CCP1_Init@_ccp& (0+255),w,b
  1489   0024CC  26D9               	addwf	fsr2l,f,c
  1490   0024CE  5115               	movf	(CCP1_Init@_ccp+1)& (0+255),w,b
  1491   0024D0  22DA               	addwfc	fsr2h,f,c
  1492   0024D2  04DE               	decf	postinc2,w,c
  1493   0024D4  A4D8               	btfss	status,2,c
  1494   0024D6  EF6F  F012         	goto	u8551
  1495   0024DA  EF71  F012         	goto	u8550
  1496   0024DE                     u8551:
  1497   0024DE  EF75  F012         	goto	l7640
  1498   0024E2                     u8550:
  1499   0024E2                     
  1500                           ; BSR set to: 1
  1501                           ;MCAL_Layer/CCP/CCP1/hal_ccp1.c: 47:             (INTCONbits.GIEH = 1);
  1502   0024E2  8EF2               	bsf	242,7,c	;volatile
  1503                           
  1504                           ;MCAL_Layer/CCP/CCP1/hal_ccp1.c: 48:             (IPR1bits.CCP1IP = 1);
  1505   0024E4  849F               	bsf	159,2,c	;volatile
  1506                           
  1507                           ;MCAL_Layer/CCP/CCP1/hal_ccp1.c: 49:         }else if(INTERRUPT_LOW_PRIORITY == _ccp->pr
      +                          iority){
  1508   0024E6  EF87  F012         	goto	l7644
  1509   0024EA                     l7640:
  1510                           
  1511                           ; BSR set to: 1
  1512   0024EA  EE20 F004          	lfsr	2,4
  1513   0024EE  5114               	movf	CCP1_Init@_ccp& (0+255),w,b
  1514   0024F0  26D9               	addwf	fsr2l,f,c
  1515   0024F2  5115               	movf	(CCP1_Init@_ccp+1)& (0+255),w,b
  1516   0024F4  22DA               	addwfc	fsr2h,f,c
  1517   0024F6  50DF               	movf	indf2,w,c
  1518   0024F8  A4D8               	btfss	status,2,c
  1519   0024FA  EF81  F012         	goto	u8561
  1520   0024FE  EF83  F012         	goto	u8560
  1521   002502                     u8561:
  1522   002502  EF87  F012         	goto	l1242
  1523   002506                     u8560:
  1524   002506                     
  1525                           ; BSR set to: 1
  1526                           ;MCAL_Layer/CCP/CCP1/hal_ccp1.c: 50:             (INTCONbits.GIEL = 1);
  1527   002506  8CF2               	bsf	242,6,c	;volatile
  1528                           
  1529                           ;MCAL_Layer/CCP/CCP1/hal_ccp1.c: 51:             (IPR1bits.CCP1IP = 0);
  1530   002508  949F               	bcf	159,2,c	;volatile
  1531                           
  1532                           ;MCAL_Layer/CCP/CCP1/hal_ccp1.c: 52:         }else{ }
  1533   00250A  EF87  F012         	goto	l7644
  1534   00250E                     l1242:
  1535   00250E                     l7644:
  1536                           
  1537                           ; BSR set to: 1
  1538                           ;MCAL_Layer/CCP/CCP1/hal_ccp1.c: 62:     return ret;
  1539   00250E  5120               	movf	CCP1_Init@ret& (0+255),w,b
  1540   002510                     
  1541                           ; BSR set to: 1
  1542   002510  0012               	return		;funcret
  1543   002512                     __end_of_CCP1_Init:
  1544                           	callstack 0
  1545                           
  1546 ;; *************** function _gpio_pin_intialize *****************
  1547 ;; Defined at:
  1548 ;;		line 159 in file "MCAL_Layer/GPIO/hal_gpio.c"
  1549 ;; Parameters:    Size  Location     Type
  1550 ;;  _pin_config     2   47[COMRAM] PTR const struct .
  1551 ;;		 -> ccp1_obj(8), led_initialize@pin_obj(1), 
  1552 ;; Auto vars:     Size  Location     Type
  1553 ;;  ret             1   49[COMRAM] unsigned char 
  1554 ;; Return value:  Size  Location     Type
  1555 ;;                  1    wreg      unsigned char 
  1556 ;; Registers used:
  1557 ;;		wreg, fsr2l, fsr2h, status,2, status,0, prodl, prodh, cstack
  1558 ;; Tracked objects:
  1559 ;;		On entry : 0/0
  1560 ;;		On exit  : 0/0
  1561 ;;		Unchanged: 0/0
  1562 ;; Data sizes:     COMRAM   BANK0   BANK1   BANK2   BANK3   BANK4   BANK5   BANK6   BANK7   BANK8   BANK9  BANK10  BANK1
      +1  BANK12  BANK13  BANK14  BANK15
  1563 ;;      Params:         2       0       0       0       0       0       0       0       0       0       0       0       
      +0       0       0       0       0
  1564 ;;      Locals:         1       0       0       0       0       0       0       0       0       0       0       0       
      +0       0       0       0       0
  1565 ;;      Temps:          0       0       0       0       0       0       0       0       0       0       0       0       
      +0       0       0       0       0
  1566 ;;      Totals:         3       0       0       0       0       0       0       0       0       0       0       0       
      +0       0       0       0       0
  1567 ;;Total ram usage:        3 bytes
  1568 ;; Hardware stack levels used: 1
  1569 ;; Hardware stack levels required when called: 13
  1570 ;; This function calls:
  1571 ;;		_gpio_pin_direction_intialize
  1572 ;;		_gpio_pin_write_logic
  1573 ;; This function is called by:
  1574 ;;		_CCP1_Init
  1575 ;;		_seven_segement_intialize
  1576 ;;		_lcd_4bit_intialize
  1577 ;;		_lcd_8bit_intialize
  1578 ;;		_led_initialize
  1579 ;; This function uses a non-reentrant model
  1580 ;;
  1581                           
  1582                           	psect	text4
  1583   002FF4                     __ptext4:
  1584                           	callstack 0
  1585   002FF4                     _gpio_pin_intialize:
  1586                           	callstack 15
  1587   002FF4                     
  1588                           ;MCAL_Layer/GPIO/hal_gpio.c: 161:     if(((void*)0) == _pin_config)
  1589   002FF4  5030               	movf	gpio_pin_intialize@_pin_config^0,w,c
  1590   002FF6  1031               	iorwf	(gpio_pin_intialize@_pin_config+1)^0,w,c
  1591   002FF8  A4D8               	btfss	status,2,c
  1592   002FFA  EF01  F018         	goto	u7481
  1593   002FFE  EF03  F018         	goto	u7480
  1594   003002                     u7481:
  1595   003002  EF07  F018         	goto	l6944
  1596   003006                     u7480:
  1597   003006                     
  1598                           ;MCAL_Layer/GPIO/hal_gpio.c: 162:     {;MCAL_Layer/GPIO/hal_gpio.c: 163:         ret = (
      +                          Std_ReturnType)0x00;
  1599   003006  0E00               	movlw	0
  1600   003008  6E32               	movwf	gpio_pin_intialize@ret^0,c
  1601                           
  1602                           ;MCAL_Layer/GPIO/hal_gpio.c: 164:     }
  1603   00300A  EF1D  F018         	goto	l6946
  1604   00300E                     l6944:
  1605                           
  1606                           ;MCAL_Layer/GPIO/hal_gpio.c: 166:     {;MCAL_Layer/GPIO/hal_gpio.c: 167:         ret = g
      +                          pio_pin_direction_intialize(_pin_config);
  1607   00300E  C030  F026         	movff	gpio_pin_intialize@_pin_config,gpio_pin_direction_intialize@_pin_config
  1608   003012  C031  F027         	movff	gpio_pin_intialize@_pin_config+1,gpio_pin_direction_intialize@_pin_config+1
  1609   003016  EC63  F013         	call	_gpio_pin_direction_intialize	;wreg free
  1610   00301A  6E32               	movwf	gpio_pin_intialize@ret^0,c
  1611                           
  1612                           ;MCAL_Layer/GPIO/hal_gpio.c: 168:         ret &= gpio_pin_write_logic(_pin_config ,_pin_
      +                          config->logic);
  1613   00301C  C030  F026         	movff	gpio_pin_intialize@_pin_config,gpio_pin_write_logic@_pin_config
  1614   003020  C031  F027         	movff	gpio_pin_intialize@_pin_config+1,gpio_pin_write_logic@_pin_config+1
  1615   003024  C030  FFD9         	movff	gpio_pin_intialize@_pin_config,fsr2l
  1616   003028  C031  FFDA         	movff	gpio_pin_intialize@_pin_config+1,fsr2h
  1617   00302C  0E00               	movlw	0
  1618   00302E  BEDF               	btfsc	indf2,7,c
  1619   003030  0E01               	movlw	1
  1620   003032  6E28               	movwf	gpio_pin_write_logic@logic^0,c
  1621   003034  EC05  F014         	call	_gpio_pin_write_logic	;wreg free
  1622   003038  1632               	andwf	gpio_pin_intialize@ret^0,f,c
  1623   00303A                     l6946:
  1624                           
  1625                           ;MCAL_Layer/GPIO/hal_gpio.c: 172:     return ret;
  1626   00303A  5032               	movf	gpio_pin_intialize@ret^0,w,c
  1627   00303C  0012               	return		;funcret
  1628   00303E                     __end_of_gpio_pin_intialize:
  1629                           	callstack 0
  1630                           
  1631 ;; *************** function _gpio_pin_write_logic *****************
  1632 ;; Defined at:
  1633 ;;		line 80 in file "MCAL_Layer/GPIO/hal_gpio.c"
  1634 ;; Parameters:    Size  Location     Type
  1635 ;;  _pin_config     2   37[COMRAM] PTR const struct .
  1636 ;;		 -> ccp1_obj(8), led_turn_off@pin_obj(1), led_turn_on@pin_obj(1), led_initialize@pin_obj(1), 
  1637 ;;  logic           1   39[COMRAM] enum E2968
  1638 ;; Auto vars:     Size  Location     Type
  1639 ;;  ret             1   46[COMRAM] unsigned char 
  1640 ;; Return value:  Size  Location     Type
  1641 ;;                  1    wreg      unsigned char 
  1642 ;; Registers used:
  1643 ;;		wreg, fsr2l, fsr2h, status,2, status,0, prodl, prodh
  1644 ;; Tracked objects:
  1645 ;;		On entry : 0/0
  1646 ;;		On exit  : 0/0
  1647 ;;		Unchanged: 0/0
  1648 ;; Data sizes:     COMRAM   BANK0   BANK1   BANK2   BANK3   BANK4   BANK5   BANK6   BANK7   BANK8   BANK9  BANK10  BANK1
      +1  BANK12  BANK13  BANK14  BANK15
  1649 ;;      Params:         3       0       0       0       0       0       0       0       0       0       0       0       
      +0       0       0       0       0
  1650 ;;      Locals:         1       0       0       0       0       0       0       0       0       0       0       0       
      +0       0       0       0       0
  1651 ;;      Temps:          6       0       0       0       0       0       0       0       0       0       0       0       
      +0       0       0       0       0
  1652 ;;      Totals:        10       0       0       0       0       0       0       0       0       0       0       0       
      +0       0       0       0       0
  1653 ;;Total ram usage:       10 bytes
  1654 ;; Hardware stack levels used: 1
  1655 ;; Hardware stack levels required when called: 12
  1656 ;; This function calls:
  1657 ;;		Nothing
  1658 ;; This function is called by:
  1659 ;;		_gpio_pin_intialize
  1660 ;;		_seven_segement_write_number
  1661 ;;		_lcd_4bit_send_command
  1662 ;;		_lcd_4bit_send_char_data
  1663 ;;		_lcd_8bit_send_command
  1664 ;;		_lcd_8bit_send_char_data
  1665 ;;		_lcd_send_4bits
  1666 ;;		_lcd_4bit_send_enable_signal
  1667 ;;		_lcd_8bit_send_enable_signal
  1668 ;;		_led_turn_on
  1669 ;;		_led_turn_off
  1670 ;; This function uses a non-reentrant model
  1671 ;;
  1672                           
  1673                           	psect	text5
  1674   00280A                     __ptext5:
  1675                           	callstack 0
  1676   00280A                     _gpio_pin_write_logic:
  1677                           	callstack 15
  1678   00280A                     
  1679                           ;MCAL_Layer/GPIO/hal_gpio.c: 81:     Std_ReturnType ret = (Std_ReturnType)0x01;
  1680   00280A  0E01               	movlw	1
  1681   00280C  6E2F               	movwf	gpio_pin_write_logic@ret^0,c
  1682   00280E                     
  1683                           ;MCAL_Layer/GPIO/hal_gpio.c: 82:     if(((void*)0) == _pin_config || _pin_config->pin > 
      +                          8 -1)
  1684   00280E  5026               	movf	gpio_pin_write_logic@_pin_config^0,w,c
  1685   002810  1027               	iorwf	(gpio_pin_write_logic@_pin_config+1)^0,w,c
  1686   002812  B4D8               	btfsc	status,2,c
  1687   002814  EF0E  F014         	goto	u7381
  1688   002818  EF10  F014         	goto	u7380
  1689   00281C                     u7381:
  1690   00281C  EF21  F014         	goto	l6896
  1691   002820                     u7380:
  1692   002820  C026  FFD9         	movff	gpio_pin_write_logic@_pin_config,fsr2l
  1693   002824  C027  FFDA         	movff	gpio_pin_write_logic@_pin_config+1,fsr2h
  1694   002828  30DF               	rrcf	223,w,c
  1695   00282A  32E8               	rrcf	wreg,f,c
  1696   00282C  32E8               	rrcf	wreg,f,c
  1697   00282E  0B07               	andlw	7
  1698   002830  6E29               	movwf	??_gpio_pin_write_logic^0,c
  1699   002832  0E07               	movlw	7
  1700   002834  6429               	cpfsgt	??_gpio_pin_write_logic^0,c
  1701   002836  EF1F  F014         	goto	u7391
  1702   00283A  EF21  F014         	goto	u7390
  1703   00283E                     u7391:
  1704   00283E  EF84  F014         	goto	l6904
  1705   002842                     u7390:
  1706   002842                     l6896:
  1707                           
  1708                           ;MCAL_Layer/GPIO/hal_gpio.c: 83:     {;MCAL_Layer/GPIO/hal_gpio.c: 84:         ret = (St
      +                          d_ReturnType)0x00;
  1709   002842  0E00               	movlw	0
  1710   002844  6E2F               	movwf	gpio_pin_write_logic@ret^0,c
  1711                           
  1712                           ;MCAL_Layer/GPIO/hal_gpio.c: 85:     }
  1713   002846  EF99  F014         	goto	l6906
  1714   00284A                     l6898:
  1715                           
  1716                           ;MCAL_Layer/GPIO/hal_gpio.c: 90:             (*lat_registers[_pin_config->port] &= ~((ui
      +                          nt8)1 << _pin_config->pin));
  1717   00284A  C026  FFD9         	movff	gpio_pin_write_logic@_pin_config,fsr2l
  1718   00284E  C027  FFDA         	movff	gpio_pin_write_logic@_pin_config+1,fsr2h
  1719   002852  30DF               	rrcf	223,w,c
  1720   002854  32E8               	rrcf	wreg,f,c
  1721   002856  32E8               	rrcf	wreg,f,c
  1722   002858  0B07               	andlw	7
  1723   00285A  6E29               	movwf	??_gpio_pin_write_logic^0,c
  1724   00285C  0E01               	movlw	1
  1725   00285E  6E2A               	movwf	(??_gpio_pin_write_logic+1)^0,c
  1726   002860  2A29               	incf	??_gpio_pin_write_logic^0,f,c
  1727   002862  EF35  F014         	goto	u7404
  1728   002866                     u7405:
  1729   002866  90D8               	bcf	status,0,c
  1730   002868  362A               	rlcf	(??_gpio_pin_write_logic+1)^0,f,c
  1731   00286A                     u7404:
  1732   00286A  2E29               	decfsz	??_gpio_pin_write_logic^0,f,c
  1733   00286C  EF33  F014         	goto	u7405
  1734   002870  502A               	movf	(??_gpio_pin_write_logic+1)^0,w,c
  1735   002872  0AFF               	xorlw	255
  1736   002874  6E2B               	movwf	(??_gpio_pin_write_logic+2)^0,c
  1737   002876  C026  FFD9         	movff	gpio_pin_write_logic@_pin_config,fsr2l
  1738   00287A  C027  FFDA         	movff	gpio_pin_write_logic@_pin_config+1,fsr2h
  1739   00287E  50DF               	movf	223,w,c
  1740   002880  0B07               	andlw	7
  1741   002882  6E2C               	movwf	(??_gpio_pin_write_logic+3)^0,c
  1742   002884  502C               	movf	(??_gpio_pin_write_logic+3)^0,w,c
  1743   002886  0D02               	mullw	2
  1744   002888  0EB8               	movlw	low _lat_registers
  1745   00288A  24F3               	addwf	243,w,c
  1746   00288C  6ED9               	movwf	fsr2l,c
  1747   00288E  0E00               	movlw	high _lat_registers
  1748   002890  20F4               	addwfc	prodh,w,c
  1749   002892  6EDA               	movwf	fsr2h,c
  1750   002894  CFDE F02D          	movff	postinc2,??_gpio_pin_write_logic+4
  1751   002898  CFDD F02E          	movff	postdec2,??_gpio_pin_write_logic+5
  1752   00289C  C02D  FFD9         	movff	??_gpio_pin_write_logic+4,fsr2l
  1753   0028A0  C02E  FFDA         	movff	??_gpio_pin_write_logic+5,fsr2h
  1754   0028A4  502B               	movf	(??_gpio_pin_write_logic+2)^0,w,c
  1755   0028A6  16DF               	andwf	indf2,f,c
  1756                           
  1757                           ;MCAL_Layer/GPIO/hal_gpio.c: 91:             break;
  1758   0028A8  EF99  F014         	goto	l6906
  1759   0028AC                     l6900:
  1760                           
  1761                           ;MCAL_Layer/GPIO/hal_gpio.c: 93:             (*lat_registers[_pin_config->port] |= ((uin
      +                          t8)1 << _pin_config->pin));
  1762   0028AC  C026  FFD9         	movff	gpio_pin_write_logic@_pin_config,fsr2l
  1763   0028B0  C027  FFDA         	movff	gpio_pin_write_logic@_pin_config+1,fsr2h
  1764   0028B4  30DF               	rrcf	223,w,c
  1765   0028B6  32E8               	rrcf	wreg,f,c
  1766   0028B8  32E8               	rrcf	wreg,f,c
  1767   0028BA  0B07               	andlw	7
  1768   0028BC  6E29               	movwf	??_gpio_pin_write_logic^0,c
  1769   0028BE  0E01               	movlw	1
  1770   0028C0  6E2A               	movwf	(??_gpio_pin_write_logic+1)^0,c
  1771   0028C2  2A29               	incf	??_gpio_pin_write_logic^0,f,c
  1772   0028C4  EF66  F014         	goto	u7414
  1773   0028C8                     u7415:
  1774   0028C8  90D8               	bcf	status,0,c
  1775   0028CA  362A               	rlcf	(??_gpio_pin_write_logic+1)^0,f,c
  1776   0028CC                     u7414:
  1777   0028CC  2E29               	decfsz	??_gpio_pin_write_logic^0,f,c
  1778   0028CE  EF64  F014         	goto	u7415
  1779   0028D2  C026  FFD9         	movff	gpio_pin_write_logic@_pin_config,fsr2l
  1780   0028D6  C027  FFDA         	movff	gpio_pin_write_logic@_pin_config+1,fsr2h
  1781   0028DA  50DF               	movf	223,w,c
  1782   0028DC  0B07               	andlw	7
  1783   0028DE  6E2B               	movwf	(??_gpio_pin_write_logic+2)^0,c
  1784   0028E0  502B               	movf	(??_gpio_pin_write_logic+2)^0,w,c
  1785   0028E2  0D02               	mullw	2
  1786   0028E4  0EB8               	movlw	low _lat_registers
  1787   0028E6  24F3               	addwf	243,w,c
  1788   0028E8  6ED9               	movwf	fsr2l,c
  1789   0028EA  0E00               	movlw	high _lat_registers
  1790   0028EC  20F4               	addwfc	prodh,w,c
  1791   0028EE  6EDA               	movwf	fsr2h,c
  1792   0028F0  CFDE F02C          	movff	postinc2,??_gpio_pin_write_logic+3
  1793   0028F4  CFDD F02D          	movff	postdec2,??_gpio_pin_write_logic+4
  1794   0028F8  C02C  FFD9         	movff	??_gpio_pin_write_logic+3,fsr2l
  1795   0028FC  C02D  FFDA         	movff	??_gpio_pin_write_logic+4,fsr2h
  1796   002900  502A               	movf	(??_gpio_pin_write_logic+1)^0,w,c
  1797   002902  12DF               	iorwf	indf2,f,c
  1798                           
  1799                           ;MCAL_Layer/GPIO/hal_gpio.c: 94:             break;
  1800   002904  EF99  F014         	goto	l6906
  1801   002908                     l6904:
  1802   002908  5028               	movf	gpio_pin_write_logic@logic^0,w,c
  1803   00290A  6E29               	movwf	??_gpio_pin_write_logic^0,c
  1804   00290C  6A2A               	clrf	(??_gpio_pin_write_logic+1)^0,c
  1805                           
  1806                           ; Switch on 2 bytes has been partitioned into a top level switch of size 1, and 1 sub-sw
      +                          itches
  1807                           ; Switch size 1, requested type "simple"
  1808                           ; Number of cases is 1, Range of values is 0 to 0
  1809                           ; switch strategies available:
  1810                           ; Name         Instructions Cycles
  1811                           ; simple_byte            4     3 (average)
  1812                           ;	Chosen strategy is simple_byte
  1813   00290E  502A               	movf	(??_gpio_pin_write_logic+1)^0,w,c
  1814   002910  0A00               	xorlw	0	; case 0
  1815   002912  B4D8               	btfsc	status,2,c
  1816   002914  EF8E  F014         	goto	l8186
  1817   002918  EF21  F014         	goto	l6896
  1818   00291C                     l8186:
  1819                           
  1820                           ; Switch size 1, requested type "simple"
  1821                           ; Number of cases is 2, Range of values is 0 to 1
  1822                           ; switch strategies available:
  1823                           ; Name         Instructions Cycles
  1824                           ; simple_byte            7     4 (average)
  1825                           ;	Chosen strategy is simple_byte
  1826   00291C  5029               	movf	??_gpio_pin_write_logic^0,w,c
  1827   00291E  0A00               	xorlw	0	; case 0
  1828   002920  B4D8               	btfsc	status,2,c
  1829   002922  EF25  F014         	goto	l6898
  1830   002926  0A01               	xorlw	1	; case 1
  1831   002928  B4D8               	btfsc	status,2,c
  1832   00292A  EF56  F014         	goto	l6900
  1833   00292E  EF21  F014         	goto	l6896
  1834   002932                     l6906:
  1835                           
  1836                           ;MCAL_Layer/GPIO/hal_gpio.c: 100:     return ret;
  1837   002932  502F               	movf	gpio_pin_write_logic@ret^0,w,c
  1838   002934  0012               	return		;funcret
  1839   002936                     __end_of_gpio_pin_write_logic:
  1840                           	callstack 0
  1841                           
  1842 ;; *************** function _gpio_pin_direction_intialize *****************
  1843 ;; Defined at:
  1844 ;;		line 22 in file "MCAL_Layer/GPIO/hal_gpio.c"
  1845 ;; Parameters:    Size  Location     Type
  1846 ;;  _pin_config     2   37[COMRAM] PTR const struct .
  1847 ;;		 -> ccp1_obj(8), led_initialize@pin_obj(1), 
  1848 ;; Auto vars:     Size  Location     Type
  1849 ;;  ret             1   45[COMRAM] unsigned char 
  1850 ;; Return value:  Size  Location     Type
  1851 ;;                  1    wreg      unsigned char 
  1852 ;; Registers used:
  1853 ;;		wreg, fsr2l, fsr2h, status,2, status,0, prodl, prodh
  1854 ;; Tracked objects:
  1855 ;;		On entry : 0/0
  1856 ;;		On exit  : 0/0
  1857 ;;		Unchanged: 0/0
  1858 ;; Data sizes:     COMRAM   BANK0   BANK1   BANK2   BANK3   BANK4   BANK5   BANK6   BANK7   BANK8   BANK9  BANK10  BANK1
      +1  BANK12  BANK13  BANK14  BANK15
  1859 ;;      Params:         2       0       0       0       0       0       0       0       0       0       0       0       
      +0       0       0       0       0
  1860 ;;      Locals:         1       0       0       0       0       0       0       0       0       0       0       0       
      +0       0       0       0       0
  1861 ;;      Temps:          6       0       0       0       0       0       0       0       0       0       0       0       
      +0       0       0       0       0
  1862 ;;      Totals:         9       0       0       0       0       0       0       0       0       0       0       0       
      +0       0       0       0       0
  1863 ;;Total ram usage:        9 bytes
  1864 ;; Hardware stack levels used: 1
  1865 ;; Hardware stack levels required when called: 12
  1866 ;; This function calls:
  1867 ;;		Nothing
  1868 ;; This function is called by:
  1869 ;;		_gpio_pin_intialize
  1870 ;;		_button_initialize
  1871 ;;		_Interrupt_RBx_Init
  1872 ;;		_Interrupt_INTx_Pin_Init
  1873 ;;		_Interrupt_RBx_Pin_Init
  1874 ;; This function uses a non-reentrant model
  1875 ;;
  1876                           
  1877                           	psect	text6
  1878   0026C6                     __ptext6:
  1879                           	callstack 0
  1880   0026C6                     _gpio_pin_direction_intialize:
  1881                           	callstack 15
  1882   0026C6                     
  1883                           ;MCAL_Layer/GPIO/hal_gpio.c: 23:     Std_ReturnType ret = (Std_ReturnType)0x01;
  1884   0026C6  0E01               	movlw	1
  1885   0026C8  6E2E               	movwf	gpio_pin_direction_intialize@ret^0,c
  1886   0026CA                     
  1887                           ;MCAL_Layer/GPIO/hal_gpio.c: 24:     if(((void*)0) == _pin_config || _pin_config->pin > 
      +                          8 -1)
  1888   0026CA  5026               	movf	gpio_pin_direction_intialize@_pin_config^0,w,c
  1889   0026CC  1027               	iorwf	(gpio_pin_direction_intialize@_pin_config+1)^0,w,c
  1890   0026CE  B4D8               	btfsc	status,2,c
  1891   0026D0  EF6C  F013         	goto	u7421
  1892   0026D4  EF6E  F013         	goto	u7420
  1893   0026D8                     u7421:
  1894   0026D8  EF7F  F013         	goto	l6920
  1895   0026DC                     u7420:
  1896   0026DC  C026  FFD9         	movff	gpio_pin_direction_intialize@_pin_config,fsr2l
  1897   0026E0  C027  FFDA         	movff	gpio_pin_direction_intialize@_pin_config+1,fsr2h
  1898   0026E4  30DF               	rrcf	223,w,c
  1899   0026E6  32E8               	rrcf	wreg,f,c
  1900   0026E8  32E8               	rrcf	wreg,f,c
  1901   0026EA  0B07               	andlw	7
  1902   0026EC  6E28               	movwf	??_gpio_pin_direction_intialize^0,c
  1903   0026EE  0E07               	movlw	7
  1904   0026F0  6428               	cpfsgt	??_gpio_pin_direction_intialize^0,c
  1905   0026F2  EF7D  F013         	goto	u7431
  1906   0026F6  EF7F  F013         	goto	u7430
  1907   0026FA                     u7431:
  1908   0026FA  EFE2  F013         	goto	l6928
  1909   0026FE                     u7430:
  1910   0026FE                     l6920:
  1911                           
  1912                           ;MCAL_Layer/GPIO/hal_gpio.c: 25:     {;MCAL_Layer/GPIO/hal_gpio.c: 26:         ret = (St
      +                          d_ReturnType)0x00;
  1913   0026FE  0E00               	movlw	0
  1914   002700  6E2E               	movwf	gpio_pin_direction_intialize@ret^0,c
  1915                           
  1916                           ;MCAL_Layer/GPIO/hal_gpio.c: 27:     }
  1917   002702  EF03  F014         	goto	l6930
  1918   002706                     l6922:
  1919                           
  1920                           ;MCAL_Layer/GPIO/hal_gpio.c: 32:             (*tris_registers[_pin_config->port] &= ~((u
      +                          int8)1 << _pin_config->pin));
  1921   002706  C026  FFD9         	movff	gpio_pin_direction_intialize@_pin_config,fsr2l
  1922   00270A  C027  FFDA         	movff	gpio_pin_direction_intialize@_pin_config+1,fsr2h
  1923   00270E  30DF               	rrcf	223,w,c
  1924   002710  32E8               	rrcf	wreg,f,c
  1925   002712  32E8               	rrcf	wreg,f,c
  1926   002714  0B07               	andlw	7
  1927   002716  6E28               	movwf	??_gpio_pin_direction_intialize^0,c
  1928   002718  0E01               	movlw	1
  1929   00271A  6E29               	movwf	(??_gpio_pin_direction_intialize+1)^0,c
  1930   00271C  2A28               	incf	??_gpio_pin_direction_intialize^0,f,c
  1931   00271E  EF93  F013         	goto	u7444
  1932   002722                     u7445:
  1933   002722  90D8               	bcf	status,0,c
  1934   002724  3629               	rlcf	(??_gpio_pin_direction_intialize+1)^0,f,c
  1935   002726                     u7444:
  1936   002726  2E28               	decfsz	??_gpio_pin_direction_intialize^0,f,c
  1937   002728  EF91  F013         	goto	u7445
  1938   00272C  5029               	movf	(??_gpio_pin_direction_intialize+1)^0,w,c
  1939   00272E  0AFF               	xorlw	255
  1940   002730  6E2A               	movwf	(??_gpio_pin_direction_intialize+2)^0,c
  1941   002732  C026  FFD9         	movff	gpio_pin_direction_intialize@_pin_config,fsr2l
  1942   002736  C027  FFDA         	movff	gpio_pin_direction_intialize@_pin_config+1,fsr2h
  1943   00273A  50DF               	movf	223,w,c
  1944   00273C  0B07               	andlw	7
  1945   00273E  6E2B               	movwf	(??_gpio_pin_direction_intialize+3)^0,c
  1946   002740  502B               	movf	(??_gpio_pin_direction_intialize+3)^0,w,c
  1947   002742  0D02               	mullw	2
  1948   002744  0EC2               	movlw	low _tris_registers
  1949   002746  24F3               	addwf	243,w,c
  1950   002748  6ED9               	movwf	fsr2l,c
  1951   00274A  0E00               	movlw	high _tris_registers
  1952   00274C  20F4               	addwfc	prodh,w,c
  1953   00274E  6EDA               	movwf	fsr2h,c
  1954   002750  CFDE F02C          	movff	postinc2,??_gpio_pin_direction_intialize+4
  1955   002754  CFDD F02D          	movff	postdec2,??_gpio_pin_direction_intialize+5
  1956   002758  C02C  FFD9         	movff	??_gpio_pin_direction_intialize+4,fsr2l
  1957   00275C  C02D  FFDA         	movff	??_gpio_pin_direction_intialize+5,fsr2h
  1958   002760  502A               	movf	(??_gpio_pin_direction_intialize+2)^0,w,c
  1959   002762  16DF               	andwf	indf2,f,c
  1960                           
  1961                           ;MCAL_Layer/GPIO/hal_gpio.c: 33:             break;
  1962   002764  EF03  F014         	goto	l6930
  1963   002768                     l6924:
  1964                           
  1965                           ;MCAL_Layer/GPIO/hal_gpio.c: 35:             (*tris_registers[_pin_config->port] |= ((ui
      +                          nt8)1 << _pin_config->pin));
  1966   002768  C026  FFD9         	movff	gpio_pin_direction_intialize@_pin_config,fsr2l
  1967   00276C  C027  FFDA         	movff	gpio_pin_direction_intialize@_pin_config+1,fsr2h
  1968   002770  30DF               	rrcf	223,w,c
  1969   002772  32E8               	rrcf	wreg,f,c
  1970   002774  32E8               	rrcf	wreg,f,c
  1971   002776  0B07               	andlw	7
  1972   002778  6E28               	movwf	??_gpio_pin_direction_intialize^0,c
  1973   00277A  0E01               	movlw	1
  1974   00277C  6E29               	movwf	(??_gpio_pin_direction_intialize+1)^0,c
  1975   00277E  2A28               	incf	??_gpio_pin_direction_intialize^0,f,c
  1976   002780  EFC4  F013         	goto	u7454
  1977   002784                     u7455:
  1978   002784  90D8               	bcf	status,0,c
  1979   002786  3629               	rlcf	(??_gpio_pin_direction_intialize+1)^0,f,c
  1980   002788                     u7454:
  1981   002788  2E28               	decfsz	??_gpio_pin_direction_intialize^0,f,c
  1982   00278A  EFC2  F013         	goto	u7455
  1983   00278E  C026  FFD9         	movff	gpio_pin_direction_intialize@_pin_config,fsr2l
  1984   002792  C027  FFDA         	movff	gpio_pin_direction_intialize@_pin_config+1,fsr2h
  1985   002796  50DF               	movf	223,w,c
  1986   002798  0B07               	andlw	7
  1987   00279A  6E2A               	movwf	(??_gpio_pin_direction_intialize+2)^0,c
  1988   00279C  502A               	movf	(??_gpio_pin_direction_intialize+2)^0,w,c
  1989   00279E  0D02               	mullw	2
  1990   0027A0  0EC2               	movlw	low _tris_registers
  1991   0027A2  24F3               	addwf	243,w,c
  1992   0027A4  6ED9               	movwf	fsr2l,c
  1993   0027A6  0E00               	movlw	high _tris_registers
  1994   0027A8  20F4               	addwfc	prodh,w,c
  1995   0027AA  6EDA               	movwf	fsr2h,c
  1996   0027AC  CFDE F02B          	movff	postinc2,??_gpio_pin_direction_intialize+3
  1997   0027B0  CFDD F02C          	movff	postdec2,??_gpio_pin_direction_intialize+4
  1998   0027B4  C02B  FFD9         	movff	??_gpio_pin_direction_intialize+3,fsr2l
  1999   0027B8  C02C  FFDA         	movff	??_gpio_pin_direction_intialize+4,fsr2h
  2000   0027BC  5029               	movf	(??_gpio_pin_direction_intialize+1)^0,w,c
  2001   0027BE  12DF               	iorwf	indf2,f,c
  2002                           
  2003                           ;MCAL_Layer/GPIO/hal_gpio.c: 36:             break;
  2004   0027C0  EF03  F014         	goto	l6930
  2005   0027C4                     l6928:
  2006   0027C4  C026  FFD9         	movff	gpio_pin_direction_intialize@_pin_config,fsr2l
  2007   0027C8  C027  FFDA         	movff	gpio_pin_direction_intialize@_pin_config+1,fsr2h
  2008   0027CC  BCDF               	btfsc	indf2,6,c
  2009   0027CE  EFEB  F013         	goto	u7461
  2010   0027D2  EFEE  F013         	goto	u7460
  2011   0027D6                     u7461:
  2012   0027D6  0E01               	movlw	1
  2013   0027D8  EFEF  F013         	goto	u7470
  2014   0027DC                     u7460:
  2015   0027DC  0E00               	movlw	0
  2016   0027DE                     u7470:
  2017   0027DE  6E28               	movwf	??_gpio_pin_direction_intialize^0,c
  2018   0027E0  6A29               	clrf	(??_gpio_pin_direction_intialize+1)^0,c
  2019                           
  2020                           ; Switch on 2 bytes has been partitioned into a top level switch of size 1, and 1 sub-sw
      +                          itches
  2021                           ; Switch size 1, requested type "simple"
  2022                           ; Number of cases is 1, Range of values is 0 to 0
  2023                           ; switch strategies available:
  2024                           ; Name         Instructions Cycles
  2025                           ; simple_byte            4     3 (average)
  2026                           ;	Chosen strategy is simple_byte
  2027   0027E2  5029               	movf	(??_gpio_pin_direction_intialize+1)^0,w,c
  2028   0027E4  0A00               	xorlw	0	; case 0
  2029   0027E6  B4D8               	btfsc	status,2,c
  2030   0027E8  EFF8  F013         	goto	l8188
  2031   0027EC  EF7F  F013         	goto	l6920
  2032   0027F0                     l8188:
  2033                           
  2034                           ; Switch size 1, requested type "simple"
  2035                           ; Number of cases is 2, Range of values is 0 to 1
  2036                           ; switch strategies available:
  2037                           ; Name         Instructions Cycles
  2038                           ; simple_byte            7     4 (average)
  2039                           ;	Chosen strategy is simple_byte
  2040   0027F0  5028               	movf	??_gpio_pin_direction_intialize^0,w,c
  2041   0027F2  0A00               	xorlw	0	; case 0
  2042   0027F4  B4D8               	btfsc	status,2,c
  2043   0027F6  EF83  F013         	goto	l6922
  2044   0027FA  0A01               	xorlw	1	; case 1
  2045   0027FC  B4D8               	btfsc	status,2,c
  2046   0027FE  EFB4  F013         	goto	l6924
  2047   002802  EF7F  F013         	goto	l6920
  2048   002806                     l6930:
  2049                           
  2050                           ;MCAL_Layer/GPIO/hal_gpio.c: 43:     return ret;
  2051   002806  502E               	movf	gpio_pin_direction_intialize@ret^0,w,c
  2052   002808  0012               	return		;funcret
  2053   00280A                     __end_of_gpio_pin_direction_intialize:
  2054                           	callstack 0
  2055                           
  2056 ;; *************** function ___fladd *****************
  2057 ;; Defined at:
  2058 ;;		line 10 in file "C:\Program Files\Microchip\xc8\v2.41\pic\sources\c99\common\sprcadd.c"
  2059 ;; Parameters:    Size  Location     Type
  2060 ;;  b               4    0[BANK1 ] unsigned char 
  2061 ;;  a               4    4[BANK1 ] unsigned char 
  2062 ;; Auto vars:     Size  Location     Type
  2063 ;;  grs             1   11[BANK1 ] unsigned char 
  2064 ;;  bexp            1   10[BANK1 ] unsigned char 
  2065 ;;  aexp            1    9[BANK1 ] unsigned char 
  2066 ;;  signs           1    8[BANK1 ] unsigned char 
  2067 ;; Return value:  Size  Location     Type
  2068 ;;                  4    0[BANK1 ] unsigned char 
  2069 ;; Registers used:
  2070 ;;		wreg, status,2, status,0
  2071 ;; Tracked objects:
  2072 ;;		On entry : 0/0
  2073 ;;		On exit  : 0/0
  2074 ;;		Unchanged: 0/0
  2075 ;; Data sizes:     COMRAM   BANK0   BANK1   BANK2   BANK3   BANK4   BANK5   BANK6   BANK7   BANK8   BANK9  BANK10  BANK1
      +1  BANK12  BANK13  BANK14  BANK15
  2076 ;;      Params:         0       0       8       0       0       0       0       0       0       0       0       0       
      +0       0       0       0       0
  2077 ;;      Locals:         0       0       4       0       0       0       0       0       0       0       0       0       
      +0       0       0       0       0
  2078 ;;      Temps:          0       4       0       0       0       0       0       0       0       0       0       0       
      +0       0       0       0       0
  2079 ;;      Totals:         0       4      12       0       0       0       0       0       0       0       0       0       
      +0       0       0       0       0
  2080 ;;Total ram usage:       16 bytes
  2081 ;; Hardware stack levels used: 1
  2082 ;; Hardware stack levels required when called: 12
  2083 ;; This function calls:
  2084 ;;		Nothing
  2085 ;; This function is called by:
  2086 ;;		_CCP1_Init
  2087 ;; This function uses a non-reentrant model
  2088 ;;
  2089                           
  2090                           	psect	text7
  2091   001006                     __ptext7:
  2092                           	callstack 0
  2093   001006                     ___fladd:
  2094                           	callstack 16
  2095   001006  0101               	movlb	1	; () banked
  2096   001008  5103               	movf	(___fladd@b+3)& (0+255),w,b
  2097   00100A  0B80               	andlw	128
  2098   00100C  6F08               	movwf	___fladd@signs& (0+255),b
  2099   00100E  5103               	movf	(___fladd@b+3)& (0+255),w,b
  2100   001010  2503               	addwf	(___fladd@b+3)& (0+255),w,b
  2101   001012  6F0A               	movwf	___fladd@bexp& (0+255),b
  2102   001014                     
  2103                           ; BSR set to: 1
  2104   001014  AF02               	btfss	(___fladd@b+2)& (0+255),7,b
  2105   001016  EF0F  F008         	goto	u7491
  2106   00101A  EF11  F008         	goto	u7490
  2107   00101E                     u7491:
  2108   00101E  EF12  F008         	goto	l6956
  2109   001022                     u7490:
  2110   001022                     
  2111                           ; BSR set to: 1
  2112   001022  810A               	bsf	___fladd@bexp& (0+255),0,b
  2113   001024                     l6956:
  2114                           
  2115                           ; BSR set to: 1
  2116   001024  510A               	movf	___fladd@bexp& (0+255),w,b
  2117   001026  B4D8               	btfsc	status,2,c
  2118   001028  EF18  F008         	goto	u7501
  2119   00102C  EF1A  F008         	goto	u7500
  2120   001030                     u7501:
  2121   001030  EF2F  F008         	goto	l6966
  2122   001034                     u7500:
  2123   001034                     
  2124                           ; BSR set to: 1
  2125   001034  290A               	incf	___fladd@bexp& (0+255),w,b
  2126   001036  A4D8               	btfss	status,2,c
  2127   001038  EF20  F008         	goto	u7511
  2128   00103C  EF22  F008         	goto	u7510
  2129   001040                     u7511:
  2130   001040  EF2A  F008         	goto	l6962
  2131   001044                     u7510:
  2132   001044                     
  2133                           ; BSR set to: 1
  2134   001044  0E00               	movlw	0
  2135   001046  6F00               	movwf	___fladd@b& (0+255),b
  2136   001048  0E00               	movlw	0
  2137   00104A  6F01               	movwf	(___fladd@b+1)& (0+255),b
  2138   00104C  0E00               	movlw	0
  2139   00104E  6F02               	movwf	(___fladd@b+2)& (0+255),b
  2140   001050  0E00               	movlw	0
  2141   001052  6F03               	movwf	(___fladd@b+3)& (0+255),b
  2142   001054                     l6962:
  2143                           
  2144                           ; BSR set to: 1
  2145   001054  8F02               	bsf	(___fladd@b+2)& (0+255),7,b
  2146   001056                     
  2147                           ; BSR set to: 1
  2148   001056  0E00               	movlw	0
  2149   001058  6F03               	movwf	(___fladd@b+3)& (0+255),b
  2150   00105A  EF37  F008         	goto	l6968
  2151   00105E                     l6966:
  2152                           
  2153                           ; BSR set to: 1
  2154   00105E  0E00               	movlw	0
  2155   001060  6F00               	movwf	___fladd@b& (0+255),b
  2156   001062  0E00               	movlw	0
  2157   001064  6F01               	movwf	(___fladd@b+1)& (0+255),b
  2158   001066  0E00               	movlw	0
  2159   001068  6F02               	movwf	(___fladd@b+2)& (0+255),b
  2160   00106A  0E00               	movlw	0
  2161   00106C  6F03               	movwf	(___fladd@b+3)& (0+255),b
  2162   00106E                     l6968:
  2163                           
  2164                           ; BSR set to: 1
  2165   00106E  5107               	movf	(___fladd@a+3)& (0+255),w,b
  2166   001070  0B80               	andlw	128
  2167   001072  6F09               	movwf	___fladd@aexp& (0+255),b
  2168   001074                     
  2169                           ; BSR set to: 1
  2170   001074  5108               	movf	___fladd@signs& (0+255),w,b
  2171   001076  1909               	xorwf	___fladd@aexp& (0+255),w,b
  2172   001078  B4D8               	btfsc	status,2,c
  2173   00107A  EF41  F008         	goto	u7521
  2174   00107E  EF43  F008         	goto	u7520
  2175   001082                     u7521:
  2176   001082  EF44  F008         	goto	l6974
  2177   001086                     u7520:
  2178   001086                     
  2179                           ; BSR set to: 1
  2180   001086  8D08               	bsf	___fladd@signs& (0+255),6,b
  2181   001088                     l6974:
  2182                           
  2183                           ; BSR set to: 1
  2184   001088  5107               	movf	(___fladd@a+3)& (0+255),w,b
  2185   00108A  2507               	addwf	(___fladd@a+3)& (0+255),w,b
  2186   00108C  6F09               	movwf	___fladd@aexp& (0+255),b
  2187   00108E                     
  2188                           ; BSR set to: 1
  2189   00108E  AF06               	btfss	(___fladd@a+2)& (0+255),7,b
  2190   001090  EF4C  F008         	goto	u7531
  2191   001094  EF4E  F008         	goto	u7530
  2192   001098                     u7531:
  2193   001098  EF4F  F008         	goto	l6980
  2194   00109C                     u7530:
  2195   00109C                     
  2196                           ; BSR set to: 1
  2197   00109C  8109               	bsf	___fladd@aexp& (0+255),0,b
  2198   00109E                     l6980:
  2199                           
  2200                           ; BSR set to: 1
  2201   00109E  5109               	movf	___fladd@aexp& (0+255),w,b
  2202   0010A0  B4D8               	btfsc	status,2,c
  2203   0010A2  EF55  F008         	goto	u7541
  2204   0010A6  EF57  F008         	goto	u7540
  2205   0010AA                     u7541:
  2206   0010AA  EF6C  F008         	goto	l6990
  2207   0010AE                     u7540:
  2208   0010AE                     
  2209                           ; BSR set to: 1
  2210   0010AE  2909               	incf	___fladd@aexp& (0+255),w,b
  2211   0010B0  A4D8               	btfss	status,2,c
  2212   0010B2  EF5D  F008         	goto	u7551
  2213   0010B6  EF5F  F008         	goto	u7550
  2214   0010BA                     u7551:
  2215   0010BA  EF67  F008         	goto	l6986
  2216   0010BE                     u7550:
  2217   0010BE                     
  2218                           ; BSR set to: 1
  2219   0010BE  0E00               	movlw	0
  2220   0010C0  6F04               	movwf	___fladd@a& (0+255),b
  2221   0010C2  0E00               	movlw	0
  2222   0010C4  6F05               	movwf	(___fladd@a+1)& (0+255),b
  2223   0010C6  0E00               	movlw	0
  2224   0010C8  6F06               	movwf	(___fladd@a+2)& (0+255),b
  2225   0010CA  0E00               	movlw	0
  2226   0010CC  6F07               	movwf	(___fladd@a+3)& (0+255),b
  2227   0010CE                     l6986:
  2228                           
  2229                           ; BSR set to: 1
  2230   0010CE  8F06               	bsf	(___fladd@a+2)& (0+255),7,b
  2231   0010D0                     
  2232                           ; BSR set to: 1
  2233   0010D0  0E00               	movlw	0
  2234   0010D2  6F07               	movwf	(___fladd@a+3)& (0+255),b
  2235   0010D4  EF74  F008         	goto	l6992
  2236   0010D8                     l6990:
  2237                           
  2238                           ; BSR set to: 1
  2239   0010D8  0E00               	movlw	0
  2240   0010DA  6F04               	movwf	___fladd@a& (0+255),b
  2241   0010DC  0E00               	movlw	0
  2242   0010DE  6F05               	movwf	(___fladd@a+1)& (0+255),b
  2243   0010E0  0E00               	movlw	0
  2244   0010E2  6F06               	movwf	(___fladd@a+2)& (0+255),b
  2245   0010E4  0E00               	movlw	0
  2246   0010E6  6F07               	movwf	(___fladd@a+3)& (0+255),b
  2247   0010E8                     l6992:
  2248                           
  2249                           ; BSR set to: 1
  2250   0010E8  510A               	movf	___fladd@bexp& (0+255),w,b
  2251   0010EA  5D09               	subwf	___fladd@aexp& (0+255),w,b
  2252   0010EC  B0D8               	btfsc	status,0,c
  2253   0010EE  EF7B  F008         	goto	u7561
  2254   0010F2  EF7D  F008         	goto	u7560
  2255   0010F6                     u7561:
  2256   0010F6  EFA4  F008         	goto	l7028
  2257   0010FA                     u7560:
  2258   0010FA                     
  2259                           ; BSR set to: 1
  2260   0010FA  AD08               	btfss	___fladd@signs& (0+255),6,b
  2261   0010FC  EF82  F008         	goto	u7571
  2262   001100  EF84  F008         	goto	u7570
  2263   001104                     u7571:
  2264   001104  EF86  F008         	goto	l6998
  2265   001108                     u7570:
  2266   001108                     
  2267                           ; BSR set to: 1
  2268   001108  0E80               	movlw	128
  2269   00110A  1B08               	xorwf	___fladd@signs& (0+255),f,b
  2270   00110C                     l6998:
  2271                           
  2272                           ; BSR set to: 1
  2273   00110C  C10A  F10B         	movff	___fladd@bexp,___fladd@grs
  2274   001110                     
  2275                           ; BSR set to: 1
  2276   001110  C109  F10A         	movff	___fladd@aexp,___fladd@bexp
  2277   001114                     
  2278                           ; BSR set to: 1
  2279   001114  C10B  F109         	movff	___fladd@grs,___fladd@aexp
  2280   001118                     
  2281                           ; BSR set to: 1
  2282   001118  C100  F10B         	movff	___fladd@b,___fladd@grs
  2283   00111C                     
  2284                           ; BSR set to: 1
  2285   00111C  C104  F100         	movff	___fladd@a,___fladd@b
  2286   001120                     
  2287                           ; BSR set to: 1
  2288   001120  C10B  F104         	movff	___fladd@grs,___fladd@a
  2289   001124                     
  2290                           ; BSR set to: 1
  2291   001124  C101  F10B         	movff	___fladd@b+1,___fladd@grs
  2292   001128                     
  2293                           ; BSR set to: 1
  2294   001128  C105  F101         	movff	___fladd@a+1,___fladd@b+1
  2295   00112C                     
  2296                           ; BSR set to: 1
  2297   00112C  C10B  F105         	movff	___fladd@grs,___fladd@a+1
  2298   001130                     
  2299                           ; BSR set to: 1
  2300   001130  C102  F10B         	movff	___fladd@b+2,___fladd@grs
  2301   001134                     
  2302                           ; BSR set to: 1
  2303   001134  C106  F102         	movff	___fladd@a+2,___fladd@b+2
  2304   001138                     
  2305                           ; BSR set to: 1
  2306   001138  C10B  F106         	movff	___fladd@grs,___fladd@a+2
  2307   00113C                     
  2308                           ; BSR set to: 1
  2309   00113C  C103  F10B         	movff	___fladd@b+3,___fladd@grs
  2310   001140                     
  2311                           ; BSR set to: 1
  2312   001140  C107  F103         	movff	___fladd@a+3,___fladd@b+3
  2313   001144                     
  2314                           ; BSR set to: 1
  2315   001144  C10B  F107         	movff	___fladd@grs,___fladd@a+3
  2316   001148                     l7028:
  2317                           
  2318                           ; BSR set to: 1
  2319   001148  0E00               	movlw	0
  2320   00114A  6F0B               	movwf	___fladd@grs& (0+255),b
  2321   00114C                     
  2322                           ; BSR set to: 1
  2323   00114C  510A               	movf	___fladd@bexp& (0+255),w,b
  2324   00114E  C109  F0B2         	movff	___fladd@aexp,??___fladd
  2325   001152  0100               	movlb	0	; () banked
  2326   001154  6BB3               	clrf	(??___fladd+1)& (0+255),b
  2327   001156  5FB2               	subwf	??___fladd& (0+255),f,b
  2328   001158  0E00               	movlw	0
  2329   00115A  5BB3               	subwfb	(??___fladd+1)& (0+255),f,b
  2330   00115C  BFB3               	btfsc	(??___fladd+1)& (0+255),7,b
  2331   00115E  EFBA  F008         	goto	u7581
  2332   001162  51B3               	movf	(??___fladd+1)& (0+255),w,b
  2333   001164  E109               	bnz	u7580
  2334   001166  0E1A               	movlw	26
  2335   001168  5DB2               	subwf	??___fladd& (0+255),w,b
  2336   00116A  A0D8               	btfss	status,0,c
  2337   00116C  EFBA  F008         	goto	u7581
  2338   001170  EFBC  F008         	goto	u7580
  2339   001174                     u7581:
  2340   001174  EFF4  F008         	goto	l1791
  2341   001178                     u7580:
  2342   001178                     
  2343                           ; BSR set to: 0
  2344   001178  0101               	movlb	1	; () banked
  2345   00117A  5100               	movf	___fladd@b& (0+255),w,b
  2346   00117C  1101               	iorwf	(___fladd@b+1)& (0+255),w,b
  2347   00117E  1102               	iorwf	(___fladd@b+2)& (0+255),w,b
  2348   001180  1103               	iorwf	(___fladd@b+3)& (0+255),w,b
  2349   001182  A4D8               	btfss	status,2,c
  2350   001184  EFC6  F008         	goto	u7591
  2351   001188  EFC9  F008         	goto	u7590
  2352   00118C                     u7591:
  2353   00118C  0E01               	movlw	1
  2354   00118E  EFCA  F008         	goto	u7600
  2355   001192                     u7590:
  2356   001192  0E00               	movlw	0
  2357   001194                     u7600:
  2358   001194  6F0B               	movwf	___fladd@grs& (0+255),b
  2359   001196                     
  2360                           ; BSR set to: 1
  2361   001196  0E00               	movlw	0
  2362   001198  6F00               	movwf	___fladd@b& (0+255),b
  2363   00119A  0E00               	movlw	0
  2364   00119C  6F01               	movwf	(___fladd@b+1)& (0+255),b
  2365   00119E  0E00               	movlw	0
  2366   0011A0  6F02               	movwf	(___fladd@b+2)& (0+255),b
  2367   0011A2  0E00               	movlw	0
  2368   0011A4  6F03               	movwf	(___fladd@b+3)& (0+255),b
  2369   0011A6                     
  2370                           ; BSR set to: 1
  2371   0011A6  C109  F10A         	movff	___fladd@aexp,___fladd@bexp
  2372   0011AA  EFFE  F008         	goto	l1790
  2373   0011AE                     l1792:
  2374                           
  2375                           ; BSR set to: 1
  2376   0011AE  A10B               	btfss	___fladd@grs& (0+255),0,b
  2377   0011B0  EFDC  F008         	goto	u7611
  2378   0011B4  EFDE  F008         	goto	u7610
  2379   0011B8                     u7611:
  2380   0011B8  EFE4  F008         	goto	l7040
  2381   0011BC                     u7610:
  2382   0011BC                     
  2383                           ; BSR set to: 1
  2384   0011BC  90D8               	bcf	status,0,c
  2385   0011BE  310B               	rrcf	___fladd@grs& (0+255),w,b
  2386   0011C0  0901               	iorlw	1
  2387   0011C2  6F0B               	movwf	___fladd@grs& (0+255),b
  2388   0011C4  EFE6  F008         	goto	l7042
  2389   0011C8                     l7040:
  2390                           
  2391                           ; BSR set to: 1
  2392   0011C8  90D8               	bcf	status,0,c
  2393   0011CA  330B               	rrcf	___fladd@grs& (0+255),f,b
  2394   0011CC                     l7042:
  2395                           
  2396                           ; BSR set to: 1
  2397   0011CC  A100               	btfss	___fladd@b& (0+255),0,b
  2398   0011CE  EFEB  F008         	goto	u7621
  2399   0011D2  EFED  F008         	goto	u7620
  2400   0011D6                     u7621:
  2401   0011D6  EFEE  F008         	goto	l7046
  2402   0011DA                     u7620:
  2403   0011DA                     
  2404                           ; BSR set to: 1
  2405   0011DA  8F0B               	bsf	___fladd@grs& (0+255),7,b
  2406   0011DC                     l7046:
  2407                           
  2408                           ; BSR set to: 1
  2409   0011DC  3503               	rlcf	(___fladd@b+3)& (0+255),w,b
  2410   0011DE  3303               	rrcf	(___fladd@b+3)& (0+255),f,b
  2411   0011E0  3302               	rrcf	(___fladd@b+2)& (0+255),f,b
  2412   0011E2  3301               	rrcf	(___fladd@b+1)& (0+255),f,b
  2413   0011E4  3300               	rrcf	___fladd@b& (0+255),f,b
  2414   0011E6                     
  2415                           ; BSR set to: 1
  2416   0011E6  2B0A               	incf	___fladd@bexp& (0+255),f,b
  2417   0011E8                     l1791:
  2418   0011E8  0101               	movlb	1	; () banked
  2419   0011EA  5109               	movf	___fladd@aexp& (0+255),w,b
  2420   0011EC  5D0A               	subwf	___fladd@bexp& (0+255),w,b
  2421   0011EE  A0D8               	btfss	status,0,c
  2422   0011F0  EFFC  F008         	goto	u7631
  2423   0011F4  EFFE  F008         	goto	u7630
  2424   0011F8                     u7631:
  2425   0011F8  EFD7  F008         	goto	l1792
  2426   0011FC                     u7630:
  2427   0011FC                     l1790:
  2428                           
  2429                           ; BSR set to: 1
  2430   0011FC  BD08               	btfsc	___fladd@signs& (0+255),6,b
  2431   0011FE  EF03  F009         	goto	u7641
  2432   001202  EF05  F009         	goto	u7640
  2433   001206                     u7641:
  2434   001206  EF45  F009         	goto	l7074
  2435   00120A                     u7640:
  2436   00120A                     
  2437                           ; BSR set to: 1
  2438   00120A  510A               	movf	___fladd@bexp& (0+255),w,b
  2439   00120C  A4D8               	btfss	status,2,c
  2440   00120E  EF0B  F009         	goto	u7651
  2441   001212  EF0D  F009         	goto	u7650
  2442   001216                     u7651:
  2443   001216  EF17  F009         	goto	l7056
  2444   00121A                     u7650:
  2445   00121A                     
  2446                           ; BSR set to: 1
  2447   00121A  0E00               	movlw	0
  2448   00121C  6F00               	movwf	?___fladd& (0+255),b
  2449   00121E  0E00               	movlw	0
  2450   001220  6F01               	movwf	(?___fladd+1)& (0+255),b
  2451   001222  0E00               	movlw	0
  2452   001224  6F02               	movwf	(?___fladd+2)& (0+255),b
  2453   001226  0E00               	movlw	0
  2454   001228  6F03               	movwf	(?___fladd+3)& (0+255),b
  2455   00122A  EF7E  F00A         	goto	l1799
  2456   00122E                     l7056:
  2457                           
  2458                           ; BSR set to: 1
  2459   00122E  5104               	movf	___fladd@a& (0+255),w,b
  2460   001230  2700               	addwf	___fladd@b& (0+255),f,b
  2461   001232  5105               	movf	(___fladd@a+1)& (0+255),w,b
  2462   001234  2301               	addwfc	(___fladd@b+1)& (0+255),f,b
  2463   001236  5106               	movf	(___fladd@a+2)& (0+255),w,b
  2464   001238  2302               	addwfc	(___fladd@b+2)& (0+255),f,b
  2465   00123A  5107               	movf	(___fladd@a+3)& (0+255),w,b
  2466   00123C  2303               	addwfc	(___fladd@b+3)& (0+255),f,b
  2467   00123E                     
  2468                           ; BSR set to: 1
  2469   00123E  A103               	btfss	(___fladd@b+3)& (0+255),0,b
  2470   001240  EF24  F009         	goto	u7661
  2471   001244  EF26  F009         	goto	u7660
  2472   001248                     u7661:
  2473   001248  EFE5  F009         	goto	l7110
  2474   00124C                     u7660:
  2475   00124C                     
  2476                           ; BSR set to: 1
  2477   00124C  A10B               	btfss	___fladd@grs& (0+255),0,b
  2478   00124E  EF2B  F009         	goto	u7671
  2479   001252  EF2D  F009         	goto	u7670
  2480   001256                     u7671:
  2481   001256  EF33  F009         	goto	l7064
  2482   00125A                     u7670:
  2483   00125A                     
  2484                           ; BSR set to: 1
  2485   00125A  90D8               	bcf	status,0,c
  2486   00125C  310B               	rrcf	___fladd@grs& (0+255),w,b
  2487   00125E  0901               	iorlw	1
  2488   001260  6F0B               	movwf	___fladd@grs& (0+255),b
  2489   001262  EF35  F009         	goto	l7066
  2490   001266                     l7064:
  2491                           
  2492                           ; BSR set to: 1
  2493   001266  90D8               	bcf	status,0,c
  2494   001268  330B               	rrcf	___fladd@grs& (0+255),f,b
  2495   00126A                     l7066:
  2496                           
  2497                           ; BSR set to: 1
  2498   00126A  A100               	btfss	___fladd@b& (0+255),0,b
  2499   00126C  EF3A  F009         	goto	u7681
  2500   001270  EF3C  F009         	goto	u7680
  2501   001274                     u7681:
  2502   001274  EF3D  F009         	goto	l7070
  2503   001278                     u7680:
  2504   001278                     
  2505                           ; BSR set to: 1
  2506   001278  8F0B               	bsf	___fladd@grs& (0+255),7,b
  2507   00127A                     l7070:
  2508                           
  2509                           ; BSR set to: 1
  2510   00127A  3503               	rlcf	(___fladd@b+3)& (0+255),w,b
  2511   00127C  3303               	rrcf	(___fladd@b+3)& (0+255),f,b
  2512   00127E  3302               	rrcf	(___fladd@b+2)& (0+255),f,b
  2513   001280  3301               	rrcf	(___fladd@b+1)& (0+255),f,b
  2514   001282  3300               	rrcf	___fladd@b& (0+255),f,b
  2515   001284                     
  2516                           ; BSR set to: 1
  2517   001284  2B0A               	incf	___fladd@bexp& (0+255),f,b
  2518   001286  EFE5  F009         	goto	l7110
  2519   00128A                     l7074:
  2520                           
  2521                           ; BSR set to: 1
  2522   00128A  5104               	movf	___fladd@a& (0+255),w,b
  2523   00128C  5D00               	subwf	___fladd@b& (0+255),w,b
  2524   00128E  5105               	movf	(___fladd@a+1)& (0+255),w,b
  2525   001290  5901               	subwfb	(___fladd@b+1)& (0+255),w,b
  2526   001292  5106               	movf	(___fladd@a+2)& (0+255),w,b
  2527   001294  5902               	subwfb	(___fladd@b+2)& (0+255),w,b
  2528   001296  5103               	movf	(___fladd@b+3)& (0+255),w,b
  2529   001298  0A80               	xorlw	128
  2530   00129A  0100               	movlb	0	; () banked
  2531   00129C  6FB2               	movwf	??___fladd& (0+255),b
  2532   00129E  0101               	movlb	1	; () banked
  2533   0012A0  5107               	movf	(___fladd@a+3)& (0+255),w,b
  2534   0012A2  0A80               	xorlw	128
  2535   0012A4  0100               	movlb	0	; () banked
  2536   0012A6  59B2               	subwfb	??___fladd& (0+255),w,b
  2537   0012A8  B0D8               	btfsc	status,0,c
  2538   0012AA  EF59  F009         	goto	u7691
  2539   0012AE  EF5B  F009         	goto	u7690
  2540   0012B2                     u7691:
  2541   0012B2  EF95  F009         	goto	l7084
  2542   0012B6                     u7690:
  2543   0012B6                     
  2544                           ; BSR set to: 0
  2545   0012B6  0101               	movlb	1	; () banked
  2546   0012B8  5100               	movf	___fladd@b& (0+255),w,b
  2547   0012BA  5D04               	subwf	___fladd@a& (0+255),w,b
  2548   0012BC  0100               	movlb	0	; () banked
  2549   0012BE  6FB2               	movwf	??___fladd& (0+255),b
  2550   0012C0  0101               	movlb	1	; () banked
  2551   0012C2  5101               	movf	(___fladd@b+1)& (0+255),w,b
  2552   0012C4  5905               	subwfb	(___fladd@a+1)& (0+255),w,b
  2553   0012C6  0100               	movlb	0	; () banked
  2554   0012C8  6FB3               	movwf	(??___fladd+1)& (0+255),b
  2555   0012CA  0101               	movlb	1	; () banked
  2556   0012CC  5102               	movf	(___fladd@b+2)& (0+255),w,b
  2557   0012CE  5906               	subwfb	(___fladd@a+2)& (0+255),w,b
  2558   0012D0  0100               	movlb	0	; () banked
  2559   0012D2  6FB4               	movwf	(??___fladd+2)& (0+255),b
  2560   0012D4  0101               	movlb	1	; () banked
  2561   0012D6  5103               	movf	(___fladd@b+3)& (0+255),w,b
  2562   0012D8  5907               	subwfb	(___fladd@a+3)& (0+255),w,b
  2563   0012DA  0100               	movlb	0	; () banked
  2564   0012DC  6FB5               	movwf	(??___fladd+3)& (0+255),b
  2565   0012DE  0EFF               	movlw	255
  2566   0012E0  25B2               	addwf	??___fladd& (0+255),w,b
  2567   0012E2  0101               	movlb	1	; () banked
  2568   0012E4  6F00               	movwf	___fladd@b& (0+255),b
  2569   0012E6  0EFF               	movlw	255
  2570   0012E8  0100               	movlb	0	; () banked
  2571   0012EA  21B3               	addwfc	(??___fladd+1)& (0+255),w,b
  2572   0012EC  0101               	movlb	1	; () banked
  2573   0012EE  6F01               	movwf	(___fladd@b+1)& (0+255),b
  2574   0012F0  0EFF               	movlw	255
  2575   0012F2  0100               	movlb	0	; () banked
  2576   0012F4  21B4               	addwfc	(??___fladd+2)& (0+255),w,b
  2577   0012F6  0101               	movlb	1	; () banked
  2578   0012F8  6F02               	movwf	(___fladd@b+2)& (0+255),b
  2579   0012FA  0EFF               	movlw	255
  2580   0012FC  0100               	movlb	0	; () banked
  2581   0012FE  21B5               	addwfc	(??___fladd+3)& (0+255),w,b
  2582   001300  0101               	movlb	1	; () banked
  2583   001302  6F03               	movwf	(___fladd@b+3)& (0+255),b
  2584   001304  0E80               	movlw	128
  2585   001306  1B08               	xorwf	___fladd@signs& (0+255),f,b
  2586   001308                     
  2587                           ; BSR set to: 1
  2588   001308  6D0B               	negf	___fladd@grs& (0+255),b
  2589   00130A                     
  2590                           ; BSR set to: 1
  2591   00130A  510B               	movf	___fladd@grs& (0+255),w,b
  2592   00130C  A4D8               	btfss	status,2,c
  2593   00130E  EF8B  F009         	goto	u7701
  2594   001312  EF8D  F009         	goto	u7700
  2595   001316                     u7701:
  2596   001316  EF9E  F009         	goto	l1807
  2597   00131A                     u7700:
  2598   00131A                     
  2599                           ; BSR set to: 1
  2600   00131A  0E01               	movlw	1
  2601   00131C  2700               	addwf	___fladd@b& (0+255),f,b
  2602   00131E  0E00               	movlw	0
  2603   001320  2301               	addwfc	(___fladd@b+1)& (0+255),f,b
  2604   001322  2302               	addwfc	(___fladd@b+2)& (0+255),f,b
  2605   001324  2303               	addwfc	(___fladd@b+3)& (0+255),f,b
  2606   001326  EF9E  F009         	goto	l1807
  2607   00132A                     l7084:
  2608                           
  2609                           ; BSR set to: 0
  2610   00132A  0101               	movlb	1	; () banked
  2611   00132C  5104               	movf	___fladd@a& (0+255),w,b
  2612   00132E  5F00               	subwf	___fladd@b& (0+255),f,b
  2613   001330  5105               	movf	(___fladd@a+1)& (0+255),w,b
  2614   001332  5B01               	subwfb	(___fladd@b+1)& (0+255),f,b
  2615   001334  5106               	movf	(___fladd@a+2)& (0+255),w,b
  2616   001336  5B02               	subwfb	(___fladd@b+2)& (0+255),f,b
  2617   001338  5107               	movf	(___fladd@a+3)& (0+255),w,b
  2618   00133A  5B03               	subwfb	(___fladd@b+3)& (0+255),f,b
  2619   00133C                     l1807:
  2620                           
  2621                           ; BSR set to: 1
  2622   00133C  5100               	movf	___fladd@b& (0+255),w,b
  2623   00133E  1101               	iorwf	(___fladd@b+1)& (0+255),w,b
  2624   001340  1102               	iorwf	(___fladd@b+2)& (0+255),w,b
  2625   001342  1103               	iorwf	(___fladd@b+3)& (0+255),w,b
  2626   001344  A4D8               	btfss	status,2,c
  2627   001346  EFA7  F009         	goto	u7711
  2628   00134A  EFA9  F009         	goto	u7710
  2629   00134E                     u7711:
  2630   00134E  EFDE  F009         	goto	l7108
  2631   001352                     u7710:
  2632   001352                     
  2633                           ; BSR set to: 1
  2634   001352  510B               	movf	___fladd@grs& (0+255),w,b
  2635   001354  A4D8               	btfss	status,2,c
  2636   001356  EFAF  F009         	goto	u7721
  2637   00135A  EFB1  F009         	goto	u7720
  2638   00135E                     u7721:
  2639   00135E  EFDE  F009         	goto	l7108
  2640   001362                     u7720:
  2641   001362                     
  2642                           ; BSR set to: 1
  2643   001362  0E00               	movlw	0
  2644   001364  6F00               	movwf	?___fladd& (0+255),b
  2645   001366  0E00               	movlw	0
  2646   001368  6F01               	movwf	(?___fladd+1)& (0+255),b
  2647   00136A  0E00               	movlw	0
  2648   00136C  6F02               	movwf	(?___fladd+2)& (0+255),b
  2649   00136E  0E00               	movlw	0
  2650   001370  6F03               	movwf	(?___fladd+3)& (0+255),b
  2651   001372  EF7E  F00A         	goto	l1799
  2652   001376                     l7092:
  2653                           
  2654                           ; BSR set to: 1
  2655   001376  90D8               	bcf	status,0,c
  2656   001378  3700               	rlcf	___fladd@b& (0+255),f,b
  2657   00137A  3701               	rlcf	(___fladd@b+1)& (0+255),f,b
  2658   00137C  3702               	rlcf	(___fladd@b+2)& (0+255),f,b
  2659   00137E  3703               	rlcf	(___fladd@b+3)& (0+255),f,b
  2660   001380                     
  2661                           ; BSR set to: 1
  2662   001380  AF0B               	btfss	___fladd@grs& (0+255),7,b
  2663   001382  EFC5  F009         	goto	u7731
  2664   001386  EFC7  F009         	goto	u7730
  2665   00138A                     u7731:
  2666   00138A  EFC8  F009         	goto	l7098
  2667   00138E                     u7730:
  2668   00138E                     
  2669                           ; BSR set to: 1
  2670   00138E  8100               	bsf	___fladd@b& (0+255),0,b
  2671   001390                     l7098:
  2672                           
  2673                           ; BSR set to: 1
  2674   001390  A10B               	btfss	___fladd@grs& (0+255),0,b
  2675   001392  EFCD  F009         	goto	u7741
  2676   001396  EFCF  F009         	goto	u7740
  2677   00139A                     u7741:
  2678   00139A  EFD3  F009         	goto	l7102
  2679   00139E                     u7740:
  2680   00139E                     
  2681                           ; BSR set to: 1
  2682   00139E  80D8               	bsf	status,0,c
  2683   0013A0  370B               	rlcf	___fladd@grs& (0+255),f,b
  2684   0013A2  EFD5  F009         	goto	l7104
  2685   0013A6                     l7102:
  2686                           
  2687                           ; BSR set to: 1
  2688   0013A6  90D8               	bcf	status,0,c
  2689   0013A8  370B               	rlcf	___fladd@grs& (0+255),f,b
  2690   0013AA                     l7104:
  2691                           
  2692                           ; BSR set to: 1
  2693   0013AA  510A               	movf	___fladd@bexp& (0+255),w,b
  2694   0013AC  B4D8               	btfsc	status,2,c
  2695   0013AE  EFDB  F009         	goto	u7751
  2696   0013B2  EFDD  F009         	goto	u7750
  2697   0013B6                     u7751:
  2698   0013B6  EFDE  F009         	goto	l7108
  2699   0013BA                     u7750:
  2700   0013BA                     
  2701                           ; BSR set to: 1
  2702   0013BA  070A               	decf	___fladd@bexp& (0+255),f,b
  2703   0013BC                     l7108:
  2704                           
  2705                           ; BSR set to: 1
  2706   0013BC  AF02               	btfss	(___fladd@b+2)& (0+255),7,b
  2707   0013BE  EFE3  F009         	goto	u7761
  2708   0013C2  EFE5  F009         	goto	u7760
  2709   0013C6                     u7761:
  2710   0013C6  EFBB  F009         	goto	l7092
  2711   0013CA                     u7760:
  2712   0013CA                     l7110:
  2713                           
  2714                           ; BSR set to: 1
  2715   0013CA  0E00               	movlw	0
  2716   0013CC  6F09               	movwf	___fladd@aexp& (0+255),b
  2717   0013CE                     
  2718                           ; BSR set to: 1
  2719   0013CE  AF0B               	btfss	___fladd@grs& (0+255),7,b
  2720   0013D0  EFEC  F009         	goto	u7771
  2721   0013D4  EFEE  F009         	goto	u7770
  2722   0013D8                     u7771:
  2723   0013D8  EF09  F00A         	goto	l1816
  2724   0013DC                     u7770:
  2725   0013DC                     
  2726                           ; BSR set to: 1
  2727   0013DC  C10B  F0B2         	movff	___fladd@grs,??___fladd
  2728   0013E0  0E7F               	movlw	127
  2729   0013E2  0100               	movlb	0	; () banked
  2730   0013E4  17B2               	andwf	??___fladd& (0+255),f,b
  2731   0013E6  B4D8               	btfsc	status,2,c
  2732   0013E8  EFF8  F009         	goto	u7781
  2733   0013EC  EFFA  F009         	goto	u7780
  2734   0013F0                     u7781:
  2735   0013F0  EFFF  F009         	goto	l1817
  2736   0013F4                     u7780:
  2737   0013F4                     l7116:
  2738   0013F4  0E01               	movlw	1
  2739   0013F6  0101               	movlb	1	; () banked
  2740   0013F8  6F09               	movwf	___fladd@aexp& (0+255),b
  2741   0013FA  EF09  F00A         	goto	l1816
  2742   0013FE                     l1817:
  2743                           
  2744                           ; BSR set to: 0
  2745   0013FE  0101               	movlb	1	; () banked
  2746   001400  A100               	btfss	___fladd@b& (0+255),0,b
  2747   001402  EF05  F00A         	goto	u7791
  2748   001406  EF07  F00A         	goto	u7790
  2749   00140A                     u7791:
  2750   00140A  EF09  F00A         	goto	l1816
  2751   00140E                     u7790:
  2752   00140E  EFFA  F009         	goto	l7116
  2753   001412                     l1816:
  2754                           
  2755                           ; BSR set to: 1
  2756   001412  5109               	movf	___fladd@aexp& (0+255),w,b
  2757   001414  B4D8               	btfsc	status,2,c
  2758   001416  EF0F  F00A         	goto	u7801
  2759   00141A  EF11  F00A         	goto	u7800
  2760   00141E                     u7801:
  2761   00141E  EF3E  F00A         	goto	l7128
  2762   001422                     u7800:
  2763   001422                     
  2764                           ; BSR set to: 1
  2765   001422  0E01               	movlw	1
  2766   001424  2700               	addwf	___fladd@b& (0+255),f,b
  2767   001426  0E00               	movlw	0
  2768   001428  2301               	addwfc	(___fladd@b+1)& (0+255),f,b
  2769   00142A  2302               	addwfc	(___fladd@b+2)& (0+255),f,b
  2770   00142C  2303               	addwfc	(___fladd@b+3)& (0+255),f,b
  2771   00142E                     
  2772                           ; BSR set to: 1
  2773   00142E  A103               	btfss	(___fladd@b+3)& (0+255),0,b
  2774   001430  EF1C  F00A         	goto	u7811
  2775   001434  EF1E  F00A         	goto	u7810
  2776   001438                     u7811:
  2777   001438  EF3E  F00A         	goto	l7128
  2778   00143C                     u7810:
  2779   00143C                     
  2780                           ; BSR set to: 1
  2781   00143C  C100  F0B2         	movff	___fladd@b,??___fladd
  2782   001440  C101  F0B3         	movff	___fladd@b+1,??___fladd+1
  2783   001444  C102  F0B4         	movff	___fladd@b+2,??___fladd+2
  2784   001448  C103  F0B5         	movff	___fladd@b+3,??___fladd+3
  2785   00144C  0100               	movlb	0	; () banked
  2786   00144E  35B5               	rlcf	(??___fladd+3)& (0+255),w,b
  2787   001450  33B5               	rrcf	(??___fladd+3)& (0+255),f,b
  2788   001452  33B4               	rrcf	(??___fladd+2)& (0+255),f,b
  2789   001454  33B3               	rrcf	(??___fladd+1)& (0+255),f,b
  2790   001456  33B2               	rrcf	??___fladd& (0+255),f,b
  2791   001458  C0B2  F100         	movff	??___fladd,___fladd@b
  2792   00145C  C0B3  F101         	movff	??___fladd+1,___fladd@b+1
  2793   001460  C0B4  F102         	movff	??___fladd+2,___fladd@b+2
  2794   001464  C0B5  F103         	movff	??___fladd+3,___fladd@b+3
  2795   001468  0101               	movlb	1	; () banked
  2796   00146A  290A               	incf	___fladd@bexp& (0+255),w,b
  2797   00146C  B4D8               	btfsc	status,2,c
  2798   00146E  EF3B  F00A         	goto	u7821
  2799   001472  EF3D  F00A         	goto	u7820
  2800   001476                     u7821:
  2801   001476  EF3E  F00A         	goto	l7128
  2802   00147A                     u7820:
  2803   00147A                     
  2804                           ; BSR set to: 1
  2805   00147A  2B0A               	incf	___fladd@bexp& (0+255),f,b
  2806   00147C                     l7128:
  2807                           
  2808                           ; BSR set to: 1
  2809   00147C  290A               	incf	___fladd@bexp& (0+255),w,b
  2810   00147E  B4D8               	btfsc	status,2,c
  2811   001480  EF44  F00A         	goto	u7831
  2812   001484  EF46  F00A         	goto	u7830
  2813   001488                     u7831:
  2814   001488  EF4E  F00A         	goto	l7132
  2815   00148C                     u7830:
  2816   00148C                     
  2817                           ; BSR set to: 1
  2818   00148C  510A               	movf	___fladd@bexp& (0+255),w,b
  2819   00148E  A4D8               	btfss	status,2,c
  2820   001490  EF4C  F00A         	goto	u7841
  2821   001494  EF4E  F00A         	goto	u7840
  2822   001498                     u7841:
  2823   001498  EF60  F00A         	goto	l7136
  2824   00149C                     u7840:
  2825   00149C                     l7132:
  2826                           
  2827                           ; BSR set to: 1
  2828   00149C  0E00               	movlw	0
  2829   00149E  6F00               	movwf	___fladd@b& (0+255),b
  2830   0014A0  0E00               	movlw	0
  2831   0014A2  6F01               	movwf	(___fladd@b+1)& (0+255),b
  2832   0014A4  0E00               	movlw	0
  2833   0014A6  6F02               	movwf	(___fladd@b+2)& (0+255),b
  2834   0014A8  0E00               	movlw	0
  2835   0014AA  6F03               	movwf	(___fladd@b+3)& (0+255),b
  2836   0014AC  510A               	movf	___fladd@bexp& (0+255),w,b
  2837   0014AE  A4D8               	btfss	status,2,c
  2838   0014B0  EF5C  F00A         	goto	u7851
  2839   0014B4  EF5E  F00A         	goto	u7850
  2840   0014B8                     u7851:
  2841   0014B8  EF60  F00A         	goto	l7136
  2842   0014BC                     u7850:
  2843   0014BC                     
  2844                           ; BSR set to: 1
  2845   0014BC  0E00               	movlw	0
  2846   0014BE  6F08               	movwf	___fladd@signs& (0+255),b
  2847   0014C0                     l7136:
  2848                           
  2849                           ; BSR set to: 1
  2850   0014C0  A10A               	btfss	___fladd@bexp& (0+255),0,b
  2851   0014C2  EF65  F00A         	goto	u7861
  2852   0014C6  EF67  F00A         	goto	u7860
  2853   0014CA                     u7861:
  2854   0014CA  EF6A  F00A         	goto	l7140
  2855   0014CE                     u7860:
  2856   0014CE                     
  2857                           ; BSR set to: 1
  2858   0014CE  8F02               	bsf	(___fladd@b+2)& (0+255),7,b
  2859   0014D0  EF6B  F00A         	goto	l7142
  2860   0014D4                     l7140:
  2861                           
  2862                           ; BSR set to: 1
  2863   0014D4  9F02               	bcf	(___fladd@b+2)& (0+255),7,b
  2864   0014D6                     l7142:
  2865                           
  2866                           ; BSR set to: 1
  2867   0014D6  90D8               	bcf	status,0,c
  2868   0014D8  310A               	rrcf	___fladd@bexp& (0+255),w,b
  2869   0014DA  6F03               	movwf	(___fladd@b+3)& (0+255),b
  2870   0014DC                     
  2871                           ; BSR set to: 1
  2872   0014DC  AF08               	btfss	___fladd@signs& (0+255),7,b
  2873   0014DE  EF73  F00A         	goto	u7871
  2874   0014E2  EF75  F00A         	goto	u7870
  2875   0014E6                     u7871:
  2876   0014E6  EF76  F00A         	goto	l7148
  2877   0014EA                     u7870:
  2878   0014EA                     
  2879                           ; BSR set to: 1
  2880   0014EA  8F03               	bsf	(___fladd@b+3)& (0+255),7,b
  2881   0014EC                     l7148:
  2882                           
  2883                           ; BSR set to: 1
  2884   0014EC  C100  F100         	movff	___fladd@b,?___fladd
  2885   0014F0  C101  F101         	movff	___fladd@b+1,?___fladd+1
  2886   0014F4  C102  F102         	movff	___fladd@b+2,?___fladd+2
  2887   0014F8  C103  F103         	movff	___fladd@b+3,?___fladd+3
  2888   0014FC                     l1799:
  2889                           
  2890                           ; BSR set to: 1
  2891   0014FC  0012               	return		;funcret
  2892   0014FE                     __end_of___fladd:
  2893                           	callstack 0
  2894                           
  2895 ;; *************** function _CCP1_PWM1_Start *****************
  2896 ;; Defined at:
  2897 ;;		line 165 in file "MCAL_Layer/CCP/CCP1/hal_ccp1.c"
  2898 ;; Parameters:    Size  Location     Type
  2899 ;;		None
  2900 ;; Auto vars:     Size  Location     Type
  2901 ;;  ret             1   37[COMRAM] unsigned char 
  2902 ;; Return value:  Size  Location     Type
  2903 ;;                  1    wreg      unsigned char 
  2904 ;; Registers used:
  2905 ;;		wreg, status,2
  2906 ;; Tracked objects:
  2907 ;;		On entry : 0/0
  2908 ;;		On exit  : 0/0
  2909 ;;		Unchanged: 0/0
  2910 ;; Data sizes:     COMRAM   BANK0   BANK1   BANK2   BANK3   BANK4   BANK5   BANK6   BANK7   BANK8   BANK9  BANK10  BANK1
      +1  BANK12  BANK13  BANK14  BANK15
  2911 ;;      Params:         0       0       0       0       0       0       0       0       0       0       0       0       
      +0       0       0       0       0
  2912 ;;      Locals:         1       0       0       0       0       0       0       0       0       0       0       0       
      +0       0       0       0       0
  2913 ;;      Temps:          0       0       0       0       0       0       0       0       0       0       0       0       
      +0       0       0       0       0
  2914 ;;      Totals:         1       0       0       0       0       0       0       0       0       0       0       0       
      +0       0       0       0       0
  2915 ;;Total ram usage:        1 bytes
  2916 ;; Hardware stack levels used: 1
  2917 ;; Hardware stack levels required when called: 12
  2918 ;; This function calls:
  2919 ;;		Nothing
  2920 ;; This function is called by:
  2921 ;;		_main
  2922 ;; This function uses a non-reentrant model
  2923 ;;
  2924                           
  2925                           	psect	text8
  2926   00333C                     __ptext8:
  2927                           	callstack 0
  2928   00333C                     _CCP1_PWM1_Start:
  2929                           	callstack 18
  2930   00333C                     
  2931                           ;MCAL_Layer/CCP/CCP1/hal_ccp1.c: 166:     Std_ReturnType ret = (Std_ReturnType)0x00;
  2932   00333C  0E00               	movlw	0
  2933   00333E  6E26               	movwf	CCP1_PWM1_Start@ret^0,c
  2934                           
  2935                           ;MCAL_Layer/CCP/CCP1/hal_ccp1.c: 167:     (CCP1CONbits.CCP1M = ((uint8)0x0C));
  2936   003340  50BD               	movf	189,w,c	;volatile
  2937   003342  0BF0               	andlw	-16
  2938   003344  090C               	iorlw	12
  2939   003346  6EBD               	movwf	189,c	;volatile
  2940                           
  2941                           ;MCAL_Layer/CCP/CCP1/hal_ccp1.c: 168:     ret = (Std_ReturnType)0x01;
  2942   003348  0E01               	movlw	1
  2943   00334A  6E26               	movwf	CCP1_PWM1_Start@ret^0,c
  2944                           
  2945                           ;MCAL_Layer/CCP/CCP1/hal_ccp1.c: 170:     return ret;
  2946   00334C  0E01               	movlw	1
  2947   00334E  0012               	return		;funcret
  2948   003350                     __end_of_CCP1_PWM1_Start:
  2949                           	callstack 0
  2950                           
  2951 ;; *************** function _CCP1_PWM1_Set_Duty_Cycle *****************
  2952 ;; Defined at:
  2953 ;;		line 155 in file "MCAL_Layer/CCP/CCP1/hal_ccp1.c"
  2954 ;; Parameters:    Size  Location     Type
  2955 ;;  _duty           1    wreg     const unsigned char 
  2956 ;; Auto vars:     Size  Location     Type
  2957 ;;  _duty           1   26[BANK1 ] const unsigned char 
  2958 ;;  l_duty_temp     2   27[BANK1 ] unsigned short 
  2959 ;;  ret             1    0        unsigned char 
  2960 ;; Return value:  Size  Location     Type
  2961 ;;                  1    wreg      unsigned char 
  2962 ;; Registers used:
  2963 ;;		wreg, status,2, status,0, prodl, prodh, cstack
  2964 ;; Tracked objects:
  2965 ;;		On entry : 0/0
  2966 ;;		On exit  : 0/0
  2967 ;;		Unchanged: 0/0
  2968 ;; Data sizes:     COMRAM   BANK0   BANK1   BANK2   BANK3   BANK4   BANK5   BANK6   BANK7   BANK8   BANK9  BANK10  BANK1
      +1  BANK12  BANK13  BANK14  BANK15
  2969 ;;      Params:         0       0       0       0       0       0       0       0       0       0       0       0       
      +0       0       0       0       0
  2970 ;;      Locals:         0       0       7       0       0       0       0       0       0       0       0       0       
      +0       0       0       0       0
  2971 ;;      Temps:          0       0       2       0       0       0       0       0       0       0       0       0       
      +0       0       0       0       0
  2972 ;;      Totals:         0       0       9       0       0       0       0       0       0       0       0       0       
      +0       0       0       0       0
  2973 ;;Total ram usage:        9 bytes
  2974 ;; Hardware stack levels used: 1
  2975 ;; Hardware stack levels required when called: 13
  2976 ;; This function calls:
  2977 ;;		___fldiv
  2978 ;;		___flmul
  2979 ;;		___fltol
  2980 ;;		___xxtofl
  2981 ;; This function is called by:
  2982 ;;		_main
  2983 ;; This function uses a non-reentrant model
  2984 ;;
  2985                           
  2986                           	psect	text9
  2987   002A54                     __ptext9:
  2988                           	callstack 0
  2989   002A54                     _CCP1_PWM1_Set_Duty_Cycle:
  2990                           	callstack 17
  2991                           
  2992                           ;incstack = 0
  2993                           ;CCP1_PWM1_Set_Duty_Cycle@_duty stored from wreg
  2994   002A54  0101               	movlb	1	; () banked
  2995   002A56  6F1A               	movwf	CCP1_PWM1_Set_Duty_Cycle@_duty& (0+255),b
  2996   002A58                     
  2997                           ;MCAL_Layer/CCP/CCP1/hal_ccp1.c: 157:     uint16 l_duty_temp = 0;
  2998   002A58  0E00               	movlw	0
  2999   002A5A  0101               	movlb	1	; () banked
  3000   002A5C  6F1C               	movwf	(CCP1_PWM1_Set_Duty_Cycle@l_duty_temp+1)& (0+255),b
  3001   002A5E  0E00               	movlw	0
  3002   002A60  6F1B               	movwf	CCP1_PWM1_Set_Duty_Cycle@l_duty_temp& (0+255),b
  3003   002A62                     
  3004                           ; BSR set to: 1
  3005                           ;MCAL_Layer/CCP/CCP1/hal_ccp1.c: 158:     l_duty_temp = (uint16)((PR2+1)*(_duty/100.0)*4
      +                          );
  3006   002A62  0E00               	movlw	0
  3007   002A64  0100               	movlb	0	; () banked
  3008   002A66  6F9D               	movwf	___fldiv@a& (0+255),b
  3009   002A68  0E00               	movlw	0
  3010   002A6A  6F9E               	movwf	(___fldiv@a+1)& (0+255),b
  3011   002A6C  0EC8               	movlw	200
  3012   002A6E  6F9F               	movwf	(___fldiv@a+2)& (0+255),b
  3013   002A70  0E42               	movlw	66
  3014   002A72  6FA0               	movwf	(___fldiv@a+3)& (0+255),b
  3015   002A74  0101               	movlb	1	; () banked
  3016   002A76  511A               	movf	CCP1_PWM1_Set_Duty_Cycle@_duty& (0+255),w,b
  3017   002A78  6E26               	movwf	___xxtofl@val^0,c
  3018   002A7A  6A27               	clrf	(___xxtofl@val+1)^0,c
  3019   002A7C  6A28               	clrf	(___xxtofl@val+2)^0,c
  3020   002A7E  6A29               	clrf	(___xxtofl@val+3)^0,c
  3021   002A80  0E01               	movlw	1
  3022   002A82  EC89  F012         	call	___xxtofl
  3023   002A86  C026  F099         	movff	?___xxtofl,___fldiv@b
  3024   002A8A  C027  F09A         	movff	?___xxtofl+1,___fldiv@b+1
  3025   002A8E  C028  F09B         	movff	?___xxtofl+2,___fldiv@b+2
  3026   002A92  C029  F09C         	movff	?___xxtofl+3,___fldiv@b+3
  3027   002A96  EC95  F00C         	call	___fldiv	;wreg free
  3028   002A9A  C099  F084         	movff	?___fldiv,___flmul@a
  3029   002A9E  C09A  F085         	movff	?___fldiv+1,___flmul@a+1
  3030   002AA2  C09B  F086         	movff	?___fldiv+2,___flmul@a+2
  3031   002AA6  C09C  F087         	movff	?___fldiv+3,___flmul@a+3
  3032   002AAA  50CB               	movf	203,w,c	;volatile
  3033   002AAC  0101               	movlb	1	; () banked
  3034   002AAE  6F14               	movwf	??_CCP1_PWM1_Set_Duty_Cycle& (0+255),b
  3035   002AB0  6B15               	clrf	(??_CCP1_PWM1_Set_Duty_Cycle+1)& (0+255),b
  3036   002AB2  0E01               	movlw	1
  3037   002AB4  2714               	addwf	??_CCP1_PWM1_Set_Duty_Cycle& (0+255),f,b
  3038   002AB6  0E00               	movlw	0
  3039   002AB8  2315               	addwfc	(??_CCP1_PWM1_Set_Duty_Cycle+1)& (0+255),f,b
  3040   002ABA  C114  F026         	movff	??_CCP1_PWM1_Set_Duty_Cycle,___xxtofl@val
  3041   002ABE  C115  F027         	movff	??_CCP1_PWM1_Set_Duty_Cycle+1,___xxtofl@val+1
  3042   002AC2  0E00               	movlw	0
  3043   002AC4  BE27               	btfsc	(___xxtofl@val+1)^0,7,c
  3044   002AC6  0EFF               	movlw	-1
  3045   002AC8  6E28               	movwf	(___xxtofl@val+2)^0,c
  3046   002ACA  6E29               	movwf	(___xxtofl@val+3)^0,c
  3047   002ACC  0E01               	movlw	1
  3048   002ACE  EC89  F012         	call	___xxtofl
  3049   002AD2  C026  F080         	movff	?___xxtofl,___flmul@b
  3050   002AD6  C027  F081         	movff	?___xxtofl+1,___flmul@b+1
  3051   002ADA  C028  F082         	movff	?___xxtofl+2,___flmul@b+2
  3052   002ADE  C029  F083         	movff	?___xxtofl+3,___flmul@b+3
  3053   002AE2  EC7F  F00A         	call	___flmul	;wreg free
  3054   002AE6  C080  F116         	movff	?___flmul,_CCP1_PWM1_Set_Duty_Cycle$4196
  3055   002AEA  C081  F117         	movff	?___flmul+1,_CCP1_PWM1_Set_Duty_Cycle$4196+1
  3056   002AEE  C082  F118         	movff	?___flmul+2,_CCP1_PWM1_Set_Duty_Cycle$4196+2
  3057   002AF2  C083  F119         	movff	?___flmul+3,_CCP1_PWM1_Set_Duty_Cycle$4196+3
  3058   002AF6                     
  3059                           ;MCAL_Layer/CCP/CCP1/hal_ccp1.c: 158:     l_duty_temp = (uint16)((PR2+1)*(_duty/100.0)*4
      +                          );
  3060   002AF6  0E00               	movlw	0
  3061   002AF8  0100               	movlb	0	; () banked
  3062   002AFA  6F84               	movwf	___flmul@a& (0+255),b
  3063   002AFC  0E00               	movlw	0
  3064   002AFE  6F85               	movwf	(___flmul@a+1)& (0+255),b
  3065   002B00  0E80               	movlw	128
  3066   002B02  6F86               	movwf	(___flmul@a+2)& (0+255),b
  3067   002B04  0E40               	movlw	64
  3068   002B06  6F87               	movwf	(___flmul@a+3)& (0+255),b
  3069   002B08  C116  F080         	movff	_CCP1_PWM1_Set_Duty_Cycle$4196,___flmul@b
  3070   002B0C  C117  F081         	movff	_CCP1_PWM1_Set_Duty_Cycle$4196+1,___flmul@b+1
  3071   002B10  C118  F082         	movff	_CCP1_PWM1_Set_Duty_Cycle$4196+2,___flmul@b+2
  3072   002B14  C119  F083         	movff	_CCP1_PWM1_Set_Duty_Cycle$4196+3,___flmul@b+3
  3073   002B18  EC7F  F00A         	call	___flmul	;wreg free
  3074   002B1C  C080  F10C         	movff	?___flmul,___fltol@f1
  3075   002B20  C081  F10D         	movff	?___flmul+1,___fltol@f1+1
  3076   002B24  C082  F10E         	movff	?___flmul+2,___fltol@f1+2
  3077   002B28  C083  F10F         	movff	?___flmul+3,___fltol@f1+3
  3078   002B2C  EC9B  F014         	call	___fltol	;wreg free
  3079   002B30  C10C  F11B         	movff	?___fltol,CCP1_PWM1_Set_Duty_Cycle@l_duty_temp
  3080   002B34  C10D  F11C         	movff	?___fltol+1,CCP1_PWM1_Set_Duty_Cycle@l_duty_temp+1
  3081   002B38                     
  3082                           ;MCAL_Layer/CCP/CCP1/hal_ccp1.c: 159:     CCP1CONbits.DC1B = (uint8)(l_duty_temp & 0x000
      +                          3);
  3083   002B38  C11B  F114         	movff	CCP1_PWM1_Set_Duty_Cycle@l_duty_temp,??_CCP1_PWM1_Set_Duty_Cycle
  3084   002B3C  0E03               	movlw	3
  3085   002B3E  0101               	movlb	1	; () banked
  3086   002B40  1714               	andwf	??_CCP1_PWM1_Set_Duty_Cycle& (0+255),f,b
  3087   002B42  3B14               	swapf	??_CCP1_PWM1_Set_Duty_Cycle& (0+255),f,b
  3088   002B44  50BD               	movf	189,w,c	;volatile
  3089   002B46  1914               	xorwf	??_CCP1_PWM1_Set_Duty_Cycle& (0+255),w,b
  3090   002B48  0BCF               	andlw	-49
  3091   002B4A  1914               	xorwf	??_CCP1_PWM1_Set_Duty_Cycle& (0+255),w,b
  3092   002B4C  6EBD               	movwf	189,c	;volatile
  3093   002B4E                     
  3094                           ; BSR set to: 1
  3095                           ;MCAL_Layer/CCP/CCP1/hal_ccp1.c: 160:     CCPR1L = (uint8)(l_duty_temp >> 2);
  3096   002B4E  C11B  F114         	movff	CCP1_PWM1_Set_Duty_Cycle@l_duty_temp,??_CCP1_PWM1_Set_Duty_Cycle
  3097   002B52  C11C  F115         	movff	CCP1_PWM1_Set_Duty_Cycle@l_duty_temp+1,??_CCP1_PWM1_Set_Duty_Cycle+1
  3098   002B56  90D8               	bcf	status,0,c
  3099   002B58  3315               	rrcf	(??_CCP1_PWM1_Set_Duty_Cycle+1)& (0+255),f,b
  3100   002B5A  3314               	rrcf	??_CCP1_PWM1_Set_Duty_Cycle& (0+255),f,b
  3101   002B5C  90D8               	bcf	status,0,c
  3102   002B5E  3315               	rrcf	(??_CCP1_PWM1_Set_Duty_Cycle+1)& (0+255),f,b
  3103   002B60  3314               	rrcf	??_CCP1_PWM1_Set_Duty_Cycle& (0+255),f,b
  3104   002B62  5114               	movf	??_CCP1_PWM1_Set_Duty_Cycle& (0+255),w,b
  3105   002B64  6EBE               	movwf	190,c	;volatile
  3106   002B66                     
  3107                           ; BSR set to: 1
  3108                           ;MCAL_Layer/CCP/CCP1/hal_ccp1.c: 163:     return ret;
  3109   002B66  0E01               	movlw	1
  3110   002B68                     
  3111                           ; BSR set to: 1
  3112   002B68  0012               	return		;funcret
  3113   002B6A                     __end_of_CCP1_PWM1_Set_Duty_Cycle:
  3114                           	callstack 0
  3115                           
  3116 ;; *************** function ___xxtofl *****************
  3117 ;; Defined at:
  3118 ;;		line 10 in file "C:\Program Files\Microchip\xc8\v2.41\pic\sources\c99\common\xxtofl.c"
  3119 ;; Parameters:    Size  Location     Type
  3120 ;;  sign            1    wreg     unsigned char 
  3121 ;;  val             4   37[COMRAM] long 
  3122 ;; Auto vars:     Size  Location     Type
  3123 ;;  sign            1   45[COMRAM] unsigned char 
  3124 ;;  arg             4   47[COMRAM] unsigned long 
  3125 ;;  exp             1   46[COMRAM] unsigned char 
  3126 ;; Return value:  Size  Location     Type
  3127 ;;                  4   37[COMRAM] unsigned char 
  3128 ;; Registers used:
  3129 ;;		wreg, status,2, status,0
  3130 ;; Tracked objects:
  3131 ;;		On entry : 0/0
  3132 ;;		On exit  : 0/0
  3133 ;;		Unchanged: 0/0
  3134 ;; Data sizes:     COMRAM   BANK0   BANK1   BANK2   BANK3   BANK4   BANK5   BANK6   BANK7   BANK8   BANK9  BANK10  BANK1
      +1  BANK12  BANK13  BANK14  BANK15
  3135 ;;      Params:         4       0       0       0       0       0       0       0       0       0       0       0       
      +0       0       0       0       0
  3136 ;;      Locals:         6       0       0       0       0       0       0       0       0       0       0       0       
      +0       0       0       0       0
  3137 ;;      Temps:          4       0       0       0       0       0       0       0       0       0       0       0       
      +0       0       0       0       0
  3138 ;;      Totals:        14       0       0       0       0       0       0       0       0       0       0       0       
      +0       0       0       0       0
  3139 ;;Total ram usage:       14 bytes
  3140 ;; Hardware stack levels used: 1
  3141 ;; Hardware stack levels required when called: 12
  3142 ;; This function calls:
  3143 ;;		Nothing
  3144 ;; This function is called by:
  3145 ;;		_CCP1_Init
  3146 ;;		_CCP1_PWM1_Set_Duty_Cycle
  3147 ;; This function uses a non-reentrant model
  3148 ;;
  3149                           
  3150                           	psect	text10
  3151   002512                     __ptext10:
  3152                           	callstack 0
  3153   002512                     ___xxtofl:
  3154                           	callstack 16
  3155                           
  3156                           ; BSR set to: 1
  3157                           ;incstack = 0
  3158                           ;___xxtofl@sign stored from wreg
  3159   002512  6E2E               	movwf	___xxtofl@sign^0,c
  3160   002514  502E               	movf	___xxtofl@sign^0,w,c
  3161   002516  B4D8               	btfsc	status,2,c
  3162   002518  EF90  F012         	goto	u8371
  3163   00251C  EF92  F012         	goto	u8370
  3164   002520                     u8371:
  3165   002520  EFB4  F012         	goto	l1917
  3166   002524                     u8370:
  3167   002524  BE29               	btfsc	(___xxtofl@val+3)^0,7,c
  3168   002526  EF99  F012         	goto	u8380
  3169   00252A  EF97  F012         	goto	u8381
  3170   00252E                     u8381:
  3171   00252E  EFB4  F012         	goto	l1917
  3172   002532                     u8380:
  3173   002532  C026  F02A         	movff	___xxtofl@val,??___xxtofl
  3174   002536  C027  F02B         	movff	___xxtofl@val+1,??___xxtofl+1
  3175   00253A  C028  F02C         	movff	___xxtofl@val+2,??___xxtofl+2
  3176   00253E  C029  F02D         	movff	___xxtofl@val+3,??___xxtofl+3
  3177   002542  1E2A               	comf	??___xxtofl^0,f,c
  3178   002544  1E2B               	comf	(??___xxtofl+1)^0,f,c
  3179   002546  1E2C               	comf	(??___xxtofl+2)^0,f,c
  3180   002548  1E2D               	comf	(??___xxtofl+3)^0,f,c
  3181   00254A  2A2A               	incf	??___xxtofl^0,f,c
  3182   00254C  0E00               	movlw	0
  3183   00254E  222B               	addwfc	(??___xxtofl+1)^0,f,c
  3184   002550  222C               	addwfc	(??___xxtofl+2)^0,f,c
  3185   002552  222D               	addwfc	(??___xxtofl+3)^0,f,c
  3186   002554  C02A  F030         	movff	??___xxtofl,___xxtofl@arg
  3187   002558  C02B  F031         	movff	??___xxtofl+1,___xxtofl@arg+1
  3188   00255C  C02C  F032         	movff	??___xxtofl+2,___xxtofl@arg+2
  3189   002560  C02D  F033         	movff	??___xxtofl+3,___xxtofl@arg+3
  3190   002564  EFBC  F012         	goto	l7470
  3191   002568                     l1917:
  3192   002568  C026  F030         	movff	___xxtofl@val,___xxtofl@arg
  3193   00256C  C027  F031         	movff	___xxtofl@val+1,___xxtofl@arg+1
  3194   002570  C028  F032         	movff	___xxtofl@val+2,___xxtofl@arg+2
  3195   002574  C029  F033         	movff	___xxtofl@val+3,___xxtofl@arg+3
  3196   002578                     l7470:
  3197   002578  5026               	movf	___xxtofl@val^0,w,c
  3198   00257A  1027               	iorwf	(___xxtofl@val+1)^0,w,c
  3199   00257C  1028               	iorwf	(___xxtofl@val+2)^0,w,c
  3200   00257E  1029               	iorwf	(___xxtofl@val+3)^0,w,c
  3201   002580  A4D8               	btfss	status,2,c
  3202   002582  EFC5  F012         	goto	u8391
  3203   002586  EFC7  F012         	goto	u8390
  3204   00258A                     u8391:
  3205   00258A  EFD1  F012         	goto	l7476
  3206   00258E                     u8390:
  3207   00258E  0E00               	movlw	0
  3208   002590  6E26               	movwf	?___xxtofl^0,c
  3209   002592  0E00               	movlw	0
  3210   002594  6E27               	movwf	(?___xxtofl+1)^0,c
  3211   002596  0E00               	movlw	0
  3212   002598  6E28               	movwf	(?___xxtofl+2)^0,c
  3213   00259A  0E00               	movlw	0
  3214   00259C  6E29               	movwf	(?___xxtofl+3)^0,c
  3215   00259E  EF62  F013         	goto	l1920
  3216   0025A2                     l7476:
  3217   0025A2  0E96               	movlw	150
  3218   0025A4  6E2F               	movwf	___xxtofl@exp^0,c
  3219   0025A6  EFDB  F012         	goto	l7480
  3220   0025AA                     l7478:
  3221   0025AA  2A2F               	incf	___xxtofl@exp^0,f,c
  3222   0025AC  90D8               	bcf	status,0,c
  3223   0025AE  3233               	rrcf	(___xxtofl@arg+3)^0,f,c
  3224   0025B0  3232               	rrcf	(___xxtofl@arg+2)^0,f,c
  3225   0025B2  3231               	rrcf	(___xxtofl@arg+1)^0,f,c
  3226   0025B4  3230               	rrcf	___xxtofl@arg^0,f,c
  3227   0025B6                     l7480:
  3228   0025B6  0E00               	movlw	0
  3229   0025B8  1430               	andwf	___xxtofl@arg^0,w,c
  3230   0025BA  6E2A               	movwf	??___xxtofl^0,c
  3231   0025BC  0E00               	movlw	0
  3232   0025BE  1431               	andwf	(___xxtofl@arg+1)^0,w,c
  3233   0025C0  6E2B               	movwf	(??___xxtofl+1)^0,c
  3234   0025C2  0E00               	movlw	0
  3235   0025C4  1432               	andwf	(___xxtofl@arg+2)^0,w,c
  3236   0025C6  6E2C               	movwf	(??___xxtofl+2)^0,c
  3237   0025C8  0EFE               	movlw	254
  3238   0025CA  1433               	andwf	(___xxtofl@arg+3)^0,w,c
  3239   0025CC  6E2D               	movwf	(??___xxtofl+3)^0,c
  3240   0025CE  502A               	movf	??___xxtofl^0,w,c
  3241   0025D0  102B               	iorwf	(??___xxtofl+1)^0,w,c
  3242   0025D2  102C               	iorwf	(??___xxtofl+2)^0,w,c
  3243   0025D4  102D               	iorwf	(??___xxtofl+3)^0,w,c
  3244   0025D6  A4D8               	btfss	status,2,c
  3245   0025D8  EFF0  F012         	goto	u8401
  3246   0025DC  EFF2  F012         	goto	u8400
  3247   0025E0                     u8401:
  3248   0025E0  EFD5  F012         	goto	l7478
  3249   0025E4                     u8400:
  3250   0025E4  EF00  F013         	goto	l1924
  3251   0025E8                     l7482:
  3252   0025E8  2A2F               	incf	___xxtofl@exp^0,f,c
  3253   0025EA  0E01               	movlw	1
  3254   0025EC  2630               	addwf	___xxtofl@arg^0,f,c
  3255   0025EE  0E00               	movlw	0
  3256   0025F0  2231               	addwfc	(___xxtofl@arg+1)^0,f,c
  3257   0025F2  2232               	addwfc	(___xxtofl@arg+2)^0,f,c
  3258   0025F4  2233               	addwfc	(___xxtofl@arg+3)^0,f,c
  3259   0025F6  90D8               	bcf	status,0,c
  3260   0025F8  3233               	rrcf	(___xxtofl@arg+3)^0,f,c
  3261   0025FA  3232               	rrcf	(___xxtofl@arg+2)^0,f,c
  3262   0025FC  3231               	rrcf	(___xxtofl@arg+1)^0,f,c
  3263   0025FE  3230               	rrcf	___xxtofl@arg^0,f,c
  3264   002600                     l1924:
  3265   002600  0E00               	movlw	0
  3266   002602  1430               	andwf	___xxtofl@arg^0,w,c
  3267   002604  6E2A               	movwf	??___xxtofl^0,c
  3268   002606  0E00               	movlw	0
  3269   002608  1431               	andwf	(___xxtofl@arg+1)^0,w,c
  3270   00260A  6E2B               	movwf	(??___xxtofl+1)^0,c
  3271   00260C  0E00               	movlw	0
  3272   00260E  1432               	andwf	(___xxtofl@arg+2)^0,w,c
  3273   002610  6E2C               	movwf	(??___xxtofl+2)^0,c
  3274   002612  0EFF               	movlw	255
  3275   002614  1433               	andwf	(___xxtofl@arg+3)^0,w,c
  3276   002616  6E2D               	movwf	(??___xxtofl+3)^0,c
  3277   002618  502A               	movf	??___xxtofl^0,w,c
  3278   00261A  102B               	iorwf	(??___xxtofl+1)^0,w,c
  3279   00261C  102C               	iorwf	(??___xxtofl+2)^0,w,c
  3280   00261E  102D               	iorwf	(??___xxtofl+3)^0,w,c
  3281   002620  A4D8               	btfss	status,2,c
  3282   002622  EF15  F013         	goto	u8411
  3283   002626  EF17  F013         	goto	u8410
  3284   00262A                     u8411:
  3285   00262A  EFF4  F012         	goto	l7482
  3286   00262E                     u8410:
  3287   00262E  EF1F  F013         	goto	l7490
  3288   002632                     l7488:
  3289   002632  062F               	decf	___xxtofl@exp^0,f,c
  3290   002634  90D8               	bcf	status,0,c
  3291   002636  3630               	rlcf	___xxtofl@arg^0,f,c
  3292   002638  3631               	rlcf	(___xxtofl@arg+1)^0,f,c
  3293   00263A  3632               	rlcf	(___xxtofl@arg+2)^0,f,c
  3294   00263C  3633               	rlcf	(___xxtofl@arg+3)^0,f,c
  3295   00263E                     l7490:
  3296   00263E  BE32               	btfsc	(___xxtofl@arg+2)^0,7,c
  3297   002640  EF24  F013         	goto	u8421
  3298   002644  EF26  F013         	goto	u8420
  3299   002648                     u8421:
  3300   002648  EF2E  F013         	goto	l1931
  3301   00264C                     u8420:
  3302   00264C  0E02               	movlw	2
  3303   00264E  602F               	cpfslt	___xxtofl@exp^0,c
  3304   002650  EF2C  F013         	goto	u8431
  3305   002654  EF2E  F013         	goto	u8430
  3306   002658                     u8431:
  3307   002658  EF19  F013         	goto	l7488
  3308   00265C                     u8430:
  3309   00265C                     l1931:
  3310   00265C  B02F               	btfsc	___xxtofl@exp^0,0,c
  3311   00265E  EF33  F013         	goto	u8441
  3312   002662  EF35  F013         	goto	u8440
  3313   002666                     u8441:
  3314   002666  EF36  F013         	goto	l7496
  3315   00266A                     u8440:
  3316   00266A  9E32               	bcf	(___xxtofl@arg+2)^0,7,c
  3317   00266C                     l7496:
  3318   00266C  90D8               	bcf	status,0,c
  3319   00266E  322F               	rrcf	___xxtofl@exp^0,f,c
  3320   002670  C02F  F02A         	movff	___xxtofl@exp,??___xxtofl
  3321   002674  6A2B               	clrf	(??___xxtofl+1)^0,c
  3322   002676  6A2C               	clrf	(??___xxtofl+2)^0,c
  3323   002678  6A2D               	clrf	(??___xxtofl+3)^0,c
  3324   00267A  C02A  F02D         	movff	??___xxtofl,??___xxtofl+3
  3325   00267E  6A2C               	clrf	(??___xxtofl+2)^0,c
  3326   002680  6A2B               	clrf	(??___xxtofl+1)^0,c
  3327   002682  6A2A               	clrf	??___xxtofl^0,c
  3328   002684  502A               	movf	??___xxtofl^0,w,c
  3329   002686  1230               	iorwf	___xxtofl@arg^0,f,c
  3330   002688  502B               	movf	(??___xxtofl+1)^0,w,c
  3331   00268A  1231               	iorwf	(___xxtofl@arg+1)^0,f,c
  3332   00268C  502C               	movf	(??___xxtofl+2)^0,w,c
  3333   00268E  1232               	iorwf	(___xxtofl@arg+2)^0,f,c
  3334   002690  502D               	movf	(??___xxtofl+3)^0,w,c
  3335   002692  1233               	iorwf	(___xxtofl@arg+3)^0,f,c
  3336   002694  502E               	movf	___xxtofl@sign^0,w,c
  3337   002696  B4D8               	btfsc	status,2,c
  3338   002698  EF50  F013         	goto	u8451
  3339   00269C  EF52  F013         	goto	u8450
  3340   0026A0                     u8451:
  3341   0026A0  EF5A  F013         	goto	l7506
  3342   0026A4                     u8450:
  3343   0026A4  BE29               	btfsc	(___xxtofl@val+3)^0,7,c
  3344   0026A6  EF59  F013         	goto	u8460
  3345   0026AA  EF57  F013         	goto	u8461
  3346   0026AE                     u8461:
  3347   0026AE  EF5A  F013         	goto	l7506
  3348   0026B2                     u8460:
  3349   0026B2  8E33               	bsf	(___xxtofl@arg+3)^0,7,c
  3350   0026B4                     l7506:
  3351   0026B4  C030  F026         	movff	___xxtofl@arg,?___xxtofl
  3352   0026B8  C031  F027         	movff	___xxtofl@arg+1,?___xxtofl+1
  3353   0026BC  C032  F028         	movff	___xxtofl@arg+2,?___xxtofl+2
  3354   0026C0  C033  F029         	movff	___xxtofl@arg+3,?___xxtofl+3
  3355   0026C4                     l1920:
  3356   0026C4  0012               	return		;funcret
  3357   0026C6                     __end_of___xxtofl:
  3358                           	callstack 0
  3359                           
  3360 ;; *************** function ___fltol *****************
  3361 ;; Defined at:
  3362 ;;		line 43 in file "C:\Program Files\Microchip\xc8\v2.41\pic\sources\c99\common\fltol.c"
  3363 ;; Parameters:    Size  Location     Type
  3364 ;;  f1              4   12[BANK1 ] unsigned char 
  3365 ;; Auto vars:     Size  Location     Type
  3366 ;;  exp1            1   55[BANK0 ] unsigned char 
  3367 ;;  sign1           1   54[BANK0 ] unsigned char 
  3368 ;; Return value:  Size  Location     Type
  3369 ;;                  4   12[BANK1 ] long 
  3370 ;; Registers used:
  3371 ;;		wreg, status,2, status,0
  3372 ;; Tracked objects:
  3373 ;;		On entry : 0/0
  3374 ;;		On exit  : 0/0
  3375 ;;		Unchanged: 0/0
  3376 ;; Data sizes:     COMRAM   BANK0   BANK1   BANK2   BANK3   BANK4   BANK5   BANK6   BANK7   BANK8   BANK9  BANK10  BANK1
      +1  BANK12  BANK13  BANK14  BANK15
  3377 ;;      Params:         0       0       4       0       0       0       0       0       0       0       0       0       
      +0       0       0       0       0
  3378 ;;      Locals:         0       2       0       0       0       0       0       0       0       0       0       0       
      +0       0       0       0       0
  3379 ;;      Temps:          0       0       4       0       0       0       0       0       0       0       0       0       
      +0       0       0       0       0
  3380 ;;      Totals:         0       2       8       0       0       0       0       0       0       0       0       0       
      +0       0       0       0       0
  3381 ;;Total ram usage:       10 bytes
  3382 ;; Hardware stack levels used: 1
  3383 ;; Hardware stack levels required when called: 12
  3384 ;; This function calls:
  3385 ;;		Nothing
  3386 ;; This function is called by:
  3387 ;;		_CCP1_Init
  3388 ;;		_CCP1_PWM1_Set_Duty_Cycle
  3389 ;; This function uses a non-reentrant model
  3390 ;;
  3391                           
  3392                           	psect	text11
  3393   002936                     __ptext11:
  3394                           	callstack 0
  3395   002936                     ___fltol:
  3396                           	callstack 16
  3397   002936  0101               	movlb	1	; () banked
  3398   002938  350E               	rlcf	(___fltol@f1+2)& (0+255),w,b
  3399   00293A  350F               	rlcf	(___fltol@f1+3)& (0+255),w,b
  3400   00293C  0100               	movlb	0	; () banked
  3401   00293E  6FB7               	movwf	___fltol@exp1& (0+255),b
  3402   002940  51B7               	movf	___fltol@exp1& (0+255),w,b
  3403   002942  A4D8               	btfss	status,2,c
  3404   002944  EFA6  F014         	goto	u8301
  3405   002948  EFA8  F014         	goto	u8300
  3406   00294C                     u8301:
  3407   00294C  EFB3  F014         	goto	l7426
  3408   002950                     u8300:
  3409   002950                     l7422:
  3410                           
  3411                           ; BSR set to: 0
  3412   002950  0E00               	movlw	0
  3413   002952  0101               	movlb	1	; () banked
  3414   002954  6F0C               	movwf	?___fltol& (0+255),b
  3415   002956  0E00               	movlw	0
  3416   002958  6F0D               	movwf	(?___fltol+1)& (0+255),b
  3417   00295A  0E00               	movlw	0
  3418   00295C  6F0E               	movwf	(?___fltol+2)& (0+255),b
  3419   00295E  0E00               	movlw	0
  3420   002960  6F0F               	movwf	(?___fltol+3)& (0+255),b
  3421   002962  EF29  F015         	goto	l1559
  3422   002966                     l7426:
  3423                           
  3424                           ; BSR set to: 0
  3425   002966  C10C  F110         	movff	___fltol@f1,??___fltol
  3426   00296A  C10D  F111         	movff	___fltol@f1+1,??___fltol+1
  3427   00296E  C10E  F112         	movff	___fltol@f1+2,??___fltol+2
  3428   002972  C10F  F113         	movff	___fltol@f1+3,??___fltol+3
  3429   002976  0E20               	movlw	32
  3430   002978  EFC4  F014         	goto	u8310
  3431   00297C                     u8315:
  3432   00297C  0101               	movlb	1	; () banked
  3433   00297E  90D8               	bcf	status,0,c
  3434   002980  3313               	rrcf	(??___fltol+3)& (0+255),f,b
  3435   002982  3312               	rrcf	(??___fltol+2)& (0+255),f,b
  3436   002984  3311               	rrcf	(??___fltol+1)& (0+255),f,b
  3437   002986  3310               	rrcf	??___fltol& (0+255),f,b
  3438   002988                     u8310:
  3439   002988  2EE8               	decfsz	wreg,f,c
  3440   00298A  EFBE  F014         	goto	u8315
  3441   00298E  5110               	movf	??___fltol& (0+255),w,b
  3442   002990  0100               	movlb	0	; () banked
  3443   002992  6FB6               	movwf	___fltol@sign1& (0+255),b
  3444   002994                     
  3445                           ; BSR set to: 0
  3446   002994  0101               	movlb	1	; () banked
  3447   002996  8F0E               	bsf	(___fltol@f1+2)& (0+255),7,b
  3448   002998                     
  3449                           ; BSR set to: 1
  3450   002998  0EFF               	movlw	255
  3451   00299A  170C               	andwf	___fltol@f1& (0+255),f,b
  3452   00299C  0EFF               	movlw	255
  3453   00299E  170D               	andwf	(___fltol@f1+1)& (0+255),f,b
  3454   0029A0  0EFF               	movlw	255
  3455   0029A2  170E               	andwf	(___fltol@f1+2)& (0+255),f,b
  3456   0029A4  0E00               	movlw	0
  3457   0029A6  170F               	andwf	(___fltol@f1+3)& (0+255),f,b
  3458   0029A8                     
  3459                           ; BSR set to: 1
  3460   0029A8  0E96               	movlw	150
  3461   0029AA  0100               	movlb	0	; () banked
  3462   0029AC  5FB7               	subwf	___fltol@exp1& (0+255),f,b
  3463   0029AE                     
  3464                           ; BSR set to: 0
  3465   0029AE  BFB7               	btfsc	___fltol@exp1& (0+255),7,b
  3466   0029B0  EFDE  F014         	goto	u8320
  3467   0029B4  EFDC  F014         	goto	u8321
  3468   0029B8                     u8321:
  3469   0029B8  EFF6  F014         	goto	l7446
  3470   0029BC                     u8320:
  3471   0029BC                     
  3472                           ; BSR set to: 0
  3473   0029BC  51B7               	movf	___fltol@exp1& (0+255),w,b
  3474   0029BE  0A80               	xorlw	128
  3475   0029C0  0F97               	addlw	151
  3476   0029C2  B0D8               	btfsc	status,0,c
  3477   0029C4  EFE6  F014         	goto	u8331
  3478   0029C8  EFE8  F014         	goto	u8330
  3479   0029CC                     u8331:
  3480   0029CC  EFEA  F014         	goto	l7442
  3481   0029D0                     u8330:
  3482   0029D0  EFA8  F014         	goto	l7422
  3483   0029D4                     l7442:
  3484                           
  3485                           ; BSR set to: 0
  3486   0029D4  0101               	movlb	1	; () banked
  3487   0029D6  90D8               	bcf	status,0,c
  3488   0029D8  330F               	rrcf	(___fltol@f1+3)& (0+255),f,b
  3489   0029DA  330E               	rrcf	(___fltol@f1+2)& (0+255),f,b
  3490   0029DC  330D               	rrcf	(___fltol@f1+1)& (0+255),f,b
  3491   0029DE  330C               	rrcf	___fltol@f1& (0+255),f,b
  3492   0029E0                     
  3493                           ; BSR set to: 1
  3494   0029E0  0100               	movlb	0	; () banked
  3495   0029E2  3FB7               	incfsz	___fltol@exp1& (0+255),f,b
  3496   0029E4  EFEA  F014         	goto	l7442
  3497   0029E8  EF10  F015         	goto	l7456
  3498   0029EC                     l7446:
  3499                           
  3500                           ; BSR set to: 0
  3501   0029EC  0E1F               	movlw	31
  3502   0029EE  65B7               	cpfsgt	___fltol@exp1& (0+255),b
  3503   0029F0  EFFC  F014         	goto	u8341
  3504   0029F4  EFFE  F014         	goto	u8340
  3505   0029F8                     u8341:
  3506   0029F8  EF08  F015         	goto	l7454
  3507   0029FC                     u8340:
  3508   0029FC  EFA8  F014         	goto	l7422
  3509   002A00                     l7452:
  3510                           
  3511                           ; BSR set to: 0
  3512   002A00  0101               	movlb	1	; () banked
  3513   002A02  90D8               	bcf	status,0,c
  3514   002A04  370C               	rlcf	___fltol@f1& (0+255),f,b
  3515   002A06  370D               	rlcf	(___fltol@f1+1)& (0+255),f,b
  3516   002A08  370E               	rlcf	(___fltol@f1+2)& (0+255),f,b
  3517   002A0A  370F               	rlcf	(___fltol@f1+3)& (0+255),f,b
  3518   002A0C  0100               	movlb	0	; () banked
  3519   002A0E  07B7               	decf	___fltol@exp1& (0+255),f,b
  3520   002A10                     l7454:
  3521                           
  3522                           ; BSR set to: 0
  3523   002A10  51B7               	movf	___fltol@exp1& (0+255),w,b
  3524   002A12  A4D8               	btfss	status,2,c
  3525   002A14  EF0E  F015         	goto	u8351
  3526   002A18  EF10  F015         	goto	u8350
  3527   002A1C                     u8351:
  3528   002A1C  EF00  F015         	goto	l7452
  3529   002A20                     u8350:
  3530   002A20                     l7456:
  3531                           
  3532                           ; BSR set to: 0
  3533   002A20  51B6               	movf	___fltol@sign1& (0+255),w,b
  3534   002A22  B4D8               	btfsc	status,2,c
  3535   002A24  EF16  F015         	goto	u8361
  3536   002A28  EF18  F015         	goto	u8360
  3537   002A2C                     u8361:
  3538   002A2C  EF21  F015         	goto	l7460
  3539   002A30                     u8360:
  3540   002A30                     
  3541                           ; BSR set to: 0
  3542   002A30  0101               	movlb	1	; () banked
  3543   002A32  1F0F               	comf	(___fltol@f1+3)& (0+255),f,b
  3544   002A34  1F0E               	comf	(___fltol@f1+2)& (0+255),f,b
  3545   002A36  1F0D               	comf	(___fltol@f1+1)& (0+255),f,b
  3546   002A38  6D0C               	negf	___fltol@f1& (0+255),b
  3547   002A3A  0E00               	movlw	0
  3548   002A3C  230D               	addwfc	(___fltol@f1+1)& (0+255),f,b
  3549   002A3E  230E               	addwfc	(___fltol@f1+2)& (0+255),f,b
  3550   002A40  230F               	addwfc	(___fltol@f1+3)& (0+255),f,b
  3551   002A42                     l7460:
  3552   002A42  C10C  F10C         	movff	___fltol@f1,?___fltol
  3553   002A46  C10D  F10D         	movff	___fltol@f1+1,?___fltol+1
  3554   002A4A  C10E  F10E         	movff	___fltol@f1+2,?___fltol+2
  3555   002A4E  C10F  F10F         	movff	___fltol@f1+3,?___fltol+3
  3556   002A52                     l1559:
  3557   002A52  0012               	return		;funcret
  3558   002A54                     __end_of___fltol:
  3559                           	callstack 0
  3560                           
  3561 ;; *************** function ___flmul *****************
  3562 ;; Defined at:
  3563 ;;		line 8 in file "C:\Program Files\Microchip\xc8\v2.41\pic\sources\c99\common\sprcmul.c"
  3564 ;; Parameters:    Size  Location     Type
  3565 ;;  b               4    0[BANK0 ] long 
  3566 ;;  a               4    4[BANK0 ] long 
  3567 ;; Auto vars:     Size  Location     Type
  3568 ;;  prod            4   19[BANK0 ] struct .
  3569 ;;  grs             4   14[BANK0 ] unsigned long 
  3570 ;;  temp            2   23[BANK0 ] struct .
  3571 ;;  bexp            1   18[BANK0 ] unsigned char 
  3572 ;;  aexp            1   13[BANK0 ] unsigned char 
  3573 ;;  sign            1   12[BANK0 ] unsigned char 
  3574 ;; Return value:  Size  Location     Type
  3575 ;;                  4    0[BANK0 ] unsigned char 
  3576 ;; Registers used:
  3577 ;;		wreg, status,2, status,0, prodl, prodh
  3578 ;; Tracked objects:
  3579 ;;		On entry : 0/0
  3580 ;;		On exit  : 0/0
  3581 ;;		Unchanged: 0/0
  3582 ;; Data sizes:     COMRAM   BANK0   BANK1   BANK2   BANK3   BANK4   BANK5   BANK6   BANK7   BANK8   BANK9  BANK10  BANK1
      +1  BANK12  BANK13  BANK14  BANK15
  3583 ;;      Params:         0       8       0       0       0       0       0       0       0       0       0       0       
      +0       0       0       0       0
  3584 ;;      Locals:         0      13       0       0       0       0       0       0       0       0       0       0       
      +0       0       0       0       0
  3585 ;;      Temps:          0       4       0       0       0       0       0       0       0       0       0       0       
      +0       0       0       0       0
  3586 ;;      Totals:         0      25       0       0       0       0       0       0       0       0       0       0       
      +0       0       0       0       0
  3587 ;;Total ram usage:       25 bytes
  3588 ;; Hardware stack levels used: 1
  3589 ;; Hardware stack levels required when called: 12
  3590 ;; This function calls:
  3591 ;;		Nothing
  3592 ;; This function is called by:
  3593 ;;		_CCP1_Init
  3594 ;;		_CCP1_PWM1_Set_Duty_Cycle
  3595 ;; This function uses a non-reentrant model
  3596 ;;
  3597                           
  3598                           	psect	text12
  3599   0014FE                     __ptext12:
  3600                           	callstack 0
  3601   0014FE                     ___flmul:
  3602                           	callstack 16
  3603   0014FE  0100               	movlb	0	; () banked
  3604   001500  5183               	movf	(___flmul@b+3)& (0+255),w,b
  3605   001502  0B80               	andlw	128
  3606   001504  6F8C               	movwf	___flmul@sign& (0+255),b
  3607   001506  5183               	movf	(___flmul@b+3)& (0+255),w,b
  3608   001508  2583               	addwf	(___flmul@b+3)& (0+255),w,b
  3609   00150A  6F92               	movwf	___flmul@bexp& (0+255),b
  3610   00150C                     
  3611                           ; BSR set to: 0
  3612   00150C  AF82               	btfss	(___flmul@b+2)& (0+255),7,b
  3613   00150E  EF8B  F00A         	goto	u8111
  3614   001512  EF8D  F00A         	goto	u8110
  3615   001516                     u8111:
  3616   001516  EF8E  F00A         	goto	l7296
  3617   00151A                     u8110:
  3618   00151A                     
  3619                           ; BSR set to: 0
  3620   00151A  8192               	bsf	___flmul@bexp& (0+255),0,b
  3621   00151C                     l7296:
  3622                           
  3623                           ; BSR set to: 0
  3624   00151C  5192               	movf	___flmul@bexp& (0+255),w,b
  3625   00151E  B4D8               	btfsc	status,2,c
  3626   001520  EF94  F00A         	goto	u8121
  3627   001524  EF96  F00A         	goto	u8120
  3628   001528                     u8121:
  3629   001528  EFA9  F00A         	goto	l7304
  3630   00152C                     u8120:
  3631   00152C                     
  3632                           ; BSR set to: 0
  3633   00152C  2992               	incf	___flmul@bexp& (0+255),w,b
  3634   00152E  A4D8               	btfss	status,2,c
  3635   001530  EF9C  F00A         	goto	u8131
  3636   001534  EF9E  F00A         	goto	u8130
  3637   001538                     u8131:
  3638   001538  EFA6  F00A         	goto	l7302
  3639   00153C                     u8130:
  3640   00153C                     
  3641                           ; BSR set to: 0
  3642   00153C  0E00               	movlw	0
  3643   00153E  6F80               	movwf	___flmul@b& (0+255),b
  3644   001540  0E00               	movlw	0
  3645   001542  6F81               	movwf	(___flmul@b+1)& (0+255),b
  3646   001544  0E00               	movlw	0
  3647   001546  6F82               	movwf	(___flmul@b+2)& (0+255),b
  3648   001548  0E00               	movlw	0
  3649   00154A  6F83               	movwf	(___flmul@b+3)& (0+255),b
  3650   00154C                     l7302:
  3651                           
  3652                           ; BSR set to: 0
  3653   00154C  8F82               	bsf	(___flmul@b+2)& (0+255),7,b
  3654   00154E  EFB1  F00A         	goto	l7306
  3655   001552                     l7304:
  3656                           
  3657                           ; BSR set to: 0
  3658   001552  0E00               	movlw	0
  3659   001554  6F80               	movwf	___flmul@b& (0+255),b
  3660   001556  0E00               	movlw	0
  3661   001558  6F81               	movwf	(___flmul@b+1)& (0+255),b
  3662   00155A  0E00               	movlw	0
  3663   00155C  6F82               	movwf	(___flmul@b+2)& (0+255),b
  3664   00155E  0E00               	movlw	0
  3665   001560  6F83               	movwf	(___flmul@b+3)& (0+255),b
  3666   001562                     l7306:
  3667                           
  3668                           ; BSR set to: 0
  3669   001562  5187               	movf	(___flmul@a+3)& (0+255),w,b
  3670   001564  0B80               	andlw	128
  3671   001566  1B8C               	xorwf	___flmul@sign& (0+255),f,b
  3672   001568                     
  3673                           ; BSR set to: 0
  3674   001568  5187               	movf	(___flmul@a+3)& (0+255),w,b
  3675   00156A  2587               	addwf	(___flmul@a+3)& (0+255),w,b
  3676   00156C  6F8D               	movwf	___flmul@aexp& (0+255),b
  3677   00156E                     
  3678                           ; BSR set to: 0
  3679   00156E  AF86               	btfss	(___flmul@a+2)& (0+255),7,b
  3680   001570  EFBC  F00A         	goto	u8141
  3681   001574  EFBE  F00A         	goto	u8140
  3682   001578                     u8141:
  3683   001578  EFBF  F00A         	goto	l7314
  3684   00157C                     u8140:
  3685   00157C                     
  3686                           ; BSR set to: 0
  3687   00157C  818D               	bsf	___flmul@aexp& (0+255),0,b
  3688   00157E                     l7314:
  3689                           
  3690                           ; BSR set to: 0
  3691   00157E  518D               	movf	___flmul@aexp& (0+255),w,b
  3692   001580  B4D8               	btfsc	status,2,c
  3693   001582  EFC5  F00A         	goto	u8151
  3694   001586  EFC7  F00A         	goto	u8150
  3695   00158A                     u8151:
  3696   00158A  EFDA  F00A         	goto	l7322
  3697   00158E                     u8150:
  3698   00158E                     
  3699                           ; BSR set to: 0
  3700   00158E  298D               	incf	___flmul@aexp& (0+255),w,b
  3701   001590  A4D8               	btfss	status,2,c
  3702   001592  EFCD  F00A         	goto	u8161
  3703   001596  EFCF  F00A         	goto	u8160
  3704   00159A                     u8161:
  3705   00159A  EFD7  F00A         	goto	l7320
  3706   00159E                     u8160:
  3707   00159E                     
  3708                           ; BSR set to: 0
  3709   00159E  0E00               	movlw	0
  3710   0015A0  6F84               	movwf	___flmul@a& (0+255),b
  3711   0015A2  0E00               	movlw	0
  3712   0015A4  6F85               	movwf	(___flmul@a+1)& (0+255),b
  3713   0015A6  0E00               	movlw	0
  3714   0015A8  6F86               	movwf	(___flmul@a+2)& (0+255),b
  3715   0015AA  0E00               	movlw	0
  3716   0015AC  6F87               	movwf	(___flmul@a+3)& (0+255),b
  3717   0015AE                     l7320:
  3718                           
  3719                           ; BSR set to: 0
  3720   0015AE  8F86               	bsf	(___flmul@a+2)& (0+255),7,b
  3721   0015B0  EFE2  F00A         	goto	l1876
  3722   0015B4                     l7322:
  3723                           
  3724                           ; BSR set to: 0
  3725   0015B4  0E00               	movlw	0
  3726   0015B6  6F84               	movwf	___flmul@a& (0+255),b
  3727   0015B8  0E00               	movlw	0
  3728   0015BA  6F85               	movwf	(___flmul@a+1)& (0+255),b
  3729   0015BC  0E00               	movlw	0
  3730   0015BE  6F86               	movwf	(___flmul@a+2)& (0+255),b
  3731   0015C0  0E00               	movlw	0
  3732   0015C2  6F87               	movwf	(___flmul@a+3)& (0+255),b
  3733   0015C4                     l1876:
  3734                           
  3735                           ; BSR set to: 0
  3736   0015C4  518D               	movf	___flmul@aexp& (0+255),w,b
  3737   0015C6  B4D8               	btfsc	status,2,c
  3738   0015C8  EFE8  F00A         	goto	u8171
  3739   0015CC  EFEA  F00A         	goto	u8170
  3740   0015D0                     u8171:
  3741   0015D0  EFF2  F00A         	goto	l7326
  3742   0015D4                     u8170:
  3743   0015D4                     
  3744                           ; BSR set to: 0
  3745   0015D4  5192               	movf	___flmul@bexp& (0+255),w,b
  3746   0015D6  A4D8               	btfss	status,2,c
  3747   0015D8  EFF0  F00A         	goto	u8181
  3748   0015DC  EFF2  F00A         	goto	u8180
  3749   0015E0                     u8181:
  3750   0015E0  EFFC  F00A         	goto	l7330
  3751   0015E4                     u8180:
  3752   0015E4                     l7326:
  3753                           
  3754                           ; BSR set to: 0
  3755   0015E4  0E00               	movlw	0
  3756   0015E6  6F80               	movwf	?___flmul& (0+255),b
  3757   0015E8  0E00               	movlw	0
  3758   0015EA  6F81               	movwf	(?___flmul+1)& (0+255),b
  3759   0015EC  0E00               	movlw	0
  3760   0015EE  6F82               	movwf	(?___flmul+2)& (0+255),b
  3761   0015F0  0E00               	movlw	0
  3762   0015F2  6F83               	movwf	(?___flmul+3)& (0+255),b
  3763   0015F4  EF94  F00C         	goto	l1880
  3764   0015F8                     l7330:
  3765                           
  3766                           ; BSR set to: 0
  3767   0015F8  5186               	movf	(___flmul@a+2)& (0+255),w,b
  3768   0015FA  0380               	mulwf	___flmul@b& (0+255),b
  3769   0015FC  CFF3 F097          	movff	prodl,___flmul@temp
  3770   001600  CFF4 F098          	movff	prodh,___flmul@temp+1
  3771   001604                     
  3772                           ; BSR set to: 0
  3773   001604  5197               	movf	___flmul@temp& (0+255),w,b
  3774   001606  6F8E               	movwf	___flmul@grs& (0+255),b
  3775   001608  6B8F               	clrf	(___flmul@grs+1)& (0+255),b
  3776   00160A  6B90               	clrf	(___flmul@grs+2)& (0+255),b
  3777   00160C  6B91               	clrf	(___flmul@grs+3)& (0+255),b
  3778   00160E                     
  3779                           ; BSR set to: 0
  3780   00160E  5198               	movf	(___flmul@temp+1)& (0+255),w,b
  3781   001610  6F93               	movwf	___flmul@prod& (0+255),b
  3782   001612  6B94               	clrf	(___flmul@prod+1)& (0+255),b
  3783   001614  6B95               	clrf	(___flmul@prod+2)& (0+255),b
  3784   001616  6B96               	clrf	(___flmul@prod+3)& (0+255),b
  3785   001618  5185               	movf	(___flmul@a+1)& (0+255),w,b
  3786   00161A  0381               	mulwf	(___flmul@b+1)& (0+255),b
  3787   00161C  CFF3 F097          	movff	prodl,___flmul@temp
  3788   001620  CFF4 F098          	movff	prodh,___flmul@temp+1
  3789   001624                     
  3790                           ; BSR set to: 0
  3791   001624  5197               	movf	___flmul@temp& (0+255),w,b
  3792   001626  278E               	addwf	___flmul@grs& (0+255),f,b
  3793   001628  0E00               	movlw	0
  3794   00162A  238F               	addwfc	(___flmul@grs+1)& (0+255),f,b
  3795   00162C  2390               	addwfc	(___flmul@grs+2)& (0+255),f,b
  3796   00162E  2391               	addwfc	(___flmul@grs+3)& (0+255),f,b
  3797   001630                     
  3798                           ; BSR set to: 0
  3799   001630  5198               	movf	(___flmul@temp+1)& (0+255),w,b
  3800   001632  2793               	addwf	___flmul@prod& (0+255),f,b
  3801   001634  0E00               	movlw	0
  3802   001636  2394               	addwfc	(___flmul@prod+1)& (0+255),f,b
  3803   001638  2395               	addwfc	(___flmul@prod+2)& (0+255),f,b
  3804   00163A  2396               	addwfc	(___flmul@prod+3)& (0+255),f,b
  3805   00163C  5184               	movf	___flmul@a& (0+255),w,b
  3806   00163E  0382               	mulwf	(___flmul@b+2)& (0+255),b
  3807   001640  CFF3 F097          	movff	prodl,___flmul@temp
  3808   001644  CFF4 F098          	movff	prodh,___flmul@temp+1
  3809   001648                     
  3810                           ; BSR set to: 0
  3811   001648  5197               	movf	___flmul@temp& (0+255),w,b
  3812   00164A  278E               	addwf	___flmul@grs& (0+255),f,b
  3813   00164C  0E00               	movlw	0
  3814   00164E  238F               	addwfc	(___flmul@grs+1)& (0+255),f,b
  3815   001650  2390               	addwfc	(___flmul@grs+2)& (0+255),f,b
  3816   001652  2391               	addwfc	(___flmul@grs+3)& (0+255),f,b
  3817   001654                     
  3818                           ; BSR set to: 0
  3819   001654  5198               	movf	(___flmul@temp+1)& (0+255),w,b
  3820   001656  2793               	addwf	___flmul@prod& (0+255),f,b
  3821   001658  0E00               	movlw	0
  3822   00165A  2394               	addwfc	(___flmul@prod+1)& (0+255),f,b
  3823   00165C  2395               	addwfc	(___flmul@prod+2)& (0+255),f,b
  3824   00165E  2396               	addwfc	(___flmul@prod+3)& (0+255),f,b
  3825   001660                     
  3826                           ; BSR set to: 0
  3827   001660  C090  F091         	movff	___flmul@grs+2,___flmul@grs+3
  3828   001664  C08F  F090         	movff	___flmul@grs+1,___flmul@grs+2
  3829   001668  C08E  F08F         	movff	___flmul@grs,___flmul@grs+1
  3830   00166C  6B8E               	clrf	___flmul@grs& (0+255),b
  3831   00166E                     
  3832                           ; BSR set to: 0
  3833   00166E  5184               	movf	___flmul@a& (0+255),w,b
  3834   001670  0381               	mulwf	(___flmul@b+1)& (0+255),b
  3835   001672  CFF3 F097          	movff	prodl,___flmul@temp
  3836   001676  CFF4 F098          	movff	prodh,___flmul@temp+1
  3837   00167A                     
  3838                           ; BSR set to: 0
  3839   00167A  5197               	movf	___flmul@temp& (0+255),w,b
  3840   00167C  278E               	addwf	___flmul@grs& (0+255),f,b
  3841   00167E  5198               	movf	(___flmul@temp+1)& (0+255),w,b
  3842   001680  238F               	addwfc	(___flmul@grs+1)& (0+255),f,b
  3843   001682  0E00               	movlw	0
  3844   001684  2390               	addwfc	(___flmul@grs+2)& (0+255),f,b
  3845   001686  0E00               	movlw	0
  3846   001688  2391               	addwfc	(___flmul@grs+3)& (0+255),f,b
  3847   00168A                     
  3848                           ; BSR set to: 0
  3849   00168A  5185               	movf	(___flmul@a+1)& (0+255),w,b
  3850   00168C  0380               	mulwf	___flmul@b& (0+255),b
  3851   00168E  CFF3 F097          	movff	prodl,___flmul@temp
  3852   001692  CFF4 F098          	movff	prodh,___flmul@temp+1
  3853   001696                     
  3854                           ; BSR set to: 0
  3855   001696  5197               	movf	___flmul@temp& (0+255),w,b
  3856   001698  278E               	addwf	___flmul@grs& (0+255),f,b
  3857   00169A  5198               	movf	(___flmul@temp+1)& (0+255),w,b
  3858   00169C  238F               	addwfc	(___flmul@grs+1)& (0+255),f,b
  3859   00169E  0E00               	movlw	0
  3860   0016A0  2390               	addwfc	(___flmul@grs+2)& (0+255),f,b
  3861   0016A2  0E00               	movlw	0
  3862   0016A4  2391               	addwfc	(___flmul@grs+3)& (0+255),f,b
  3863   0016A6                     
  3864                           ; BSR set to: 0
  3865   0016A6  C090  F091         	movff	___flmul@grs+2,___flmul@grs+3
  3866   0016AA  C08F  F090         	movff	___flmul@grs+1,___flmul@grs+2
  3867   0016AE  C08E  F08F         	movff	___flmul@grs,___flmul@grs+1
  3868   0016B2  6B8E               	clrf	___flmul@grs& (0+255),b
  3869   0016B4  5184               	movf	___flmul@a& (0+255),w,b
  3870   0016B6  0380               	mulwf	___flmul@b& (0+255),b
  3871   0016B8  CFF3 F097          	movff	prodl,___flmul@temp
  3872   0016BC  CFF4 F098          	movff	prodh,___flmul@temp+1
  3873   0016C0                     
  3874                           ; BSR set to: 0
  3875   0016C0  5197               	movf	___flmul@temp& (0+255),w,b
  3876   0016C2  278E               	addwf	___flmul@grs& (0+255),f,b
  3877   0016C4  5198               	movf	(___flmul@temp+1)& (0+255),w,b
  3878   0016C6  238F               	addwfc	(___flmul@grs+1)& (0+255),f,b
  3879   0016C8  0E00               	movlw	0
  3880   0016CA  2390               	addwfc	(___flmul@grs+2)& (0+255),f,b
  3881   0016CC  0E00               	movlw	0
  3882   0016CE  2391               	addwfc	(___flmul@grs+3)& (0+255),f,b
  3883   0016D0                     
  3884                           ; BSR set to: 0
  3885   0016D0  5186               	movf	(___flmul@a+2)& (0+255),w,b
  3886   0016D2  0381               	mulwf	(___flmul@b+1)& (0+255),b
  3887   0016D4  CFF3 F097          	movff	prodl,___flmul@temp
  3888   0016D8  CFF4 F098          	movff	prodh,___flmul@temp+1
  3889   0016DC  5197               	movf	___flmul@temp& (0+255),w,b
  3890   0016DE  2793               	addwf	___flmul@prod& (0+255),f,b
  3891   0016E0  5198               	movf	(___flmul@temp+1)& (0+255),w,b
  3892   0016E2  2394               	addwfc	(___flmul@prod+1)& (0+255),f,b
  3893   0016E4  0E00               	movlw	0
  3894   0016E6  2395               	addwfc	(___flmul@prod+2)& (0+255),f,b
  3895   0016E8  0E00               	movlw	0
  3896   0016EA  2396               	addwfc	(___flmul@prod+3)& (0+255),f,b
  3897   0016EC                     
  3898                           ; BSR set to: 0
  3899   0016EC  5185               	movf	(___flmul@a+1)& (0+255),w,b
  3900   0016EE  0382               	mulwf	(___flmul@b+2)& (0+255),b
  3901   0016F0  CFF3 F097          	movff	prodl,___flmul@temp
  3902   0016F4  CFF4 F098          	movff	prodh,___flmul@temp+1
  3903   0016F8                     
  3904                           ; BSR set to: 0
  3905   0016F8  5197               	movf	___flmul@temp& (0+255),w,b
  3906   0016FA  2793               	addwf	___flmul@prod& (0+255),f,b
  3907   0016FC  5198               	movf	(___flmul@temp+1)& (0+255),w,b
  3908   0016FE  2394               	addwfc	(___flmul@prod+1)& (0+255),f,b
  3909   001700  0E00               	movlw	0
  3910   001702  2395               	addwfc	(___flmul@prod+2)& (0+255),f,b
  3911   001704  0E00               	movlw	0
  3912   001706  2396               	addwfc	(___flmul@prod+3)& (0+255),f,b
  3913   001708  5186               	movf	(___flmul@a+2)& (0+255),w,b
  3914   00170A  0382               	mulwf	(___flmul@b+2)& (0+255),b
  3915   00170C  CFF3 F097          	movff	prodl,___flmul@temp
  3916   001710  CFF4 F098          	movff	prodh,___flmul@temp+1
  3917   001714                     
  3918                           ; BSR set to: 0
  3919   001714  5197               	movf	___flmul@temp& (0+255),w,b
  3920   001716  6F88               	movwf	??___flmul& (0+255),b
  3921   001718  5198               	movf	(___flmul@temp+1)& (0+255),w,b
  3922   00171A  6F89               	movwf	(??___flmul+1)& (0+255),b
  3923   00171C  6B8A               	clrf	(??___flmul+2)& (0+255),b
  3924   00171E  6B8B               	clrf	(??___flmul+3)& (0+255),b
  3925   001720  C08A  F08B         	movff	??___flmul+2,??___flmul+3
  3926   001724  C089  F08A         	movff	??___flmul+1,??___flmul+2
  3927   001728  C088  F089         	movff	??___flmul,??___flmul+1
  3928   00172C  6B88               	clrf	??___flmul& (0+255),b
  3929   00172E  5188               	movf	??___flmul& (0+255),w,b
  3930   001730  2793               	addwf	___flmul@prod& (0+255),f,b
  3931   001732  5189               	movf	(??___flmul+1)& (0+255),w,b
  3932   001734  2394               	addwfc	(___flmul@prod+1)& (0+255),f,b
  3933   001736  518A               	movf	(??___flmul+2)& (0+255),w,b
  3934   001738  2395               	addwfc	(___flmul@prod+2)& (0+255),f,b
  3935   00173A  518B               	movf	(??___flmul+3)& (0+255),w,b
  3936   00173C  2396               	addwfc	(___flmul@prod+3)& (0+255),f,b
  3937   00173E                     
  3938                           ; BSR set to: 0
  3939   00173E  C08E  F088         	movff	___flmul@grs,??___flmul
  3940   001742  C08F  F089         	movff	___flmul@grs+1,??___flmul+1
  3941   001746  C090  F08A         	movff	___flmul@grs+2,??___flmul+2
  3942   00174A  C091  F08B         	movff	___flmul@grs+3,??___flmul+3
  3943   00174E  0E19               	movlw	25
  3944   001750  EFAF  F00B         	goto	u8190
  3945   001754                     u8195:
  3946   001754  90D8               	bcf	status,0,c
  3947   001756  338B               	rrcf	(??___flmul+3)& (0+255),f,b
  3948   001758  338A               	rrcf	(??___flmul+2)& (0+255),f,b
  3949   00175A  3389               	rrcf	(??___flmul+1)& (0+255),f,b
  3950   00175C  3388               	rrcf	??___flmul& (0+255),f,b
  3951   00175E                     u8190:
  3952   00175E  2EE8               	decfsz	wreg,f,c
  3953   001760  EFAA  F00B         	goto	u8195
  3954   001764  5188               	movf	??___flmul& (0+255),w,b
  3955   001766  2793               	addwf	___flmul@prod& (0+255),f,b
  3956   001768  5189               	movf	(??___flmul+1)& (0+255),w,b
  3957   00176A  2394               	addwfc	(___flmul@prod+1)& (0+255),f,b
  3958   00176C  518A               	movf	(??___flmul+2)& (0+255),w,b
  3959   00176E  2395               	addwfc	(___flmul@prod+2)& (0+255),f,b
  3960   001770  518B               	movf	(??___flmul+3)& (0+255),w,b
  3961   001772  2396               	addwfc	(___flmul@prod+3)& (0+255),f,b
  3962   001774                     
  3963                           ; BSR set to: 0
  3964   001774  C090  F091         	movff	___flmul@grs+2,___flmul@grs+3
  3965   001778  C08F  F090         	movff	___flmul@grs+1,___flmul@grs+2
  3966   00177C  C08E  F08F         	movff	___flmul@grs,___flmul@grs+1
  3967   001780  6B8E               	clrf	___flmul@grs& (0+255),b
  3968   001782                     
  3969                           ; BSR set to: 0
  3970   001782  518D               	movf	___flmul@aexp& (0+255),w,b
  3971   001784  C092  F088         	movff	___flmul@bexp,??___flmul
  3972   001788  6B89               	clrf	(??___flmul+1)& (0+255),b
  3973   00178A  2788               	addwf	??___flmul& (0+255),f,b
  3974   00178C  0E00               	movlw	0
  3975   00178E  2389               	addwfc	(??___flmul+1)& (0+255),f,b
  3976   001790  0E82               	movlw	130
  3977   001792  2588               	addwf	??___flmul& (0+255),w,b
  3978   001794  6F97               	movwf	___flmul@temp& (0+255),b
  3979   001796  0EFF               	movlw	255
  3980   001798  2189               	addwfc	(??___flmul+1)& (0+255),w,b
  3981   00179A  6F98               	movwf	(___flmul@temp+1)& (0+255),b
  3982   00179C  EFE5  F00B         	goto	l7378
  3983   0017A0                     l7372:
  3984                           
  3985                           ; BSR set to: 0
  3986   0017A0  90D8               	bcf	status,0,c
  3987   0017A2  3793               	rlcf	___flmul@prod& (0+255),f,b
  3988   0017A4  3794               	rlcf	(___flmul@prod+1)& (0+255),f,b
  3989   0017A6  3795               	rlcf	(___flmul@prod+2)& (0+255),f,b
  3990   0017A8  3796               	rlcf	(___flmul@prod+3)& (0+255),f,b
  3991   0017AA                     
  3992                           ; BSR set to: 0
  3993   0017AA  AF91               	btfss	(___flmul@grs+3)& (0+255),7,b
  3994   0017AC  EFDA  F00B         	goto	u8201
  3995   0017B0  EFDC  F00B         	goto	u8200
  3996   0017B4                     u8201:
  3997   0017B4  EFDD  F00B         	goto	l1883
  3998   0017B8                     u8200:
  3999   0017B8                     
  4000                           ; BSR set to: 0
  4001   0017B8  8193               	bsf	___flmul@prod& (0+255),0,b
  4002   0017BA                     l1883:
  4003                           
  4004                           ; BSR set to: 0
  4005   0017BA  90D8               	bcf	status,0,c
  4006   0017BC  378E               	rlcf	___flmul@grs& (0+255),f,b
  4007   0017BE  378F               	rlcf	(___flmul@grs+1)& (0+255),f,b
  4008   0017C0  3790               	rlcf	(___flmul@grs+2)& (0+255),f,b
  4009   0017C2  3791               	rlcf	(___flmul@grs+3)& (0+255),f,b
  4010   0017C4  0797               	decf	___flmul@temp& (0+255),f,b
  4011   0017C6  A0D8               	btfss	status,0,c
  4012   0017C8  0798               	decf	(___flmul@temp+1)& (0+255),f,b
  4013   0017CA                     l7378:
  4014                           
  4015                           ; BSR set to: 0
  4016   0017CA  AF95               	btfss	(___flmul@prod+2)& (0+255),7,b
  4017   0017CC  EFEA  F00B         	goto	u8211
  4018   0017D0  EFEC  F00B         	goto	u8210
  4019   0017D4                     u8211:
  4020   0017D4  EFD0  F00B         	goto	l7372
  4021   0017D8                     u8210:
  4022   0017D8                     
  4023                           ; BSR set to: 0
  4024   0017D8  0E00               	movlw	0
  4025   0017DA  6F8D               	movwf	___flmul@aexp& (0+255),b
  4026   0017DC                     
  4027                           ; BSR set to: 0
  4028   0017DC  AF91               	btfss	(___flmul@grs+3)& (0+255),7,b
  4029   0017DE  EFF3  F00B         	goto	u8221
  4030   0017E2  EFF5  F00B         	goto	u8220
  4031   0017E6                     u8221:
  4032   0017E6  EF19  F00C         	goto	l1885
  4033   0017EA                     u8220:
  4034   0017EA                     
  4035                           ; BSR set to: 0
  4036   0017EA  0EFF               	movlw	255
  4037   0017EC  158E               	andwf	___flmul@grs& (0+255),w,b
  4038   0017EE  6F88               	movwf	??___flmul& (0+255),b
  4039   0017F0  0EFF               	movlw	255
  4040   0017F2  158F               	andwf	(___flmul@grs+1)& (0+255),w,b
  4041   0017F4  6F89               	movwf	(??___flmul+1)& (0+255),b
  4042   0017F6  0EFF               	movlw	255
  4043   0017F8  1590               	andwf	(___flmul@grs+2)& (0+255),w,b
  4044   0017FA  6F8A               	movwf	(??___flmul+2)& (0+255),b
  4045   0017FC  0E7F               	movlw	127
  4046   0017FE  1591               	andwf	(___flmul@grs+3)& (0+255),w,b
  4047   001800  6F8B               	movwf	(??___flmul+3)& (0+255),b
  4048   001802  5188               	movf	??___flmul& (0+255),w,b
  4049   001804  1189               	iorwf	(??___flmul+1)& (0+255),w,b
  4050   001806  118A               	iorwf	(??___flmul+2)& (0+255),w,b
  4051   001808  118B               	iorwf	(??___flmul+3)& (0+255),w,b
  4052   00180A  B4D8               	btfsc	status,2,c
  4053   00180C  EF0A  F00C         	goto	u8231
  4054   001810  EF0C  F00C         	goto	u8230
  4055   001814                     u8231:
  4056   001814  EF10  F00C         	goto	l1886
  4057   001818                     u8230:
  4058   001818                     l7386:
  4059                           
  4060                           ; BSR set to: 0
  4061   001818  0E01               	movlw	1
  4062   00181A  6F8D               	movwf	___flmul@aexp& (0+255),b
  4063   00181C  EF19  F00C         	goto	l1885
  4064   001820                     l1886:
  4065                           
  4066                           ; BSR set to: 0
  4067   001820  A193               	btfss	___flmul@prod& (0+255),0,b
  4068   001822  EF15  F00C         	goto	u8241
  4069   001826  EF17  F00C         	goto	u8240
  4070   00182A                     u8241:
  4071   00182A  EF19  F00C         	goto	l1885
  4072   00182E                     u8240:
  4073   00182E  EF0C  F00C         	goto	l7386
  4074   001832                     l1885:
  4075                           
  4076                           ; BSR set to: 0
  4077   001832  518D               	movf	___flmul@aexp& (0+255),w,b
  4078   001834  B4D8               	btfsc	status,2,c
  4079   001836  EF1F  F00C         	goto	u8251
  4080   00183A  EF21  F00C         	goto	u8250
  4081   00183E                     u8251:
  4082   00183E  EF45  F00C         	goto	l7398
  4083   001842                     u8250:
  4084   001842                     
  4085                           ; BSR set to: 0
  4086   001842  0E01               	movlw	1
  4087   001844  2793               	addwf	___flmul@prod& (0+255),f,b
  4088   001846  0E00               	movlw	0
  4089   001848  2394               	addwfc	(___flmul@prod+1)& (0+255),f,b
  4090   00184A  2395               	addwfc	(___flmul@prod+2)& (0+255),f,b
  4091   00184C  2396               	addwfc	(___flmul@prod+3)& (0+255),f,b
  4092   00184E                     
  4093                           ; BSR set to: 0
  4094   00184E  A196               	btfss	(___flmul@prod+3)& (0+255),0,b
  4095   001850  EF2C  F00C         	goto	u8261
  4096   001854  EF2E  F00C         	goto	u8260
  4097   001858                     u8261:
  4098   001858  EF45  F00C         	goto	l7398
  4099   00185C                     u8260:
  4100   00185C                     
  4101                           ; BSR set to: 0
  4102   00185C  C093  F088         	movff	___flmul@prod,??___flmul
  4103   001860  C094  F089         	movff	___flmul@prod+1,??___flmul+1
  4104   001864  C095  F08A         	movff	___flmul@prod+2,??___flmul+2
  4105   001868  C096  F08B         	movff	___flmul@prod+3,??___flmul+3
  4106   00186C  358B               	rlcf	(??___flmul+3)& (0+255),w,b
  4107   00186E  338B               	rrcf	(??___flmul+3)& (0+255),f,b
  4108   001870  338A               	rrcf	(??___flmul+2)& (0+255),f,b
  4109   001872  3389               	rrcf	(??___flmul+1)& (0+255),f,b
  4110   001874  3388               	rrcf	??___flmul& (0+255),f,b
  4111   001876  C088  F093         	movff	??___flmul,___flmul@prod
  4112   00187A  C089  F094         	movff	??___flmul+1,___flmul@prod+1
  4113   00187E  C08A  F095         	movff	??___flmul+2,___flmul@prod+2
  4114   001882  C08B  F096         	movff	??___flmul+3,___flmul@prod+3
  4115   001886                     
  4116                           ; BSR set to: 0
  4117   001886  4B97               	infsnz	___flmul@temp& (0+255),f,b
  4118   001888  2B98               	incf	(___flmul@temp+1)& (0+255),f,b
  4119   00188A                     l7398:
  4120                           
  4121                           ; BSR set to: 0
  4122   00188A  BF98               	btfsc	(___flmul@temp+1)& (0+255),7,b
  4123   00188C  EF50  F00C         	goto	u8271
  4124   001890  5198               	movf	(___flmul@temp+1)& (0+255),w,b
  4125   001892  E108               	bnz	u8270
  4126   001894  2997               	incf	___flmul@temp& (0+255),w,b
  4127   001896  A0D8               	btfss	status,0,c
  4128   001898  EF50  F00C         	goto	u8271
  4129   00189C  EF52  F00C         	goto	u8270
  4130   0018A0                     u8271:
  4131   0018A0  EF5C  F00C         	goto	l7402
  4132   0018A4                     u8270:
  4133   0018A4                     
  4134                           ; BSR set to: 0
  4135   0018A4  0E00               	movlw	0
  4136   0018A6  6F93               	movwf	___flmul@prod& (0+255),b
  4137   0018A8  0E00               	movlw	0
  4138   0018AA  6F94               	movwf	(___flmul@prod+1)& (0+255),b
  4139   0018AC  0E80               	movlw	128
  4140   0018AE  6F95               	movwf	(___flmul@prod+2)& (0+255),b
  4141   0018B0  0E7F               	movlw	127
  4142   0018B2  6F96               	movwf	(___flmul@prod+3)& (0+255),b
  4143   0018B4  EF8A  F00C         	goto	l7414
  4144   0018B8                     l7402:
  4145                           
  4146                           ; BSR set to: 0
  4147   0018B8  BF98               	btfsc	(___flmul@temp+1)& (0+255),7,b
  4148   0018BA  EF69  F00C         	goto	u8280
  4149   0018BE  5198               	movf	(___flmul@temp+1)& (0+255),w,b
  4150   0018C0  E106               	bnz	u8281
  4151   0018C2  0597               	decf	___flmul@temp& (0+255),w,b
  4152   0018C4  B0D8               	btfsc	status,0,c
  4153   0018C6  EF67  F00C         	goto	u8281
  4154   0018CA  EF69  F00C         	goto	u8280
  4155   0018CE                     u8281:
  4156   0018CE  EF75  F00C         	goto	l1893
  4157   0018D2                     u8280:
  4158   0018D2                     
  4159                           ; BSR set to: 0
  4160   0018D2  0E00               	movlw	0
  4161   0018D4  6F93               	movwf	___flmul@prod& (0+255),b
  4162   0018D6  0E00               	movlw	0
  4163   0018D8  6F94               	movwf	(___flmul@prod+1)& (0+255),b
  4164   0018DA  0E00               	movlw	0
  4165   0018DC  6F95               	movwf	(___flmul@prod+2)& (0+255),b
  4166   0018DE  0E00               	movlw	0
  4167   0018E0  6F96               	movwf	(___flmul@prod+3)& (0+255),b
  4168   0018E2  0E00               	movlw	0
  4169   0018E4  6F8C               	movwf	___flmul@sign& (0+255),b
  4170   0018E6  EF8A  F00C         	goto	l7414
  4171   0018EA                     l1893:
  4172                           
  4173                           ; BSR set to: 0
  4174   0018EA  C097  F092         	movff	___flmul@temp,___flmul@bexp
  4175   0018EE                     
  4176                           ; BSR set to: 0
  4177   0018EE  0EFF               	movlw	255
  4178   0018F0  1793               	andwf	___flmul@prod& (0+255),f,b
  4179   0018F2  0EFF               	movlw	255
  4180   0018F4  1794               	andwf	(___flmul@prod+1)& (0+255),f,b
  4181   0018F6  0E7F               	movlw	127
  4182   0018F8  1795               	andwf	(___flmul@prod+2)& (0+255),f,b
  4183   0018FA  0E00               	movlw	0
  4184   0018FC  1796               	andwf	(___flmul@prod+3)& (0+255),f,b
  4185   0018FE                     
  4186                           ; BSR set to: 0
  4187   0018FE  A192               	btfss	___flmul@bexp& (0+255),0,b
  4188   001900  EF84  F00C         	goto	u8291
  4189   001904  EF86  F00C         	goto	u8290
  4190   001908                     u8291:
  4191   001908  EF87  F00C         	goto	l7412
  4192   00190C                     u8290:
  4193   00190C                     
  4194                           ; BSR set to: 0
  4195   00190C  8F95               	bsf	(___flmul@prod+2)& (0+255),7,b
  4196   00190E                     l7412:
  4197                           
  4198                           ; BSR set to: 0
  4199   00190E  90D8               	bcf	status,0,c
  4200   001910  3192               	rrcf	___flmul@bexp& (0+255),w,b
  4201   001912  6F96               	movwf	(___flmul@prod+3)& (0+255),b
  4202   001914                     l7414:
  4203                           
  4204                           ; BSR set to: 0
  4205   001914  518C               	movf	___flmul@sign& (0+255),w,b
  4206   001916  1396               	iorwf	(___flmul@prod+3)& (0+255),f,b
  4207   001918                     
  4208                           ; BSR set to: 0
  4209   001918  C093  F080         	movff	___flmul@prod,?___flmul
  4210   00191C  C094  F081         	movff	___flmul@prod+1,?___flmul+1
  4211   001920  C095  F082         	movff	___flmul@prod+2,?___flmul+2
  4212   001924  C096  F083         	movff	___flmul@prod+3,?___flmul+3
  4213   001928                     l1880:
  4214                           
  4215                           ; BSR set to: 0
  4216   001928  0012               	return		;funcret
  4217   00192A                     __end_of___flmul:
  4218                           	callstack 0
  4219                           
  4220 ;; *************** function ___fldiv *****************
  4221 ;; Defined at:
  4222 ;;		line 11 in file "C:\Program Files\Microchip\xc8\v2.41\pic\sources\c99\common\sprcdiv.c"
  4223 ;; Parameters:    Size  Location     Type
  4224 ;;  b               4   25[BANK0 ] unsigned char 
  4225 ;;  a               4   29[BANK0 ] unsigned char 
  4226 ;; Auto vars:     Size  Location     Type
  4227 ;;  grs             4   44[BANK0 ] unsigned long 
  4228 ;;  rem             4   37[BANK0 ] unsigned long 
  4229 ;;  new_exp         2   42[BANK0 ] short 
  4230 ;;  aexp            1   49[BANK0 ] unsigned char 
  4231 ;;  bexp            1   48[BANK0 ] unsigned char 
  4232 ;;  sign            1   41[BANK0 ] unsigned char 
  4233 ;; Return value:  Size  Location     Type
  4234 ;;                  4   25[BANK0 ] unsigned char 
  4235 ;; Registers used:
  4236 ;;		wreg, status,2, status,0
  4237 ;; Tracked objects:
  4238 ;;		On entry : 0/0
  4239 ;;		On exit  : 0/0
  4240 ;;		Unchanged: 0/0
  4241 ;; Data sizes:     COMRAM   BANK0   BANK1   BANK2   BANK3   BANK4   BANK5   BANK6   BANK7   BANK8   BANK9  BANK10  BANK1
      +1  BANK12  BANK13  BANK14  BANK15
  4242 ;;      Params:         0       8       0       0       0       0       0       0       0       0       0       0       
      +0       0       0       0       0
  4243 ;;      Locals:         0      13       0       0       0       0       0       0       0       0       0       0       
      +0       0       0       0       0
  4244 ;;      Temps:          0       4       0       0       0       0       0       0       0       0       0       0       
      +0       0       0       0       0
  4245 ;;      Totals:         0      25       0       0       0       0       0       0       0       0       0       0       
      +0       0       0       0       0
  4246 ;;Total ram usage:       25 bytes
  4247 ;; Hardware stack levels used: 1
  4248 ;; Hardware stack levels required when called: 12
  4249 ;; This function calls:
  4250 ;;		Nothing
  4251 ;; This function is called by:
  4252 ;;		_CCP1_Init
  4253 ;;		_CCP1_PWM1_Set_Duty_Cycle
  4254 ;; This function uses a non-reentrant model
  4255 ;;
  4256                           
  4257                           	psect	text13
  4258   00192A                     __ptext13:
  4259                           	callstack 0
  4260   00192A                     ___fldiv:
  4261                           	callstack 16
  4262   00192A  0100               	movlb	0	; () banked
  4263   00192C  519C               	movf	(___fldiv@b+3)& (0+255),w,b
  4264   00192E  0B80               	andlw	128
  4265   001930  6FA9               	movwf	___fldiv@sign& (0+255),b
  4266   001932  519C               	movf	(___fldiv@b+3)& (0+255),w,b
  4267   001934  259C               	addwf	(___fldiv@b+3)& (0+255),w,b
  4268   001936  6FB0               	movwf	___fldiv@bexp& (0+255),b
  4269   001938                     
  4270                           ; BSR set to: 0
  4271   001938  AF9B               	btfss	(___fldiv@b+2)& (0+255),7,b
  4272   00193A  EFA1  F00C         	goto	u7881
  4273   00193E  EFA3  F00C         	goto	u7880
  4274   001942                     u7881:
  4275   001942  EFA4  F00C         	goto	l7158
  4276   001946                     u7880:
  4277   001946                     
  4278                           ; BSR set to: 0
  4279   001946  81B0               	bsf	___fldiv@bexp& (0+255),0,b
  4280   001948                     l7158:
  4281                           
  4282                           ; BSR set to: 0
  4283   001948  51B0               	movf	___fldiv@bexp& (0+255),w,b
  4284   00194A  B4D8               	btfsc	status,2,c
  4285   00194C  EFAA  F00C         	goto	u7891
  4286   001950  EFAC  F00C         	goto	u7890
  4287   001954                     u7891:
  4288   001954  EFC1  F00C         	goto	l7168
  4289   001958                     u7890:
  4290   001958                     
  4291                           ; BSR set to: 0
  4292   001958  29B0               	incf	___fldiv@bexp& (0+255),w,b
  4293   00195A  A4D8               	btfss	status,2,c
  4294   00195C  EFB2  F00C         	goto	u7901
  4295   001960  EFB4  F00C         	goto	u7900
  4296   001964                     u7901:
  4297   001964  EFBC  F00C         	goto	l7164
  4298   001968                     u7900:
  4299   001968                     
  4300                           ; BSR set to: 0
  4301   001968  0E00               	movlw	0
  4302   00196A  6F99               	movwf	___fldiv@b& (0+255),b
  4303   00196C  0E00               	movlw	0
  4304   00196E  6F9A               	movwf	(___fldiv@b+1)& (0+255),b
  4305   001970  0E00               	movlw	0
  4306   001972  6F9B               	movwf	(___fldiv@b+2)& (0+255),b
  4307   001974  0E00               	movlw	0
  4308   001976  6F9C               	movwf	(___fldiv@b+3)& (0+255),b
  4309   001978                     l7164:
  4310                           
  4311                           ; BSR set to: 0
  4312   001978  8F9B               	bsf	(___fldiv@b+2)& (0+255),7,b
  4313   00197A                     
  4314                           ; BSR set to: 0
  4315   00197A  0E00               	movlw	0
  4316   00197C  6F9C               	movwf	(___fldiv@b+3)& (0+255),b
  4317   00197E  EFC9  F00C         	goto	l7170
  4318   001982                     l7168:
  4319                           
  4320                           ; BSR set to: 0
  4321   001982  0E00               	movlw	0
  4322   001984  6F99               	movwf	___fldiv@b& (0+255),b
  4323   001986  0E00               	movlw	0
  4324   001988  6F9A               	movwf	(___fldiv@b+1)& (0+255),b
  4325   00198A  0E00               	movlw	0
  4326   00198C  6F9B               	movwf	(___fldiv@b+2)& (0+255),b
  4327   00198E  0E00               	movlw	0
  4328   001990  6F9C               	movwf	(___fldiv@b+3)& (0+255),b
  4329   001992                     l7170:
  4330                           
  4331                           ; BSR set to: 0
  4332   001992  51A0               	movf	(___fldiv@a+3)& (0+255),w,b
  4333   001994  0B80               	andlw	128
  4334   001996  1BA9               	xorwf	___fldiv@sign& (0+255),f,b
  4335   001998                     
  4336                           ; BSR set to: 0
  4337   001998  51A0               	movf	(___fldiv@a+3)& (0+255),w,b
  4338   00199A  25A0               	addwf	(___fldiv@a+3)& (0+255),w,b
  4339   00199C  6FB1               	movwf	___fldiv@aexp& (0+255),b
  4340   00199E                     
  4341                           ; BSR set to: 0
  4342   00199E  AF9F               	btfss	(___fldiv@a+2)& (0+255),7,b
  4343   0019A0  EFD4  F00C         	goto	u7911
  4344   0019A4  EFD6  F00C         	goto	u7910
  4345   0019A8                     u7911:
  4346   0019A8  EFD7  F00C         	goto	l7178
  4347   0019AC                     u7910:
  4348   0019AC                     
  4349                           ; BSR set to: 0
  4350   0019AC  81B1               	bsf	___fldiv@aexp& (0+255),0,b
  4351   0019AE                     l7178:
  4352                           
  4353                           ; BSR set to: 0
  4354   0019AE  51B1               	movf	___fldiv@aexp& (0+255),w,b
  4355   0019B0  B4D8               	btfsc	status,2,c
  4356   0019B2  EFDD  F00C         	goto	u7921
  4357   0019B6  EFDF  F00C         	goto	u7920
  4358   0019BA                     u7921:
  4359   0019BA  EFF4  F00C         	goto	l7188
  4360   0019BE                     u7920:
  4361   0019BE                     
  4362                           ; BSR set to: 0
  4363   0019BE  29B1               	incf	___fldiv@aexp& (0+255),w,b
  4364   0019C0  A4D8               	btfss	status,2,c
  4365   0019C2  EFE5  F00C         	goto	u7931
  4366   0019C6  EFE7  F00C         	goto	u7930
  4367   0019CA                     u7931:
  4368   0019CA  EFEF  F00C         	goto	l7184
  4369   0019CE                     u7930:
  4370   0019CE                     
  4371                           ; BSR set to: 0
  4372   0019CE  0E00               	movlw	0
  4373   0019D0  6F9D               	movwf	___fldiv@a& (0+255),b
  4374   0019D2  0E00               	movlw	0
  4375   0019D4  6F9E               	movwf	(___fldiv@a+1)& (0+255),b
  4376   0019D6  0E00               	movlw	0
  4377   0019D8  6F9F               	movwf	(___fldiv@a+2)& (0+255),b
  4378   0019DA  0E00               	movlw	0
  4379   0019DC  6FA0               	movwf	(___fldiv@a+3)& (0+255),b
  4380   0019DE                     l7184:
  4381                           
  4382                           ; BSR set to: 0
  4383   0019DE  8F9F               	bsf	(___fldiv@a+2)& (0+255),7,b
  4384   0019E0                     
  4385                           ; BSR set to: 0
  4386   0019E0  0E00               	movlw	0
  4387   0019E2  6FA0               	movwf	(___fldiv@a+3)& (0+255),b
  4388   0019E4  EFFC  F00C         	goto	l7190
  4389   0019E8                     l7188:
  4390                           
  4391                           ; BSR set to: 0
  4392   0019E8  0E00               	movlw	0
  4393   0019EA  6F9D               	movwf	___fldiv@a& (0+255),b
  4394   0019EC  0E00               	movlw	0
  4395   0019EE  6F9E               	movwf	(___fldiv@a+1)& (0+255),b
  4396   0019F0  0E00               	movlw	0
  4397   0019F2  6F9F               	movwf	(___fldiv@a+2)& (0+255),b
  4398   0019F4  0E00               	movlw	0
  4399   0019F6  6FA0               	movwf	(___fldiv@a+3)& (0+255),b
  4400   0019F8                     l7190:
  4401                           
  4402                           ; BSR set to: 0
  4403   0019F8  519D               	movf	___fldiv@a& (0+255),w,b
  4404   0019FA  119E               	iorwf	(___fldiv@a+1)& (0+255),w,b
  4405   0019FC  119F               	iorwf	(___fldiv@a+2)& (0+255),w,b
  4406   0019FE  11A0               	iorwf	(___fldiv@a+3)& (0+255),w,b
  4407   001A00  A4D8               	btfss	status,2,c
  4408   001A02  EF05  F00D         	goto	u7941
  4409   001A06  EF07  F00D         	goto	u7940
  4410   001A0A                     u7941:
  4411   001A0A  EF1F  F00D         	goto	l7202
  4412   001A0E                     u7940:
  4413   001A0E                     
  4414                           ; BSR set to: 0
  4415   001A0E  0E00               	movlw	0
  4416   001A10  6F99               	movwf	___fldiv@b& (0+255),b
  4417   001A12  0E00               	movlw	0
  4418   001A14  6F9A               	movwf	(___fldiv@b+1)& (0+255),b
  4419   001A16  0E00               	movlw	0
  4420   001A18  6F9B               	movwf	(___fldiv@b+2)& (0+255),b
  4421   001A1A  0E00               	movlw	0
  4422   001A1C  6F9C               	movwf	(___fldiv@b+3)& (0+255),b
  4423   001A1E                     
  4424                           ; BSR set to: 0
  4425   001A1E  0E80               	movlw	128
  4426   001A20  139B               	iorwf	(___fldiv@b+2)& (0+255),f,b
  4427   001A22  0E7F               	movlw	127
  4428   001A24  139C               	iorwf	(___fldiv@b+3)& (0+255),f,b
  4429   001A26                     l7196:
  4430                           
  4431                           ; BSR set to: 0
  4432   001A26  51A9               	movf	___fldiv@sign& (0+255),w,b
  4433   001A28  139C               	iorwf	(___fldiv@b+3)& (0+255),f,b
  4434   001A2A                     
  4435                           ; BSR set to: 0
  4436   001A2A  C099  F099         	movff	___fldiv@b,?___fldiv
  4437   001A2E  C09A  F09A         	movff	___fldiv@b+1,?___fldiv+1
  4438   001A32  C09B  F09B         	movff	___fldiv@b+2,?___fldiv+2
  4439   001A36  C09C  F09C         	movff	___fldiv@b+3,?___fldiv+3
  4440   001A3A  EF62  F00E         	goto	l1844
  4441   001A3E                     l7202:
  4442                           
  4443                           ; BSR set to: 0
  4444   001A3E  51B0               	movf	___fldiv@bexp& (0+255),w,b
  4445   001A40  A4D8               	btfss	status,2,c
  4446   001A42  EF25  F00D         	goto	u7951
  4447   001A46  EF27  F00D         	goto	u7950
  4448   001A4A                     u7951:
  4449   001A4A  EF31  F00D         	goto	l7210
  4450   001A4E                     u7950:
  4451   001A4E                     
  4452                           ; BSR set to: 0
  4453   001A4E  0E00               	movlw	0
  4454   001A50  6F99               	movwf	?___fldiv& (0+255),b
  4455   001A52  0E00               	movlw	0
  4456   001A54  6F9A               	movwf	(?___fldiv+1)& (0+255),b
  4457   001A56  0E00               	movlw	0
  4458   001A58  6F9B               	movwf	(?___fldiv+2)& (0+255),b
  4459   001A5A  0E00               	movlw	0
  4460   001A5C  6F9C               	movwf	(?___fldiv+3)& (0+255),b
  4461   001A5E  EF62  F00E         	goto	l1844
  4462   001A62                     l7210:
  4463                           
  4464                           ; BSR set to: 0
  4465   001A62  51B1               	movf	___fldiv@aexp& (0+255),w,b
  4466   001A64  C0B0  F0A1         	movff	___fldiv@bexp,??___fldiv
  4467   001A68  6BA2               	clrf	(??___fldiv+1)& (0+255),b
  4468   001A6A  5FA1               	subwf	??___fldiv& (0+255),f,b
  4469   001A6C  0E00               	movlw	0
  4470   001A6E  5BA2               	subwfb	(??___fldiv+1)& (0+255),f,b
  4471   001A70  0E7F               	movlw	127
  4472   001A72  25A1               	addwf	??___fldiv& (0+255),w,b
  4473   001A74  6FAA               	movwf	___fldiv@new_exp& (0+255),b
  4474   001A76  0E00               	movlw	0
  4475   001A78  21A2               	addwfc	(??___fldiv+1)& (0+255),w,b
  4476   001A7A  6FAB               	movwf	(___fldiv@new_exp+1)& (0+255),b
  4477   001A7C                     
  4478                           ; BSR set to: 0
  4479   001A7C  C099  F0A5         	movff	___fldiv@b,___fldiv@rem
  4480   001A80  C09A  F0A6         	movff	___fldiv@b+1,___fldiv@rem+1
  4481   001A84  C09B  F0A7         	movff	___fldiv@b+2,___fldiv@rem+2
  4482   001A88  C09C  F0A8         	movff	___fldiv@b+3,___fldiv@rem+3
  4483   001A8C                     
  4484                           ; BSR set to: 0
  4485   001A8C  0E00               	movlw	0
  4486   001A8E  6F99               	movwf	___fldiv@b& (0+255),b
  4487   001A90  0E00               	movlw	0
  4488   001A92  6F9A               	movwf	(___fldiv@b+1)& (0+255),b
  4489   001A94  0E00               	movlw	0
  4490   001A96  6F9B               	movwf	(___fldiv@b+2)& (0+255),b
  4491   001A98  0E00               	movlw	0
  4492   001A9A  6F9C               	movwf	(___fldiv@b+3)& (0+255),b
  4493   001A9C                     
  4494                           ; BSR set to: 0
  4495   001A9C  0E00               	movlw	0
  4496   001A9E  6FAC               	movwf	___fldiv@grs& (0+255),b
  4497   001AA0  0E00               	movlw	0
  4498   001AA2  6FAD               	movwf	(___fldiv@grs+1)& (0+255),b
  4499   001AA4  0E00               	movlw	0
  4500   001AA6  6FAE               	movwf	(___fldiv@grs+2)& (0+255),b
  4501   001AA8  0E00               	movlw	0
  4502   001AAA  6FAF               	movwf	(___fldiv@grs+3)& (0+255),b
  4503   001AAC                     
  4504                           ; BSR set to: 0
  4505   001AAC  0E00               	movlw	0
  4506   001AAE  6FB1               	movwf	___fldiv@aexp& (0+255),b
  4507   001AB0  EF92  F00D         	goto	l1846
  4508   001AB4                     l7220:
  4509                           
  4510                           ; BSR set to: 0
  4511   001AB4  51B1               	movf	___fldiv@aexp& (0+255),w,b
  4512   001AB6  B4D8               	btfsc	status,2,c
  4513   001AB8  EF60  F00D         	goto	u7961
  4514   001ABC  EF62  F00D         	goto	u7960
  4515   001AC0                     u7961:
  4516   001AC0  EF79  F00D         	goto	l7228
  4517   001AC4                     u7960:
  4518   001AC4                     
  4519                           ; BSR set to: 0
  4520   001AC4  90D8               	bcf	status,0,c
  4521   001AC6  37A5               	rlcf	___fldiv@rem& (0+255),f,b
  4522   001AC8  37A6               	rlcf	(___fldiv@rem+1)& (0+255),f,b
  4523   001ACA  37A7               	rlcf	(___fldiv@rem+2)& (0+255),f,b
  4524   001ACC  37A8               	rlcf	(___fldiv@rem+3)& (0+255),f,b
  4525   001ACE  90D8               	bcf	status,0,c
  4526   001AD0  3799               	rlcf	___fldiv@b& (0+255),f,b
  4527   001AD2  379A               	rlcf	(___fldiv@b+1)& (0+255),f,b
  4528   001AD4  379B               	rlcf	(___fldiv@b+2)& (0+255),f,b
  4529   001AD6  379C               	rlcf	(___fldiv@b+3)& (0+255),f,b
  4530   001AD8                     
  4531                           ; BSR set to: 0
  4532   001AD8  AFAF               	btfss	(___fldiv@grs+3)& (0+255),7,b
  4533   001ADA  EF71  F00D         	goto	u7971
  4534   001ADE  EF73  F00D         	goto	u7970
  4535   001AE2                     u7971:
  4536   001AE2  EF74  F00D         	goto	l1849
  4537   001AE6                     u7970:
  4538   001AE6                     
  4539                           ; BSR set to: 0
  4540   001AE6  8199               	bsf	___fldiv@b& (0+255),0,b
  4541   001AE8                     l1849:
  4542                           
  4543                           ; BSR set to: 0
  4544   001AE8  90D8               	bcf	status,0,c
  4545   001AEA  37AC               	rlcf	___fldiv@grs& (0+255),f,b
  4546   001AEC  37AD               	rlcf	(___fldiv@grs+1)& (0+255),f,b
  4547   001AEE  37AE               	rlcf	(___fldiv@grs+2)& (0+255),f,b
  4548   001AF0  37AF               	rlcf	(___fldiv@grs+3)& (0+255),f,b
  4549   001AF2                     l7228:
  4550                           
  4551                           ; BSR set to: 0
  4552   001AF2  519D               	movf	___fldiv@a& (0+255),w,b
  4553   001AF4  5DA5               	subwf	___fldiv@rem& (0+255),w,b
  4554   001AF6  519E               	movf	(___fldiv@a+1)& (0+255),w,b
  4555   001AF8  59A6               	subwfb	(___fldiv@rem+1)& (0+255),w,b
  4556   001AFA  519F               	movf	(___fldiv@a+2)& (0+255),w,b
  4557   001AFC  59A7               	subwfb	(___fldiv@rem+2)& (0+255),w,b
  4558   001AFE  51A0               	movf	(___fldiv@a+3)& (0+255),w,b
  4559   001B00  59A8               	subwfb	(___fldiv@rem+3)& (0+255),w,b
  4560   001B02  A0D8               	btfss	status,0,c
  4561   001B04  EF86  F00D         	goto	u7981
  4562   001B08  EF88  F00D         	goto	u7980
  4563   001B0C                     u7981:
  4564   001B0C  EF91  F00D         	goto	l7234
  4565   001B10                     u7980:
  4566   001B10                     
  4567                           ; BSR set to: 0
  4568   001B10  8DAF               	bsf	(___fldiv@grs+3)& (0+255),6,b
  4569   001B12                     
  4570                           ; BSR set to: 0
  4571   001B12  519D               	movf	___fldiv@a& (0+255),w,b
  4572   001B14  5FA5               	subwf	___fldiv@rem& (0+255),f,b
  4573   001B16  519E               	movf	(___fldiv@a+1)& (0+255),w,b
  4574   001B18  5BA6               	subwfb	(___fldiv@rem+1)& (0+255),f,b
  4575   001B1A  519F               	movf	(___fldiv@a+2)& (0+255),w,b
  4576   001B1C  5BA7               	subwfb	(___fldiv@rem+2)& (0+255),f,b
  4577   001B1E  51A0               	movf	(___fldiv@a+3)& (0+255),w,b
  4578   001B20  5BA8               	subwfb	(___fldiv@rem+3)& (0+255),f,b
  4579   001B22                     l7234:
  4580                           
  4581                           ; BSR set to: 0
  4582   001B22  2BB1               	incf	___fldiv@aexp& (0+255),f,b
  4583   001B24                     l1846:
  4584                           
  4585                           ; BSR set to: 0
  4586   001B24  0E19               	movlw	25
  4587   001B26  65B1               	cpfsgt	___fldiv@aexp& (0+255),b
  4588   001B28  EF98  F00D         	goto	u7991
  4589   001B2C  EF9A  F00D         	goto	u7990
  4590   001B30                     u7991:
  4591   001B30  EF5A  F00D         	goto	l7220
  4592   001B34                     u7990:
  4593   001B34                     
  4594                           ; BSR set to: 0
  4595   001B34  51A5               	movf	___fldiv@rem& (0+255),w,b
  4596   001B36  11A6               	iorwf	(___fldiv@rem+1)& (0+255),w,b
  4597   001B38  11A7               	iorwf	(___fldiv@rem+2)& (0+255),w,b
  4598   001B3A  11A8               	iorwf	(___fldiv@rem+3)& (0+255),w,b
  4599   001B3C  B4D8               	btfsc	status,2,c
  4600   001B3E  EFA3  F00D         	goto	u8001
  4601   001B42  EFA5  F00D         	goto	u8000
  4602   001B46                     u8001:
  4603   001B46  EFBD  F00D         	goto	l7246
  4604   001B4A                     u8000:
  4605   001B4A                     
  4606                           ; BSR set to: 0
  4607   001B4A  81AC               	bsf	___fldiv@grs& (0+255),0,b
  4608   001B4C  EFBD  F00D         	goto	l7246
  4609   001B50                     l7240:
  4610                           
  4611                           ; BSR set to: 0
  4612   001B50  90D8               	bcf	status,0,c
  4613   001B52  3799               	rlcf	___fldiv@b& (0+255),f,b
  4614   001B54  379A               	rlcf	(___fldiv@b+1)& (0+255),f,b
  4615   001B56  379B               	rlcf	(___fldiv@b+2)& (0+255),f,b
  4616   001B58  379C               	rlcf	(___fldiv@b+3)& (0+255),f,b
  4617   001B5A                     
  4618                           ; BSR set to: 0
  4619   001B5A  AFAF               	btfss	(___fldiv@grs+3)& (0+255),7,b
  4620   001B5C  EFB2  F00D         	goto	u8011
  4621   001B60  EFB4  F00D         	goto	u8010
  4622   001B64                     u8011:
  4623   001B64  EFB5  F00D         	goto	l1855
  4624   001B68                     u8010:
  4625   001B68                     
  4626                           ; BSR set to: 0
  4627   001B68  8199               	bsf	___fldiv@b& (0+255),0,b
  4628   001B6A                     l1855:
  4629                           
  4630                           ; BSR set to: 0
  4631   001B6A  90D8               	bcf	status,0,c
  4632   001B6C  37AC               	rlcf	___fldiv@grs& (0+255),f,b
  4633   001B6E  37AD               	rlcf	(___fldiv@grs+1)& (0+255),f,b
  4634   001B70  37AE               	rlcf	(___fldiv@grs+2)& (0+255),f,b
  4635   001B72  37AF               	rlcf	(___fldiv@grs+3)& (0+255),f,b
  4636   001B74  07AA               	decf	___fldiv@new_exp& (0+255),f,b
  4637   001B76  A0D8               	btfss	status,0,c
  4638   001B78  07AB               	decf	(___fldiv@new_exp+1)& (0+255),f,b
  4639   001B7A                     l7246:
  4640                           
  4641                           ; BSR set to: 0
  4642   001B7A  AF9B               	btfss	(___fldiv@b+2)& (0+255),7,b
  4643   001B7C  EFC2  F00D         	goto	u8021
  4644   001B80  EFC4  F00D         	goto	u8020
  4645   001B84                     u8021:
  4646   001B84  EFA8  F00D         	goto	l7240
  4647   001B88                     u8020:
  4648   001B88                     
  4649                           ; BSR set to: 0
  4650   001B88  0E00               	movlw	0
  4651   001B8A  6FB1               	movwf	___fldiv@aexp& (0+255),b
  4652   001B8C                     
  4653                           ; BSR set to: 0
  4654   001B8C  AFAF               	btfss	(___fldiv@grs+3)& (0+255),7,b
  4655   001B8E  EFCB  F00D         	goto	u8031
  4656   001B92  EFCD  F00D         	goto	u8030
  4657   001B96                     u8031:
  4658   001B96  EFF1  F00D         	goto	l1857
  4659   001B9A                     u8030:
  4660   001B9A                     
  4661                           ; BSR set to: 0
  4662   001B9A  0EFF               	movlw	255
  4663   001B9C  15AC               	andwf	___fldiv@grs& (0+255),w,b
  4664   001B9E  6FA1               	movwf	??___fldiv& (0+255),b
  4665   001BA0  0EFF               	movlw	255
  4666   001BA2  15AD               	andwf	(___fldiv@grs+1)& (0+255),w,b
  4667   001BA4  6FA2               	movwf	(??___fldiv+1)& (0+255),b
  4668   001BA6  0EFF               	movlw	255
  4669   001BA8  15AE               	andwf	(___fldiv@grs+2)& (0+255),w,b
  4670   001BAA  6FA3               	movwf	(??___fldiv+2)& (0+255),b
  4671   001BAC  0E7F               	movlw	127
  4672   001BAE  15AF               	andwf	(___fldiv@grs+3)& (0+255),w,b
  4673   001BB0  6FA4               	movwf	(??___fldiv+3)& (0+255),b
  4674   001BB2  51A1               	movf	??___fldiv& (0+255),w,b
  4675   001BB4  11A2               	iorwf	(??___fldiv+1)& (0+255),w,b
  4676   001BB6  11A3               	iorwf	(??___fldiv+2)& (0+255),w,b
  4677   001BB8  11A4               	iorwf	(??___fldiv+3)& (0+255),w,b
  4678   001BBA  B4D8               	btfsc	status,2,c
  4679   001BBC  EFE2  F00D         	goto	u8041
  4680   001BC0  EFE4  F00D         	goto	u8040
  4681   001BC4                     u8041:
  4682   001BC4  EFE8  F00D         	goto	l1858
  4683   001BC8                     u8040:
  4684   001BC8                     l7254:
  4685                           
  4686                           ; BSR set to: 0
  4687   001BC8  0E01               	movlw	1
  4688   001BCA  6FB1               	movwf	___fldiv@aexp& (0+255),b
  4689   001BCC  EFF1  F00D         	goto	l1857
  4690   001BD0                     l1858:
  4691                           
  4692                           ; BSR set to: 0
  4693   001BD0  A199               	btfss	___fldiv@b& (0+255),0,b
  4694   001BD2  EFED  F00D         	goto	u8051
  4695   001BD6  EFEF  F00D         	goto	u8050
  4696   001BDA                     u8051:
  4697   001BDA  EFF1  F00D         	goto	l1857
  4698   001BDE                     u8050:
  4699   001BDE  EFE4  F00D         	goto	l7254
  4700   001BE2                     l1857:
  4701                           
  4702                           ; BSR set to: 0
  4703   001BE2  51B1               	movf	___fldiv@aexp& (0+255),w,b
  4704   001BE4  B4D8               	btfsc	status,2,c
  4705   001BE6  EFF7  F00D         	goto	u8061
  4706   001BEA  EFF9  F00D         	goto	u8060
  4707   001BEE                     u8061:
  4708   001BEE  EF1D  F00E         	goto	l7266
  4709   001BF2                     u8060:
  4710   001BF2                     
  4711                           ; BSR set to: 0
  4712   001BF2  0E01               	movlw	1
  4713   001BF4  2799               	addwf	___fldiv@b& (0+255),f,b
  4714   001BF6  0E00               	movlw	0
  4715   001BF8  239A               	addwfc	(___fldiv@b+1)& (0+255),f,b
  4716   001BFA  239B               	addwfc	(___fldiv@b+2)& (0+255),f,b
  4717   001BFC  239C               	addwfc	(___fldiv@b+3)& (0+255),f,b
  4718   001BFE                     
  4719                           ; BSR set to: 0
  4720   001BFE  A19C               	btfss	(___fldiv@b+3)& (0+255),0,b
  4721   001C00  EF04  F00E         	goto	u8071
  4722   001C04  EF06  F00E         	goto	u8070
  4723   001C08                     u8071:
  4724   001C08  EF1D  F00E         	goto	l7266
  4725   001C0C                     u8070:
  4726   001C0C                     
  4727                           ; BSR set to: 0
  4728   001C0C  C099  F0A1         	movff	___fldiv@b,??___fldiv
  4729   001C10  C09A  F0A2         	movff	___fldiv@b+1,??___fldiv+1
  4730   001C14  C09B  F0A3         	movff	___fldiv@b+2,??___fldiv+2
  4731   001C18  C09C  F0A4         	movff	___fldiv@b+3,??___fldiv+3
  4732   001C1C  35A4               	rlcf	(??___fldiv+3)& (0+255),w,b
  4733   001C1E  33A4               	rrcf	(??___fldiv+3)& (0+255),f,b
  4734   001C20  33A3               	rrcf	(??___fldiv+2)& (0+255),f,b
  4735   001C22  33A2               	rrcf	(??___fldiv+1)& (0+255),f,b
  4736   001C24  33A1               	rrcf	??___fldiv& (0+255),f,b
  4737   001C26  C0A1  F099         	movff	??___fldiv,___fldiv@b
  4738   001C2A  C0A2  F09A         	movff	??___fldiv+1,___fldiv@b+1
  4739   001C2E  C0A3  F09B         	movff	??___fldiv+2,___fldiv@b+2
  4740   001C32  C0A4  F09C         	movff	??___fldiv+3,___fldiv@b+3
  4741   001C36                     
  4742                           ; BSR set to: 0
  4743   001C36  4BAA               	infsnz	___fldiv@new_exp& (0+255),f,b
  4744   001C38  2BAB               	incf	(___fldiv@new_exp+1)& (0+255),f,b
  4745   001C3A                     l7266:
  4746                           
  4747                           ; BSR set to: 0
  4748   001C3A  BFAB               	btfsc	(___fldiv@new_exp+1)& (0+255),7,b
  4749   001C3C  EF28  F00E         	goto	u8081
  4750   001C40  51AB               	movf	(___fldiv@new_exp+1)& (0+255),w,b
  4751   001C42  E108               	bnz	u8080
  4752   001C44  29AA               	incf	___fldiv@new_exp& (0+255),w,b
  4753   001C46  A0D8               	btfss	status,0,c
  4754   001C48  EF28  F00E         	goto	u8081
  4755   001C4C  EF2A  F00E         	goto	u8080
  4756   001C50                     u8081:
  4757   001C50  EF35  F00E         	goto	l7270
  4758   001C54                     u8080:
  4759   001C54                     
  4760                           ; BSR set to: 0
  4761   001C54  0E00               	movlw	0
  4762   001C56  6FAB               	movwf	(___fldiv@new_exp+1)& (0+255),b
  4763   001C58  69AA               	setf	___fldiv@new_exp& (0+255),b
  4764   001C5A  0E00               	movlw	0
  4765   001C5C  6F99               	movwf	___fldiv@b& (0+255),b
  4766   001C5E  0E00               	movlw	0
  4767   001C60  6F9A               	movwf	(___fldiv@b+1)& (0+255),b
  4768   001C62  0E00               	movlw	0
  4769   001C64  6F9B               	movwf	(___fldiv@b+2)& (0+255),b
  4770   001C66  0E00               	movlw	0
  4771   001C68  6F9C               	movwf	(___fldiv@b+3)& (0+255),b
  4772   001C6A                     l7270:
  4773                           
  4774                           ; BSR set to: 0
  4775   001C6A  BFAB               	btfsc	(___fldiv@new_exp+1)& (0+255),7,b
  4776   001C6C  EF42  F00E         	goto	u8090
  4777   001C70  51AB               	movf	(___fldiv@new_exp+1)& (0+255),w,b
  4778   001C72  E106               	bnz	u8091
  4779   001C74  05AA               	decf	___fldiv@new_exp& (0+255),w,b
  4780   001C76  B0D8               	btfsc	status,0,c
  4781   001C78  EF40  F00E         	goto	u8091
  4782   001C7C  EF42  F00E         	goto	u8090
  4783   001C80                     u8091:
  4784   001C80  EF50  F00E         	goto	l7274
  4785   001C84                     u8090:
  4786   001C84                     
  4787                           ; BSR set to: 0
  4788   001C84  0E00               	movlw	0
  4789   001C86  6FAB               	movwf	(___fldiv@new_exp+1)& (0+255),b
  4790   001C88  0E00               	movlw	0
  4791   001C8A  6FAA               	movwf	___fldiv@new_exp& (0+255),b
  4792   001C8C  0E00               	movlw	0
  4793   001C8E  6F99               	movwf	___fldiv@b& (0+255),b
  4794   001C90  0E00               	movlw	0
  4795   001C92  6F9A               	movwf	(___fldiv@b+1)& (0+255),b
  4796   001C94  0E00               	movlw	0
  4797   001C96  6F9B               	movwf	(___fldiv@b+2)& (0+255),b
  4798   001C98  0E00               	movlw	0
  4799   001C9A  6F9C               	movwf	(___fldiv@b+3)& (0+255),b
  4800   001C9C  0E00               	movlw	0
  4801   001C9E  6FA9               	movwf	___fldiv@sign& (0+255),b
  4802   001CA0                     l7274:
  4803                           
  4804                           ; BSR set to: 0
  4805   001CA0  C0AA  F0B0         	movff	___fldiv@new_exp,___fldiv@bexp
  4806   001CA4                     
  4807                           ; BSR set to: 0
  4808   001CA4  A1B0               	btfss	___fldiv@bexp& (0+255),0,b
  4809   001CA6  EF57  F00E         	goto	u8101
  4810   001CAA  EF59  F00E         	goto	u8100
  4811   001CAE                     u8101:
  4812   001CAE  EF5C  F00E         	goto	l7280
  4813   001CB2                     u8100:
  4814   001CB2                     
  4815                           ; BSR set to: 0
  4816   001CB2  8F9B               	bsf	(___fldiv@b+2)& (0+255),7,b
  4817   001CB4  EF5D  F00E         	goto	l7282
  4818   001CB8                     l7280:
  4819                           
  4820                           ; BSR set to: 0
  4821   001CB8  9F9B               	bcf	(___fldiv@b+2)& (0+255),7,b
  4822   001CBA                     l7282:
  4823                           
  4824                           ; BSR set to: 0
  4825   001CBA  90D8               	bcf	status,0,c
  4826   001CBC  31B0               	rrcf	___fldiv@bexp& (0+255),w,b
  4827   001CBE  6F9C               	movwf	(___fldiv@b+3)& (0+255),b
  4828   001CC0  EF13  F00D         	goto	l7196
  4829   001CC4                     l1844:
  4830                           
  4831                           ; BSR set to: 0
  4832   001CC4  0012               	return		;funcret
  4833   001CC6                     __end_of___fldiv:
  4834                           	callstack 0
  4835                           
  4836 ;; *************** function _InterruptManagerLow *****************
  4837 ;; Defined at:
  4838 ;;		line 20 in file "MCAL_Layer/Interrupt/mcal_interrupt_manager.c"
  4839 ;; Parameters:    Size  Location     Type
  4840 ;;		None
  4841 ;; Auto vars:     Size  Location     Type
  4842 ;;		None
  4843 ;; Return value:  Size  Location     Type
  4844 ;;                  1    wreg      void 
  4845 ;; Registers used:
  4846 ;;		wreg, fsr2l, fsr2h, status,2, status,0, pcl, pclath, pclatu, tosl, prodl, prodh, cstack
  4847 ;; Tracked objects:
  4848 ;;		On entry : 0/0
  4849 ;;		On exit  : 0/0
  4850 ;;		Unchanged: 0/0
  4851 ;; Data sizes:     COMRAM   BANK0   BANK1   BANK2   BANK3   BANK4   BANK5   BANK6   BANK7   BANK8   BANK9  BANK10  BANK1
      +1  BANK12  BANK13  BANK14  BANK15
  4852 ;;      Params:         0       0       0       0       0       0       0       0       0       0       0       0       
      +0       0       0       0       0
  4853 ;;      Locals:         0       0       0       0       0       0       0       0       0       0       0       0       
      +0       0       0       0       0
  4854 ;;      Temps:          9       0       0       0       0       0       0       0       0       0       0       0       
      +0       0       0       0       0
  4855 ;;      Totals:         9       0       0       0       0       0       0       0       0       0       0       0       
      +0       0       0       0       0
  4856 ;;Total ram usage:        9 bytes
  4857 ;; Hardware stack levels used: 1
  4858 ;; Hardware stack levels required when called: 11
  4859 ;; This function calls:
  4860 ;;		_InterruptCheck
  4861 ;; This function is called by:
  4862 ;;		Interrupt level 1
  4863 ;; This function uses a non-reentrant model
  4864 ;;
  4865                           
  4866                           	psect	intcodelo
  4867   000018                     __pintcodelo:
  4868                           	callstack 0
  4869   000018                     _InterruptManagerLow:
  4870                           	callstack 15
  4871                           
  4872                           ; BSR set to: 0
  4873                           ;incstack = 0
  4874   000018  805A               	bsf	int$flags,0,c	;set compiler interrupt flag (level 1)
  4875   00001A  CFD8 F01D          	movff	status,??_InterruptManagerLow
  4876   00001E  CFE8 F01E          	movff	wreg,??_InterruptManagerLow+1
  4877   000022  CFE0 F01F          	movff	bsr,??_InterruptManagerLow+2
  4878   000026  CFFA F020          	movff	pclath,??_InterruptManagerLow+3
  4879   00002A  CFFB F021          	movff	pclatu,??_InterruptManagerLow+4
  4880   00002E  CFD9 F022          	movff	fsr2l,??_InterruptManagerLow+5
  4881   000032  CFDA F023          	movff	fsr2h,??_InterruptManagerLow+6
  4882   000036  CFF3 F024          	movff	prodl,??_InterruptManagerLow+7
  4883   00003A  CFF4 F025          	movff	prodh,??_InterruptManagerLow+8
  4884   00003E                     
  4885                           ;MCAL_Layer/Interrupt/mcal_interrupt_manager.c: 21:     InterruptCheck();
  4886   00003E  EC63  F00E         	call	_InterruptCheck	;wreg free
  4887   000042  C025  FFF4         	movff	??_InterruptManagerLow+8,prodh
  4888   000046  C024  FFF3         	movff	??_InterruptManagerLow+7,prodl
  4889   00004A  C023  FFDA         	movff	??_InterruptManagerLow+6,fsr2h
  4890   00004E  C022  FFD9         	movff	??_InterruptManagerLow+5,fsr2l
  4891   000052  C021  FFFB         	movff	??_InterruptManagerLow+4,pclatu
  4892   000056  C020  FFFA         	movff	??_InterruptManagerLow+3,pclath
  4893   00005A  C01F  FFE0         	movff	??_InterruptManagerLow+2,bsr
  4894   00005E  C01E  FFE8         	movff	??_InterruptManagerLow+1,wreg
  4895   000062  C01D  FFD8         	movff	??_InterruptManagerLow,status
  4896   000066  905A               	bcf	int$flags,0,c	;clear compiler interrupt flag (level 1)
  4897   000068  0010               	retfie	
  4898   00006A                     __end_of_InterruptManagerLow:
  4899                           	callstack 0
  4900                           
  4901 ;; *************** function _InterruptCheck *****************
  4902 ;; Defined at:
  4903 ;;		line 31 in file "MCAL_Layer/Interrupt/mcal_interrupt_manager.c"
  4904 ;; Parameters:    Size  Location     Type
  4905 ;;		None
  4906 ;; Auto vars:     Size  Location     Type
  4907 ;;		None
  4908 ;; Return value:  Size  Location     Type
  4909 ;;                  1    wreg      void 
  4910 ;; Registers used:
  4911 ;;		wreg, fsr2l, fsr2h, status,2, status,0, pcl, pclath, pclatu, tosl, prodl, prodh, cstack
  4912 ;; Tracked objects:
  4913 ;;		On entry : 0/0
  4914 ;;		On exit  : 0/0
  4915 ;;		Unchanged: 0/0
  4916 ;; Data sizes:     COMRAM   BANK0   BANK1   BANK2   BANK3   BANK4   BANK5   BANK6   BANK7   BANK8   BANK9  BANK10  BANK1
      +1  BANK12  BANK13  BANK14  BANK15
  4917 ;;      Params:         0       0       0       0       0       0       0       0       0       0       0       0       
      +0       0       0       0       0
  4918 ;;      Locals:         0       0       0       0       0       0       0       0       0       0       0       0       
      +0       0       0       0       0
  4919 ;;      Temps:          0       0       0       0       0       0       0       0       0       0       0       0       
      +0       0       0       0       0
  4920 ;;      Totals:         0       0       0       0       0       0       0       0       0       0       0       0       
      +0       0       0       0       0
  4921 ;;Total ram usage:        0 bytes
  4922 ;; Hardware stack levels used: 1
  4923 ;; Hardware stack levels required when called: 10
  4924 ;; This function calls:
  4925 ;;		_ADC_ISR
  4926 ;;		_INT0_ISR
  4927 ;;		_INT1_ISR
  4928 ;;		_INT2_ISR
  4929 ;;		_RB4_ISR
  4930 ;;		_RB5_ISR
  4931 ;;		_RB6_ISR
  4932 ;;		_RB7_ISR
  4933 ;;		_TMR1_ISR
  4934 ;;		_TMR2_ISR
  4935 ;;		_TMR3_ISR
  4936 ;;		_TMRO_ISR
  4937 ;; This function is called by:
  4938 ;;		_InterruptManagerLow
  4939 ;; This function uses a non-reentrant model
  4940 ;;
  4941                           
  4942                           	psect	text15
  4943   001CC6                     __ptext15:
  4944                           	callstack 0
  4945   001CC6                     _InterruptCheck:
  4946                           	callstack 15
  4947   001CC6                     
  4948                           ;MCAL_Layer/Interrupt/mcal_interrupt_manager.c: 32:     if((1 == INTCONbits.INT0IE)&&(1 
      +                          == INTCONbits.INT0IF)){
  4949   001CC6  A8F2               	btfss	242,4,c	;volatile
  4950   001CC8  EF68  F00E         	goto	i1u567_21
  4951   001CCC  EF6A  F00E         	goto	i1u567_20
  4952   001CD0                     i1u567_21:
  4953   001CD0  EF73  F00E         	goto	i1l595
  4954   001CD4                     i1u567_20:
  4955   001CD4  A2F2               	btfss	242,1,c	;volatile
  4956   001CD6  EF6F  F00E         	goto	i1u568_21
  4957   001CDA  EF71  F00E         	goto	i1u568_20
  4958   001CDE                     i1u568_21:
  4959   001CDE  EF73  F00E         	goto	i1l595
  4960   001CE2                     i1u568_20:
  4961   001CE2                     
  4962                           ;MCAL_Layer/Interrupt/mcal_interrupt_manager.c: 33:         INT0_ISR();
  4963   001CE2  ECCA  F019         	call	_INT0_ISR	;wreg free
  4964   001CE6                     i1l595:
  4965                           
  4966                           ;MCAL_Layer/Interrupt/mcal_interrupt_manager.c: 37:     if((1 == INTCON3bits.INT1IE)&&(1
      +                           == INTCON3bits.INT1IF)){
  4967   001CE6  A6F0               	btfss	240,3,c	;volatile
  4968   001CE8  EF78  F00E         	goto	i1u569_21
  4969   001CEC  EF7A  F00E         	goto	i1u569_20
  4970   001CF0                     i1u569_21:
  4971   001CF0  EF83  F00E         	goto	i1l597
  4972   001CF4                     i1u569_20:
  4973   001CF4  A0F0               	btfss	240,0,c	;volatile
  4974   001CF6  EF7F  F00E         	goto	i1u570_21
  4975   001CFA  EF81  F00E         	goto	i1u570_20
  4976   001CFE                     i1u570_21:
  4977   001CFE  EF83  F00E         	goto	i1l597
  4978   001D02                     i1u570_20:
  4979   001D02                     
  4980                           ;MCAL_Layer/Interrupt/mcal_interrupt_manager.c: 38:         INT1_ISR();
  4981   001D02  ECC8  F019         	call	_INT1_ISR	;wreg free
  4982   001D06                     i1l597:
  4983                           
  4984                           ;MCAL_Layer/Interrupt/mcal_interrupt_manager.c: 42:     if((1 == INTCON3bits.INT2IE)&&(1
      +                           == INTCON3bits.INT2IF)){
  4985   001D06  A8F0               	btfss	240,4,c	;volatile
  4986   001D08  EF88  F00E         	goto	i1u571_21
  4987   001D0C  EF8A  F00E         	goto	i1u571_20
  4988   001D10                     i1u571_21:
  4989   001D10  EF93  F00E         	goto	i1l599
  4990   001D14                     i1u571_20:
  4991   001D14  A2F0               	btfss	240,1,c	;volatile
  4992   001D16  EF8F  F00E         	goto	i1u572_21
  4993   001D1A  EF91  F00E         	goto	i1u572_20
  4994   001D1E                     i1u572_21:
  4995   001D1E  EF93  F00E         	goto	i1l599
  4996   001D22                     i1u572_20:
  4997   001D22                     
  4998                           ;MCAL_Layer/Interrupt/mcal_interrupt_manager.c: 43:         INT2_ISR();
  4999   001D22  ECC6  F019         	call	_INT2_ISR	;wreg free
  5000   001D26                     i1l599:
  5001                           
  5002                           ;MCAL_Layer/Interrupt/mcal_interrupt_manager.c: 47:     if((1 == INTCONbits.RBIE)&&(1 ==
      +                           INTCONbits.RBIF)&&(PORTBbits.RB4 == GPIO_HIGH) && (RB4_Flag ==1)){
  5003   001D26  A6F2               	btfss	242,3,c	;volatile
  5004   001D28  EF98  F00E         	goto	i1u573_21
  5005   001D2C  EF9A  F00E         	goto	i1u573_20
  5006   001D30                     i1u573_21:
  5007   001D30  EFB5  F00E         	goto	i1l601
  5008   001D34                     i1u573_20:
  5009   001D34  A0F2               	btfss	242,0,c	;volatile
  5010   001D36  EF9F  F00E         	goto	i1u574_21
  5011   001D3A  EFA1  F00E         	goto	i1u574_20
  5012   001D3E                     i1u574_21:
  5013   001D3E  EFB5  F00E         	goto	i1l601
  5014   001D42                     i1u574_20:
  5015   001D42  A881               	btfss	129,4,c	;volatile
  5016   001D44  EFA6  F00E         	goto	i1u575_21
  5017   001D48  EFA8  F00E         	goto	i1u575_20
  5018   001D4C                     i1u575_21:
  5019   001D4C  EFB5  F00E         	goto	i1l601
  5020   001D50                     i1u575_20:
  5021   001D50  0458               	decf	_RB4_Flag^0,w,c	;volatile
  5022   001D52  A4D8               	btfss	status,2,c
  5023   001D54  EFAE  F00E         	goto	i1u576_21
  5024   001D58  EFB0  F00E         	goto	i1u576_20
  5025   001D5C                     i1u576_21:
  5026   001D5C  EFB5  F00E         	goto	i1l601
  5027   001D60                     i1u576_20:
  5028   001D60                     
  5029                           ;MCAL_Layer/Interrupt/mcal_interrupt_manager.c: 48:         RB4_Flag = 0;
  5030   001D60  0E00               	movlw	0
  5031   001D62  6E58               	movwf	_RB4_Flag^0,c	;volatile
  5032   001D64                     
  5033                           ;MCAL_Layer/Interrupt/mcal_interrupt_manager.c: 49:         RB4_ISR(1);
  5034   001D64  0E01               	movlw	1
  5035   001D66  EC51  F019         	call	_RB4_ISR
  5036   001D6A                     i1l601:
  5037                           
  5038                           ;MCAL_Layer/Interrupt/mcal_interrupt_manager.c: 52:     if((1 == INTCONbits.RBIE)&&(1 ==
      +                           INTCONbits.RBIF)&&(PORTBbits.RB4 == GPIO_LOW)&& (RB4_Flag ==0)){
  5039   001D6A  A6F2               	btfss	242,3,c	;volatile
  5040   001D6C  EFBA  F00E         	goto	i1u577_21
  5041   001D70  EFBC  F00E         	goto	i1u577_20
  5042   001D74                     i1u577_21:
  5043   001D74  EFD7  F00E         	goto	i1l603
  5044   001D78                     i1u577_20:
  5045   001D78  A0F2               	btfss	242,0,c	;volatile
  5046   001D7A  EFC1  F00E         	goto	i1u578_21
  5047   001D7E  EFC3  F00E         	goto	i1u578_20
  5048   001D82                     i1u578_21:
  5049   001D82  EFD7  F00E         	goto	i1l603
  5050   001D86                     i1u578_20:
  5051   001D86  B881               	btfsc	129,4,c	;volatile
  5052   001D88  EFC8  F00E         	goto	i1u579_21
  5053   001D8C  EFCA  F00E         	goto	i1u579_20
  5054   001D90                     i1u579_21:
  5055   001D90  EFD7  F00E         	goto	i1l603
  5056   001D94                     i1u579_20:
  5057   001D94  5058               	movf	_RB4_Flag^0,w,c	;volatile
  5058   001D96  A4D8               	btfss	status,2,c
  5059   001D98  EFD0  F00E         	goto	i1u580_21
  5060   001D9C  EFD2  F00E         	goto	i1u580_20
  5061   001DA0                     i1u580_21:
  5062   001DA0  EFD7  F00E         	goto	i1l603
  5063   001DA4                     i1u580_20:
  5064   001DA4                     
  5065                           ;MCAL_Layer/Interrupt/mcal_interrupt_manager.c: 53:         RB4_Flag = 1;
  5066   001DA4  0E01               	movlw	1
  5067   001DA6  6E58               	movwf	_RB4_Flag^0,c	;volatile
  5068   001DA8                     
  5069                           ;MCAL_Layer/Interrupt/mcal_interrupt_manager.c: 54:         RB4_ISR(0);
  5070   001DA8  0E00               	movlw	0
  5071   001DAA  EC51  F019         	call	_RB4_ISR
  5072   001DAE                     i1l603:
  5073                           
  5074                           ;MCAL_Layer/Interrupt/mcal_interrupt_manager.c: 58:     if((1 == INTCONbits.RBIE)&&(1 ==
      +                           INTCONbits.RBIF)&&(PORTBbits.RB5 == GPIO_HIGH) && (RB5_Flag ==1)){
  5075   001DAE  A6F2               	btfss	242,3,c	;volatile
  5076   001DB0  EFDC  F00E         	goto	i1u581_21
  5077   001DB4  EFDE  F00E         	goto	i1u581_20
  5078   001DB8                     i1u581_21:
  5079   001DB8  EFF9  F00E         	goto	i1l605
  5080   001DBC                     i1u581_20:
  5081   001DBC  A0F2               	btfss	242,0,c	;volatile
  5082   001DBE  EFE3  F00E         	goto	i1u582_21
  5083   001DC2  EFE5  F00E         	goto	i1u582_20
  5084   001DC6                     i1u582_21:
  5085   001DC6  EFF9  F00E         	goto	i1l605
  5086   001DCA                     i1u582_20:
  5087   001DCA  AA81               	btfss	129,5,c	;volatile
  5088   001DCC  EFEA  F00E         	goto	i1u583_21
  5089   001DD0  EFEC  F00E         	goto	i1u583_20
  5090   001DD4                     i1u583_21:
  5091   001DD4  EFF9  F00E         	goto	i1l605
  5092   001DD8                     i1u583_20:
  5093   001DD8  0457               	decf	_RB5_Flag^0,w,c	;volatile
  5094   001DDA  A4D8               	btfss	status,2,c
  5095   001DDC  EFF2  F00E         	goto	i1u584_21
  5096   001DE0  EFF4  F00E         	goto	i1u584_20
  5097   001DE4                     i1u584_21:
  5098   001DE4  EFF9  F00E         	goto	i1l605
  5099   001DE8                     i1u584_20:
  5100   001DE8                     
  5101                           ;MCAL_Layer/Interrupt/mcal_interrupt_manager.c: 59:         RB5_Flag = 0;
  5102   001DE8  0E00               	movlw	0
  5103   001DEA  6E57               	movwf	_RB5_Flag^0,c	;volatile
  5104   001DEC                     
  5105                           ;MCAL_Layer/Interrupt/mcal_interrupt_manager.c: 60:         RB5_ISR(1);
  5106   001DEC  0E01               	movlw	1
  5107   001DEE  EC44  F019         	call	_RB5_ISR
  5108   001DF2                     i1l605:
  5109                           
  5110                           ;MCAL_Layer/Interrupt/mcal_interrupt_manager.c: 63:     if((1 == INTCONbits.RBIE)&&(1 ==
      +                           INTCONbits.RBIF)&&(PORTBbits.RB5 == GPIO_LOW)&& (RB5_Flag ==0)){
  5111   001DF2  A6F2               	btfss	242,3,c	;volatile
  5112   001DF4  EFFE  F00E         	goto	i1u585_21
  5113   001DF8  EF00  F00F         	goto	i1u585_20
  5114   001DFC                     i1u585_21:
  5115   001DFC  EF1B  F00F         	goto	i1l607
  5116   001E00                     i1u585_20:
  5117   001E00  A0F2               	btfss	242,0,c	;volatile
  5118   001E02  EF05  F00F         	goto	i1u586_21
  5119   001E06  EF07  F00F         	goto	i1u586_20
  5120   001E0A                     i1u586_21:
  5121   001E0A  EF1B  F00F         	goto	i1l607
  5122   001E0E                     i1u586_20:
  5123   001E0E  BA81               	btfsc	129,5,c	;volatile
  5124   001E10  EF0C  F00F         	goto	i1u587_21
  5125   001E14  EF0E  F00F         	goto	i1u587_20
  5126   001E18                     i1u587_21:
  5127   001E18  EF1B  F00F         	goto	i1l607
  5128   001E1C                     i1u587_20:
  5129   001E1C  5057               	movf	_RB5_Flag^0,w,c	;volatile
  5130   001E1E  A4D8               	btfss	status,2,c
  5131   001E20  EF14  F00F         	goto	i1u588_21
  5132   001E24  EF16  F00F         	goto	i1u588_20
  5133   001E28                     i1u588_21:
  5134   001E28  EF1B  F00F         	goto	i1l607
  5135   001E2C                     i1u588_20:
  5136   001E2C                     
  5137                           ;MCAL_Layer/Interrupt/mcal_interrupt_manager.c: 64:         RB5_Flag = 1;
  5138   001E2C  0E01               	movlw	1
  5139   001E2E  6E57               	movwf	_RB5_Flag^0,c	;volatile
  5140   001E30                     
  5141                           ;MCAL_Layer/Interrupt/mcal_interrupt_manager.c: 65:         RB5_ISR(0);
  5142   001E30  0E00               	movlw	0
  5143   001E32  EC44  F019         	call	_RB5_ISR
  5144   001E36                     i1l607:
  5145                           
  5146                           ;MCAL_Layer/Interrupt/mcal_interrupt_manager.c: 69:     if((1 == INTCONbits.RBIE)&&(1 ==
      +                           INTCONbits.RBIF)&&(PORTBbits.RB6 == GPIO_HIGH) && (RB6_Flag ==1)){
  5147   001E36  A6F2               	btfss	242,3,c	;volatile
  5148   001E38  EF20  F00F         	goto	i1u589_21
  5149   001E3C  EF22  F00F         	goto	i1u589_20
  5150   001E40                     i1u589_21:
  5151   001E40  EF3D  F00F         	goto	i1l609
  5152   001E44                     i1u589_20:
  5153   001E44  A0F2               	btfss	242,0,c	;volatile
  5154   001E46  EF27  F00F         	goto	i1u590_21
  5155   001E4A  EF29  F00F         	goto	i1u590_20
  5156   001E4E                     i1u590_21:
  5157   001E4E  EF3D  F00F         	goto	i1l609
  5158   001E52                     i1u590_20:
  5159   001E52  AC81               	btfss	129,6,c	;volatile
  5160   001E54  EF2E  F00F         	goto	i1u591_21
  5161   001E58  EF30  F00F         	goto	i1u591_20
  5162   001E5C                     i1u591_21:
  5163   001E5C  EF3D  F00F         	goto	i1l609
  5164   001E60                     i1u591_20:
  5165   001E60  0456               	decf	_RB6_Flag^0,w,c	;volatile
  5166   001E62  A4D8               	btfss	status,2,c
  5167   001E64  EF36  F00F         	goto	i1u592_21
  5168   001E68  EF38  F00F         	goto	i1u592_20
  5169   001E6C                     i1u592_21:
  5170   001E6C  EF3D  F00F         	goto	i1l609
  5171   001E70                     i1u592_20:
  5172   001E70                     
  5173                           ;MCAL_Layer/Interrupt/mcal_interrupt_manager.c: 70:         RB6_Flag = 0;
  5174   001E70  0E00               	movlw	0
  5175   001E72  6E56               	movwf	_RB6_Flag^0,c	;volatile
  5176   001E74                     
  5177                           ;MCAL_Layer/Interrupt/mcal_interrupt_manager.c: 71:         RB6_ISR(1);
  5178   001E74  0E01               	movlw	1
  5179   001E76  EC37  F019         	call	_RB6_ISR
  5180   001E7A                     i1l609:
  5181                           
  5182                           ;MCAL_Layer/Interrupt/mcal_interrupt_manager.c: 74:     if((1 == INTCONbits.RBIE)&&(1 ==
      +                           INTCONbits.RBIF)&&(PORTBbits.RB6 == GPIO_LOW)&& (RB6_Flag ==0)){
  5183   001E7A  A6F2               	btfss	242,3,c	;volatile
  5184   001E7C  EF42  F00F         	goto	i1u593_21
  5185   001E80  EF44  F00F         	goto	i1u593_20
  5186   001E84                     i1u593_21:
  5187   001E84  EF5F  F00F         	goto	i1l611
  5188   001E88                     i1u593_20:
  5189   001E88  A0F2               	btfss	242,0,c	;volatile
  5190   001E8A  EF49  F00F         	goto	i1u594_21
  5191   001E8E  EF4B  F00F         	goto	i1u594_20
  5192   001E92                     i1u594_21:
  5193   001E92  EF5F  F00F         	goto	i1l611
  5194   001E96                     i1u594_20:
  5195   001E96  BC81               	btfsc	129,6,c	;volatile
  5196   001E98  EF50  F00F         	goto	i1u595_21
  5197   001E9C  EF52  F00F         	goto	i1u595_20
  5198   001EA0                     i1u595_21:
  5199   001EA0  EF5F  F00F         	goto	i1l611
  5200   001EA4                     i1u595_20:
  5201   001EA4  5056               	movf	_RB6_Flag^0,w,c	;volatile
  5202   001EA6  A4D8               	btfss	status,2,c
  5203   001EA8  EF58  F00F         	goto	i1u596_21
  5204   001EAC  EF5A  F00F         	goto	i1u596_20
  5205   001EB0                     i1u596_21:
  5206   001EB0  EF5F  F00F         	goto	i1l611
  5207   001EB4                     i1u596_20:
  5208   001EB4                     
  5209                           ;MCAL_Layer/Interrupt/mcal_interrupt_manager.c: 75:         RB6_Flag = 1;
  5210   001EB4  0E01               	movlw	1
  5211   001EB6  6E56               	movwf	_RB6_Flag^0,c	;volatile
  5212   001EB8                     
  5213                           ;MCAL_Layer/Interrupt/mcal_interrupt_manager.c: 76:         RB6_ISR(0);
  5214   001EB8  0E00               	movlw	0
  5215   001EBA  EC37  F019         	call	_RB6_ISR
  5216   001EBE                     i1l611:
  5217                           
  5218                           ;MCAL_Layer/Interrupt/mcal_interrupt_manager.c: 80:     if((1 == INTCONbits.RBIE)&&(1 ==
      +                           INTCONbits.RBIF)&&(PORTBbits.RB7 == GPIO_HIGH) && (RB7_Flag ==1)){
  5219   001EBE  A6F2               	btfss	242,3,c	;volatile
  5220   001EC0  EF64  F00F         	goto	i1u597_21
  5221   001EC4  EF66  F00F         	goto	i1u597_20
  5222   001EC8                     i1u597_21:
  5223   001EC8  EF81  F00F         	goto	i1l613
  5224   001ECC                     i1u597_20:
  5225   001ECC  A0F2               	btfss	242,0,c	;volatile
  5226   001ECE  EF6B  F00F         	goto	i1u598_21
  5227   001ED2  EF6D  F00F         	goto	i1u598_20
  5228   001ED6                     i1u598_21:
  5229   001ED6  EF81  F00F         	goto	i1l613
  5230   001EDA                     i1u598_20:
  5231   001EDA  AE81               	btfss	129,7,c	;volatile
  5232   001EDC  EF72  F00F         	goto	i1u599_21
  5233   001EE0  EF74  F00F         	goto	i1u599_20
  5234   001EE4                     i1u599_21:
  5235   001EE4  EF81  F00F         	goto	i1l613
  5236   001EE8                     i1u599_20:
  5237   001EE8  0455               	decf	_RB7_Flag^0,w,c	;volatile
  5238   001EEA  A4D8               	btfss	status,2,c
  5239   001EEC  EF7A  F00F         	goto	i1u600_21
  5240   001EF0  EF7C  F00F         	goto	i1u600_20
  5241   001EF4                     i1u600_21:
  5242   001EF4  EF81  F00F         	goto	i1l613
  5243   001EF8                     i1u600_20:
  5244   001EF8                     
  5245                           ;MCAL_Layer/Interrupt/mcal_interrupt_manager.c: 81:         RB7_Flag = 0;
  5246   001EF8  0E00               	movlw	0
  5247   001EFA  6E55               	movwf	_RB7_Flag^0,c	;volatile
  5248   001EFC                     
  5249                           ;MCAL_Layer/Interrupt/mcal_interrupt_manager.c: 82:         RB7_ISR(1);
  5250   001EFC  0E01               	movlw	1
  5251   001EFE  EC2A  F019         	call	_RB7_ISR
  5252   001F02                     i1l613:
  5253                           
  5254                           ;MCAL_Layer/Interrupt/mcal_interrupt_manager.c: 85:     if((1 == INTCONbits.RBIE)&&(1 ==
      +                           INTCONbits.RBIF)&&(PORTBbits.RB7 == GPIO_LOW)&& (RB7_Flag ==0)){
  5255   001F02  A6F2               	btfss	242,3,c	;volatile
  5256   001F04  EF86  F00F         	goto	i1u601_21
  5257   001F08  EF88  F00F         	goto	i1u601_20
  5258   001F0C                     i1u601_21:
  5259   001F0C  EFA3  F00F         	goto	i1l615
  5260   001F10                     i1u601_20:
  5261   001F10  A0F2               	btfss	242,0,c	;volatile
  5262   001F12  EF8D  F00F         	goto	i1u602_21
  5263   001F16  EF8F  F00F         	goto	i1u602_20
  5264   001F1A                     i1u602_21:
  5265   001F1A  EFA3  F00F         	goto	i1l615
  5266   001F1E                     i1u602_20:
  5267   001F1E  BE81               	btfsc	129,7,c	;volatile
  5268   001F20  EF94  F00F         	goto	i1u603_21
  5269   001F24  EF96  F00F         	goto	i1u603_20
  5270   001F28                     i1u603_21:
  5271   001F28  EFA3  F00F         	goto	i1l615
  5272   001F2C                     i1u603_20:
  5273   001F2C  5055               	movf	_RB7_Flag^0,w,c	;volatile
  5274   001F2E  A4D8               	btfss	status,2,c
  5275   001F30  EF9C  F00F         	goto	i1u604_21
  5276   001F34  EF9E  F00F         	goto	i1u604_20
  5277   001F38                     i1u604_21:
  5278   001F38  EFA3  F00F         	goto	i1l615
  5279   001F3C                     i1u604_20:
  5280   001F3C                     
  5281                           ;MCAL_Layer/Interrupt/mcal_interrupt_manager.c: 86:         RB7_Flag = 1;
  5282   001F3C  0E01               	movlw	1
  5283   001F3E  6E55               	movwf	_RB7_Flag^0,c	;volatile
  5284   001F40                     
  5285                           ;MCAL_Layer/Interrupt/mcal_interrupt_manager.c: 87:         RB7_ISR(0);
  5286   001F40  0E00               	movlw	0
  5287   001F42  EC2A  F019         	call	_RB7_ISR
  5288   001F46                     i1l615:
  5289                           
  5290                           ;MCAL_Layer/Interrupt/mcal_interrupt_manager.c: 91:     if((1 == PIE1bits.ADIE)&&(1 == P
      +                          IR1bits.ADIF)){
  5291   001F46  AC9D               	btfss	157,6,c	;volatile
  5292   001F48  EFA8  F00F         	goto	i1u605_21
  5293   001F4C  EFAA  F00F         	goto	i1u605_20
  5294   001F50                     i1u605_21:
  5295   001F50  EFB3  F00F         	goto	i1l617
  5296   001F54                     i1u605_20:
  5297   001F54  AC9E               	btfss	158,6,c	;volatile
  5298   001F56  EFAF  F00F         	goto	i1u606_21
  5299   001F5A  EFB1  F00F         	goto	i1u606_20
  5300   001F5E                     i1u606_21:
  5301   001F5E  EFB3  F00F         	goto	i1l617
  5302   001F62                     i1u606_20:
  5303   001F62                     
  5304                           ;MCAL_Layer/Interrupt/mcal_interrupt_manager.c: 92:         ADC_ISR();
  5305   001F62  ECCC  F019         	call	_ADC_ISR	;wreg free
  5306   001F66                     i1l617:
  5307                           
  5308                           ;MCAL_Layer/Interrupt/mcal_interrupt_manager.c: 96:     if((1 == INTCONbits.TMR0IE)&&(1 
      +                          == INTCONbits.TMR0IF)){
  5309   001F66  AAF2               	btfss	242,5,c	;volatile
  5310   001F68  EFB8  F00F         	goto	i1u607_21
  5311   001F6C  EFBA  F00F         	goto	i1u607_20
  5312   001F70                     i1u607_21:
  5313   001F70  EFC3  F00F         	goto	i1l619
  5314   001F74                     i1u607_20:
  5315   001F74  A4F2               	btfss	242,2,c	;volatile
  5316   001F76  EFBF  F00F         	goto	i1u608_21
  5317   001F7A  EFC1  F00F         	goto	i1u608_20
  5318   001F7E                     i1u608_21:
  5319   001F7E  EFC3  F00F         	goto	i1l619
  5320   001F82                     i1u608_20:
  5321   001F82                     
  5322                           ;MCAL_Layer/Interrupt/mcal_interrupt_manager.c: 97:         TMRO_ISR();
  5323   001F82  EC3C  F018         	call	_TMRO_ISR	;wreg free
  5324   001F86                     i1l619:
  5325                           
  5326                           ;MCAL_Layer/Interrupt/mcal_interrupt_manager.c: 101:     if((1 == PIE1bits.TMR1IE)&&(1 =
      +                          = PIR1bits.TMR1IF)){
  5327   001F86  A09D               	btfss	157,0,c	;volatile
  5328   001F88  EFC8  F00F         	goto	i1u609_21
  5329   001F8C  EFCA  F00F         	goto	i1u609_20
  5330   001F90                     i1u609_21:
  5331   001F90  EFD3  F00F         	goto	i1l621
  5332   001F94                     i1u609_20:
  5333   001F94  A09E               	btfss	158,0,c	;volatile
  5334   001F96  EFCF  F00F         	goto	i1u610_21
  5335   001F9A  EFD1  F00F         	goto	i1u610_20
  5336   001F9E                     i1u610_21:
  5337   001F9E  EFD3  F00F         	goto	i1l621
  5338   001FA2                     i1u610_20:
  5339   001FA2                     
  5340                           ;MCAL_Layer/Interrupt/mcal_interrupt_manager.c: 102:         TMR1_ISR();
  5341   001FA2  EC57  F018         	call	_TMR1_ISR	;wreg free
  5342   001FA6                     i1l621:
  5343                           
  5344                           ;MCAL_Layer/Interrupt/mcal_interrupt_manager.c: 106:     if((1 == PIE1bits.TMR2IE)&&(1 =
      +                          = PIR1bits.TMR2IF)){
  5345   001FA6  A29D               	btfss	157,1,c	;volatile
  5346   001FA8  EFD8  F00F         	goto	i1u611_21
  5347   001FAC  EFDA  F00F         	goto	i1u611_20
  5348   001FB0                     i1u611_21:
  5349   001FB0  EFE3  F00F         	goto	i1l623
  5350   001FB4                     i1u611_20:
  5351   001FB4  A29E               	btfss	158,1,c	;volatile
  5352   001FB6  EFDF  F00F         	goto	i1u612_21
  5353   001FBA  EFE1  F00F         	goto	i1u612_20
  5354   001FBE                     i1u612_21:
  5355   001FBE  EFE3  F00F         	goto	i1l623
  5356   001FC2                     i1u612_20:
  5357   001FC2                     
  5358                           ;MCAL_Layer/Interrupt/mcal_interrupt_manager.c: 107:         TMR2_ISR();
  5359   001FC2  ECBB  F019         	call	_TMR2_ISR	;wreg free
  5360   001FC6                     i1l623:
  5361                           
  5362                           ;MCAL_Layer/Interrupt/mcal_interrupt_manager.c: 111:     if((1 == PIE2bits.TMR3IE)&&(1 =
      +                          = PIR2bits.TMR3IF)){
  5363   001FC6  A2A0               	btfss	160,1,c	;volatile
  5364   001FC8  EFE8  F00F         	goto	i1u613_21
  5365   001FCC  EFEA  F00F         	goto	i1u613_20
  5366   001FD0                     i1u613_21:
  5367   001FD0  EFF3  F00F         	goto	i1l626
  5368   001FD4                     i1u613_20:
  5369   001FD4  A2A1               	btfss	161,1,c	;volatile
  5370   001FD6  EFEF  F00F         	goto	i1u614_21
  5371   001FDA  EFF1  F00F         	goto	i1u614_20
  5372   001FDE                     i1u614_21:
  5373   001FDE  EFF3  F00F         	goto	i1l626
  5374   001FE2                     i1u614_20:
  5375   001FE2                     
  5376                           ;MCAL_Layer/Interrupt/mcal_interrupt_manager.c: 112:         TMR3_ISR();
  5377   001FE2  ECAF  F019         	call	_TMR3_ISR	;wreg free
  5378   001FE6                     i1l626:
  5379   001FE6  0012               	return		;funcret
  5380   001FE8                     __end_of_InterruptCheck:
  5381                           	callstack 0
  5382                           
  5383 ;; *************** function _TMRO_ISR *****************
  5384 ;; Defined at:
  5385 ;;		line 134 in file "MCAL_Layer/Timer/Timer0/hal_timer0.c"
  5386 ;; Parameters:    Size  Location     Type
  5387 ;;		None
  5388 ;; Auto vars:     Size  Location     Type
  5389 ;;		None
  5390 ;; Return value:  Size  Location     Type
  5391 ;;                  1    wreg      void 
  5392 ;; Registers used:
  5393 ;;		wreg, fsr2l, fsr2h, status,2, status,0, pcl, pclath, pclatu, tosl, cstack
  5394 ;; Tracked objects:
  5395 ;;		On entry : 0/0
  5396 ;;		On exit  : 0/0
  5397 ;;		Unchanged: 0/0
  5398 ;; Data sizes:     COMRAM   BANK0   BANK1   BANK2   BANK3   BANK4   BANK5   BANK6   BANK7   BANK8   BANK9  BANK10  BANK1
      +1  BANK12  BANK13  BANK14  BANK15
  5399 ;;      Params:         0       0       0       0       0       0       0       0       0       0       0       0       
      +0       0       0       0       0
  5400 ;;      Locals:         0       0       0       0       0       0       0       0       0       0       0       0       
      +0       0       0       0       0
  5401 ;;      Temps:          0       0       0       0       0       0       0       0       0       0       0       0       
      +0       0       0       0       0
  5402 ;;      Totals:         0       0       0       0       0       0       0       0       0       0       0       0       
      +0       0       0       0       0
  5403 ;;Total ram usage:        0 bytes
  5404 ;; Hardware stack levels used: 1
  5405 ;; Hardware stack levels required when called: 8
  5406 ;; This function calls:
  5407 ;;		NULL
  5408 ;;		_timer0_interruptHundler
  5409 ;; This function is called by:
  5410 ;;		_InterruptCheck
  5411 ;; This function uses a non-reentrant model
  5412 ;;
  5413                           
  5414                           	psect	text16
  5415   003078                     __ptext16:
  5416                           	callstack 0
  5417   003078                     _TMRO_ISR:
  5418                           	callstack 16
  5419   003078                     
  5420                           ;MCAL_Layer/Timer/Timer0/hal_timer0.c: 135:     (INTCONbits.TMR0IF = 0);
  5421   003078  94F2               	bcf	242,2,c	;volatile
  5422   00307A                     
  5423                           ;MCAL_Layer/Timer/Timer0/hal_timer0.c: 136:     TMR0H = timer0_preload >>8;
  5424   00307A  503C               	movf	(_timer0_preload+1)^0,w,c
  5425   00307C  6ED7               	movwf	215,c	;volatile
  5426   00307E                     
  5427                           ;MCAL_Layer/Timer/Timer0/hal_timer0.c: 137:     TMR0L = (uint8)timer0_preload;
  5428   00307E  C03B  FFD6         	movff	_timer0_preload,4054	;volatile
  5429   003082                     
  5430                           ;MCAL_Layer/Timer/Timer0/hal_timer0.c: 138:     if(TMR0_InterruptHandler){
  5431   003082  503D               	movf	_TMR0_InterruptHandler^0,w,c
  5432   003084  103E               	iorwf	(_TMR0_InterruptHandler+1)^0,w,c
  5433   003086  B4D8               	btfsc	status,2,c
  5434   003088  EF48  F018         	goto	i1u543_21
  5435   00308C  EF4A  F018         	goto	i1u543_20
  5436   003090                     i1u543_21:
  5437   003090  EF56  F018         	goto	i1l953
  5438   003094                     i1u543_20:
  5439   003094                     
  5440                           ;MCAL_Layer/Timer/Timer0/hal_timer0.c: 139:         TMR0_InterruptHandler();
  5441   003094  D802               	call	i1u544_28
  5442   003096  EF56  F018         	goto	i1u544_29
  5443   00309A                     i1u544_28:
  5444   00309A  0005               	push	
  5445   00309C  6EFA               	movwf	pclath,c
  5446   00309E  503D               	movf	_TMR0_InterruptHandler^0,w,c
  5447   0030A0  6EFD               	movwf	tosl,c
  5448   0030A2  503E               	movf	(_TMR0_InterruptHandler+1)^0,w,c
  5449   0030A4  6EFE               	movwf	tosh,c
  5450   0030A6  6AFF               	clrf	tosu,c
  5451   0030A8  50FA               	movf	pclath,w,c
  5452   0030AA  0012               	return		;indir
  5453   0030AC                     i1u544_29:
  5454   0030AC                     i1l953:
  5455   0030AC  0012               	return		;funcret
  5456   0030AE                     __end_of_TMRO_ISR:
  5457                           	callstack 0
  5458                           
  5459 ;; *************** function _timer0_interruptHundler *****************
  5460 ;; Defined at:
  5461 ;;		line 82 in file "application.c"
  5462 ;; Parameters:    Size  Location     Type
  5463 ;;		None
  5464 ;; Auto vars:     Size  Location     Type
  5465 ;;		None
  5466 ;; Return value:  Size  Location     Type
  5467 ;;                  1    wreg      void 
  5468 ;; Registers used:
  5469 ;;		wreg, fsr2l, fsr2h, status,2, status,0, cstack
  5470 ;; Tracked objects:
  5471 ;;		On entry : 0/0
  5472 ;;		On exit  : 0/0
  5473 ;;		Unchanged: 0/0
  5474 ;; Data sizes:     COMRAM   BANK0   BANK1   BANK2   BANK3   BANK4   BANK5   BANK6   BANK7   BANK8   BANK9  BANK10  BANK1
      +1  BANK12  BANK13  BANK14  BANK15
  5475 ;;      Params:         0       0       0       0       0       0       0       0       0       0       0       0       
      +0       0       0       0       0
  5476 ;;      Locals:         0       0       0       0       0       0       0       0       0       0       0       0       
      +0       0       0       0       0
  5477 ;;      Temps:          0       0       0       0       0       0       0       0       0       0       0       0       
      +0       0       0       0       0
  5478 ;;      Totals:         0       0       0       0       0       0       0       0       0       0       0       0       
      +0       0       0       0       0
  5479 ;;Total ram usage:        0 bytes
  5480 ;; Hardware stack levels used: 1
  5481 ;; Hardware stack levels required when called: 7
  5482 ;; This function calls:
  5483 ;;		_Timer1_Read_value
  5484 ;;		_Timer1_Write_value
  5485 ;; This function is called by:
  5486 ;;		_TMRO_ISR
  5487 ;;		i2_TMRO_ISR
  5488 ;; This function uses a non-reentrant model
  5489 ;;
  5490                           
  5491                           	psect	text17
  5492   003150                     __ptext17:
  5493                           	callstack 0
  5494   003150                     _timer0_interruptHundler:
  5495                           	callstack 0
  5496                           
  5497                           ;Skip over the trampoline to the duplicate function for level 2
  5498   003150  A25A               	btfss	int$flags,1,c
  5499   003152  EFAD  F018         	goto	_timer0_interruptHundler$intlevel1
  5500   003156  EFD9  F018         	goto	i2_timer0_interruptHundler
  5501   00315A                     _timer0_interruptHundler$intlevel1:
  5502                           	callstack 16
  5503   00315A                     
  5504                           ;application.c: 83:     Timer1_Read_value(&timer1,&timer1_count);
  5505   00315A  0EDA               	movlw	low _timer1
  5506   00315C  6E12               	movwf	Timer1_Read_value@_timer^0,c
  5507   00315E  0E00               	movlw	high _timer1
  5508   003160  6E13               	movwf	(Timer1_Read_value@_timer+1)^0,c
  5509   003162  0E53               	movlw	low _timer1_count
  5510   003164  6E14               	movwf	Timer1_Read_value@_value^0,c
  5511   003166  0E00               	movlw	high _timer1_count
  5512   003168  6E15               	movwf	(Timer1_Read_value@_value+1)^0,c
  5513   00316A  EC6F  F017         	call	_Timer1_Read_value	;wreg free
  5514   00316E                     
  5515                           ;application.c: 84:     Timer1_Write_value(&timer1,0);
  5516   00316E  0EDA               	movlw	low _timer1
  5517   003170  6E12               	movwf	Timer1_Write_value@_timer^0,c
  5518   003172  0E00               	movlw	high _timer1
  5519   003174  6E13               	movwf	(Timer1_Write_value@_timer+1)^0,c
  5520   003176  0E00               	movlw	0
  5521   003178  6E15               	movwf	(Timer1_Write_value@_value+1)^0,c
  5522   00317A  0E00               	movlw	0
  5523   00317C  6E14               	movwf	Timer1_Write_value@_value^0,c
  5524   00317E  ECEE  F018         	call	_Timer1_Write_value	;wreg free
  5525   003182  0012               	return		;funcret
  5526   003184                     __end_of_timer0_interruptHundler:
  5527                           	callstack 0
  5528                           
  5529 ;; *************** function _Timer1_Write_value *****************
  5530 ;; Defined at:
  5531 ;;		line 95 in file "MCAL_Layer/Timer/Timer1/hal_timer1.c"
  5532 ;; Parameters:    Size  Location     Type
  5533 ;;  _timer          2   17[COMRAM] PTR const struct .
  5534 ;;		 -> timer1(6), 
  5535 ;;  _value          2   19[COMRAM] unsigned short 
  5536 ;; Auto vars:     Size  Location     Type
  5537 ;;  ret             1    0        unsigned char 
  5538 ;; Return value:  Size  Location     Type
  5539 ;;                  1    wreg      unsigned char 
  5540 ;; Registers used:
  5541 ;;		wreg, status,2, status,0
  5542 ;; Tracked objects:
  5543 ;;		On entry : 0/0
  5544 ;;		On exit  : 0/0
  5545 ;;		Unchanged: 0/0
  5546 ;; Data sizes:     COMRAM   BANK0   BANK1   BANK2   BANK3   BANK4   BANK5   BANK6   BANK7   BANK8   BANK9  BANK10  BANK1
      +1  BANK12  BANK13  BANK14  BANK15
  5547 ;;      Params:         4       0       0       0       0       0       0       0       0       0       0       0       
      +0       0       0       0       0
  5548 ;;      Locals:         0       0       0       0       0       0       0       0       0       0       0       0       
      +0       0       0       0       0
  5549 ;;      Temps:          0       0       0       0       0       0       0       0       0       0       0       0       
      +0       0       0       0       0
  5550 ;;      Totals:         4       0       0       0       0       0       0       0       0       0       0       0       
      +0       0       0       0       0
  5551 ;;Total ram usage:        4 bytes
  5552 ;; Hardware stack levels used: 1
  5553 ;; Hardware stack levels required when called: 6
  5554 ;; This function calls:
  5555 ;;		Nothing
  5556 ;; This function is called by:
  5557 ;;		_timer0_interruptHundler
  5558 ;; This function uses a non-reentrant model
  5559 ;;
  5560                           
  5561                           	psect	text18
  5562   0031DC                     __ptext18:
  5563                           	callstack 0
  5564   0031DC                     _Timer1_Write_value:
  5565                           	callstack 16
  5566   0031DC                     
  5567                           ;MCAL_Layer/Timer/Timer1/hal_timer1.c: 97:     if(((void*)0) == _timer){
  5568   0031DC  5012               	movf	Timer1_Write_value@_timer^0,w,c
  5569   0031DE  1013               	iorwf	(Timer1_Write_value@_timer+1)^0,w,c
  5570   0031E0  A4D8               	btfss	status,2,c
  5571   0031E2  EFF5  F018         	goto	i1u429_21
  5572   0031E6  EFF7  F018         	goto	i1u429_20
  5573   0031EA                     i1u429_21:
  5574   0031EA  EFF9  F018         	goto	i1l4900
  5575   0031EE                     i1u429_20:
  5576   0031EE                     
  5577                           ;MCAL_Layer/Timer/Timer1/hal_timer1.c: 99:     }
  5578   0031EE  EFFD  F018         	goto	i1l1019
  5579   0031F2                     i1l4900:
  5580                           
  5581                           ;MCAL_Layer/Timer/Timer1/hal_timer1.c: 101:     {;MCAL_Layer/Timer/Timer1/hal_timer1.c: 
      +                          102:         TMR1H = (_value) >>8;
  5582   0031F2  5015               	movf	(Timer1_Write_value@_value+1)^0,w,c
  5583   0031F4  6ECF               	movwf	207,c	;volatile
  5584   0031F6                     
  5585                           ;MCAL_Layer/Timer/Timer1/hal_timer1.c: 103:         TMR1L = (uint8)(_value);
  5586   0031F6  C014  FFCE         	movff	Timer1_Write_value@_value,4046	;volatile
  5587   0031FA                     i1l1019:
  5588   0031FA  0012               	return		;funcret
  5589   0031FC                     __end_of_Timer1_Write_value:
  5590                           	callstack 0
  5591                           
  5592 ;; *************** function _Timer1_Read_value *****************
  5593 ;; Defined at:
  5594 ;;		line 117 in file "MCAL_Layer/Timer/Timer1/hal_timer1.c"
  5595 ;; Parameters:    Size  Location     Type
  5596 ;;  _timer          2   17[COMRAM] PTR const struct .
  5597 ;;		 -> timer1(6), 
  5598 ;;  _value          2   19[COMRAM] PTR unsigned short 
  5599 ;;		 -> timer1_count(1), 
  5600 ;; Auto vars:     Size  Location     Type
  5601 ;;  tmr1h           1   24[COMRAM] unsigned char 
  5602 ;;  tmr1l           1   23[COMRAM] unsigned char 
  5603 ;;  ret             1    0        unsigned char 
  5604 ;; Return value:  Size  Location     Type
  5605 ;;                  1    wreg      unsigned char 
  5606 ;; Registers used:
  5607 ;;		wreg, fsr2l, fsr2h, status,2, status,0
  5608 ;; Tracked objects:
  5609 ;;		On entry : 0/0
  5610 ;;		On exit  : 0/0
  5611 ;;		Unchanged: 0/0
  5612 ;; Data sizes:     COMRAM   BANK0   BANK1   BANK2   BANK3   BANK4   BANK5   BANK6   BANK7   BANK8   BANK9  BANK10  BANK1
      +1  BANK12  BANK13  BANK14  BANK15
  5613 ;;      Params:         4       0       0       0       0       0       0       0       0       0       0       0       
      +0       0       0       0       0
  5614 ;;      Locals:         2       0       0       0       0       0       0       0       0       0       0       0       
      +0       0       0       0       0
  5615 ;;      Temps:          2       0       0       0       0       0       0       0       0       0       0       0       
      +0       0       0       0       0
  5616 ;;      Totals:         8       0       0       0       0       0       0       0       0       0       0       0       
      +0       0       0       0       0
  5617 ;;Total ram usage:        8 bytes
  5618 ;; Hardware stack levels used: 1
  5619 ;; Hardware stack levels required when called: 6
  5620 ;; This function calls:
  5621 ;;		Nothing
  5622 ;; This function is called by:
  5623 ;;		_timer0_interruptHundler
  5624 ;; This function uses a non-reentrant model
  5625 ;;
  5626                           
  5627                           	psect	text19
  5628   002EDE                     __ptext19:
  5629                           	callstack 0
  5630   002EDE                     _Timer1_Read_value:
  5631                           	callstack 16
  5632   002EDE                     
  5633                           ;MCAL_Layer/Timer/Timer1/hal_timer1.c: 119:     uint8 tmr1l = 0;
  5634   002EDE  0E00               	movlw	0
  5635   002EE0  6E18               	movwf	Timer1_Read_value@tmr1l^0,c
  5636                           
  5637                           ;MCAL_Layer/Timer/Timer1/hal_timer1.c: 120:     uint8 tmr1h = 0;
  5638   002EE2  0E00               	movlw	0
  5639   002EE4  6E19               	movwf	Timer1_Read_value@tmr1h^0,c
  5640   002EE6                     
  5641                           ;MCAL_Layer/Timer/Timer1/hal_timer1.c: 121:     if(((void*)0) == _timer || ((void*)0) ==
      +                           _value){
  5642   002EE6  5012               	movf	Timer1_Read_value@_timer^0,w,c
  5643   002EE8  1013               	iorwf	(Timer1_Read_value@_timer+1)^0,w,c
  5644   002EEA  B4D8               	btfsc	status,2,c
  5645   002EEC  EF7A  F017         	goto	i1u430_21
  5646   002EF0  EF7C  F017         	goto	i1u430_20
  5647   002EF4                     i1u430_21:
  5648   002EF4  EF85  F017         	goto	i1l4912
  5649   002EF8                     i1u430_20:
  5650   002EF8  5014               	movf	Timer1_Read_value@_value^0,w,c
  5651   002EFA  1015               	iorwf	(Timer1_Read_value@_value+1)^0,w,c
  5652   002EFC  A4D8               	btfss	status,2,c
  5653   002EFE  EF83  F017         	goto	i1u431_21
  5654   002F02  EF85  F017         	goto	i1u431_20
  5655   002F06                     i1u431_21:
  5656   002F06  EF87  F017         	goto	i1l1022
  5657   002F0A                     i1u431_20:
  5658   002F0A                     i1l4912:
  5659                           
  5660                           ;MCAL_Layer/Timer/Timer1/hal_timer1.c: 123:     }
  5661   002F0A  EF9D  F017         	goto	i1l1026
  5662   002F0E                     i1l1022:
  5663                           
  5664                           ;MCAL_Layer/Timer/Timer1/hal_timer1.c: 125:     {;MCAL_Layer/Timer/Timer1/hal_timer1.c: 
      +                          126:         tmr1l = TMR1L;
  5665   002F0E  CFCE F018          	movff	4046,Timer1_Read_value@tmr1l	;volatile
  5666                           
  5667                           ;MCAL_Layer/Timer/Timer1/hal_timer1.c: 127:         tmr1h = TMR1H;
  5668   002F12  CFCF F019          	movff	4047,Timer1_Read_value@tmr1h	;volatile
  5669   002F16                     
  5670                           ;MCAL_Layer/Timer/Timer1/hal_timer1.c: 128:         *_value = (uint16)((256 * tmr1h) + t
      +                          mr1l);
  5671   002F16  5018               	movf	Timer1_Read_value@tmr1l^0,w,c
  5672   002F18  C019  F016         	movff	Timer1_Read_value@tmr1h,??_Timer1_Read_value
  5673   002F1C  6A17               	clrf	(??_Timer1_Read_value+1)^0,c
  5674   002F1E  C016  F017         	movff	??_Timer1_Read_value,??_Timer1_Read_value+1
  5675   002F22  6A16               	clrf	??_Timer1_Read_value^0,c
  5676   002F24  2616               	addwf	??_Timer1_Read_value^0,f,c
  5677   002F26  0E00               	movlw	0
  5678   002F28  2217               	addwfc	(??_Timer1_Read_value+1)^0,f,c
  5679   002F2A  C014  FFD9         	movff	Timer1_Read_value@_value,fsr2l
  5680   002F2E  C015  FFDA         	movff	Timer1_Read_value@_value+1,fsr2h
  5681   002F32  C016  FFDE         	movff	??_Timer1_Read_value,postinc2
  5682   002F36  C017  FFDD         	movff	??_Timer1_Read_value+1,postdec2
  5683   002F3A                     i1l1026:
  5684   002F3A  0012               	return		;funcret
  5685   002F3C                     __end_of_Timer1_Read_value:
  5686                           	callstack 0
  5687                           
  5688 ;; *************** function _TMR3_ISR *****************
  5689 ;; Defined at:
  5690 ;;		line 137 in file "MCAL_Layer/Timer/Timer3/hal_timer3.c"
  5691 ;; Parameters:    Size  Location     Type
  5692 ;;		None
  5693 ;; Auto vars:     Size  Location     Type
  5694 ;;		None
  5695 ;; Return value:  Size  Location     Type
  5696 ;;                  1    wreg      void 
  5697 ;; Registers used:
  5698 ;;		wreg, status,2
  5699 ;; Tracked objects:
  5700 ;;		On entry : 0/0
  5701 ;;		On exit  : 0/0
  5702 ;;		Unchanged: 0/0
  5703 ;; Data sizes:     COMRAM   BANK0   BANK1   BANK2   BANK3   BANK4   BANK5   BANK6   BANK7   BANK8   BANK9  BANK10  BANK1
      +1  BANK12  BANK13  BANK14  BANK15
  5704 ;;      Params:         0       0       0       0       0       0       0       0       0       0       0       0       
      +0       0       0       0       0
  5705 ;;      Locals:         0       0       0       0       0       0       0       0       0       0       0       0       
      +0       0       0       0       0
  5706 ;;      Temps:          0       0       0       0       0       0       0       0       0       0       0       0       
      +0       0       0       0       0
  5707 ;;      Totals:         0       0       0       0       0       0       0       0       0       0       0       0       
      +0       0       0       0       0
  5708 ;;Total ram usage:        0 bytes
  5709 ;; Hardware stack levels used: 1
  5710 ;; Hardware stack levels required when called: 6
  5711 ;; This function calls:
  5712 ;;		Nothing
  5713 ;; This function is called by:
  5714 ;;		_InterruptCheck
  5715 ;; This function uses a non-reentrant model
  5716 ;;
  5717                           
  5718                           	psect	text20
  5719   00335E                     __ptext20:
  5720                           	callstack 0
  5721   00335E                     _TMR3_ISR:
  5722                           	callstack 18
  5723   00335E                     
  5724                           ;MCAL_Layer/Timer/Timer3/hal_timer3.c: 138:     (PIR2bits.TMR3IF = 0);
  5725   00335E  92A1               	bcf	161,1,c	;volatile
  5726   003360                     
  5727                           ;MCAL_Layer/Timer/Timer3/hal_timer3.c: 139:     TMR3H = timer3_preload >>8;
  5728   003360  5036               	movf	(_timer3_preload+1)^0,w,c
  5729   003362  6EB3               	movwf	179,c	;volatile
  5730   003364                     
  5731                           ;MCAL_Layer/Timer/Timer3/hal_timer3.c: 140:     TMR3L = (uint8)timer3_preload;
  5732   003364  C035  FFB2         	movff	_timer3_preload,4018	;volatile
  5733   003368  0012               	return		;funcret
  5734   00336A                     __end_of_TMR3_ISR:
  5735                           	callstack 0
  5736                           
  5737 ;; *************** function _TMR2_ISR *****************
  5738 ;; Defined at:
  5739 ;;		line 123 in file "MCAL_Layer/Timer/Timer2/hal_timer2.c"
  5740 ;; Parameters:    Size  Location     Type
  5741 ;;		None
  5742 ;; Auto vars:     Size  Location     Type
  5743 ;;		None
  5744 ;; Return value:  Size  Location     Type
  5745 ;;                  1    wreg      void 
  5746 ;; Registers used:
  5747 ;;		None
  5748 ;; Tracked objects:
  5749 ;;		On entry : 0/0
  5750 ;;		On exit  : 0/0
  5751 ;;		Unchanged: 0/0
  5752 ;; Data sizes:     COMRAM   BANK0   BANK1   BANK2   BANK3   BANK4   BANK5   BANK6   BANK7   BANK8   BANK9  BANK10  BANK1
      +1  BANK12  BANK13  BANK14  BANK15
  5753 ;;      Params:         0       0       0       0       0       0       0       0       0       0       0       0       
      +0       0       0       0       0
  5754 ;;      Locals:         0       0       0       0       0       0       0       0       0       0       0       0       
      +0       0       0       0       0
  5755 ;;      Temps:          0       0       0       0       0       0       0       0       0       0       0       0       
      +0       0       0       0       0
  5756 ;;      Totals:         0       0       0       0       0       0       0       0       0       0       0       0       
      +0       0       0       0       0
  5757 ;;Total ram usage:        0 bytes
  5758 ;; Hardware stack levels used: 1
  5759 ;; Hardware stack levels required when called: 6
  5760 ;; This function calls:
  5761 ;;		Nothing
  5762 ;; This function is called by:
  5763 ;;		_InterruptCheck
  5764 ;; This function uses a non-reentrant model
  5765 ;;
  5766                           
  5767                           	psect	text21
  5768   003376                     __ptext21:
  5769                           	callstack 0
  5770   003376                     _TMR2_ISR:
  5771                           	callstack 18
  5772   003376                     
  5773                           ;MCAL_Layer/Timer/Timer2/hal_timer2.c: 124:     (PIR1bits.TMR2IF = 0);
  5774   003376  929E               	bcf	158,1,c	;volatile
  5775                           
  5776                           ;MCAL_Layer/Timer/Timer2/hal_timer2.c: 125:     TMR2 = timer2_preload;
  5777   003378  C04D  FFCC         	movff	_timer2_preload,4044	;volatile
  5778   00337C  0012               	return		;funcret
  5779   00337E                     __end_of_TMR2_ISR:
  5780                           	callstack 0
  5781                           
  5782 ;; *************** function _TMR1_ISR *****************
  5783 ;; Defined at:
  5784 ;;		line 137 in file "MCAL_Layer/Timer/Timer1/hal_timer1.c"
  5785 ;; Parameters:    Size  Location     Type
  5786 ;;		None
  5787 ;; Auto vars:     Size  Location     Type
  5788 ;;		None
  5789 ;; Return value:  Size  Location     Type
  5790 ;;                  1    wreg      void 
  5791 ;; Registers used:
  5792 ;;		wreg, fsr2l, fsr2h, status,2, status,0, pcl, pclath, pclatu, tosl, prodl, prodh, cstack
  5793 ;; Tracked objects:
  5794 ;;		On entry : 0/0
  5795 ;;		On exit  : 0/0
  5796 ;;		Unchanged: 0/0
  5797 ;; Data sizes:     COMRAM   BANK0   BANK1   BANK2   BANK3   BANK4   BANK5   BANK6   BANK7   BANK8   BANK9  BANK10  BANK1
      +1  BANK12  BANK13  BANK14  BANK15
  5798 ;;      Params:         0       0       0       0       0       0       0       0       0       0       0       0       
      +0       0       0       0       0
  5799 ;;      Locals:         0       0       0       0       0       0       0       0       0       0       0       0       
      +0       0       0       0       0
  5800 ;;      Temps:          0       0       0       0       0       0       0       0       0       0       0       0       
      +0       0       0       0       0
  5801 ;;      Totals:         0       0       0       0       0       0       0       0       0       0       0       0       
      +0       0       0       0       0
  5802 ;;Total ram usage:        0 bytes
  5803 ;; Hardware stack levels used: 1
  5804 ;; Hardware stack levels required when called: 9
  5805 ;; This function calls:
  5806 ;;		NULL
  5807 ;;		_timer1_interruptHundler
  5808 ;; This function is called by:
  5809 ;;		_InterruptCheck
  5810 ;; This function uses a non-reentrant model
  5811 ;;
  5812                           
  5813                           	psect	text22
  5814   0030AE                     __ptext22:
  5815                           	callstack 0
  5816   0030AE                     _TMR1_ISR:
  5817                           	callstack 15
  5818   0030AE                     
  5819                           ;MCAL_Layer/Timer/Timer1/hal_timer1.c: 138:     (PIR1bits.TMR1IF = 0);
  5820   0030AE  909E               	bcf	158,0,c	;volatile
  5821   0030B0                     
  5822                           ;MCAL_Layer/Timer/Timer1/hal_timer1.c: 139:     TMR1H = timer1_preload >>8;
  5823   0030B0  5038               	movf	(_timer1_preload+1)^0,w,c
  5824   0030B2  6ECF               	movwf	207,c	;volatile
  5825   0030B4                     
  5826                           ;MCAL_Layer/Timer/Timer1/hal_timer1.c: 140:     TMR1L = (uint8)timer1_preload;
  5827   0030B4  C037  FFCE         	movff	_timer1_preload,4046	;volatile
  5828   0030B8                     
  5829                           ;MCAL_Layer/Timer/Timer1/hal_timer1.c: 141:     if(TMR1_InterruptHandler){
  5830   0030B8  5039               	movf	_TMR1_InterruptHandler^0,w,c
  5831   0030BA  103A               	iorwf	(_TMR1_InterruptHandler+1)^0,w,c
  5832   0030BC  B4D8               	btfsc	status,2,c
  5833   0030BE  EF63  F018         	goto	i1u545_21
  5834   0030C2  EF65  F018         	goto	i1u545_20
  5835   0030C6                     i1u545_21:
  5836   0030C6  EF71  F018         	goto	i1l1030
  5837   0030CA                     i1u545_20:
  5838   0030CA                     
  5839                           ;MCAL_Layer/Timer/Timer1/hal_timer1.c: 142:         TMR1_InterruptHandler();
  5840   0030CA  D802               	call	i1u546_28
  5841   0030CC  EF71  F018         	goto	i1u546_29
  5842   0030D0                     i1u546_28:
  5843   0030D0  0005               	push	
  5844   0030D2  6EFA               	movwf	pclath,c
  5845   0030D4  5039               	movf	_TMR1_InterruptHandler^0,w,c
  5846   0030D6  6EFD               	movwf	tosl,c
  5847   0030D8  503A               	movf	(_TMR1_InterruptHandler+1)^0,w,c
  5848   0030DA  6EFE               	movwf	tosh,c
  5849   0030DC  6AFF               	clrf	tosu,c
  5850   0030DE  50FA               	movf	pclath,w,c
  5851   0030E0  0012               	return		;indir
  5852   0030E2                     i1u546_29:
  5853   0030E2                     i1l1030:
  5854   0030E2  0012               	return		;funcret
  5855   0030E4                     __end_of_TMR1_ISR:
  5856                           	callstack 0
  5857                           
  5858 ;; *************** function _timer1_interruptHundler *****************
  5859 ;; Defined at:
  5860 ;;		line 87 in file "application.c"
  5861 ;; Parameters:    Size  Location     Type
  5862 ;;		None
  5863 ;; Auto vars:     Size  Location     Type
  5864 ;;		None
  5865 ;; Return value:  Size  Location     Type
  5866 ;;                  1    wreg      void 
  5867 ;; Registers used:
  5868 ;;		wreg, fsr2l, fsr2h, status,2, status,0, prodl, prodh, cstack
  5869 ;; Tracked objects:
  5870 ;;		On entry : 0/0
  5871 ;;		On exit  : 0/0
  5872 ;;		Unchanged: 0/0
  5873 ;; Data sizes:     COMRAM   BANK0   BANK1   BANK2   BANK3   BANK4   BANK5   BANK6   BANK7   BANK8   BANK9  BANK10  BANK1
      +1  BANK12  BANK13  BANK14  BANK15
  5874 ;;      Params:         0       0       0       0       0       0       0       0       0       0       0       0       
      +0       0       0       0       0
  5875 ;;      Locals:         0       0       0       0       0       0       0       0       0       0       0       0       
      +0       0       0       0       0
  5876 ;;      Temps:          0       0       0       0       0       0       0       0       0       0       0       0       
      +0       0       0       0       0
  5877 ;;      Totals:         0       0       0       0       0       0       0       0       0       0       0       0       
      +0       0       0       0       0
  5878 ;;Total ram usage:        0 bytes
  5879 ;; Hardware stack levels used: 1
  5880 ;; Hardware stack levels required when called: 8
  5881 ;; This function calls:
  5882 ;;		_led_turn_toggle
  5883 ;; This function is called by:
  5884 ;;		_TMR1_ISR
  5885 ;;		i2_TMR1_ISR
  5886 ;; This function uses a non-reentrant model
  5887 ;;
  5888                           
  5889                           	psect	text23
  5890   003324                     __ptext23:
  5891                           	callstack 0
  5892   003324                     _timer1_interruptHundler:
  5893                           	callstack 0
  5894                           
  5895                           ;Skip over the trampoline to the duplicate function for level 2
  5896   003324  A25A               	btfss	int$flags,1,c
  5897   003326  EF97  F019         	goto	_timer1_interruptHundler$intlevel1
  5898   00332A  EFA8  F019         	goto	i2_timer1_interruptHundler
  5899   00332E                     _timer1_interruptHundler$intlevel1:
  5900                           	callstack 15
  5901   00332E                     
  5902                           ;application.c: 88:     led_turn_toggle(&led1);
  5903   00332E  0E59               	movlw	low _led1
  5904   003330  6E19               	movwf	led_turn_toggle@led^0,c
  5905   003332  0E00               	movlw	high _led1
  5906   003334  6E1A               	movwf	(led_turn_toggle@led+1)^0,c
  5907   003336  ECFD  F016         	call	_led_turn_toggle	;wreg free
  5908   00333A  0012               	return		;funcret
  5909   00333C                     __end_of_timer1_interruptHundler:
  5910                           	callstack 0
  5911                           
  5912 ;; *************** function _led_turn_toggle *****************
  5913 ;; Defined at:
  5914 ;;		line 77 in file "ECU_Layer/LED/ecu_led.c"
  5915 ;; Parameters:    Size  Location     Type
  5916 ;;  led             2   24[COMRAM] PTR const struct .
  5917 ;;		 -> led1(1), 
  5918 ;; Auto vars:     Size  Location     Type
  5919 ;;  pin_obj         1   27[COMRAM] struct .
  5920 ;;  ret             1    0        unsigned char 
  5921 ;; Return value:  Size  Location     Type
  5922 ;;                  1    wreg      unsigned char 
  5923 ;; Registers used:
  5924 ;;		wreg, fsr2l, fsr2h, status,2, status,0, prodl, prodh, cstack
  5925 ;; Tracked objects:
  5926 ;;		On entry : 0/0
  5927 ;;		On exit  : 0/0
  5928 ;;		Unchanged: 0/0
  5929 ;; Data sizes:     COMRAM   BANK0   BANK1   BANK2   BANK3   BANK4   BANK5   BANK6   BANK7   BANK8   BANK9  BANK10  BANK1
      +1  BANK12  BANK13  BANK14  BANK15
  5930 ;;      Params:         2       0       0       0       0       0       0       0       0       0       0       0       
      +0       0       0       0       0
  5931 ;;      Locals:         1       0       0       0       0       0       0       0       0       0       0       0       
      +0       0       0       0       0
  5932 ;;      Temps:          1       0       0       0       0       0       0       0       0       0       0       0       
      +0       0       0       0       0
  5933 ;;      Totals:         4       0       0       0       0       0       0       0       0       0       0       0       
      +0       0       0       0       0
  5934 ;;Total ram usage:        4 bytes
  5935 ;; Hardware stack levels used: 1
  5936 ;; Hardware stack levels required when called: 7
  5937 ;; This function calls:
  5938 ;;		_gpio_pin_toggle_logic
  5939 ;; This function is called by:
  5940 ;;		_timer1_interruptHundler
  5941 ;;		_timer2_interruptHundler
  5942 ;; This function uses a non-reentrant model
  5943 ;;
  5944                           
  5945                           	psect	text24
  5946   002DFA                     __ptext24:
  5947                           	callstack 0
  5948   002DFA                     _led_turn_toggle:
  5949                           	callstack 15
  5950   002DFA                     
  5951                           ;ECU_Layer/LED/ecu_led.c: 80:     if(((void*)0) == led){
  5952   002DFA  5019               	movf	led_turn_toggle@led^0,w,c
  5953   002DFC  101A               	iorwf	(led_turn_toggle@led+1)^0,w,c
  5954   002DFE  A4D8               	btfss	status,2,c
  5955   002E00  EF04  F017         	goto	i1u427_21
  5956   002E04  EF06  F017         	goto	i1u427_20
  5957   002E08                     i1u427_21:
  5958   002E08  EF08  F017         	goto	i1l247
  5959   002E0C                     i1u427_20:
  5960   002E0C                     
  5961                           ;ECU_Layer/LED/ecu_led.c: 82:     }
  5962   002E0C  EF35  F017         	goto	i1l251
  5963   002E10                     i1l247:
  5964                           
  5965                           ;ECU_Layer/LED/ecu_led.c: 84:     {;ECU_Layer/LED/ecu_led.c: 85:         pin_config_t pi
      +                          n_obj={.port = led->port_name, .pin = led->pin, .direction = GPIO_OUTPUT, .logic = led->
      +                          led_status};
  5966   002E10  C04F  F01C         	movff	led_turn_toggle@F3063,led_turn_toggle@pin_obj
  5967   002E14  C019  FFD9         	movff	led_turn_toggle@led,fsr2l
  5968   002E18  C01A  FFDA         	movff	led_turn_toggle@led+1,fsr2h
  5969   002E1C  50DF               	movf	223,w,c
  5970   002E1E  0B0F               	andlw	15
  5971   002E20  6E1B               	movwf	??_led_turn_toggle^0,c
  5972   002E22  501C               	movf	led_turn_toggle@pin_obj^0,w,c
  5973   002E24  181B               	xorwf	??_led_turn_toggle^0,w,c
  5974   002E26  0BF8               	andlw	-8
  5975   002E28  181B               	xorwf	??_led_turn_toggle^0,w,c
  5976   002E2A  6E1C               	movwf	led_turn_toggle@pin_obj^0,c
  5977   002E2C  C019  FFD9         	movff	led_turn_toggle@led,fsr2l
  5978   002E30  C01A  FFDA         	movff	led_turn_toggle@led+1,fsr2h
  5979   002E34  38DF               	swapf	223,w,c
  5980   002E36  0B07               	andlw	7
  5981   002E38  6E1B               	movwf	??_led_turn_toggle^0,c
  5982   002E3A  461B               	rlncf	??_led_turn_toggle^0,f,c
  5983   002E3C  461B               	rlncf	??_led_turn_toggle^0,f,c
  5984   002E3E  461B               	rlncf	??_led_turn_toggle^0,f,c
  5985   002E40  501C               	movf	led_turn_toggle@pin_obj^0,w,c
  5986   002E42  181B               	xorwf	??_led_turn_toggle^0,w,c
  5987   002E44  0BC7               	andlw	-57
  5988   002E46  181B               	xorwf	??_led_turn_toggle^0,w,c
  5989   002E48  6E1C               	movwf	led_turn_toggle@pin_obj^0,c
  5990   002E4A  9C1C               	bcf	led_turn_toggle@pin_obj^0,6,c
  5991   002E4C  C019  FFD9         	movff	led_turn_toggle@led,fsr2l
  5992   002E50  C01A  FFDA         	movff	led_turn_toggle@led+1,fsr2h
  5993   002E54  AEDF               	btfss	indf2,7,c
  5994   002E56  D002               	bra	i1u428_25
  5995   002E58  8E1C               	bsf	led_turn_toggle@pin_obj^0,7,c
  5996   002E5A  D001               	bra	i1u428_27
  5997   002E5C                     i1u428_25:
  5998   002E5C  9E1C               	bcf	led_turn_toggle@pin_obj^0,7,c
  5999   002E5E                     i1u428_27:
  6000   002E5E                     
  6001                           ;ECU_Layer/LED/ecu_led.c: 86:         gpio_pin_toggle_logic(&pin_obj);
  6002   002E5E  0E1C               	movlw	low led_turn_toggle@pin_obj
  6003   002E60  6E12               	movwf	gpio_pin_toggle_logic@_pin_config^0,c
  6004   002E62  0E00               	movlw	high led_turn_toggle@pin_obj
  6005   002E64  6E13               	movwf	(gpio_pin_toggle_logic@_pin_config+1)^0,c
  6006   002E66  EC24  F016         	call	_gpio_pin_toggle_logic	;wreg free
  6007   002E6A                     i1l251:
  6008   002E6A  0012               	return		;funcret
  6009   002E6C                     __end_of_led_turn_toggle:
  6010                           	callstack 0
  6011                           
  6012 ;; *************** function _gpio_pin_toggle_logic *****************
  6013 ;; Defined at:
  6014 ;;		line 136 in file "MCAL_Layer/GPIO/hal_gpio.c"
  6015 ;; Parameters:    Size  Location     Type
  6016 ;;  _pin_config     2   17[COMRAM] PTR const struct .
  6017 ;;		 -> led_turn_toggle@pin_obj(1), 
  6018 ;; Auto vars:     Size  Location     Type
  6019 ;;  ret             1    0        unsigned char 
  6020 ;; Return value:  Size  Location     Type
  6021 ;;                  1    wreg      unsigned char 
  6022 ;; Registers used:
  6023 ;;		wreg, fsr2l, fsr2h, status,2, status,0, prodl, prodh
  6024 ;; Tracked objects:
  6025 ;;		On entry : 0/0
  6026 ;;		On exit  : 0/0
  6027 ;;		Unchanged: 0/0
  6028 ;; Data sizes:     COMRAM   BANK0   BANK1   BANK2   BANK3   BANK4   BANK5   BANK6   BANK7   BANK8   BANK9  BANK10  BANK1
      +1  BANK12  BANK13  BANK14  BANK15
  6029 ;;      Params:         2       0       0       0       0       0       0       0       0       0       0       0       
      +0       0       0       0       0
  6030 ;;      Locals:         0       0       0       0       0       0       0       0       0       0       0       0       
      +0       0       0       0       0
  6031 ;;      Temps:          5       0       0       0       0       0       0       0       0       0       0       0       
      +0       0       0       0       0
  6032 ;;      Totals:         7       0       0       0       0       0       0       0       0       0       0       0       
      +0       0       0       0       0
  6033 ;;Total ram usage:        7 bytes
  6034 ;; Hardware stack levels used: 1
  6035 ;; Hardware stack levels required when called: 6
  6036 ;; This function calls:
  6037 ;;		Nothing
  6038 ;; This function is called by:
  6039 ;;		_led_turn_toggle
  6040 ;; This function uses a non-reentrant model
  6041 ;;
  6042                           
  6043                           	psect	text25
  6044   002C48                     __ptext25:
  6045                           	callstack 0
  6046   002C48                     _gpio_pin_toggle_logic:
  6047                           	callstack 15
  6048   002C48                     
  6049                           ;MCAL_Layer/GPIO/hal_gpio.c: 138:     if(((void*)0) == _pin_config || _pin_config->pin >
      +                           8 -1)
  6050   002C48  5012               	movf	gpio_pin_toggle_logic@_pin_config^0,w,c
  6051   002C4A  1013               	iorwf	(gpio_pin_toggle_logic@_pin_config+1)^0,w,c
  6052   002C4C  B4D8               	btfsc	status,2,c
  6053   002C4E  EF2B  F016         	goto	i1u411_21
  6054   002C52  EF2D  F016         	goto	i1u411_20
  6055   002C56                     i1u411_21:
  6056   002C56  EF3E  F016         	goto	i1l4812
  6057   002C5A                     i1u411_20:
  6058   002C5A  C012  FFD9         	movff	gpio_pin_toggle_logic@_pin_config,fsr2l
  6059   002C5E  C013  FFDA         	movff	gpio_pin_toggle_logic@_pin_config+1,fsr2h
  6060   002C62  30DF               	rrcf	223,w,c
  6061   002C64  32E8               	rrcf	wreg,f,c
  6062   002C66  32E8               	rrcf	wreg,f,c
  6063   002C68  0B07               	andlw	7
  6064   002C6A  6E14               	movwf	??_gpio_pin_toggle_logic^0,c
  6065   002C6C  0E07               	movlw	7
  6066   002C6E  6414               	cpfsgt	??_gpio_pin_toggle_logic^0,c
  6067   002C70  EF3C  F016         	goto	i1u412_21
  6068   002C74  EF3E  F016         	goto	i1u412_20
  6069   002C78                     i1u412_21:
  6070   002C78  EF40  F016         	goto	i1l4814
  6071   002C7C                     i1u412_20:
  6072   002C7C                     i1l4812:
  6073                           
  6074                           ;MCAL_Layer/GPIO/hal_gpio.c: 141:     }
  6075   002C7C  EF6C  F016         	goto	i1l499
  6076   002C80                     i1l4814:
  6077                           
  6078                           ;MCAL_Layer/GPIO/hal_gpio.c: 143:     {;MCAL_Layer/GPIO/hal_gpio.c: 144:         (*lat_r
      +                          egisters[_pin_config->port] ^= ((uint8)1 << _pin_config->pin));
  6079   002C80  C012  FFD9         	movff	gpio_pin_toggle_logic@_pin_config,fsr2l
  6080   002C84  C013  FFDA         	movff	gpio_pin_toggle_logic@_pin_config+1,fsr2h
  6081   002C88  30DF               	rrcf	223,w,c
  6082   002C8A  32E8               	rrcf	wreg,f,c
  6083   002C8C  32E8               	rrcf	wreg,f,c
  6084   002C8E  0B07               	andlw	7
  6085   002C90  6E14               	movwf	??_gpio_pin_toggle_logic^0,c
  6086   002C92  0E01               	movlw	1
  6087   002C94  6E15               	movwf	(??_gpio_pin_toggle_logic+1)^0,c
  6088   002C96  2A14               	incf	??_gpio_pin_toggle_logic^0,f,c
  6089   002C98  EF50  F016         	goto	i1u413_24
  6090   002C9C                     i1u413_25:
  6091   002C9C  90D8               	bcf	status,0,c
  6092   002C9E  3615               	rlcf	(??_gpio_pin_toggle_logic+1)^0,f,c
  6093   002CA0                     i1u413_24:
  6094   002CA0  2E14               	decfsz	??_gpio_pin_toggle_logic^0,f,c
  6095   002CA2  EF4E  F016         	goto	i1u413_25
  6096   002CA6  C012  FFD9         	movff	gpio_pin_toggle_logic@_pin_config,fsr2l
  6097   002CAA  C013  FFDA         	movff	gpio_pin_toggle_logic@_pin_config+1,fsr2h
  6098   002CAE  50DF               	movf	223,w,c
  6099   002CB0  0B07               	andlw	7
  6100   002CB2  6E16               	movwf	(??_gpio_pin_toggle_logic+2)^0,c
  6101   002CB4  5016               	movf	(??_gpio_pin_toggle_logic+2)^0,w,c
  6102   002CB6  0D02               	mullw	2
  6103   002CB8  0EB8               	movlw	low _lat_registers
  6104   002CBA  24F3               	addwf	243,w,c
  6105   002CBC  6ED9               	movwf	fsr2l,c
  6106   002CBE  0E00               	movlw	high _lat_registers
  6107   002CC0  20F4               	addwfc	prodh,w,c
  6108   002CC2  6EDA               	movwf	fsr2h,c
  6109   002CC4  CFDE F017          	movff	postinc2,??_gpio_pin_toggle_logic+3
  6110   002CC8  CFDD F018          	movff	postdec2,??_gpio_pin_toggle_logic+4
  6111   002CCC  C017  FFD9         	movff	??_gpio_pin_toggle_logic+3,fsr2l
  6112   002CD0  C018  FFDA         	movff	??_gpio_pin_toggle_logic+4,fsr2h
  6113   002CD4  5015               	movf	(??_gpio_pin_toggle_logic+1)^0,w,c
  6114   002CD6  1ADF               	xorwf	indf2,f,c
  6115   002CD8                     i1l499:
  6116   002CD8  0012               	return		;funcret
  6117   002CDA                     __end_of_gpio_pin_toggle_logic:
  6118                           	callstack 0
  6119                           
  6120 ;; *************** function _RB7_ISR *****************
  6121 ;; Defined at:
  6122 ;;		line 605 in file "MCAL_Layer/Interrupt/mcal_external_interrupt.c"
  6123 ;; Parameters:    Size  Location     Type
  6124 ;;  RB7_Source      1    wreg     unsigned char 
  6125 ;; Auto vars:     Size  Location     Type
  6126 ;;  RB7_Source      1   17[COMRAM] unsigned char 
  6127 ;; Return value:  Size  Location     Type
  6128 ;;                  1    wreg      void 
  6129 ;; Registers used:
  6130 ;;		wreg, status,2, status,0
  6131 ;; Tracked objects:
  6132 ;;		On entry : 0/0
  6133 ;;		On exit  : 0/0
  6134 ;;		Unchanged: 0/0
  6135 ;; Data sizes:     COMRAM   BANK0   BANK1   BANK2   BANK3   BANK4   BANK5   BANK6   BANK7   BANK8   BANK9  BANK10  BANK1
      +1  BANK12  BANK13  BANK14  BANK15
  6136 ;;      Params:         0       0       0       0       0       0       0       0       0       0       0       0       
      +0       0       0       0       0
  6137 ;;      Locals:         1       0       0       0       0       0       0       0       0       0       0       0       
      +0       0       0       0       0
  6138 ;;      Temps:          0       0       0       0       0       0       0       0       0       0       0       0       
      +0       0       0       0       0
  6139 ;;      Totals:         1       0       0       0       0       0       0       0       0       0       0       0       
      +0       0       0       0       0
  6140 ;;Total ram usage:        1 bytes
  6141 ;; Hardware stack levels used: 1
  6142 ;; Hardware stack levels required when called: 6
  6143 ;; This function calls:
  6144 ;;		Nothing
  6145 ;; This function is called by:
  6146 ;;		_InterruptCheck
  6147 ;; This function uses a non-reentrant model
  6148 ;;
  6149                           
  6150                           	psect	text26
  6151   003254                     __ptext26:
  6152                           	callstack 0
  6153   003254                     _RB7_ISR:
  6154                           	callstack 18
  6155                           
  6156                           ;incstack = 0
  6157                           ;RB7_ISR@RB7_Source stored from wreg
  6158   003254  6E12               	movwf	RB7_ISR@RB7_Source^0,c
  6159   003256                     
  6160                           ;MCAL_Layer/Interrupt/mcal_external_interrupt.c: 607:     (INTCONbits.RBIF = 0);
  6161   003256  90F2               	bcf	242,0,c	;volatile
  6162   003258                     
  6163                           ;MCAL_Layer/Interrupt/mcal_external_interrupt.c: 611:     if(0 == RB7_Source){
  6164   003258  5012               	movf	RB7_ISR@RB7_Source^0,w,c
  6165   00325A  A4D8               	btfss	status,2,c
  6166   00325C  EF32  F019         	goto	i1u542_21
  6167   003260  EF34  F019         	goto	i1u542_20
  6168   003264                     i1u542_21:
  6169   003264  EF36  F019         	goto	i1l5656
  6170   003268                     i1u542_20:
  6171   003268  EF36  F019         	goto	i1l901
  6172   00326C                     i1l5656:
  6173   00326C                     i1l901:
  6174   00326C  0012               	return		;funcret
  6175   00326E                     __end_of_RB7_ISR:
  6176                           	callstack 0
  6177                           
  6178 ;; *************** function _RB6_ISR *****************
  6179 ;; Defined at:
  6180 ;;		line 587 in file "MCAL_Layer/Interrupt/mcal_external_interrupt.c"
  6181 ;; Parameters:    Size  Location     Type
  6182 ;;  RB6_Source      1    wreg     unsigned char 
  6183 ;; Auto vars:     Size  Location     Type
  6184 ;;  RB6_Source      1   17[COMRAM] unsigned char 
  6185 ;; Return value:  Size  Location     Type
  6186 ;;                  1    wreg      void 
  6187 ;; Registers used:
  6188 ;;		wreg, status,2, status,0
  6189 ;; Tracked objects:
  6190 ;;		On entry : 0/0
  6191 ;;		On exit  : 0/0
  6192 ;;		Unchanged: 0/0
  6193 ;; Data sizes:     COMRAM   BANK0   BANK1   BANK2   BANK3   BANK4   BANK5   BANK6   BANK7   BANK8   BANK9  BANK10  BANK1
      +1  BANK12  BANK13  BANK14  BANK15
  6194 ;;      Params:         0       0       0       0       0       0       0       0       0       0       0       0       
      +0       0       0       0       0
  6195 ;;      Locals:         1       0       0       0       0       0       0       0       0       0       0       0       
      +0       0       0       0       0
  6196 ;;      Temps:          0       0       0       0       0       0       0       0       0       0       0       0       
      +0       0       0       0       0
  6197 ;;      Totals:         1       0       0       0       0       0       0       0       0       0       0       0       
      +0       0       0       0       0
  6198 ;;Total ram usage:        1 bytes
  6199 ;; Hardware stack levels used: 1
  6200 ;; Hardware stack levels required when called: 6
  6201 ;; This function calls:
  6202 ;;		Nothing
  6203 ;; This function is called by:
  6204 ;;		_InterruptCheck
  6205 ;; This function uses a non-reentrant model
  6206 ;;
  6207                           
  6208                           	psect	text27
  6209   00326E                     __ptext27:
  6210                           	callstack 0
  6211   00326E                     _RB6_ISR:
  6212                           	callstack 18
  6213                           
  6214                           ;incstack = 0
  6215                           ;RB6_ISR@RB6_Source stored from wreg
  6216   00326E  6E12               	movwf	RB6_ISR@RB6_Source^0,c
  6217   003270                     
  6218                           ;MCAL_Layer/Interrupt/mcal_external_interrupt.c: 589:     (INTCONbits.RBIF = 0);
  6219   003270  90F2               	bcf	242,0,c	;volatile
  6220   003272                     
  6221                           ;MCAL_Layer/Interrupt/mcal_external_interrupt.c: 593:     if(0 == RB6_Source){
  6222   003272  5012               	movf	RB6_ISR@RB6_Source^0,w,c
  6223   003274  A4D8               	btfss	status,2,c
  6224   003276  EF3F  F019         	goto	i1u541_21
  6225   00327A  EF41  F019         	goto	i1u541_20
  6226   00327E                     i1u541_21:
  6227   00327E  EF43  F019         	goto	i1l5642
  6228   003282                     i1u541_20:
  6229   003282  EF43  F019         	goto	i1l890
  6230   003286                     i1l5642:
  6231   003286                     i1l890:
  6232   003286  0012               	return		;funcret
  6233   003288                     __end_of_RB6_ISR:
  6234                           	callstack 0
  6235                           
  6236 ;; *************** function _RB5_ISR *****************
  6237 ;; Defined at:
  6238 ;;		line 569 in file "MCAL_Layer/Interrupt/mcal_external_interrupt.c"
  6239 ;; Parameters:    Size  Location     Type
  6240 ;;  RB5_Source      1    wreg     unsigned char 
  6241 ;; Auto vars:     Size  Location     Type
  6242 ;;  RB5_Source      1   17[COMRAM] unsigned char 
  6243 ;; Return value:  Size  Location     Type
  6244 ;;                  1    wreg      void 
  6245 ;; Registers used:
  6246 ;;		wreg, status,2, status,0
  6247 ;; Tracked objects:
  6248 ;;		On entry : 0/0
  6249 ;;		On exit  : 0/0
  6250 ;;		Unchanged: 0/0
  6251 ;; Data sizes:     COMRAM   BANK0   BANK1   BANK2   BANK3   BANK4   BANK5   BANK6   BANK7   BANK8   BANK9  BANK10  BANK1
      +1  BANK12  BANK13  BANK14  BANK15
  6252 ;;      Params:         0       0       0       0       0       0       0       0       0       0       0       0       
      +0       0       0       0       0
  6253 ;;      Locals:         1       0       0       0       0       0       0       0       0       0       0       0       
      +0       0       0       0       0
  6254 ;;      Temps:          0       0       0       0       0       0       0       0       0       0       0       0       
      +0       0       0       0       0
  6255 ;;      Totals:         1       0       0       0       0       0       0       0       0       0       0       0       
      +0       0       0       0       0
  6256 ;;Total ram usage:        1 bytes
  6257 ;; Hardware stack levels used: 1
  6258 ;; Hardware stack levels required when called: 6
  6259 ;; This function calls:
  6260 ;;		Nothing
  6261 ;; This function is called by:
  6262 ;;		_InterruptCheck
  6263 ;; This function uses a non-reentrant model
  6264 ;;
  6265                           
  6266                           	psect	text28
  6267   003288                     __ptext28:
  6268                           	callstack 0
  6269   003288                     _RB5_ISR:
  6270                           	callstack 18
  6271                           
  6272                           ;incstack = 0
  6273                           ;RB5_ISR@RB5_Source stored from wreg
  6274   003288  6E12               	movwf	RB5_ISR@RB5_Source^0,c
  6275   00328A                     
  6276                           ;MCAL_Layer/Interrupt/mcal_external_interrupt.c: 571:     (INTCONbits.RBIF = 0);
  6277   00328A  90F2               	bcf	242,0,c	;volatile
  6278   00328C                     
  6279                           ;MCAL_Layer/Interrupt/mcal_external_interrupt.c: 575:     if(0 == RB5_Source){
  6280   00328C  5012               	movf	RB5_ISR@RB5_Source^0,w,c
  6281   00328E  A4D8               	btfss	status,2,c
  6282   003290  EF4C  F019         	goto	i1u540_21
  6283   003294  EF4E  F019         	goto	i1u540_20
  6284   003298                     i1u540_21:
  6285   003298  EF50  F019         	goto	i1l5628
  6286   00329C                     i1u540_20:
  6287   00329C  EF50  F019         	goto	i1l879
  6288   0032A0                     i1l5628:
  6289   0032A0                     i1l879:
  6290   0032A0  0012               	return		;funcret
  6291   0032A2                     __end_of_RB5_ISR:
  6292                           	callstack 0
  6293                           
  6294 ;; *************** function _RB4_ISR *****************
  6295 ;; Defined at:
  6296 ;;		line 551 in file "MCAL_Layer/Interrupt/mcal_external_interrupt.c"
  6297 ;; Parameters:    Size  Location     Type
  6298 ;;  RB4_Source      1    wreg     unsigned char 
  6299 ;; Auto vars:     Size  Location     Type
  6300 ;;  RB4_Source      1   17[COMRAM] unsigned char 
  6301 ;; Return value:  Size  Location     Type
  6302 ;;                  1    wreg      void 
  6303 ;; Registers used:
  6304 ;;		wreg, status,2, status,0
  6305 ;; Tracked objects:
  6306 ;;		On entry : 0/0
  6307 ;;		On exit  : 0/0
  6308 ;;		Unchanged: 0/0
  6309 ;; Data sizes:     COMRAM   BANK0   BANK1   BANK2   BANK3   BANK4   BANK5   BANK6   BANK7   BANK8   BANK9  BANK10  BANK1
      +1  BANK12  BANK13  BANK14  BANK15
  6310 ;;      Params:         0       0       0       0       0       0       0       0       0       0       0       0       
      +0       0       0       0       0
  6311 ;;      Locals:         1       0       0       0       0       0       0       0       0       0       0       0       
      +0       0       0       0       0
  6312 ;;      Temps:          0       0       0       0       0       0       0       0       0       0       0       0       
      +0       0       0       0       0
  6313 ;;      Totals:         1       0       0       0       0       0       0       0       0       0       0       0       
      +0       0       0       0       0
  6314 ;;Total ram usage:        1 bytes
  6315 ;; Hardware stack levels used: 1
  6316 ;; Hardware stack levels required when called: 6
  6317 ;; This function calls:
  6318 ;;		Nothing
  6319 ;; This function is called by:
  6320 ;;		_InterruptCheck
  6321 ;; This function uses a non-reentrant model
  6322 ;;
  6323                           
  6324                           	psect	text29
  6325   0032A2                     __ptext29:
  6326                           	callstack 0
  6327   0032A2                     _RB4_ISR:
  6328                           	callstack 18
  6329                           
  6330                           ;incstack = 0
  6331                           ;RB4_ISR@RB4_Source stored from wreg
  6332   0032A2  6E12               	movwf	RB4_ISR@RB4_Source^0,c
  6333   0032A4                     
  6334                           ;MCAL_Layer/Interrupt/mcal_external_interrupt.c: 553:     (INTCONbits.RBIF = 0);
  6335   0032A4  90F2               	bcf	242,0,c	;volatile
  6336   0032A6                     
  6337                           ;MCAL_Layer/Interrupt/mcal_external_interrupt.c: 557:     if(0 == RB4_Source){
  6338   0032A6  5012               	movf	RB4_ISR@RB4_Source^0,w,c
  6339   0032A8  A4D8               	btfss	status,2,c
  6340   0032AA  EF59  F019         	goto	i1u130_21
  6341   0032AE  EF5B  F019         	goto	i1u130_20
  6342   0032B2                     i1u130_21:
  6343   0032B2  EF5D  F019         	goto	i1l2798
  6344   0032B6                     i1u130_20:
  6345   0032B6  EF5D  F019         	goto	i1l868
  6346   0032BA                     i1l2798:
  6347   0032BA                     i1l868:
  6348   0032BA  0012               	return		;funcret
  6349   0032BC                     __end_of_RB4_ISR:
  6350                           	callstack 0
  6351                           
  6352 ;; *************** function _INT2_ISR *****************
  6353 ;; Defined at:
  6354 ;;		line 540 in file "MCAL_Layer/Interrupt/mcal_external_interrupt.c"
  6355 ;; Parameters:    Size  Location     Type
  6356 ;;		None
  6357 ;; Auto vars:     Size  Location     Type
  6358 ;;		None
  6359 ;; Return value:  Size  Location     Type
  6360 ;;                  1    wreg      void 
  6361 ;; Registers used:
  6362 ;;		None
  6363 ;; Tracked objects:
  6364 ;;		On entry : 0/0
  6365 ;;		On exit  : 0/0
  6366 ;;		Unchanged: 0/0
  6367 ;; Data sizes:     COMRAM   BANK0   BANK1   BANK2   BANK3   BANK4   BANK5   BANK6   BANK7   BANK8   BANK9  BANK10  BANK1
      +1  BANK12  BANK13  BANK14  BANK15
  6368 ;;      Params:         0       0       0       0       0       0       0       0       0       0       0       0       
      +0       0       0       0       0
  6369 ;;      Locals:         0       0       0       0       0       0       0       0       0       0       0       0       
      +0       0       0       0       0
  6370 ;;      Temps:          0       0       0       0       0       0       0       0       0       0       0       0       
      +0       0       0       0       0
  6371 ;;      Totals:         0       0       0       0       0       0       0       0       0       0       0       0       
      +0       0       0       0       0
  6372 ;;Total ram usage:        0 bytes
  6373 ;; Hardware stack levels used: 1
  6374 ;; Hardware stack levels required when called: 6
  6375 ;; This function calls:
  6376 ;;		Nothing
  6377 ;; This function is called by:
  6378 ;;		_InterruptCheck
  6379 ;; This function uses a non-reentrant model
  6380 ;;
  6381                           
  6382                           	psect	text30
  6383   00338C                     __ptext30:
  6384                           	callstack 0
  6385   00338C                     _INT2_ISR:
  6386                           	callstack 18
  6387   00338C                     
  6388                           ;MCAL_Layer/Interrupt/mcal_external_interrupt.c: 542:     (INTCON3bits.INT2IF = 0);
  6389   00338C  92F0               	bcf	240,1,c	;volatile
  6390   00338E  0012               	return		;funcret
  6391   003390                     __end_of_INT2_ISR:
  6392                           	callstack 0
  6393                           
  6394 ;; *************** function _INT1_ISR *****************
  6395 ;; Defined at:
  6396 ;;		line 530 in file "MCAL_Layer/Interrupt/mcal_external_interrupt.c"
  6397 ;; Parameters:    Size  Location     Type
  6398 ;;		None
  6399 ;; Auto vars:     Size  Location     Type
  6400 ;;		None
  6401 ;; Return value:  Size  Location     Type
  6402 ;;                  1    wreg      void 
  6403 ;; Registers used:
  6404 ;;		None
  6405 ;; Tracked objects:
  6406 ;;		On entry : 0/0
  6407 ;;		On exit  : 0/0
  6408 ;;		Unchanged: 0/0
  6409 ;; Data sizes:     COMRAM   BANK0   BANK1   BANK2   BANK3   BANK4   BANK5   BANK6   BANK7   BANK8   BANK9  BANK10  BANK1
      +1  BANK12  BANK13  BANK14  BANK15
  6410 ;;      Params:         0       0       0       0       0       0       0       0       0       0       0       0       
      +0       0       0       0       0
  6411 ;;      Locals:         0       0       0       0       0       0       0       0       0       0       0       0       
      +0       0       0       0       0
  6412 ;;      Temps:          0       0       0       0       0       0       0       0       0       0       0       0       
      +0       0       0       0       0
  6413 ;;      Totals:         0       0       0       0       0       0       0       0       0       0       0       0       
      +0       0       0       0       0
  6414 ;;Total ram usage:        0 bytes
  6415 ;; Hardware stack levels used: 1
  6416 ;; Hardware stack levels required when called: 6
  6417 ;; This function calls:
  6418 ;;		Nothing
  6419 ;; This function is called by:
  6420 ;;		_InterruptCheck
  6421 ;; This function uses a non-reentrant model
  6422 ;;
  6423                           
  6424                           	psect	text31
  6425   003390                     __ptext31:
  6426                           	callstack 0
  6427   003390                     _INT1_ISR:
  6428                           	callstack 18
  6429   003390                     
  6430                           ;MCAL_Layer/Interrupt/mcal_external_interrupt.c: 532:     (INTCON3bits.INT1IF = 0);
  6431   003390  90F0               	bcf	240,0,c	;volatile
  6432   003392  0012               	return		;funcret
  6433   003394                     __end_of_INT1_ISR:
  6434                           	callstack 0
  6435                           
  6436 ;; *************** function _INT0_ISR *****************
  6437 ;; Defined at:
  6438 ;;		line 520 in file "MCAL_Layer/Interrupt/mcal_external_interrupt.c"
  6439 ;; Parameters:    Size  Location     Type
  6440 ;;		None
  6441 ;; Auto vars:     Size  Location     Type
  6442 ;;		None
  6443 ;; Return value:  Size  Location     Type
  6444 ;;                  1    wreg      void 
  6445 ;; Registers used:
  6446 ;;		None
  6447 ;; Tracked objects:
  6448 ;;		On entry : 0/0
  6449 ;;		On exit  : 0/0
  6450 ;;		Unchanged: 0/0
  6451 ;; Data sizes:     COMRAM   BANK0   BANK1   BANK2   BANK3   BANK4   BANK5   BANK6   BANK7   BANK8   BANK9  BANK10  BANK1
      +1  BANK12  BANK13  BANK14  BANK15
  6452 ;;      Params:         0       0       0       0       0       0       0       0       0       0       0       0       
      +0       0       0       0       0
  6453 ;;      Locals:         0       0       0       0       0       0       0       0       0       0       0       0       
      +0       0       0       0       0
  6454 ;;      Temps:          0       0       0       0       0       0       0       0       0       0       0       0       
      +0       0       0       0       0
  6455 ;;      Totals:         0       0       0       0       0       0       0       0       0       0       0       0       
      +0       0       0       0       0
  6456 ;;Total ram usage:        0 bytes
  6457 ;; Hardware stack levels used: 1
  6458 ;; Hardware stack levels required when called: 6
  6459 ;; This function calls:
  6460 ;;		Nothing
  6461 ;; This function is called by:
  6462 ;;		_InterruptCheck
  6463 ;; This function uses a non-reentrant model
  6464 ;;
  6465                           
  6466                           	psect	text32
  6467   003394                     __ptext32:
  6468                           	callstack 0
  6469   003394                     _INT0_ISR:
  6470                           	callstack 18
  6471   003394                     
  6472                           ;MCAL_Layer/Interrupt/mcal_external_interrupt.c: 522:     (INTCONbits.INT0IF = 0);
  6473   003394  92F2               	bcf	242,1,c	;volatile
  6474   003396  0012               	return		;funcret
  6475   003398                     __end_of_INT0_ISR:
  6476                           	callstack 0
  6477                           
  6478 ;; *************** function _ADC_ISR *****************
  6479 ;; Defined at:
  6480 ;;		line 348 in file "MCAL_Layer/ADC/hal_adc.c"
  6481 ;; Parameters:    Size  Location     Type
  6482 ;;		None
  6483 ;; Auto vars:     Size  Location     Type
  6484 ;;		None
  6485 ;; Return value:  Size  Location     Type
  6486 ;;                  1    wreg      void 
  6487 ;; Registers used:
  6488 ;;		None
  6489 ;; Tracked objects:
  6490 ;;		On entry : 0/0
  6491 ;;		On exit  : 0/0
  6492 ;;		Unchanged: 0/0
  6493 ;; Data sizes:     COMRAM   BANK0   BANK1   BANK2   BANK3   BANK4   BANK5   BANK6   BANK7   BANK8   BANK9  BANK10  BANK1
      +1  BANK12  BANK13  BANK14  BANK15
  6494 ;;      Params:         0       0       0       0       0       0       0       0       0       0       0       0       
      +0       0       0       0       0
  6495 ;;      Locals:         0       0       0       0       0       0       0       0       0       0       0       0       
      +0       0       0       0       0
  6496 ;;      Temps:          0       0       0       0       0       0       0       0       0       0       0       0       
      +0       0       0       0       0
  6497 ;;      Totals:         0       0       0       0       0       0       0       0       0       0       0       0       
      +0       0       0       0       0
  6498 ;;Total ram usage:        0 bytes
  6499 ;; Hardware stack levels used: 1
  6500 ;; Hardware stack levels required when called: 6
  6501 ;; This function calls:
  6502 ;;		Nothing
  6503 ;; This function is called by:
  6504 ;;		_InterruptCheck
  6505 ;; This function uses a non-reentrant model
  6506 ;;
  6507                           
  6508                           	psect	text33
  6509   003398                     __ptext33:
  6510                           	callstack 0
  6511   003398                     _ADC_ISR:
  6512                           	callstack 18
  6513   003398                     
  6514                           ;MCAL_Layer/ADC/hal_adc.c: 349:     (PIR1bits.ADIF = 0);
  6515   003398  9C9E               	bcf	158,6,c	;volatile
  6516   00339A  0012               	return		;funcret
  6517   00339C                     __end_of_ADC_ISR:
  6518                           	callstack 0
  6519                           
  6520 ;; *************** function _InterruptManagerHigh *****************
  6521 ;; Defined at:
  6522 ;;		line 16 in file "MCAL_Layer/Interrupt/mcal_interrupt_manager.c"
  6523 ;; Parameters:    Size  Location     Type
  6524 ;;		None
  6525 ;; Auto vars:     Size  Location     Type
  6526 ;;		None
  6527 ;; Return value:  Size  Location     Type
  6528 ;;                  1    wreg      void 
  6529 ;; Registers used:
  6530 ;;		wreg, fsr2l, fsr2h, status,2, status,0, pcl, pclath, pclatu, tosl, prodl, prodh, cstack
  6531 ;; Tracked objects:
  6532 ;;		On entry : 0/0
  6533 ;;		On exit  : 0/0
  6534 ;;		Unchanged: 0/0
  6535 ;; Data sizes:     COMRAM   BANK0   BANK1   BANK2   BANK3   BANK4   BANK5   BANK6   BANK7   BANK8   BANK9  BANK10  BANK1
      +1  BANK12  BANK13  BANK14  BANK15
  6536 ;;      Params:         0       0       0       0       0       0       0       0       0       0       0       0       
      +0       0       0       0       0
  6537 ;;      Locals:         0       0       0       0       0       0       0       0       0       0       0       0       
      +0       0       0       0       0
  6538 ;;      Temps:          6       0       0       0       0       0       0       0       0       0       0       0       
      +0       0       0       0       0
  6539 ;;      Totals:         6       0       0       0       0       0       0       0       0       0       0       0       
      +0       0       0       0       0
  6540 ;;Total ram usage:        6 bytes
  6541 ;; Hardware stack levels used: 1
  6542 ;; Hardware stack levels required when called: 5
  6543 ;; This function calls:
  6544 ;;		i2_InterruptCheck
  6545 ;; This function is called by:
  6546 ;;		Interrupt level 2
  6547 ;; This function uses a non-reentrant model
  6548 ;;
  6549                           
  6550                           	psect	intcode
  6551   000008                     __pintcode:
  6552                           	callstack 0
  6553   000008                     _InterruptManagerHigh:
  6554                           	callstack 15
  6555                           
  6556                           ;incstack = 0
  6557   000008  825A               	bsf	int$flags,1,c	;set compiler interrupt flag (level 2)
  6558   00000A  ED1F  F018         	call	int_func,f	;refresh shadow registers
  6559                           
  6560                           	psect	intcode_body
  6561   00303E                     __pintcode_body:
  6562                           	callstack 15
  6563   00303E                     int_func:
  6564                           	callstack 15
  6565   00303E  0006               	pop		; remove dummy address from shadow register refresh
  6566   003040  CFFA F00C          	movff	pclath,??_InterruptManagerHigh
  6567   003044  CFFB F00D          	movff	pclatu,??_InterruptManagerHigh+1
  6568   003048  CFD9 F00E          	movff	fsr2l,??_InterruptManagerHigh+2
  6569   00304C  CFDA F00F          	movff	fsr2h,??_InterruptManagerHigh+3
  6570   003050  CFF3 F010          	movff	prodl,??_InterruptManagerHigh+4
  6571   003054  CFF4 F011          	movff	prodh,??_InterruptManagerHigh+5
  6572   003058                     
  6573                           ;MCAL_Layer/Interrupt/mcal_interrupt_manager.c: 17:     InterruptCheck();
  6574   003058  ECF4  F00F         	call	i2_InterruptCheck	;wreg free
  6575   00305C  C011  FFF4         	movff	??_InterruptManagerHigh+5,prodh
  6576   003060  C010  FFF3         	movff	??_InterruptManagerHigh+4,prodl
  6577   003064  C00F  FFDA         	movff	??_InterruptManagerHigh+3,fsr2h
  6578   003068  C00E  FFD9         	movff	??_InterruptManagerHigh+2,fsr2l
  6579   00306C  C00D  FFFB         	movff	??_InterruptManagerHigh+1,pclatu
  6580   003070  C00C  FFFA         	movff	??_InterruptManagerHigh,pclath
  6581   003074  925A               	bcf	int$flags,1,c	;clear compiler interrupt flag (level 2)
  6582   003076  0011               	retfie		f
  6583   003078                     __end_of_InterruptManagerHigh:
  6584                           	callstack 0
  6585                           
  6586 ;; *************** function i2_InterruptCheck *****************
  6587 ;; Defined at:
  6588 ;;		line 31 in file "MCAL_Layer/Interrupt/mcal_interrupt_manager.c"
  6589 ;; Parameters:    Size  Location     Type
  6590 ;;		None
  6591 ;; Auto vars:     Size  Location     Type
  6592 ;;		None
  6593 ;; Return value:  Size  Location     Type
  6594 ;;                  1    wreg      void 
  6595 ;; Registers used:
  6596 ;;		wreg, fsr2l, fsr2h, status,2, status,0, pcl, pclath, pclatu, tosl, prodl, prodh, cstack
  6597 ;; Tracked objects:
  6598 ;;		On entry : 0/0
  6599 ;;		On exit  : 0/0
  6600 ;;		Unchanged: 0/0
  6601 ;; Data sizes:     COMRAM   BANK0   BANK1   BANK2   BANK3   BANK4   BANK5   BANK6   BANK7   BANK8   BANK9  BANK10  BANK1
      +1  BANK12  BANK13  BANK14  BANK15
  6602 ;;      Params:         0       0       0       0       0       0       0       0       0       0       0       0       
      +0       0       0       0       0
  6603 ;;      Locals:         0       0       0       0       0       0       0       0       0       0       0       0       
      +0       0       0       0       0
  6604 ;;      Temps:          0       0       0       0       0       0       0       0       0       0       0       0       
      +0       0       0       0       0
  6605 ;;      Totals:         0       0       0       0       0       0       0       0       0       0       0       0       
      +0       0       0       0       0
  6606 ;;Total ram usage:        0 bytes
  6607 ;; Hardware stack levels used: 1
  6608 ;; Hardware stack levels required when called: 4
  6609 ;; This function calls:
  6610 ;;		i2_ADC_ISR
  6611 ;;		i2_INT0_ISR
  6612 ;;		i2_INT1_ISR
  6613 ;;		i2_INT2_ISR
  6614 ;;		i2_RB4_ISR
  6615 ;;		i2_RB5_ISR
  6616 ;;		i2_RB6_ISR
  6617 ;;		i2_RB7_ISR
  6618 ;;		i2_TMR1_ISR
  6619 ;;		i2_TMR2_ISR
  6620 ;;		i2_TMR3_ISR
  6621 ;;		i2_TMRO_ISR
  6622 ;; This function is called by:
  6623 ;;		_InterruptManagerHigh
  6624 ;; This function uses a non-reentrant model
  6625 ;;
  6626                           
  6627                           	psect	text35
  6628   001FE8                     __ptext35:
  6629                           	callstack 0
  6630   001FE8                     i2_InterruptCheck:
  6631                           	callstack 15
  6632   001FE8                     
  6633                           ;MCAL_Layer/Interrupt/mcal_interrupt_manager.c: 32:     if((1 == INTCONbits.INT0IE)&&(1 
      +                          == INTCONbits.INT0IF)){
  6634   001FE8  A8F2               	btfss	242,4,c	;volatile
  6635   001FEA  EFF9  F00F         	goto	i2u615_41
  6636   001FEE  EFFB  F00F         	goto	i2u615_40
  6637   001FF2                     i2u615_41:
  6638   001FF2  EF04  F010         	goto	i2l595
  6639   001FF6                     i2u615_40:
  6640   001FF6  A2F2               	btfss	242,1,c	;volatile
  6641   001FF8  EF00  F010         	goto	i2u616_41
  6642   001FFC  EF02  F010         	goto	i2u616_40
  6643   002000                     i2u616_41:
  6644   002000  EF04  F010         	goto	i2l595
  6645   002004                     i2u616_40:
  6646   002004                     
  6647                           ;MCAL_Layer/Interrupt/mcal_interrupt_manager.c: 33:         INT0_ISR();
  6648   002004  ECD2  F019         	call	i2_INT0_ISR	;wreg free
  6649   002008                     i2l595:
  6650                           
  6651                           ;MCAL_Layer/Interrupt/mcal_interrupt_manager.c: 37:     if((1 == INTCON3bits.INT1IE)&&(1
      +                           == INTCON3bits.INT1IF)){
  6652   002008  A6F0               	btfss	240,3,c	;volatile
  6653   00200A  EF09  F010         	goto	i2u617_41
  6654   00200E  EF0B  F010         	goto	i2u617_40
  6655   002012                     i2u617_41:
  6656   002012  EF14  F010         	goto	i2l597
  6657   002016                     i2u617_40:
  6658   002016  A0F0               	btfss	240,0,c	;volatile
  6659   002018  EF10  F010         	goto	i2u618_41
  6660   00201C  EF12  F010         	goto	i2u618_40
  6661   002020                     i2u618_41:
  6662   002020  EF14  F010         	goto	i2l597
  6663   002024                     i2u618_40:
  6664   002024                     
  6665                           ;MCAL_Layer/Interrupt/mcal_interrupt_manager.c: 38:         INT1_ISR();
  6666   002024  ECD0  F019         	call	i2_INT1_ISR	;wreg free
  6667   002028                     i2l597:
  6668                           
  6669                           ;MCAL_Layer/Interrupt/mcal_interrupt_manager.c: 42:     if((1 == INTCON3bits.INT2IE)&&(1
      +                           == INTCON3bits.INT2IF)){
  6670   002028  A8F0               	btfss	240,4,c	;volatile
  6671   00202A  EF19  F010         	goto	i2u619_41
  6672   00202E  EF1B  F010         	goto	i2u619_40
  6673   002032                     i2u619_41:
  6674   002032  EF24  F010         	goto	i2l599
  6675   002036                     i2u619_40:
  6676   002036  A2F0               	btfss	240,1,c	;volatile
  6677   002038  EF20  F010         	goto	i2u620_41
  6678   00203C  EF22  F010         	goto	i2u620_40
  6679   002040                     i2u620_41:
  6680   002040  EF24  F010         	goto	i2l599
  6681   002044                     i2u620_40:
  6682   002044                     
  6683                           ;MCAL_Layer/Interrupt/mcal_interrupt_manager.c: 43:         INT2_ISR();
  6684   002044  ECCE  F019         	call	i2_INT2_ISR	;wreg free
  6685   002048                     i2l599:
  6686                           
  6687                           ;MCAL_Layer/Interrupt/mcal_interrupt_manager.c: 47:     if((1 == INTCONbits.RBIE)&&(1 ==
      +                           INTCONbits.RBIF)&&(PORTBbits.RB4 == GPIO_HIGH) && (RB4_Flag ==1)){
  6688   002048  A6F2               	btfss	242,3,c	;volatile
  6689   00204A  EF29  F010         	goto	i2u621_41
  6690   00204E  EF2B  F010         	goto	i2u621_40
  6691   002052                     i2u621_41:
  6692   002052  EF46  F010         	goto	i2l601
  6693   002056                     i2u621_40:
  6694   002056  A0F2               	btfss	242,0,c	;volatile
  6695   002058  EF30  F010         	goto	i2u622_41
  6696   00205C  EF32  F010         	goto	i2u622_40
  6697   002060                     i2u622_41:
  6698   002060  EF46  F010         	goto	i2l601
  6699   002064                     i2u622_40:
  6700   002064  A881               	btfss	129,4,c	;volatile
  6701   002066  EF37  F010         	goto	i2u623_41
  6702   00206A  EF39  F010         	goto	i2u623_40
  6703   00206E                     i2u623_41:
  6704   00206E  EF46  F010         	goto	i2l601
  6705   002072                     i2u623_40:
  6706   002072  0458               	decf	_RB4_Flag^0,w,c	;volatile
  6707   002074  A4D8               	btfss	status,2,c
  6708   002076  EF3F  F010         	goto	i2u624_41
  6709   00207A  EF41  F010         	goto	i2u624_40
  6710   00207E                     i2u624_41:
  6711   00207E  EF46  F010         	goto	i2l601
  6712   002082                     i2u624_40:
  6713   002082                     
  6714                           ;MCAL_Layer/Interrupt/mcal_interrupt_manager.c: 48:         RB4_Flag = 0;
  6715   002082  0E00               	movlw	0
  6716   002084  6E58               	movwf	_RB4_Flag^0,c	;volatile
  6717   002086                     
  6718                           ;MCAL_Layer/Interrupt/mcal_interrupt_manager.c: 49:         RB4_ISR(1);
  6719   002086  0E01               	movlw	1
  6720   002088  EC85  F019         	call	i2_RB4_ISR
  6721   00208C                     i2l601:
  6722                           
  6723                           ;MCAL_Layer/Interrupt/mcal_interrupt_manager.c: 52:     if((1 == INTCONbits.RBIE)&&(1 ==
      +                           INTCONbits.RBIF)&&(PORTBbits.RB4 == GPIO_LOW)&& (RB4_Flag ==0)){
  6724   00208C  A6F2               	btfss	242,3,c	;volatile
  6725   00208E  EF4B  F010         	goto	i2u625_41
  6726   002092  EF4D  F010         	goto	i2u625_40
  6727   002096                     i2u625_41:
  6728   002096  EF68  F010         	goto	i2l603
  6729   00209A                     i2u625_40:
  6730   00209A  A0F2               	btfss	242,0,c	;volatile
  6731   00209C  EF52  F010         	goto	i2u626_41
  6732   0020A0  EF54  F010         	goto	i2u626_40
  6733   0020A4                     i2u626_41:
  6734   0020A4  EF68  F010         	goto	i2l603
  6735   0020A8                     i2u626_40:
  6736   0020A8  B881               	btfsc	129,4,c	;volatile
  6737   0020AA  EF59  F010         	goto	i2u627_41
  6738   0020AE  EF5B  F010         	goto	i2u627_40
  6739   0020B2                     i2u627_41:
  6740   0020B2  EF68  F010         	goto	i2l603
  6741   0020B6                     i2u627_40:
  6742   0020B6  5058               	movf	_RB4_Flag^0,w,c	;volatile
  6743   0020B8  A4D8               	btfss	status,2,c
  6744   0020BA  EF61  F010         	goto	i2u628_41
  6745   0020BE  EF63  F010         	goto	i2u628_40
  6746   0020C2                     i2u628_41:
  6747   0020C2  EF68  F010         	goto	i2l603
  6748   0020C6                     i2u628_40:
  6749   0020C6                     
  6750                           ;MCAL_Layer/Interrupt/mcal_interrupt_manager.c: 53:         RB4_Flag = 1;
  6751   0020C6  0E01               	movlw	1
  6752   0020C8  6E58               	movwf	_RB4_Flag^0,c	;volatile
  6753   0020CA                     
  6754                           ;MCAL_Layer/Interrupt/mcal_interrupt_manager.c: 54:         RB4_ISR(0);
  6755   0020CA  0E00               	movlw	0
  6756   0020CC  EC85  F019         	call	i2_RB4_ISR
  6757   0020D0                     i2l603:
  6758                           
  6759                           ;MCAL_Layer/Interrupt/mcal_interrupt_manager.c: 58:     if((1 == INTCONbits.RBIE)&&(1 ==
      +                           INTCONbits.RBIF)&&(PORTBbits.RB5 == GPIO_HIGH) && (RB5_Flag ==1)){
  6760   0020D0  A6F2               	btfss	242,3,c	;volatile
  6761   0020D2  EF6D  F010         	goto	i2u629_41
  6762   0020D6  EF6F  F010         	goto	i2u629_40
  6763   0020DA                     i2u629_41:
  6764   0020DA  EF8A  F010         	goto	i2l605
  6765   0020DE                     i2u629_40:
  6766   0020DE  A0F2               	btfss	242,0,c	;volatile
  6767   0020E0  EF74  F010         	goto	i2u630_41
  6768   0020E4  EF76  F010         	goto	i2u630_40
  6769   0020E8                     i2u630_41:
  6770   0020E8  EF8A  F010         	goto	i2l605
  6771   0020EC                     i2u630_40:
  6772   0020EC  AA81               	btfss	129,5,c	;volatile
  6773   0020EE  EF7B  F010         	goto	i2u631_41
  6774   0020F2  EF7D  F010         	goto	i2u631_40
  6775   0020F6                     i2u631_41:
  6776   0020F6  EF8A  F010         	goto	i2l605
  6777   0020FA                     i2u631_40:
  6778   0020FA  0457               	decf	_RB5_Flag^0,w,c	;volatile
  6779   0020FC  A4D8               	btfss	status,2,c
  6780   0020FE  EF83  F010         	goto	i2u632_41
  6781   002102  EF85  F010         	goto	i2u632_40
  6782   002106                     i2u632_41:
  6783   002106  EF8A  F010         	goto	i2l605
  6784   00210A                     i2u632_40:
  6785   00210A                     
  6786                           ;MCAL_Layer/Interrupt/mcal_interrupt_manager.c: 59:         RB5_Flag = 0;
  6787   00210A  0E00               	movlw	0
  6788   00210C  6E57               	movwf	_RB5_Flag^0,c	;volatile
  6789   00210E                     
  6790                           ;MCAL_Layer/Interrupt/mcal_interrupt_manager.c: 60:         RB5_ISR(1);
  6791   00210E  0E01               	movlw	1
  6792   002110  EC78  F019         	call	i2_RB5_ISR
  6793   002114                     i2l605:
  6794                           
  6795                           ;MCAL_Layer/Interrupt/mcal_interrupt_manager.c: 63:     if((1 == INTCONbits.RBIE)&&(1 ==
      +                           INTCONbits.RBIF)&&(PORTBbits.RB5 == GPIO_LOW)&& (RB5_Flag ==0)){
  6796   002114  A6F2               	btfss	242,3,c	;volatile
  6797   002116  EF8F  F010         	goto	i2u633_41
  6798   00211A  EF91  F010         	goto	i2u633_40
  6799   00211E                     i2u633_41:
  6800   00211E  EFAC  F010         	goto	i2l607
  6801   002122                     i2u633_40:
  6802   002122  A0F2               	btfss	242,0,c	;volatile
  6803   002124  EF96  F010         	goto	i2u634_41
  6804   002128  EF98  F010         	goto	i2u634_40
  6805   00212C                     i2u634_41:
  6806   00212C  EFAC  F010         	goto	i2l607
  6807   002130                     i2u634_40:
  6808   002130  BA81               	btfsc	129,5,c	;volatile
  6809   002132  EF9D  F010         	goto	i2u635_41
  6810   002136  EF9F  F010         	goto	i2u635_40
  6811   00213A                     i2u635_41:
  6812   00213A  EFAC  F010         	goto	i2l607
  6813   00213E                     i2u635_40:
  6814   00213E  5057               	movf	_RB5_Flag^0,w,c	;volatile
  6815   002140  A4D8               	btfss	status,2,c
  6816   002142  EFA5  F010         	goto	i2u636_41
  6817   002146  EFA7  F010         	goto	i2u636_40
  6818   00214A                     i2u636_41:
  6819   00214A  EFAC  F010         	goto	i2l607
  6820   00214E                     i2u636_40:
  6821   00214E                     
  6822                           ;MCAL_Layer/Interrupt/mcal_interrupt_manager.c: 64:         RB5_Flag = 1;
  6823   00214E  0E01               	movlw	1
  6824   002150  6E57               	movwf	_RB5_Flag^0,c	;volatile
  6825   002152                     
  6826                           ;MCAL_Layer/Interrupt/mcal_interrupt_manager.c: 65:         RB5_ISR(0);
  6827   002152  0E00               	movlw	0
  6828   002154  EC78  F019         	call	i2_RB5_ISR
  6829   002158                     i2l607:
  6830                           
  6831                           ;MCAL_Layer/Interrupt/mcal_interrupt_manager.c: 69:     if((1 == INTCONbits.RBIE)&&(1 ==
      +                           INTCONbits.RBIF)&&(PORTBbits.RB6 == GPIO_HIGH) && (RB6_Flag ==1)){
  6832   002158  A6F2               	btfss	242,3,c	;volatile
  6833   00215A  EFB1  F010         	goto	i2u637_41
  6834   00215E  EFB3  F010         	goto	i2u637_40
  6835   002162                     i2u637_41:
  6836   002162  EFCE  F010         	goto	i2l609
  6837   002166                     i2u637_40:
  6838   002166  A0F2               	btfss	242,0,c	;volatile
  6839   002168  EFB8  F010         	goto	i2u638_41
  6840   00216C  EFBA  F010         	goto	i2u638_40
  6841   002170                     i2u638_41:
  6842   002170  EFCE  F010         	goto	i2l609
  6843   002174                     i2u638_40:
  6844   002174  AC81               	btfss	129,6,c	;volatile
  6845   002176  EFBF  F010         	goto	i2u639_41
  6846   00217A  EFC1  F010         	goto	i2u639_40
  6847   00217E                     i2u639_41:
  6848   00217E  EFCE  F010         	goto	i2l609
  6849   002182                     i2u639_40:
  6850   002182  0456               	decf	_RB6_Flag^0,w,c	;volatile
  6851   002184  A4D8               	btfss	status,2,c
  6852   002186  EFC7  F010         	goto	i2u640_41
  6853   00218A  EFC9  F010         	goto	i2u640_40
  6854   00218E                     i2u640_41:
  6855   00218E  EFCE  F010         	goto	i2l609
  6856   002192                     i2u640_40:
  6857   002192                     
  6858                           ;MCAL_Layer/Interrupt/mcal_interrupt_manager.c: 70:         RB6_Flag = 0;
  6859   002192  0E00               	movlw	0
  6860   002194  6E56               	movwf	_RB6_Flag^0,c	;volatile
  6861   002196                     
  6862                           ;MCAL_Layer/Interrupt/mcal_interrupt_manager.c: 71:         RB6_ISR(1);
  6863   002196  0E01               	movlw	1
  6864   002198  EC6B  F019         	call	i2_RB6_ISR
  6865   00219C                     i2l609:
  6866                           
  6867                           ;MCAL_Layer/Interrupt/mcal_interrupt_manager.c: 74:     if((1 == INTCONbits.RBIE)&&(1 ==
      +                           INTCONbits.RBIF)&&(PORTBbits.RB6 == GPIO_LOW)&& (RB6_Flag ==0)){
  6868   00219C  A6F2               	btfss	242,3,c	;volatile
  6869   00219E  EFD3  F010         	goto	i2u641_41
  6870   0021A2  EFD5  F010         	goto	i2u641_40
  6871   0021A6                     i2u641_41:
  6872   0021A6  EFF0  F010         	goto	i2l611
  6873   0021AA                     i2u641_40:
  6874   0021AA  A0F2               	btfss	242,0,c	;volatile
  6875   0021AC  EFDA  F010         	goto	i2u642_41
  6876   0021B0  EFDC  F010         	goto	i2u642_40
  6877   0021B4                     i2u642_41:
  6878   0021B4  EFF0  F010         	goto	i2l611
  6879   0021B8                     i2u642_40:
  6880   0021B8  BC81               	btfsc	129,6,c	;volatile
  6881   0021BA  EFE1  F010         	goto	i2u643_41
  6882   0021BE  EFE3  F010         	goto	i2u643_40
  6883   0021C2                     i2u643_41:
  6884   0021C2  EFF0  F010         	goto	i2l611
  6885   0021C6                     i2u643_40:
  6886   0021C6  5056               	movf	_RB6_Flag^0,w,c	;volatile
  6887   0021C8  A4D8               	btfss	status,2,c
  6888   0021CA  EFE9  F010         	goto	i2u644_41
  6889   0021CE  EFEB  F010         	goto	i2u644_40
  6890   0021D2                     i2u644_41:
  6891   0021D2  EFF0  F010         	goto	i2l611
  6892   0021D6                     i2u644_40:
  6893   0021D6                     
  6894                           ;MCAL_Layer/Interrupt/mcal_interrupt_manager.c: 75:         RB6_Flag = 1;
  6895   0021D6  0E01               	movlw	1
  6896   0021D8  6E56               	movwf	_RB6_Flag^0,c	;volatile
  6897   0021DA                     
  6898                           ;MCAL_Layer/Interrupt/mcal_interrupt_manager.c: 76:         RB6_ISR(0);
  6899   0021DA  0E00               	movlw	0
  6900   0021DC  EC6B  F019         	call	i2_RB6_ISR
  6901   0021E0                     i2l611:
  6902                           
  6903                           ;MCAL_Layer/Interrupt/mcal_interrupt_manager.c: 80:     if((1 == INTCONbits.RBIE)&&(1 ==
      +                           INTCONbits.RBIF)&&(PORTBbits.RB7 == GPIO_HIGH) && (RB7_Flag ==1)){
  6904   0021E0  A6F2               	btfss	242,3,c	;volatile
  6905   0021E2  EFF5  F010         	goto	i2u645_41
  6906   0021E6  EFF7  F010         	goto	i2u645_40
  6907   0021EA                     i2u645_41:
  6908   0021EA  EF12  F011         	goto	i2l613
  6909   0021EE                     i2u645_40:
  6910   0021EE  A0F2               	btfss	242,0,c	;volatile
  6911   0021F0  EFFC  F010         	goto	i2u646_41
  6912   0021F4  EFFE  F010         	goto	i2u646_40
  6913   0021F8                     i2u646_41:
  6914   0021F8  EF12  F011         	goto	i2l613
  6915   0021FC                     i2u646_40:
  6916   0021FC  AE81               	btfss	129,7,c	;volatile
  6917   0021FE  EF03  F011         	goto	i2u647_41
  6918   002202  EF05  F011         	goto	i2u647_40
  6919   002206                     i2u647_41:
  6920   002206  EF12  F011         	goto	i2l613
  6921   00220A                     i2u647_40:
  6922   00220A  0455               	decf	_RB7_Flag^0,w,c	;volatile
  6923   00220C  A4D8               	btfss	status,2,c
  6924   00220E  EF0B  F011         	goto	i2u648_41
  6925   002212  EF0D  F011         	goto	i2u648_40
  6926   002216                     i2u648_41:
  6927   002216  EF12  F011         	goto	i2l613
  6928   00221A                     i2u648_40:
  6929   00221A                     
  6930                           ;MCAL_Layer/Interrupt/mcal_interrupt_manager.c: 81:         RB7_Flag = 0;
  6931   00221A  0E00               	movlw	0
  6932   00221C  6E55               	movwf	_RB7_Flag^0,c	;volatile
  6933   00221E                     
  6934                           ;MCAL_Layer/Interrupt/mcal_interrupt_manager.c: 82:         RB7_ISR(1);
  6935   00221E  0E01               	movlw	1
  6936   002220  EC5E  F019         	call	i2_RB7_ISR
  6937   002224                     i2l613:
  6938                           
  6939                           ;MCAL_Layer/Interrupt/mcal_interrupt_manager.c: 85:     if((1 == INTCONbits.RBIE)&&(1 ==
      +                           INTCONbits.RBIF)&&(PORTBbits.RB7 == GPIO_LOW)&& (RB7_Flag ==0)){
  6940   002224  A6F2               	btfss	242,3,c	;volatile
  6941   002226  EF17  F011         	goto	i2u649_41
  6942   00222A  EF19  F011         	goto	i2u649_40
  6943   00222E                     i2u649_41:
  6944   00222E  EF34  F011         	goto	i2l615
  6945   002232                     i2u649_40:
  6946   002232  A0F2               	btfss	242,0,c	;volatile
  6947   002234  EF1E  F011         	goto	i2u650_41
  6948   002238  EF20  F011         	goto	i2u650_40
  6949   00223C                     i2u650_41:
  6950   00223C  EF34  F011         	goto	i2l615
  6951   002240                     i2u650_40:
  6952   002240  BE81               	btfsc	129,7,c	;volatile
  6953   002242  EF25  F011         	goto	i2u651_41
  6954   002246  EF27  F011         	goto	i2u651_40
  6955   00224A                     i2u651_41:
  6956   00224A  EF34  F011         	goto	i2l615
  6957   00224E                     i2u651_40:
  6958   00224E  5055               	movf	_RB7_Flag^0,w,c	;volatile
  6959   002250  A4D8               	btfss	status,2,c
  6960   002252  EF2D  F011         	goto	i2u652_41
  6961   002256  EF2F  F011         	goto	i2u652_40
  6962   00225A                     i2u652_41:
  6963   00225A  EF34  F011         	goto	i2l615
  6964   00225E                     i2u652_40:
  6965   00225E                     
  6966                           ;MCAL_Layer/Interrupt/mcal_interrupt_manager.c: 86:         RB7_Flag = 1;
  6967   00225E  0E01               	movlw	1
  6968   002260  6E55               	movwf	_RB7_Flag^0,c	;volatile
  6969   002262                     
  6970                           ;MCAL_Layer/Interrupt/mcal_interrupt_manager.c: 87:         RB7_ISR(0);
  6971   002262  0E00               	movlw	0
  6972   002264  EC5E  F019         	call	i2_RB7_ISR
  6973   002268                     i2l615:
  6974                           
  6975                           ;MCAL_Layer/Interrupt/mcal_interrupt_manager.c: 91:     if((1 == PIE1bits.ADIE)&&(1 == P
      +                          IR1bits.ADIF)){
  6976   002268  AC9D               	btfss	157,6,c	;volatile
  6977   00226A  EF39  F011         	goto	i2u653_41
  6978   00226E  EF3B  F011         	goto	i2u653_40
  6979   002272                     i2u653_41:
  6980   002272  EF44  F011         	goto	i2l617
  6981   002276                     i2u653_40:
  6982   002276  AC9E               	btfss	158,6,c	;volatile
  6983   002278  EF40  F011         	goto	i2u654_41
  6984   00227C  EF42  F011         	goto	i2u654_40
  6985   002280                     i2u654_41:
  6986   002280  EF44  F011         	goto	i2l617
  6987   002284                     i2u654_40:
  6988   002284                     
  6989                           ;MCAL_Layer/Interrupt/mcal_interrupt_manager.c: 92:         ADC_ISR();
  6990   002284  ECD4  F019         	call	i2_ADC_ISR	;wreg free
  6991   002288                     i2l617:
  6992                           
  6993                           ;MCAL_Layer/Interrupt/mcal_interrupt_manager.c: 96:     if((1 == INTCONbits.TMR0IE)&&(1 
      +                          == INTCONbits.TMR0IF)){
  6994   002288  AAF2               	btfss	242,5,c	;volatile
  6995   00228A  EF49  F011         	goto	i2u655_41
  6996   00228E  EF4B  F011         	goto	i2u655_40
  6997   002292                     i2u655_41:
  6998   002292  EF54  F011         	goto	i2l619
  6999   002296                     i2u655_40:
  7000   002296  A4F2               	btfss	242,2,c	;volatile
  7001   002298  EF50  F011         	goto	i2u656_41
  7002   00229C  EF52  F011         	goto	i2u656_40
  7003   0022A0                     i2u656_41:
  7004   0022A0  EF54  F011         	goto	i2l619
  7005   0022A4                     i2u656_40:
  7006   0022A4                     
  7007                           ;MCAL_Layer/Interrupt/mcal_interrupt_manager.c: 97:         TMRO_ISR();
  7008   0022A4  EC72  F018         	call	i2_TMRO_ISR	;wreg free
  7009   0022A8                     i2l619:
  7010                           
  7011                           ;MCAL_Layer/Interrupt/mcal_interrupt_manager.c: 101:     if((1 == PIE1bits.TMR1IE)&&(1 =
      +                          = PIR1bits.TMR1IF)){
  7012   0022A8  A09D               	btfss	157,0,c	;volatile
  7013   0022AA  EF59  F011         	goto	i2u657_41
  7014   0022AE  EF5B  F011         	goto	i2u657_40
  7015   0022B2                     i2u657_41:
  7016   0022B2  EF64  F011         	goto	i2l621
  7017   0022B6                     i2u657_40:
  7018   0022B6  A09E               	btfss	158,0,c	;volatile
  7019   0022B8  EF60  F011         	goto	i2u658_41
  7020   0022BC  EF62  F011         	goto	i2u658_40
  7021   0022C0                     i2u658_41:
  7022   0022C0  EF64  F011         	goto	i2l621
  7023   0022C4                     i2u658_40:
  7024   0022C4                     
  7025                           ;MCAL_Layer/Interrupt/mcal_interrupt_manager.c: 102:         TMR1_ISR();
  7026   0022C4  EC8D  F018         	call	i2_TMR1_ISR	;wreg free
  7027   0022C8                     i2l621:
  7028                           
  7029                           ;MCAL_Layer/Interrupt/mcal_interrupt_manager.c: 106:     if((1 == PIE1bits.TMR2IE)&&(1 =
      +                          = PIR1bits.TMR2IF)){
  7030   0022C8  A29D               	btfss	157,1,c	;volatile
  7031   0022CA  EF69  F011         	goto	i2u659_41
  7032   0022CE  EF6B  F011         	goto	i2u659_40
  7033   0022D2                     i2u659_41:
  7034   0022D2  EF74  F011         	goto	i2l623
  7035   0022D6                     i2u659_40:
  7036   0022D6  A29E               	btfss	158,1,c	;volatile
  7037   0022D8  EF70  F011         	goto	i2u660_41
  7038   0022DC  EF72  F011         	goto	i2u660_40
  7039   0022E0                     i2u660_41:
  7040   0022E0  EF74  F011         	goto	i2l623
  7041   0022E4                     i2u660_40:
  7042   0022E4                     
  7043                           ;MCAL_Layer/Interrupt/mcal_interrupt_manager.c: 107:         TMR2_ISR();
  7044   0022E4  ECBF  F019         	call	i2_TMR2_ISR	;wreg free
  7045   0022E8                     i2l623:
  7046                           
  7047                           ;MCAL_Layer/Interrupt/mcal_interrupt_manager.c: 111:     if((1 == PIE2bits.TMR3IE)&&(1 =
      +                          = PIR2bits.TMR3IF)){
  7048   0022E8  A2A0               	btfss	160,1,c	;volatile
  7049   0022EA  EF79  F011         	goto	i2u661_41
  7050   0022EE  EF7B  F011         	goto	i2u661_40
  7051   0022F2                     i2u661_41:
  7052   0022F2  EF84  F011         	goto	i2l626
  7053   0022F6                     i2u661_40:
  7054   0022F6  A2A1               	btfss	161,1,c	;volatile
  7055   0022F8  EF80  F011         	goto	i2u662_41
  7056   0022FC  EF82  F011         	goto	i2u662_40
  7057   002300                     i2u662_41:
  7058   002300  EF84  F011         	goto	i2l626
  7059   002304                     i2u662_40:
  7060   002304                     
  7061                           ;MCAL_Layer/Interrupt/mcal_interrupt_manager.c: 112:         TMR3_ISR();
  7062   002304  ECB5  F019         	call	i2_TMR3_ISR	;wreg free
  7063   002308                     i2l626:
  7064   002308  0012               	return		;funcret
  7065   00230A                     __end_ofi2_InterruptCheck:
  7066                           	callstack 0
  7067                           
  7068 ;; *************** function i2_TMRO_ISR *****************
  7069 ;; Defined at:
  7070 ;;		line 134 in file "MCAL_Layer/Timer/Timer0/hal_timer0.c"
  7071 ;; Parameters:    Size  Location     Type
  7072 ;;		None
  7073 ;; Auto vars:     Size  Location     Type
  7074 ;;		None
  7075 ;; Return value:  Size  Location     Type
  7076 ;;                  1    wreg      void 
  7077 ;; Registers used:
  7078 ;;		wreg, fsr2l, fsr2h, status,2, status,0, pcl, pclath, pclatu, tosl, cstack
  7079 ;; Tracked objects:
  7080 ;;		On entry : 0/0
  7081 ;;		On exit  : 0/0
  7082 ;;		Unchanged: 0/0
  7083 ;; Data sizes:     COMRAM   BANK0   BANK1   BANK2   BANK3   BANK4   BANK5   BANK6   BANK7   BANK8   BANK9  BANK10  BANK1
      +1  BANK12  BANK13  BANK14  BANK15
  7084 ;;      Params:         0       0       0       0       0       0       0       0       0       0       0       0       
      +0       0       0       0       0
  7085 ;;      Locals:         0       0       0       0       0       0       0       0       0       0       0       0       
      +0       0       0       0       0
  7086 ;;      Temps:          0       0       0       0       0       0       0       0       0       0       0       0       
      +0       0       0       0       0
  7087 ;;      Totals:         0       0       0       0       0       0       0       0       0       0       0       0       
      +0       0       0       0       0
  7088 ;;Total ram usage:        0 bytes
  7089 ;; Hardware stack levels used: 1
  7090 ;; Hardware stack levels required when called: 2
  7091 ;; This function calls:
  7092 ;;		NULL
  7093 ;;		i2_timer0_interruptHundler
  7094 ;; This function is called by:
  7095 ;;		i2_InterruptCheck
  7096 ;; This function uses a non-reentrant model
  7097 ;;
  7098                           
  7099                           	psect	text36
  7100   0030E4                     __ptext36:
  7101                           	callstack 0
  7102   0030E4                     i2_TMRO_ISR:
  7103                           	callstack 16
  7104   0030E4                     
  7105                           ;MCAL_Layer/Timer/Timer0/hal_timer0.c: 135:     (INTCONbits.TMR0IF = 0);
  7106   0030E4  94F2               	bcf	242,2,c	;volatile
  7107   0030E6                     
  7108                           ;MCAL_Layer/Timer/Timer0/hal_timer0.c: 136:     TMR0H = timer0_preload >>8;
  7109   0030E6  503C               	movf	(_timer0_preload+1)^0,w,c
  7110   0030E8  6ED7               	movwf	215,c	;volatile
  7111   0030EA                     
  7112                           ;MCAL_Layer/Timer/Timer0/hal_timer0.c: 137:     TMR0L = (uint8)timer0_preload;
  7113   0030EA  C03B  FFD6         	movff	_timer0_preload,4054	;volatile
  7114   0030EE                     
  7115                           ;MCAL_Layer/Timer/Timer0/hal_timer0.c: 138:     if(TMR0_InterruptHandler){
  7116   0030EE  503D               	movf	_TMR0_InterruptHandler^0,w,c
  7117   0030F0  103E               	iorwf	(_TMR0_InterruptHandler+1)^0,w,c
  7118   0030F2  B4D8               	btfsc	status,2,c
  7119   0030F4  EF7E  F018         	goto	i2u557_41
  7120   0030F8  EF80  F018         	goto	i2u557_40
  7121   0030FC                     i2u557_41:
  7122   0030FC  EF8C  F018         	goto	i2l953
  7123   003100                     i2u557_40:
  7124   003100                     
  7125                           ;MCAL_Layer/Timer/Timer0/hal_timer0.c: 139:         TMR0_InterruptHandler();
  7126   003100  D802               	call	i2u558_48
  7127   003102  EF8C  F018         	goto	i2u558_49
  7128   003106                     i2u558_48:
  7129   003106  0005               	push	
  7130   003108  6EFA               	movwf	pclath,c
  7131   00310A  503D               	movf	_TMR0_InterruptHandler^0,w,c
  7132   00310C  6EFD               	movwf	tosl,c
  7133   00310E  503E               	movf	(_TMR0_InterruptHandler+1)^0,w,c
  7134   003110  6EFE               	movwf	tosh,c
  7135   003112  6AFF               	clrf	tosu,c
  7136   003114  50FA               	movf	pclath,w,c
  7137   003116  0012               	return		;indir
  7138   003118                     i2u558_49:
  7139   003118                     i2l953:
  7140   003118  0012               	return		;funcret
  7141   00311A                     __end_ofi2_TMRO_ISR:
  7142                           	callstack 0
  7143                           
  7144 ;; *************** function i2_timer0_interruptHundler *****************
  7145 ;; Defined at:
  7146 ;;		line 82 in file "application.c"
  7147 ;; Parameters:    Size  Location     Type
  7148 ;;		None
  7149 ;; Auto vars:     Size  Location     Type
  7150 ;;		None
  7151 ;; Return value:  Size  Location     Type
  7152 ;;                  1    wreg      void 
  7153 ;; Registers used:
  7154 ;;		wreg, fsr2l, fsr2h, status,2, status,0, cstack
  7155 ;; Tracked objects:
  7156 ;;		On entry : 0/0
  7157 ;;		On exit  : 0/0
  7158 ;;		Unchanged: 0/0
  7159 ;; Data sizes:     COMRAM   BANK0   BANK1   BANK2   BANK3   BANK4   BANK5   BANK6   BANK7   BANK8   BANK9  BANK10  BANK1
      +1  BANK12  BANK13  BANK14  BANK15
  7160 ;;      Params:         0       0       0       0       0       0       0       0       0       0       0       0       
      +0       0       0       0       0
  7161 ;;      Locals:         0       0       0       0       0       0       0       0       0       0       0       0       
      +0       0       0       0       0
  7162 ;;      Temps:          0       0       0       0       0       0       0       0       0       0       0       0       
      +0       0       0       0       0
  7163 ;;      Totals:         0       0       0       0       0       0       0       0       0       0       0       0       
      +0       0       0       0       0
  7164 ;;Total ram usage:        0 bytes
  7165 ;; Hardware stack levels used: 1
  7166 ;; Hardware stack levels required when called: 1
  7167 ;; This function calls:
  7168 ;;		i2_Timer1_Read_value
  7169 ;;		i2_Timer1_Write_value
  7170 ;; This function is called by:
  7171 ;; This function uses a non-reentrant model
  7172 ;;
  7173                           
  7174                           	psect	text37
  7175   0031B2                     __ptext37:
  7176                           	callstack 0
  7177   0031B2                     i2_timer0_interruptHundler:
  7178                           	callstack 16
  7179   0031B2                     
  7180                           ;application.c: 83:     Timer1_Read_value(&timer1,&timer1_count);
  7181   0031B2  0EDA               	movlw	low _timer1
  7182   0031B4  6E01               	movwf	i2Timer1_Read_value@_timer^0,c
  7183   0031B6  0E00               	movlw	high _timer1
  7184   0031B8  6E02               	movwf	(i2Timer1_Read_value@_timer+1)^0,c
  7185   0031BA  0E53               	movlw	low _timer1_count
  7186   0031BC  6E03               	movwf	i2Timer1_Read_value@_value^0,c
  7187   0031BE  0E00               	movlw	high _timer1_count
  7188   0031C0  6E04               	movwf	(i2Timer1_Read_value@_value+1)^0,c
  7189   0031C2  EC9E  F017         	call	i2_Timer1_Read_value	;wreg free
  7190   0031C6                     
  7191                           ;application.c: 84:     Timer1_Write_value(&timer1,0);
  7192   0031C6  0EDA               	movlw	low _timer1
  7193   0031C8  6E01               	movwf	i2Timer1_Write_value@_timer^0,c
  7194   0031CA  0E00               	movlw	high _timer1
  7195   0031CC  6E02               	movwf	(i2Timer1_Write_value@_timer+1)^0,c
  7196   0031CE  0E00               	movlw	0
  7197   0031D0  6E04               	movwf	(i2Timer1_Write_value@_value+1)^0,c
  7198   0031D2  0E00               	movlw	0
  7199   0031D4  6E03               	movwf	i2Timer1_Write_value@_value^0,c
  7200   0031D6  ECFE  F018         	call	i2_Timer1_Write_value	;wreg free
  7201   0031DA  0012               	return		;funcret
  7202   0031DC                     __end_ofi2_timer0_interruptHundler:
  7203                           	callstack 0
  7204                           
  7205 ;; *************** function i2_Timer1_Write_value *****************
  7206 ;; Defined at:
  7207 ;;		line 95 in file "MCAL_Layer/Timer/Timer1/hal_timer1.c"
  7208 ;; Parameters:    Size  Location     Type
  7209 ;;  _timer          2    0[COMRAM] PTR const struct .
  7210 ;;		 -> timer1(6), 
  7211 ;;  _value          2    2[COMRAM] unsigned short 
  7212 ;; Auto vars:     Size  Location     Type
  7213 ;;  ret             1    0        unsigned char 
  7214 ;; Return value:  Size  Location     Type
  7215 ;;                  1    wreg      unsigned char 
  7216 ;; Registers used:
  7217 ;;		wreg, status,2, status,0
  7218 ;; Tracked objects:
  7219 ;;		On entry : 0/0
  7220 ;;		On exit  : 0/0
  7221 ;;		Unchanged: 0/0
  7222 ;; Data sizes:     COMRAM   BANK0   BANK1   BANK2   BANK3   BANK4   BANK5   BANK6   BANK7   BANK8   BANK9  BANK10  BANK1
      +1  BANK12  BANK13  BANK14  BANK15
  7223 ;;      Params:         4       0       0       0       0       0       0       0       0       0       0       0       
      +0       0       0       0       0
  7224 ;;      Locals:         0       0       0       0       0       0       0       0       0       0       0       0       
      +0       0       0       0       0
  7225 ;;      Temps:          0       0       0       0       0       0       0       0       0       0       0       0       
      +0       0       0       0       0
  7226 ;;      Totals:         4       0       0       0       0       0       0       0       0       0       0       0       
      +0       0       0       0       0
  7227 ;;Total ram usage:        4 bytes
  7228 ;; Hardware stack levels used: 1
  7229 ;; This function calls:
  7230 ;;		Nothing
  7231 ;; This function is called by:
  7232 ;;		i2_timer0_interruptHundler
  7233 ;; This function uses a non-reentrant model
  7234 ;;
  7235                           
  7236                           	psect	text38
  7237   0031FC                     __ptext38:
  7238                           	callstack 0
  7239   0031FC                     i2_Timer1_Write_value:
  7240                           	callstack 16
  7241   0031FC                     
  7242                           ;MCAL_Layer/Timer/Timer1/hal_timer1.c: 97:     if(((void*)0) == _timer){
  7243   0031FC  5001               	movf	i2Timer1_Write_value@_timer^0,w,c
  7244   0031FE  1002               	iorwf	(i2Timer1_Write_value@_timer+1)^0,w,c
  7245   003200  A4D8               	btfss	status,2,c
  7246   003202  EF05  F019         	goto	i2u434_41
  7247   003206  EF07  F019         	goto	i2u434_40
  7248   00320A                     i2u434_41:
  7249   00320A  EF09  F019         	goto	i2l4942
  7250   00320E                     i2u434_40:
  7251   00320E                     
  7252                           ;MCAL_Layer/Timer/Timer1/hal_timer1.c: 99:     }
  7253   00320E  EF0D  F019         	goto	i2l1019
  7254   003212                     i2l4942:
  7255                           
  7256                           ;MCAL_Layer/Timer/Timer1/hal_timer1.c: 101:     {;MCAL_Layer/Timer/Timer1/hal_timer1.c: 
      +                          102:         TMR1H = (_value) >>8;
  7257   003212  5004               	movf	(i2Timer1_Write_value@_value+1)^0,w,c
  7258   003214  6ECF               	movwf	207,c	;volatile
  7259   003216                     
  7260                           ;MCAL_Layer/Timer/Timer1/hal_timer1.c: 103:         TMR1L = (uint8)(_value);
  7261   003216  C003  FFCE         	movff	i2Timer1_Write_value@_value,4046	;volatile
  7262   00321A                     i2l1019:
  7263   00321A  0012               	return		;funcret
  7264   00321C                     __end_ofi2_Timer1_Write_value:
  7265                           	callstack 0
  7266                           
  7267 ;; *************** function i2_Timer1_Read_value *****************
  7268 ;; Defined at:
  7269 ;;		line 117 in file "MCAL_Layer/Timer/Timer1/hal_timer1.c"
  7270 ;; Parameters:    Size  Location     Type
  7271 ;;  _timer          2    0[COMRAM] PTR const struct .
  7272 ;;		 -> timer1(6), 
  7273 ;;  _value          2    2[COMRAM] PTR unsigned short 
  7274 ;;		 -> timer1_count(1), 
  7275 ;; Auto vars:     Size  Location     Type
  7276 ;;  tmr1h           1    7[COMRAM] unsigned char 
  7277 ;;  tmr1l           1    6[COMRAM] unsigned char 
  7278 ;;  ret             1    0        unsigned char 
  7279 ;; Return value:  Size  Location     Type
  7280 ;;                  1    wreg      unsigned char 
  7281 ;; Registers used:
  7282 ;;		wreg, fsr2l, fsr2h, status,2, status,0
  7283 ;; Tracked objects:
  7284 ;;		On entry : 0/0
  7285 ;;		On exit  : 0/0
  7286 ;;		Unchanged: 0/0
  7287 ;; Data sizes:     COMRAM   BANK0   BANK1   BANK2   BANK3   BANK4   BANK5   BANK6   BANK7   BANK8   BANK9  BANK10  BANK1
      +1  BANK12  BANK13  BANK14  BANK15
  7288 ;;      Params:         4       0       0       0       0       0       0       0       0       0       0       0       
      +0       0       0       0       0
  7289 ;;      Locals:         2       0       0       0       0       0       0       0       0       0       0       0       
      +0       0       0       0       0
  7290 ;;      Temps:          2       0       0       0       0       0       0       0       0       0       0       0       
      +0       0       0       0       0
  7291 ;;      Totals:         8       0       0       0       0       0       0       0       0       0       0       0       
      +0       0       0       0       0
  7292 ;;Total ram usage:        8 bytes
  7293 ;; Hardware stack levels used: 1
  7294 ;; This function calls:
  7295 ;;		Nothing
  7296 ;; This function is called by:
  7297 ;;		i2_timer0_interruptHundler
  7298 ;; This function uses a non-reentrant model
  7299 ;;
  7300                           
  7301                           	psect	text39
  7302   002F3C                     __ptext39:
  7303                           	callstack 0
  7304   002F3C                     i2_Timer1_Read_value:
  7305                           	callstack 16
  7306   002F3C                     
  7307                           ;MCAL_Layer/Timer/Timer1/hal_timer1.c: 119:     uint8 tmr1l = 0;
  7308   002F3C  0E00               	movlw	0
  7309   002F3E  6E07               	movwf	i2Timer1_Read_value@tmr1l^0,c
  7310                           
  7311                           ;MCAL_Layer/Timer/Timer1/hal_timer1.c: 120:     uint8 tmr1h = 0;
  7312   002F40  0E00               	movlw	0
  7313   002F42  6E08               	movwf	i2Timer1_Read_value@tmr1h^0,c
  7314   002F44                     
  7315                           ;MCAL_Layer/Timer/Timer1/hal_timer1.c: 121:     if(((void*)0) == _timer || ((void*)0) ==
      +                           _value){
  7316   002F44  5001               	movf	i2Timer1_Read_value@_timer^0,w,c
  7317   002F46  1002               	iorwf	(i2Timer1_Read_value@_timer+1)^0,w,c
  7318   002F48  B4D8               	btfsc	status,2,c
  7319   002F4A  EFA9  F017         	goto	i2u435_41
  7320   002F4E  EFAB  F017         	goto	i2u435_40
  7321   002F52                     i2u435_41:
  7322   002F52  EFB4  F017         	goto	i2l4954
  7323   002F56                     i2u435_40:
  7324   002F56  5003               	movf	i2Timer1_Read_value@_value^0,w,c
  7325   002F58  1004               	iorwf	(i2Timer1_Read_value@_value+1)^0,w,c
  7326   002F5A  A4D8               	btfss	status,2,c
  7327   002F5C  EFB2  F017         	goto	i2u436_41
  7328   002F60  EFB4  F017         	goto	i2u436_40
  7329   002F64                     i2u436_41:
  7330   002F64  EFB6  F017         	goto	i2l1022
  7331   002F68                     i2u436_40:
  7332   002F68                     i2l4954:
  7333                           
  7334                           ;MCAL_Layer/Timer/Timer1/hal_timer1.c: 123:     }
  7335   002F68  EFCC  F017         	goto	i2l1026
  7336   002F6C                     i2l1022:
  7337                           
  7338                           ;MCAL_Layer/Timer/Timer1/hal_timer1.c: 125:     {;MCAL_Layer/Timer/Timer1/hal_timer1.c: 
      +                          126:         tmr1l = TMR1L;
  7339   002F6C  CFCE F007          	movff	4046,i2Timer1_Read_value@tmr1l	;volatile
  7340                           
  7341                           ;MCAL_Layer/Timer/Timer1/hal_timer1.c: 127:         tmr1h = TMR1H;
  7342   002F70  CFCF F008          	movff	4047,i2Timer1_Read_value@tmr1h	;volatile
  7343   002F74                     
  7344                           ;MCAL_Layer/Timer/Timer1/hal_timer1.c: 128:         *_value = (uint16)((256 * tmr1h) + t
      +                          mr1l);
  7345   002F74  5007               	movf	i2Timer1_Read_value@tmr1l^0,w,c
  7346   002F76  C008  F005         	movff	i2Timer1_Read_value@tmr1h,??i2_Timer1_Read_value
  7347   002F7A  6A06               	clrf	(??i2_Timer1_Read_value+1)^0,c
  7348   002F7C  C005  F006         	movff	??i2_Timer1_Read_value,??i2_Timer1_Read_value+1
  7349   002F80  6A05               	clrf	??i2_Timer1_Read_value^0,c
  7350   002F82  2605               	addwf	??i2_Timer1_Read_value^0,f,c
  7351   002F84  0E00               	movlw	0
  7352   002F86  2206               	addwfc	(??i2_Timer1_Read_value+1)^0,f,c
  7353   002F88  C003  FFD9         	movff	i2Timer1_Read_value@_value,fsr2l
  7354   002F8C  C004  FFDA         	movff	i2Timer1_Read_value@_value+1,fsr2h
  7355   002F90  C005  FFDE         	movff	??i2_Timer1_Read_value,postinc2
  7356   002F94  C006  FFDD         	movff	??i2_Timer1_Read_value+1,postdec2
  7357   002F98                     i2l1026:
  7358   002F98  0012               	return		;funcret
  7359   002F9A                     __end_ofi2_Timer1_Read_value:
  7360                           	callstack 0
  7361                           
  7362 ;; *************** function i2_TMR3_ISR *****************
  7363 ;; Defined at:
  7364 ;;		line 137 in file "MCAL_Layer/Timer/Timer3/hal_timer3.c"
  7365 ;; Parameters:    Size  Location     Type
  7366 ;;		None
  7367 ;; Auto vars:     Size  Location     Type
  7368 ;;		None
  7369 ;; Return value:  Size  Location     Type
  7370 ;;                  1    wreg      void 
  7371 ;; Registers used:
  7372 ;;		wreg, status,2
  7373 ;; Tracked objects:
  7374 ;;		On entry : 0/0
  7375 ;;		On exit  : 0/0
  7376 ;;		Unchanged: 0/0
  7377 ;; Data sizes:     COMRAM   BANK0   BANK1   BANK2   BANK3   BANK4   BANK5   BANK6   BANK7   BANK8   BANK9  BANK10  BANK1
      +1  BANK12  BANK13  BANK14  BANK15
  7378 ;;      Params:         0       0       0       0       0       0       0       0       0       0       0       0       
      +0       0       0       0       0
  7379 ;;      Locals:         0       0       0       0       0       0       0       0       0       0       0       0       
      +0       0       0       0       0
  7380 ;;      Temps:          0       0       0       0       0       0       0       0       0       0       0       0       
      +0       0       0       0       0
  7381 ;;      Totals:         0       0       0       0       0       0       0       0       0       0       0       0       
      +0       0       0       0       0
  7382 ;;Total ram usage:        0 bytes
  7383 ;; Hardware stack levels used: 1
  7384 ;; This function calls:
  7385 ;;		Nothing
  7386 ;; This function is called by:
  7387 ;;		i2_InterruptCheck
  7388 ;; This function uses a non-reentrant model
  7389 ;;
  7390                           
  7391                           	psect	text40
  7392   00336A                     __ptext40:
  7393                           	callstack 0
  7394   00336A                     i2_TMR3_ISR:
  7395                           	callstack 18
  7396   00336A                     
  7397                           ;MCAL_Layer/Timer/Timer3/hal_timer3.c: 138:     (PIR2bits.TMR3IF = 0);
  7398   00336A  92A1               	bcf	161,1,c	;volatile
  7399   00336C                     
  7400                           ;MCAL_Layer/Timer/Timer3/hal_timer3.c: 139:     TMR3H = timer3_preload >>8;
  7401   00336C  5036               	movf	(_timer3_preload+1)^0,w,c
  7402   00336E  6EB3               	movwf	179,c	;volatile
  7403   003370                     
  7404                           ;MCAL_Layer/Timer/Timer3/hal_timer3.c: 140:     TMR3L = (uint8)timer3_preload;
  7405   003370  C035  FFB2         	movff	_timer3_preload,4018	;volatile
  7406   003374  0012               	return		;funcret
  7407   003376                     __end_ofi2_TMR3_ISR:
  7408                           	callstack 0
  7409                           
  7410 ;; *************** function i2_TMR2_ISR *****************
  7411 ;; Defined at:
  7412 ;;		line 123 in file "MCAL_Layer/Timer/Timer2/hal_timer2.c"
  7413 ;; Parameters:    Size  Location     Type
  7414 ;;		None
  7415 ;; Auto vars:     Size  Location     Type
  7416 ;;		None
  7417 ;; Return value:  Size  Location     Type
  7418 ;;                  1    wreg      void 
  7419 ;; Registers used:
  7420 ;;		None
  7421 ;; Tracked objects:
  7422 ;;		On entry : 0/0
  7423 ;;		On exit  : 0/0
  7424 ;;		Unchanged: 0/0
  7425 ;; Data sizes:     COMRAM   BANK0   BANK1   BANK2   BANK3   BANK4   BANK5   BANK6   BANK7   BANK8   BANK9  BANK10  BANK1
      +1  BANK12  BANK13  BANK14  BANK15
  7426 ;;      Params:         0       0       0       0       0       0       0       0       0       0       0       0       
      +0       0       0       0       0
  7427 ;;      Locals:         0       0       0       0       0       0       0       0       0       0       0       0       
      +0       0       0       0       0
  7428 ;;      Temps:          0       0       0       0       0       0       0       0       0       0       0       0       
      +0       0       0       0       0
  7429 ;;      Totals:         0       0       0       0       0       0       0       0       0       0       0       0       
      +0       0       0       0       0
  7430 ;;Total ram usage:        0 bytes
  7431 ;; Hardware stack levels used: 1
  7432 ;; This function calls:
  7433 ;;		Nothing
  7434 ;; This function is called by:
  7435 ;;		i2_InterruptCheck
  7436 ;; This function uses a non-reentrant model
  7437 ;;
  7438                           
  7439                           	psect	text41
  7440   00337E                     __ptext41:
  7441                           	callstack 0
  7442   00337E                     i2_TMR2_ISR:
  7443                           	callstack 18
  7444   00337E                     
  7445                           ;MCAL_Layer/Timer/Timer2/hal_timer2.c: 124:     (PIR1bits.TMR2IF = 0);
  7446   00337E  929E               	bcf	158,1,c	;volatile
  7447                           
  7448                           ;MCAL_Layer/Timer/Timer2/hal_timer2.c: 125:     TMR2 = timer2_preload;
  7449   003380  C04D  FFCC         	movff	_timer2_preload,4044	;volatile
  7450   003384  0012               	return		;funcret
  7451   003386                     __end_ofi2_TMR2_ISR:
  7452                           	callstack 0
  7453                           
  7454 ;; *************** function i2_TMR1_ISR *****************
  7455 ;; Defined at:
  7456 ;;		line 137 in file "MCAL_Layer/Timer/Timer1/hal_timer1.c"
  7457 ;; Parameters:    Size  Location     Type
  7458 ;;		None
  7459 ;; Auto vars:     Size  Location     Type
  7460 ;;		None
  7461 ;; Return value:  Size  Location     Type
  7462 ;;                  1    wreg      void 
  7463 ;; Registers used:
  7464 ;;		wreg, fsr2l, fsr2h, status,2, status,0, pcl, pclath, pclatu, tosl, prodl, prodh, cstack
  7465 ;; Tracked objects:
  7466 ;;		On entry : 0/0
  7467 ;;		On exit  : 0/0
  7468 ;;		Unchanged: 0/0
  7469 ;; Data sizes:     COMRAM   BANK0   BANK1   BANK2   BANK3   BANK4   BANK5   BANK6   BANK7   BANK8   BANK9  BANK10  BANK1
      +1  BANK12  BANK13  BANK14  BANK15
  7470 ;;      Params:         0       0       0       0       0       0       0       0       0       0       0       0       
      +0       0       0       0       0
  7471 ;;      Locals:         0       0       0       0       0       0       0       0       0       0       0       0       
      +0       0       0       0       0
  7472 ;;      Temps:          0       0       0       0       0       0       0       0       0       0       0       0       
      +0       0       0       0       0
  7473 ;;      Totals:         0       0       0       0       0       0       0       0       0       0       0       0       
      +0       0       0       0       0
  7474 ;;Total ram usage:        0 bytes
  7475 ;; Hardware stack levels used: 1
  7476 ;; Hardware stack levels required when called: 3
  7477 ;; This function calls:
  7478 ;;		NULL
  7479 ;;		i2_timer1_interruptHundler
  7480 ;; This function is called by:
  7481 ;;		i2_InterruptCheck
  7482 ;; This function uses a non-reentrant model
  7483 ;;
  7484                           
  7485                           	psect	text42
  7486   00311A                     __ptext42:
  7487                           	callstack 0
  7488   00311A                     i2_TMR1_ISR:
  7489                           	callstack 15
  7490   00311A                     
  7491                           ;MCAL_Layer/Timer/Timer1/hal_timer1.c: 138:     (PIR1bits.TMR1IF = 0);
  7492   00311A  909E               	bcf	158,0,c	;volatile
  7493   00311C                     
  7494                           ;MCAL_Layer/Timer/Timer1/hal_timer1.c: 139:     TMR1H = timer1_preload >>8;
  7495   00311C  5038               	movf	(_timer1_preload+1)^0,w,c
  7496   00311E  6ECF               	movwf	207,c	;volatile
  7497   003120                     
  7498                           ;MCAL_Layer/Timer/Timer1/hal_timer1.c: 140:     TMR1L = (uint8)timer1_preload;
  7499   003120  C037  FFCE         	movff	_timer1_preload,4046	;volatile
  7500   003124                     
  7501                           ;MCAL_Layer/Timer/Timer1/hal_timer1.c: 141:     if(TMR1_InterruptHandler){
  7502   003124  5039               	movf	_TMR1_InterruptHandler^0,w,c
  7503   003126  103A               	iorwf	(_TMR1_InterruptHandler+1)^0,w,c
  7504   003128  B4D8               	btfsc	status,2,c
  7505   00312A  EF99  F018         	goto	i2u559_41
  7506   00312E  EF9B  F018         	goto	i2u559_40
  7507   003132                     i2u559_41:
  7508   003132  EFA7  F018         	goto	i2l1030
  7509   003136                     i2u559_40:
  7510   003136                     
  7511                           ;MCAL_Layer/Timer/Timer1/hal_timer1.c: 142:         TMR1_InterruptHandler();
  7512   003136  D802               	call	i2u560_48
  7513   003138  EFA7  F018         	goto	i2u560_49
  7514   00313C                     i2u560_48:
  7515   00313C  0005               	push	
  7516   00313E  6EFA               	movwf	pclath,c
  7517   003140  5039               	movf	_TMR1_InterruptHandler^0,w,c
  7518   003142  6EFD               	movwf	tosl,c
  7519   003144  503A               	movf	(_TMR1_InterruptHandler+1)^0,w,c
  7520   003146  6EFE               	movwf	tosh,c
  7521   003148  6AFF               	clrf	tosu,c
  7522   00314A  50FA               	movf	pclath,w,c
  7523   00314C  0012               	return		;indir
  7524   00314E                     i2u560_49:
  7525   00314E                     i2l1030:
  7526   00314E  0012               	return		;funcret
  7527   003150                     __end_ofi2_TMR1_ISR:
  7528                           	callstack 0
  7529                           
  7530 ;; *************** function i2_timer1_interruptHundler *****************
  7531 ;; Defined at:
  7532 ;;		line 87 in file "application.c"
  7533 ;; Parameters:    Size  Location     Type
  7534 ;;		None
  7535 ;; Auto vars:     Size  Location     Type
  7536 ;;		None
  7537 ;; Return value:  Size  Location     Type
  7538 ;;                  1    wreg      void 
  7539 ;; Registers used:
  7540 ;;		wreg, fsr2l, fsr2h, status,2, status,0, prodl, prodh, cstack
  7541 ;; Tracked objects:
  7542 ;;		On entry : 0/0
  7543 ;;		On exit  : 0/0
  7544 ;;		Unchanged: 0/0
  7545 ;; Data sizes:     COMRAM   BANK0   BANK1   BANK2   BANK3   BANK4   BANK5   BANK6   BANK7   BANK8   BANK9  BANK10  BANK1
      +1  BANK12  BANK13  BANK14  BANK15
  7546 ;;      Params:         0       0       0       0       0       0       0       0       0       0       0       0       
      +0       0       0       0       0
  7547 ;;      Locals:         0       0       0       0       0       0       0       0       0       0       0       0       
      +0       0       0       0       0
  7548 ;;      Temps:          0       0       0       0       0       0       0       0       0       0       0       0       
      +0       0       0       0       0
  7549 ;;      Totals:         0       0       0       0       0       0       0       0       0       0       0       0       
      +0       0       0       0       0
  7550 ;;Total ram usage:        0 bytes
  7551 ;; Hardware stack levels used: 1
  7552 ;; Hardware stack levels required when called: 2
  7553 ;; This function calls:
  7554 ;;		i2_led_turn_toggle
  7555 ;; This function is called by:
  7556 ;; This function uses a non-reentrant model
  7557 ;;
  7558                           
  7559                           	psect	text43
  7560   003350                     __ptext43:
  7561                           	callstack 0
  7562   003350                     i2_timer1_interruptHundler:
  7563                           	callstack 15
  7564   003350                     
  7565                           ;application.c: 88:     led_turn_toggle(&led1);
  7566   003350  0E59               	movlw	low _led1
  7567   003352  6E08               	movwf	i2led_turn_toggle@led^0,c
  7568   003354  0E00               	movlw	high _led1
  7569   003356  6E09               	movwf	(i2led_turn_toggle@led+1)^0,c
  7570   003358  EC36  F017         	call	i2_led_turn_toggle	;wreg free
  7571   00335C  0012               	return		;funcret
  7572   00335E                     __end_ofi2_timer1_interruptHundler:
  7573                           	callstack 0
  7574                           
  7575 ;; *************** function i2_led_turn_toggle *****************
  7576 ;; Defined at:
  7577 ;;		line 77 in file "ECU_Layer/LED/ecu_led.c"
  7578 ;; Parameters:    Size  Location     Type
  7579 ;;  led             2    7[COMRAM] PTR const struct .
  7580 ;;		 -> led1(1), 
  7581 ;; Auto vars:     Size  Location     Type
  7582 ;;  pin_obj         1   10[COMRAM] struct .
  7583 ;;  ret             1    0        unsigned char 
  7584 ;; Return value:  Size  Location     Type
  7585 ;;                  1    wreg      unsigned char 
  7586 ;; Registers used:
  7587 ;;		wreg, fsr2l, fsr2h, status,2, status,0, prodl, prodh, cstack
  7588 ;; Tracked objects:
  7589 ;;		On entry : 0/0
  7590 ;;		On exit  : 0/0
  7591 ;;		Unchanged: 0/0
  7592 ;; Data sizes:     COMRAM   BANK0   BANK1   BANK2   BANK3   BANK4   BANK5   BANK6   BANK7   BANK8   BANK9  BANK10  BANK1
      +1  BANK12  BANK13  BANK14  BANK15
  7593 ;;      Params:         2       0       0       0       0       0       0       0       0       0       0       0       
      +0       0       0       0       0
  7594 ;;      Locals:         1       0       0       0       0       0       0       0       0       0       0       0       
      +0       0       0       0       0
  7595 ;;      Temps:          1       0       0       0       0       0       0       0       0       0       0       0       
      +0       0       0       0       0
  7596 ;;      Totals:         4       0       0       0       0       0       0       0       0       0       0       0       
      +0       0       0       0       0
  7597 ;;Total ram usage:        4 bytes
  7598 ;; Hardware stack levels used: 1
  7599 ;; Hardware stack levels required when called: 1
  7600 ;; This function calls:
  7601 ;;		i2_gpio_pin_toggle_logic
  7602 ;; This function is called by:
  7603 ;;		i2_timer1_interruptHundler
  7604 ;; This function uses a non-reentrant model
  7605 ;;
  7606                           
  7607                           	psect	text44
  7608   002E6C                     __ptext44:
  7609                           	callstack 0
  7610   002E6C                     i2_led_turn_toggle:
  7611                           	callstack 15
  7612   002E6C                     
  7613                           ;ECU_Layer/LED/ecu_led.c: 80:     if(((void*)0) == led){
  7614   002E6C  5008               	movf	i2led_turn_toggle@led^0,w,c
  7615   002E6E  1009               	iorwf	(i2led_turn_toggle@led+1)^0,w,c
  7616   002E70  A4D8               	btfss	status,2,c
  7617   002E72  EF3D  F017         	goto	i2u432_41
  7618   002E76  EF3F  F017         	goto	i2u432_40
  7619   002E7A                     i2u432_41:
  7620   002E7A  EF41  F017         	goto	i2l247
  7621   002E7E                     i2u432_40:
  7622   002E7E                     
  7623                           ;ECU_Layer/LED/ecu_led.c: 82:     }
  7624   002E7E  EF6E  F017         	goto	i2l251
  7625   002E82                     i2l247:
  7626                           
  7627                           ;ECU_Layer/LED/ecu_led.c: 84:     {;ECU_Layer/LED/ecu_led.c: 85:         pin_config_t pi
      +                          n_obj={.port = led->port_name, .pin = led->pin, .direction = GPIO_OUTPUT, .logic = led->
      +                          led_status};
  7628   002E82  C04F  F00B         	movff	led_turn_toggle@F3063,i2led_turn_toggle@pin_obj
  7629   002E86  C008  FFD9         	movff	i2led_turn_toggle@led,fsr2l
  7630   002E8A  C009  FFDA         	movff	i2led_turn_toggle@led+1,fsr2h
  7631   002E8E  50DF               	movf	223,w,c
  7632   002E90  0B0F               	andlw	15
  7633   002E92  6E0A               	movwf	??i2_led_turn_toggle^0,c
  7634   002E94  500B               	movf	i2led_turn_toggle@pin_obj^0,w,c
  7635   002E96  180A               	xorwf	??i2_led_turn_toggle^0,w,c
  7636   002E98  0BF8               	andlw	-8
  7637   002E9A  180A               	xorwf	??i2_led_turn_toggle^0,w,c
  7638   002E9C  6E0B               	movwf	i2led_turn_toggle@pin_obj^0,c
  7639   002E9E  C008  FFD9         	movff	i2led_turn_toggle@led,fsr2l
  7640   002EA2  C009  FFDA         	movff	i2led_turn_toggle@led+1,fsr2h
  7641   002EA6  38DF               	swapf	223,w,c
  7642   002EA8  0B07               	andlw	7
  7643   002EAA  6E0A               	movwf	??i2_led_turn_toggle^0,c
  7644   002EAC  460A               	rlncf	??i2_led_turn_toggle^0,f,c
  7645   002EAE  460A               	rlncf	??i2_led_turn_toggle^0,f,c
  7646   002EB0  460A               	rlncf	??i2_led_turn_toggle^0,f,c
  7647   002EB2  500B               	movf	i2led_turn_toggle@pin_obj^0,w,c
  7648   002EB4  180A               	xorwf	??i2_led_turn_toggle^0,w,c
  7649   002EB6  0BC7               	andlw	-57
  7650   002EB8  180A               	xorwf	??i2_led_turn_toggle^0,w,c
  7651   002EBA  6E0B               	movwf	i2led_turn_toggle@pin_obj^0,c
  7652   002EBC  9C0B               	bcf	i2led_turn_toggle@pin_obj^0,6,c
  7653   002EBE  C008  FFD9         	movff	i2led_turn_toggle@led,fsr2l
  7654   002EC2  C009  FFDA         	movff	i2led_turn_toggle@led+1,fsr2h
  7655   002EC6  AEDF               	btfss	indf2,7,c
  7656   002EC8  D002               	bra	i2u433_45
  7657   002ECA  8E0B               	bsf	i2led_turn_toggle@pin_obj^0,7,c
  7658   002ECC  D001               	bra	i2u433_47
  7659   002ECE                     i2u433_45:
  7660   002ECE  9E0B               	bcf	i2led_turn_toggle@pin_obj^0,7,c
  7661   002ED0                     i2u433_47:
  7662   002ED0                     
  7663                           ;ECU_Layer/LED/ecu_led.c: 86:         gpio_pin_toggle_logic(&pin_obj);
  7664   002ED0  0E0B               	movlw	low i2led_turn_toggle@pin_obj
  7665   002ED2  6E01               	movwf	i2gpio_pin_toggle_logic@_pin_config^0,c
  7666   002ED4  0E00               	movlw	high i2led_turn_toggle@pin_obj
  7667   002ED6  6E02               	movwf	(i2gpio_pin_toggle_logic@_pin_config+1)^0,c
  7668   002ED8  EC6D  F016         	call	i2_gpio_pin_toggle_logic	;wreg free
  7669   002EDC                     i2l251:
  7670   002EDC  0012               	return		;funcret
  7671   002EDE                     __end_ofi2_led_turn_toggle:
  7672                           	callstack 0
  7673                           
  7674 ;; *************** function i2_gpio_pin_toggle_logic *****************
  7675 ;; Defined at:
  7676 ;;		line 136 in file "MCAL_Layer/GPIO/hal_gpio.c"
  7677 ;; Parameters:    Size  Location     Type
  7678 ;;  _pin_config     2    0[COMRAM] PTR const struct .
  7679 ;;		 -> i2led_turn_toggle@pin_obj(1), led_turn_toggle@pin_obj(1), 
  7680 ;; Auto vars:     Size  Location     Type
  7681 ;;  ret             1    0        unsigned char 
  7682 ;; Return value:  Size  Location     Type
  7683 ;;                  1    wreg      unsigned char 
  7684 ;; Registers used:
  7685 ;;		wreg, fsr2l, fsr2h, status,2, status,0, prodl, prodh
  7686 ;; Tracked objects:
  7687 ;;		On entry : 0/0
  7688 ;;		On exit  : 0/0
  7689 ;;		Unchanged: 0/0
  7690 ;; Data sizes:     COMRAM   BANK0   BANK1   BANK2   BANK3   BANK4   BANK5   BANK6   BANK7   BANK8   BANK9  BANK10  BANK1
      +1  BANK12  BANK13  BANK14  BANK15
  7691 ;;      Params:         2       0       0       0       0       0       0       0       0       0       0       0       
      +0       0       0       0       0
  7692 ;;      Locals:         0       0       0       0       0       0       0       0       0       0       0       0       
      +0       0       0       0       0
  7693 ;;      Temps:          5       0       0       0       0       0       0       0       0       0       0       0       
      +0       0       0       0       0
  7694 ;;      Totals:         7       0       0       0       0       0       0       0       0       0       0       0       
      +0       0       0       0       0
  7695 ;;Total ram usage:        7 bytes
  7696 ;; Hardware stack levels used: 1
  7697 ;; This function calls:
  7698 ;;		Nothing
  7699 ;; This function is called by:
  7700 ;;		i2_led_turn_toggle
  7701 ;; This function uses a non-reentrant model
  7702 ;;
  7703                           
  7704                           	psect	text45
  7705   002CDA                     __ptext45:
  7706                           	callstack 0
  7707   002CDA                     i2_gpio_pin_toggle_logic:
  7708                           	callstack 15
  7709   002CDA                     
  7710                           ;MCAL_Layer/GPIO/hal_gpio.c: 138:     if(((void*)0) == _pin_config || _pin_config->pin >
      +                           8 -1)
  7711   002CDA  5001               	movf	i2gpio_pin_toggle_logic@_pin_config^0,w,c
  7712   002CDC  1002               	iorwf	(i2gpio_pin_toggle_logic@_pin_config+1)^0,w,c
  7713   002CDE  B4D8               	btfsc	status,2,c
  7714   002CE0  EF74  F016         	goto	i2u414_41
  7715   002CE4  EF76  F016         	goto	i2u414_40
  7716   002CE8                     i2u414_41:
  7717   002CE8  EF87  F016         	goto	i2l4824
  7718   002CEC                     i2u414_40:
  7719   002CEC  C001  FFD9         	movff	i2gpio_pin_toggle_logic@_pin_config,fsr2l
  7720   002CF0  C002  FFDA         	movff	i2gpio_pin_toggle_logic@_pin_config+1,fsr2h
  7721   002CF4  30DF               	rrcf	223,w,c
  7722   002CF6  32E8               	rrcf	wreg,f,c
  7723   002CF8  32E8               	rrcf	wreg,f,c
  7724   002CFA  0B07               	andlw	7
  7725   002CFC  6E03               	movwf	??i2_gpio_pin_toggle_logic^0,c
  7726   002CFE  0E07               	movlw	7
  7727   002D00  6403               	cpfsgt	??i2_gpio_pin_toggle_logic^0,c
  7728   002D02  EF85  F016         	goto	i2u415_41
  7729   002D06  EF87  F016         	goto	i2u415_40
  7730   002D0A                     i2u415_41:
  7731   002D0A  EF89  F016         	goto	i2l4826
  7732   002D0E                     i2u415_40:
  7733   002D0E                     i2l4824:
  7734                           
  7735                           ;MCAL_Layer/GPIO/hal_gpio.c: 141:     }
  7736   002D0E  EFB5  F016         	goto	i2l499
  7737   002D12                     i2l4826:
  7738                           
  7739                           ;MCAL_Layer/GPIO/hal_gpio.c: 143:     {;MCAL_Layer/GPIO/hal_gpio.c: 144:         (*lat_r
      +                          egisters[_pin_config->port] ^= ((uint8)1 << _pin_config->pin));
  7740   002D12  C001  FFD9         	movff	i2gpio_pin_toggle_logic@_pin_config,fsr2l
  7741   002D16  C002  FFDA         	movff	i2gpio_pin_toggle_logic@_pin_config+1,fsr2h
  7742   002D1A  30DF               	rrcf	223,w,c
  7743   002D1C  32E8               	rrcf	wreg,f,c
  7744   002D1E  32E8               	rrcf	wreg,f,c
  7745   002D20  0B07               	andlw	7
  7746   002D22  6E03               	movwf	??i2_gpio_pin_toggle_logic^0,c
  7747   002D24  0E01               	movlw	1
  7748   002D26  6E04               	movwf	(??i2_gpio_pin_toggle_logic+1)^0,c
  7749   002D28  2A03               	incf	??i2_gpio_pin_toggle_logic^0,f,c
  7750   002D2A  EF99  F016         	goto	i2u416_44
  7751   002D2E                     i2u416_45:
  7752   002D2E  90D8               	bcf	status,0,c
  7753   002D30  3604               	rlcf	(??i2_gpio_pin_toggle_logic+1)^0,f,c
  7754   002D32                     i2u416_44:
  7755   002D32  2E03               	decfsz	??i2_gpio_pin_toggle_logic^0,f,c
  7756   002D34  EF97  F016         	goto	i2u416_45
  7757   002D38  C001  FFD9         	movff	i2gpio_pin_toggle_logic@_pin_config,fsr2l
  7758   002D3C  C002  FFDA         	movff	i2gpio_pin_toggle_logic@_pin_config+1,fsr2h
  7759   002D40  50DF               	movf	223,w,c
  7760   002D42  0B07               	andlw	7
  7761   002D44  6E05               	movwf	(??i2_gpio_pin_toggle_logic+2)^0,c
  7762   002D46  5005               	movf	(??i2_gpio_pin_toggle_logic+2)^0,w,c
  7763   002D48  0D02               	mullw	2
  7764   002D4A  0EB8               	movlw	low _lat_registers
  7765   002D4C  24F3               	addwf	243,w,c
  7766   002D4E  6ED9               	movwf	fsr2l,c
  7767   002D50  0E00               	movlw	high _lat_registers
  7768   002D52  20F4               	addwfc	prodh,w,c
  7769   002D54  6EDA               	movwf	fsr2h,c
  7770   002D56  CFDE F006          	movff	postinc2,??i2_gpio_pin_toggle_logic+3
  7771   002D5A  CFDD F007          	movff	postdec2,??i2_gpio_pin_toggle_logic+4
  7772   002D5E  C006  FFD9         	movff	??i2_gpio_pin_toggle_logic+3,fsr2l
  7773   002D62  C007  FFDA         	movff	??i2_gpio_pin_toggle_logic+4,fsr2h
  7774   002D66  5004               	movf	(??i2_gpio_pin_toggle_logic+1)^0,w,c
  7775   002D68  1ADF               	xorwf	indf2,f,c
  7776   002D6A                     i2l499:
  7777   002D6A  0012               	return		;funcret
  7778   002D6C                     __end_ofi2_gpio_pin_toggle_logic:
  7779                           	callstack 0
  7780                           
  7781 ;; *************** function i2_RB7_ISR *****************
  7782 ;; Defined at:
  7783 ;;		line 605 in file "MCAL_Layer/Interrupt/mcal_external_interrupt.c"
  7784 ;; Parameters:    Size  Location     Type
  7785 ;;  RB7_Source      1    wreg     unsigned char 
  7786 ;; Auto vars:     Size  Location     Type
  7787 ;;  RB7_Source      1    0[COMRAM] unsigned char 
  7788 ;; Return value:  Size  Location     Type
  7789 ;;                  1    wreg      void 
  7790 ;; Registers used:
  7791 ;;		wreg, status,2, status,0
  7792 ;; Tracked objects:
  7793 ;;		On entry : 0/0
  7794 ;;		On exit  : 0/0
  7795 ;;		Unchanged: 0/0
  7796 ;; Data sizes:     COMRAM   BANK0   BANK1   BANK2   BANK3   BANK4   BANK5   BANK6   BANK7   BANK8   BANK9  BANK10  BANK1
      +1  BANK12  BANK13  BANK14  BANK15
  7797 ;;      Params:         0       0       0       0       0       0       0       0       0       0       0       0       
      +0       0       0       0       0
  7798 ;;      Locals:         1       0       0       0       0       0       0       0       0       0       0       0       
      +0       0       0       0       0
  7799 ;;      Temps:          0       0       0       0       0       0       0       0       0       0       0       0       
      +0       0       0       0       0
  7800 ;;      Totals:         1       0       0       0       0       0       0       0       0       0       0       0       
      +0       0       0       0       0
  7801 ;;Total ram usage:        1 bytes
  7802 ;; Hardware stack levels used: 1
  7803 ;; This function calls:
  7804 ;;		Nothing
  7805 ;; This function is called by:
  7806 ;;		i2_InterruptCheck
  7807 ;; This function uses a non-reentrant model
  7808 ;;
  7809                           
  7810                           	psect	text46
  7811   0032BC                     __ptext46:
  7812                           	callstack 0
  7813   0032BC                     i2_RB7_ISR:
  7814                           	callstack 18
  7815                           
  7816                           ;incstack = 0
  7817                           ;i2RB7_ISR@RB7_Source stored from wreg
  7818   0032BC  6E01               	movwf	i2RB7_ISR@RB7_Source^0,c
  7819   0032BE                     
  7820                           ;MCAL_Layer/Interrupt/mcal_external_interrupt.c: 607:     (INTCONbits.RBIF = 0);
  7821   0032BE  90F2               	bcf	242,0,c	;volatile
  7822   0032C0                     
  7823                           ;MCAL_Layer/Interrupt/mcal_external_interrupt.c: 611:     if(0 == RB7_Source){
  7824   0032C0  5001               	movf	i2RB7_ISR@RB7_Source^0,w,c
  7825   0032C2  A4D8               	btfss	status,2,c
  7826   0032C4  EF66  F019         	goto	i2u556_41
  7827   0032C8  EF68  F019         	goto	i2u556_40
  7828   0032CC                     i2u556_41:
  7829   0032CC  EF6A  F019         	goto	i2l5808
  7830   0032D0                     i2u556_40:
  7831   0032D0  EF6A  F019         	goto	i2l901
  7832   0032D4                     i2l5808:
  7833   0032D4                     i2l901:
  7834   0032D4  0012               	return		;funcret
  7835   0032D6                     __end_ofi2_RB7_ISR:
  7836                           	callstack 0
  7837                           
  7838 ;; *************** function i2_RB6_ISR *****************
  7839 ;; Defined at:
  7840 ;;		line 587 in file "MCAL_Layer/Interrupt/mcal_external_interrupt.c"
  7841 ;; Parameters:    Size  Location     Type
  7842 ;;  RB6_Source      1    wreg     unsigned char 
  7843 ;; Auto vars:     Size  Location     Type
  7844 ;;  RB6_Source      1    0[COMRAM] unsigned char 
  7845 ;; Return value:  Size  Location     Type
  7846 ;;                  1    wreg      void 
  7847 ;; Registers used:
  7848 ;;		wreg, status,2, status,0
  7849 ;; Tracked objects:
  7850 ;;		On entry : 0/0
  7851 ;;		On exit  : 0/0
  7852 ;;		Unchanged: 0/0
  7853 ;; Data sizes:     COMRAM   BANK0   BANK1   BANK2   BANK3   BANK4   BANK5   BANK6   BANK7   BANK8   BANK9  BANK10  BANK1
      +1  BANK12  BANK13  BANK14  BANK15
  7854 ;;      Params:         0       0       0       0       0       0       0       0       0       0       0       0       
      +0       0       0       0       0
  7855 ;;      Locals:         1       0       0       0       0       0       0       0       0       0       0       0       
      +0       0       0       0       0
  7856 ;;      Temps:          0       0       0       0       0       0       0       0       0       0       0       0       
      +0       0       0       0       0
  7857 ;;      Totals:         1       0       0       0       0       0       0       0       0       0       0       0       
      +0       0       0       0       0
  7858 ;;Total ram usage:        1 bytes
  7859 ;; Hardware stack levels used: 1
  7860 ;; This function calls:
  7861 ;;		Nothing
  7862 ;; This function is called by:
  7863 ;;		i2_InterruptCheck
  7864 ;; This function uses a non-reentrant model
  7865 ;;
  7866                           
  7867                           	psect	text47
  7868   0032D6                     __ptext47:
  7869                           	callstack 0
  7870   0032D6                     i2_RB6_ISR:
  7871                           	callstack 18
  7872                           
  7873                           ;incstack = 0
  7874                           ;i2RB6_ISR@RB6_Source stored from wreg
  7875   0032D6  6E01               	movwf	i2RB6_ISR@RB6_Source^0,c
  7876   0032D8                     
  7877                           ;MCAL_Layer/Interrupt/mcal_external_interrupt.c: 589:     (INTCONbits.RBIF = 0);
  7878   0032D8  90F2               	bcf	242,0,c	;volatile
  7879   0032DA                     
  7880                           ;MCAL_Layer/Interrupt/mcal_external_interrupt.c: 593:     if(0 == RB6_Source){
  7881   0032DA  5001               	movf	i2RB6_ISR@RB6_Source^0,w,c
  7882   0032DC  A4D8               	btfss	status,2,c
  7883   0032DE  EF73  F019         	goto	i2u555_41
  7884   0032E2  EF75  F019         	goto	i2u555_40
  7885   0032E6                     i2u555_41:
  7886   0032E6  EF77  F019         	goto	i2l5794
  7887   0032EA                     i2u555_40:
  7888   0032EA  EF77  F019         	goto	i2l890
  7889   0032EE                     i2l5794:
  7890   0032EE                     i2l890:
  7891   0032EE  0012               	return		;funcret
  7892   0032F0                     __end_ofi2_RB6_ISR:
  7893                           	callstack 0
  7894                           
  7895 ;; *************** function i2_RB5_ISR *****************
  7896 ;; Defined at:
  7897 ;;		line 569 in file "MCAL_Layer/Interrupt/mcal_external_interrupt.c"
  7898 ;; Parameters:    Size  Location     Type
  7899 ;;  RB5_Source      1    wreg     unsigned char 
  7900 ;; Auto vars:     Size  Location     Type
  7901 ;;  RB5_Source      1    0[COMRAM] unsigned char 
  7902 ;; Return value:  Size  Location     Type
  7903 ;;                  1    wreg      void 
  7904 ;; Registers used:
  7905 ;;		wreg, status,2, status,0
  7906 ;; Tracked objects:
  7907 ;;		On entry : 0/0
  7908 ;;		On exit  : 0/0
  7909 ;;		Unchanged: 0/0
  7910 ;; Data sizes:     COMRAM   BANK0   BANK1   BANK2   BANK3   BANK4   BANK5   BANK6   BANK7   BANK8   BANK9  BANK10  BANK1
      +1  BANK12  BANK13  BANK14  BANK15
  7911 ;;      Params:         0       0       0       0       0       0       0       0       0       0       0       0       
      +0       0       0       0       0
  7912 ;;      Locals:         1       0       0       0       0       0       0       0       0       0       0       0       
      +0       0       0       0       0
  7913 ;;      Temps:          0       0       0       0       0       0       0       0       0       0       0       0       
      +0       0       0       0       0
  7914 ;;      Totals:         1       0       0       0       0       0       0       0       0       0       0       0       
      +0       0       0       0       0
  7915 ;;Total ram usage:        1 bytes
  7916 ;; Hardware stack levels used: 1
  7917 ;; This function calls:
  7918 ;;		Nothing
  7919 ;; This function is called by:
  7920 ;;		i2_InterruptCheck
  7921 ;; This function uses a non-reentrant model
  7922 ;;
  7923                           
  7924                           	psect	text48
  7925   0032F0                     __ptext48:
  7926                           	callstack 0
  7927   0032F0                     i2_RB5_ISR:
  7928                           	callstack 18
  7929                           
  7930                           ;incstack = 0
  7931                           ;i2RB5_ISR@RB5_Source stored from wreg
  7932   0032F0  6E01               	movwf	i2RB5_ISR@RB5_Source^0,c
  7933   0032F2                     
  7934                           ;MCAL_Layer/Interrupt/mcal_external_interrupt.c: 571:     (INTCONbits.RBIF = 0);
  7935   0032F2  90F2               	bcf	242,0,c	;volatile
  7936   0032F4                     
  7937                           ;MCAL_Layer/Interrupt/mcal_external_interrupt.c: 575:     if(0 == RB5_Source){
  7938   0032F4  5001               	movf	i2RB5_ISR@RB5_Source^0,w,c
  7939   0032F6  A4D8               	btfss	status,2,c
  7940   0032F8  EF80  F019         	goto	i2u554_41
  7941   0032FC  EF82  F019         	goto	i2u554_40
  7942   003300                     i2u554_41:
  7943   003300  EF84  F019         	goto	i2l5780
  7944   003304                     i2u554_40:
  7945   003304  EF84  F019         	goto	i2l879
  7946   003308                     i2l5780:
  7947   003308                     i2l879:
  7948   003308  0012               	return		;funcret
  7949   00330A                     __end_ofi2_RB5_ISR:
  7950                           	callstack 0
  7951                           
  7952 ;; *************** function i2_RB4_ISR *****************
  7953 ;; Defined at:
  7954 ;;		line 551 in file "MCAL_Layer/Interrupt/mcal_external_interrupt.c"
  7955 ;; Parameters:    Size  Location     Type
  7956 ;;  RB4_Source      1    wreg     unsigned char 
  7957 ;; Auto vars:     Size  Location     Type
  7958 ;;  RB4_Source      1    0[COMRAM] unsigned char 
  7959 ;; Return value:  Size  Location     Type
  7960 ;;                  1    wreg      void 
  7961 ;; Registers used:
  7962 ;;		wreg, status,2, status,0
  7963 ;; Tracked objects:
  7964 ;;		On entry : 0/0
  7965 ;;		On exit  : 0/0
  7966 ;;		Unchanged: 0/0
  7967 ;; Data sizes:     COMRAM   BANK0   BANK1   BANK2   BANK3   BANK4   BANK5   BANK6   BANK7   BANK8   BANK9  BANK10  BANK1
      +1  BANK12  BANK13  BANK14  BANK15
  7968 ;;      Params:         0       0       0       0       0       0       0       0       0       0       0       0       
      +0       0       0       0       0
  7969 ;;      Locals:         1       0       0       0       0       0       0       0       0       0       0       0       
      +0       0       0       0       0
  7970 ;;      Temps:          0       0       0       0       0       0       0       0       0       0       0       0       
      +0       0       0       0       0
  7971 ;;      Totals:         1       0       0       0       0       0       0       0       0       0       0       0       
      +0       0       0       0       0
  7972 ;;Total ram usage:        1 bytes
  7973 ;; Hardware stack levels used: 1
  7974 ;; This function calls:
  7975 ;;		Nothing
  7976 ;; This function is called by:
  7977 ;;		i2_InterruptCheck
  7978 ;; This function uses a non-reentrant model
  7979 ;;
  7980                           
  7981                           	psect	text49
  7982   00330A                     __ptext49:
  7983                           	callstack 0
  7984   00330A                     i2_RB4_ISR:
  7985                           	callstack 18
  7986                           
  7987                           ;incstack = 0
  7988                           ;i2RB4_ISR@RB4_Source stored from wreg
  7989   00330A  6E01               	movwf	i2RB4_ISR@RB4_Source^0,c
  7990   00330C                     
  7991                           ;MCAL_Layer/Interrupt/mcal_external_interrupt.c: 553:     (INTCONbits.RBIF = 0);
  7992   00330C  90F2               	bcf	242,0,c	;volatile
  7993   00330E                     
  7994                           ;MCAL_Layer/Interrupt/mcal_external_interrupt.c: 557:     if(0 == RB4_Source){
  7995   00330E  5001               	movf	i2RB4_ISR@RB4_Source^0,w,c
  7996   003310  A4D8               	btfss	status,2,c
  7997   003312  EF8D  F019         	goto	i2u553_41
  7998   003316  EF8F  F019         	goto	i2u553_40
  7999   00331A                     i2u553_41:
  8000   00331A  EF91  F019         	goto	i2l5766
  8001   00331E                     i2u553_40:
  8002   00331E  EF91  F019         	goto	i2l868
  8003   003322                     i2l5766:
  8004   003322                     i2l868:
  8005   003322  0012               	return		;funcret
  8006   003324                     __end_ofi2_RB4_ISR:
  8007                           	callstack 0
  8008                           
  8009 ;; *************** function i2_INT2_ISR *****************
  8010 ;; Defined at:
  8011 ;;		line 540 in file "MCAL_Layer/Interrupt/mcal_external_interrupt.c"
  8012 ;; Parameters:    Size  Location     Type
  8013 ;;		None
  8014 ;; Auto vars:     Size  Location     Type
  8015 ;;		None
  8016 ;; Return value:  Size  Location     Type
  8017 ;;                  1    wreg      void 
  8018 ;; Registers used:
  8019 ;;		None
  8020 ;; Tracked objects:
  8021 ;;		On entry : 0/0
  8022 ;;		On exit  : 0/0
  8023 ;;		Unchanged: 0/0
  8024 ;; Data sizes:     COMRAM   BANK0   BANK1   BANK2   BANK3   BANK4   BANK5   BANK6   BANK7   BANK8   BANK9  BANK10  BANK1
      +1  BANK12  BANK13  BANK14  BANK15
  8025 ;;      Params:         0       0       0       0       0       0       0       0       0       0       0       0       
      +0       0       0       0       0
  8026 ;;      Locals:         0       0       0       0       0       0       0       0       0       0       0       0       
      +0       0       0       0       0
  8027 ;;      Temps:          0       0       0       0       0       0       0       0       0       0       0       0       
      +0       0       0       0       0
  8028 ;;      Totals:         0       0       0       0       0       0       0       0       0       0       0       0       
      +0       0       0       0       0
  8029 ;;Total ram usage:        0 bytes
  8030 ;; Hardware stack levels used: 1
  8031 ;; This function calls:
  8032 ;;		Nothing
  8033 ;; This function is called by:
  8034 ;;		i2_InterruptCheck
  8035 ;; This function uses a non-reentrant model
  8036 ;;
  8037                           
  8038                           	psect	text50
  8039   00339C                     __ptext50:
  8040                           	callstack 0
  8041   00339C                     i2_INT2_ISR:
  8042                           	callstack 18
  8043   00339C                     
  8044                           ;MCAL_Layer/Interrupt/mcal_external_interrupt.c: 542:     (INTCON3bits.INT2IF = 0);
  8045   00339C  92F0               	bcf	240,1,c	;volatile
  8046   00339E  0012               	return		;funcret
  8047   0033A0                     __end_ofi2_INT2_ISR:
  8048                           	callstack 0
  8049                           
  8050 ;; *************** function i2_INT1_ISR *****************
  8051 ;; Defined at:
  8052 ;;		line 530 in file "MCAL_Layer/Interrupt/mcal_external_interrupt.c"
  8053 ;; Parameters:    Size  Location     Type
  8054 ;;		None
  8055 ;; Auto vars:     Size  Location     Type
  8056 ;;		None
  8057 ;; Return value:  Size  Location     Type
  8058 ;;                  1    wreg      void 
  8059 ;; Registers used:
  8060 ;;		None
  8061 ;; Tracked objects:
  8062 ;;		On entry : 0/0
  8063 ;;		On exit  : 0/0
  8064 ;;		Unchanged: 0/0
  8065 ;; Data sizes:     COMRAM   BANK0   BANK1   BANK2   BANK3   BANK4   BANK5   BANK6   BANK7   BANK8   BANK9  BANK10  BANK1
      +1  BANK12  BANK13  BANK14  BANK15
  8066 ;;      Params:         0       0       0       0       0       0       0       0       0       0       0       0       
      +0       0       0       0       0
  8067 ;;      Locals:         0       0       0       0       0       0       0       0       0       0       0       0       
      +0       0       0       0       0
  8068 ;;      Temps:          0       0       0       0       0       0       0       0       0       0       0       0       
      +0       0       0       0       0
  8069 ;;      Totals:         0       0       0       0       0       0       0       0       0       0       0       0       
      +0       0       0       0       0
  8070 ;;Total ram usage:        0 bytes
  8071 ;; Hardware stack levels used: 1
  8072 ;; This function calls:
  8073 ;;		Nothing
  8074 ;; This function is called by:
  8075 ;;		i2_InterruptCheck
  8076 ;; This function uses a non-reentrant model
  8077 ;;
  8078                           
  8079                           	psect	text51
  8080   0033A0                     __ptext51:
  8081                           	callstack 0
  8082   0033A0                     i2_INT1_ISR:
  8083                           	callstack 18
  8084   0033A0                     
  8085                           ;MCAL_Layer/Interrupt/mcal_external_interrupt.c: 532:     (INTCON3bits.INT1IF = 0);
  8086   0033A0  90F0               	bcf	240,0,c	;volatile
  8087   0033A2  0012               	return		;funcret
  8088   0033A4                     __end_ofi2_INT1_ISR:
  8089                           	callstack 0
  8090                           
  8091 ;; *************** function i2_INT0_ISR *****************
  8092 ;; Defined at:
  8093 ;;		line 520 in file "MCAL_Layer/Interrupt/mcal_external_interrupt.c"
  8094 ;; Parameters:    Size  Location     Type
  8095 ;;		None
  8096 ;; Auto vars:     Size  Location     Type
  8097 ;;		None
  8098 ;; Return value:  Size  Location     Type
  8099 ;;                  1    wreg      void 
  8100 ;; Registers used:
  8101 ;;		None
  8102 ;; Tracked objects:
  8103 ;;		On entry : 0/0
  8104 ;;		On exit  : 0/0
  8105 ;;		Unchanged: 0/0
  8106 ;; Data sizes:     COMRAM   BANK0   BANK1   BANK2   BANK3   BANK4   BANK5   BANK6   BANK7   BANK8   BANK9  BANK10  BANK1
      +1  BANK12  BANK13  BANK14  BANK15
  8107 ;;      Params:         0       0       0       0       0       0       0       0       0       0       0       0       
      +0       0       0       0       0
  8108 ;;      Locals:         0       0       0       0       0       0       0       0       0       0       0       0       
      +0       0       0       0       0
  8109 ;;      Temps:          0       0       0       0       0       0       0       0       0       0       0       0       
      +0       0       0       0       0
  8110 ;;      Totals:         0       0       0       0       0       0       0       0       0       0       0       0       
      +0       0       0       0       0
  8111 ;;Total ram usage:        0 bytes
  8112 ;; Hardware stack levels used: 1
  8113 ;; This function calls:
  8114 ;;		Nothing
  8115 ;; This function is called by:
  8116 ;;		i2_InterruptCheck
  8117 ;; This function uses a non-reentrant model
  8118 ;;
  8119                           
  8120                           	psect	text52
  8121   0033A4                     __ptext52:
  8122                           	callstack 0
  8123   0033A4                     i2_INT0_ISR:
  8124                           	callstack 18
  8125   0033A4                     
  8126                           ;MCAL_Layer/Interrupt/mcal_external_interrupt.c: 522:     (INTCONbits.INT0IF = 0);
  8127   0033A4  92F2               	bcf	242,1,c	;volatile
  8128   0033A6  0012               	return		;funcret
  8129   0033A8                     __end_ofi2_INT0_ISR:
  8130                           	callstack 0
  8131                           
  8132 ;; *************** function i2_ADC_ISR *****************
  8133 ;; Defined at:
  8134 ;;		line 348 in file "MCAL_Layer/ADC/hal_adc.c"
  8135 ;; Parameters:    Size  Location     Type
  8136 ;;		None
  8137 ;; Auto vars:     Size  Location     Type
  8138 ;;		None
  8139 ;; Return value:  Size  Location     Type
  8140 ;;                  1    wreg      void 
  8141 ;; Registers used:
  8142 ;;		None
  8143 ;; Tracked objects:
  8144 ;;		On entry : 0/0
  8145 ;;		On exit  : 0/0
  8146 ;;		Unchanged: 0/0
  8147 ;; Data sizes:     COMRAM   BANK0   BANK1   BANK2   BANK3   BANK4   BANK5   BANK6   BANK7   BANK8   BANK9  BANK10  BANK1
      +1  BANK12  BANK13  BANK14  BANK15
  8148 ;;      Params:         0       0       0       0       0       0       0       0       0       0       0       0       
      +0       0       0       0       0
  8149 ;;      Locals:         0       0       0       0       0       0       0       0       0       0       0       0       
      +0       0       0       0       0
  8150 ;;      Temps:          0       0       0       0       0       0       0       0       0       0       0       0       
      +0       0       0       0       0
  8151 ;;      Totals:         0       0       0       0       0       0       0       0       0       0       0       0       
      +0       0       0       0       0
  8152 ;;Total ram usage:        0 bytes
  8153 ;; Hardware stack levels used: 1
  8154 ;; This function calls:
  8155 ;;		Nothing
  8156 ;; This function is called by:
  8157 ;;		i2_InterruptCheck
  8158 ;; This function uses a non-reentrant model
  8159 ;;
  8160                           
  8161                           	psect	text53
  8162   0033A8                     __ptext53:
  8163                           	callstack 0
  8164   0033A8                     i2_ADC_ISR:
  8165                           	callstack 18
  8166   0033A8                     
  8167                           ;MCAL_Layer/ADC/hal_adc.c: 349:     (PIR1bits.ADIF = 0);
  8168   0033A8  9C9E               	bcf	158,6,c	;volatile
  8169   0033AA  0012               	return		;funcret
  8170   0033AC                     __end_ofi2_ADC_ISR:
  8171                           	callstack 0
  8172                           
  8173                           	psect	text54
  8174   000000                     __ptext54:
  8175                           	callstack 0
  8176   000000                     
  8177                           	psect	rparam
  8178   000000                     
  8179                           	psect	temp
  8180   00005A                     btemp:
  8181                           	callstack 0
  8182   00005A                     	ds	1
  8183   000000                     int$flags	set	btemp
  8184   000000                     wtemp8	set	btemp+1
  8185   000000                     ttemp5	set	btemp+1
  8186   000000                     ttemp6	set	btemp+4
  8187   000000                     ttemp7	set	btemp+8
  8188                           
  8189                           	psect	idloc
  8190                           
  8191                           ;Config register IDLOC0 @ 0x200000
  8192                           ;	unspecified, using default values
  8193   200000                     	org	2097152
  8194   200000  FF                 	db	255
  8195                           
  8196                           ;Config register IDLOC1 @ 0x200001
  8197                           ;	unspecified, using default values
  8198   200001                     	org	2097153
  8199   200001  FF                 	db	255
  8200                           
  8201                           ;Config register IDLOC2 @ 0x200002
  8202                           ;	unspecified, using default values
  8203   200002                     	org	2097154
  8204   200002  FF                 	db	255
  8205                           
  8206                           ;Config register IDLOC3 @ 0x200003
  8207                           ;	unspecified, using default values
  8208   200003                     	org	2097155
  8209   200003  FF                 	db	255
  8210                           
  8211                           ;Config register IDLOC4 @ 0x200004
  8212                           ;	unspecified, using default values
  8213   200004                     	org	2097156
  8214   200004  FF                 	db	255
  8215                           
  8216                           ;Config register IDLOC5 @ 0x200005
  8217                           ;	unspecified, using default values
  8218   200005                     	org	2097157
  8219   200005  FF                 	db	255
  8220                           
  8221                           ;Config register IDLOC6 @ 0x200006
  8222                           ;	unspecified, using default values
  8223   200006                     	org	2097158
  8224   200006  FF                 	db	255
  8225                           
  8226                           ;Config register IDLOC7 @ 0x200007
  8227                           ;	unspecified, using default values
  8228   200007                     	org	2097159
  8229   200007  FF                 	db	255
  8230                           
  8231                           	psect	config
  8232                           
  8233                           ; Padding undefined space
  8234   300000                     	org	3145728
  8235   300000  FF                 	db	255
  8236                           
  8237                           ;Config register CONFIG1H @ 0x300001
  8238                           ;	Oscillator Selection bits
  8239                           ;	OSC = HS, HS oscillator
  8240                           ;	Fail-Safe Clock Monitor Enable bit
  8241                           ;	FCMEN = OFF, Fail-Safe Clock Monitor disabled
  8242                           ;	Internal/External Oscillator Switchover bit
  8243                           ;	IESO = OFF, Oscillator Switchover mode disabled
  8244   300001                     	org	3145729
  8245   300001  02                 	db	2
  8246                           
  8247                           ;Config register CONFIG2L @ 0x300002
  8248                           ;	Power-up Timer Enable bit
  8249                           ;	PWRT = OFF, PWRT disabled
  8250                           ;	Brown-out Reset Enable bits
  8251                           ;	BOREN = OFF, Brown-out Reset disabled in hardware and software
  8252                           ;	Brown Out Reset Voltage bits
  8253                           ;	BORV = 1, 
  8254   300002                     	org	3145730
  8255   300002  09                 	db	9
  8256                           
  8257                           ;Config register CONFIG2H @ 0x300003
  8258                           ;	Watchdog Timer Enable bit
  8259                           ;	WDT = OFF, WDT disabled (control is placed on the SWDTEN bit)
  8260                           ;	Watchdog Timer Postscale Select bits
  8261                           ;	WDTPS = 32768, 1:32768
  8262   300003                     	org	3145731
  8263   300003  1E                 	db	30
  8264                           
  8265                           ; Padding undefined space
  8266   300004                     	org	3145732
  8267   300004  FF                 	db	255
  8268                           
  8269                           ;Config register CONFIG3H @ 0x300005
  8270                           ;	CCP2 MUX bit
  8271                           ;	CCP2MX = PORTC, CCP2 input/output is multiplexed with RC1
  8272                           ;	PORTB A/D Enable bit
  8273                           ;	PBADEN = OFF, PORTB<4:0> pins are configured as digital I/O on Reset
  8274                           ;	Low-Power Timer1 Oscillator Enable bit
  8275                           ;	LPT1OSC = OFF, Timer1 configured for higher power operation
  8276                           ;	MCLR Pin Enable bit
  8277                           ;	MCLRE = ON, MCLR pin enabled; RE3 input pin disabled
  8278   300005                     	org	3145733
  8279   300005  81                 	db	129
  8280                           
  8281                           ;Config register CONFIG4L @ 0x300006
  8282                           ;	Stack Full/Underflow Reset Enable bit
  8283                           ;	STVREN = ON, Stack full/underflow will cause Reset
  8284                           ;	Single-Supply ICSP Enable bit
  8285                           ;	LVP = OFF, Single-Supply ICSP disabled
  8286                           ;	Extended Instruction Set Enable bit
  8287                           ;	XINST = OFF, Instruction set extension and Indexed Addressing mode disabled (Legacy mo
      +                          de)
  8288                           ;	Background Debugger Enable bit
  8289                           ;	DEBUG = 0x1, unprogrammed default
  8290   300006                     	org	3145734
  8291   300006  81                 	db	129
  8292                           
  8293                           ; Padding undefined space
  8294   300007                     	org	3145735
  8295   300007  FF                 	db	255
  8296                           
  8297                           ;Config register CONFIG5L @ 0x300008
  8298                           ;	Code Protection bit
  8299                           ;	CP0 = OFF, Block 0 (000800-003FFFh) not code-protected
  8300                           ;	Code Protection bit
  8301                           ;	CP1 = OFF, Block 1 (004000-007FFFh) not code-protected
  8302                           ;	Code Protection bit
  8303                           ;	CP2 = OFF, Block 2 (008000-00BFFFh) not code-protected
  8304                           ;	Code Protection bit
  8305                           ;	CP3 = OFF, Block 3 (00C000-00FFFFh) not code-protected
  8306   300008                     	org	3145736
  8307   300008  0F                 	db	15
  8308                           
  8309                           ;Config register CONFIG5H @ 0x300009
  8310                           ;	Boot Block Code Protection bit
  8311                           ;	CPB = OFF, Boot block (000000-0007FFh) not code-protected
  8312                           ;	Data EEPROM Code Protection bit
  8313                           ;	CPD = OFF, Data EEPROM not code-protected
  8314   300009                     	org	3145737
  8315   300009  C0                 	db	192
  8316                           
  8317                           ;Config register CONFIG6L @ 0x30000A
  8318                           ;	Write Protection bit
  8319                           ;	WRT0 = OFF, Block 0 (000800-003FFFh) not write-protected
  8320                           ;	Write Protection bit
  8321                           ;	WRT1 = OFF, Block 1 (004000-007FFFh) not write-protected
  8322                           ;	Write Protection bit
  8323                           ;	WRT2 = OFF, Block 2 (008000-00BFFFh) not write-protected
  8324                           ;	Write Protection bit
  8325                           ;	WRT3 = OFF, Block 3 (00C000-00FFFFh) not write-protected
  8326   30000A                     	org	3145738
  8327   30000A  0F                 	db	15
  8328                           
  8329                           ;Config register CONFIG6H @ 0x30000B
  8330                           ;	Configuration Register Write Protection bit
  8331                           ;	WRTC = OFF, Configuration registers (300000-3000FFh) not write-protected
  8332                           ;	Boot Block Write Protection bit
  8333                           ;	WRTB = OFF, Boot Block (000000-0007FFh) not write-protected
  8334                           ;	Data EEPROM Write Protection bit
  8335                           ;	WRTD = OFF, Data EEPROM not write-protected
  8336   30000B                     	org	3145739
  8337   30000B  E0                 	db	224
  8338                           
  8339                           ;Config register CONFIG7L @ 0x30000C
  8340                           ;	Table Read Protection bit
  8341                           ;	EBTR0 = OFF, Block 0 (000800-003FFFh) not protected from table reads executed in other
      +                           blocks
  8342                           ;	Table Read Protection bit
  8343                           ;	EBTR1 = OFF, Block 1 (004000-007FFFh) not protected from table reads executed in other
      +                           blocks
  8344                           ;	Table Read Protection bit
  8345                           ;	EBTR2 = OFF, Block 2 (008000-00BFFFh) not protected from table reads executed in other
      +                           blocks
  8346                           ;	Table Read Protection bit
  8347                           ;	EBTR3 = OFF, Block 3 (00C000-00FFFFh) not protected from table reads executed in other
      +                           blocks
  8348   30000C                     	org	3145740
  8349   30000C  0F                 	db	15
  8350                           
  8351                           ;Config register CONFIG7H @ 0x30000D
  8352                           ;	Boot Block Table Read Protection bit
  8353                           ;	EBTRB = OFF, Boot Block (000000-0007FFh) not protected from table reads executed in ot
      +                          her blocks
  8354   30000D                     	org	3145741
  8355   30000D  40                 	db	64
  8356                           tosu	equ	0xFFF
  8357                           tosh	equ	0xFFE
  8358                           tosl	equ	0xFFD
  8359                           stkptr	equ	0xFFC
  8360                           pclatu	equ	0xFFB
  8361                           pclath	equ	0xFFA
  8362                           pcl	equ	0xFF9
  8363                           tblptru	equ	0xFF8
  8364                           tblptrh	equ	0xFF7
  8365                           tblptrl	equ	0xFF6
  8366                           tablat	equ	0xFF5
  8367                           prodh	equ	0xFF4
  8368                           prodl	equ	0xFF3
  8369                           indf0	equ	0xFEF
  8370                           postinc0	equ	0xFEE
  8371                           postdec0	equ	0xFED
  8372                           preinc0	equ	0xFEC
  8373                           plusw0	equ	0xFEB
  8374                           fsr0h	equ	0xFEA
  8375                           fsr0l	equ	0xFE9
  8376                           wreg	equ	0xFE8
  8377                           indf1	equ	0xFE7
  8378                           postinc1	equ	0xFE6
  8379                           postdec1	equ	0xFE5
  8380                           preinc1	equ	0xFE4
  8381                           plusw1	equ	0xFE3
  8382                           fsr1h	equ	0xFE2
  8383                           fsr1l	equ	0xFE1
  8384                           bsr	equ	0xFE0
  8385                           indf2	equ	0xFDF
  8386                           postinc2	equ	0xFDE
  8387                           postdec2	equ	0xFDD
  8388                           preinc2	equ	0xFDC
  8389                           plusw2	equ	0xFDB
  8390                           fsr2h	equ	0xFDA
  8391                           fsr2l	equ	0xFD9
  8392                           status	equ	0xFD8

Data Sizes:
    Strings     3
    Constant    0
    Data        78
    BSS         68
    Persistent  0
    Stack       0

Auto Spaces:
    Space          Size  Autos    Used
    COMRAM          126     52      89
    BANK0           128     56     127
    BANK1           256     35      73
    BANK2           256      0       0
    BANK3           256      0       0
    BANK4           256      0       0
    BANK5           256      0       0
    BANK6           256      0       0
    BANK7           256      0       0
    BANK8           256      0       0
    BANK9           256      0       0
    BANK10          256      0       0
    BANK11          256      0       0
    BANK12          256      0       0
    BANK13          256      0       0
    BANK14          256      0       0
    BANK15          128      0       0

Pointer List with Targets:

    vfprintf$2	PTR PTR void  size(2) Largest target is 2
		 -> sprintf@ap(COMRAM[2]), 

    vfprintf$1	PTR const unsigned char  size(2) Largest target is 3
		 -> STR_3(CODE[3]), STR_2(CODE[3]), STR_1(CODE[3]), 

    vfprintf$0	PTR struct _IO_FILE size(2) Largest target is 12
		 -> sprintf@f(COMRAM[12]), 

    S3790$source	PTR const unsigned char  size(2) Largest target is 0

    f...source	PTR const unsigned char  size(2) Largest target is 0

    S3790$buffer	PTR unsigned char  size(2) Largest target is 0

    f...buffer	PTR unsigned char  size(2) Largest target is 0

    _CCP1_InterruptHandler	PTR FTN()void  size(2) Largest target is 1
		 -> NULL(), 

    CCP1_Init@_ccp.CCP1_InterruptHandler	PTR FTN()void  size(2) Largest target is 1
		 -> NULL(), 

    CCP1_Init@_ccp	PTR const struct . size(2) Largest target is 8
		 -> ccp1_obj(BANK0[8]), 

    Timer3_Mode_Select@_timer.TMR3_InterruptHandler	PTR FTN()void  size(2) Largest target is 0

    TMR3_InterruptHandler	PTR FTN()void  size(2) Largest target is 1
		 -> NULL(), 

    S2892$TMR3_InterruptHandler	PTR FTN()void  size(2) Largest target is 0

    Timer3_Init@_timer.TMR3_InterruptHandler	PTR FTN()void  size(2) Largest target is 0

    TMR2_InterruptHandler	PTR FTN()void  size(2) Largest target is 1
		 -> NULL(), 

    Timer2_Init@_timer.TMR2_InterruptHandler	PTR FTN()void  size(2) Largest target is 1
		 -> NULL(), 

    Timer2_Init@_timer	PTR const struct . size(2) Largest target is 5
		 -> timer2(BANK0[5]), 

    S2599$TMR2_InterruptHandler	PTR FTN()void  size(2) Largest target is 1
		 -> NULL(), 

    timer2.TMR2_InterruptHandler	PTR FTN()void  size(2) Largest target is 1
		 -> NULL(), 

    timer1.TMR1_InterruptHandler	PTR FTN()void  size(2) Largest target is 1
		 -> i2_timer1_interruptHundler(), timer1_interruptHundler(), 

    timer0.TMR0_InterruptHandler	PTR FTN()void  size(2) Largest target is 1
		 -> i2_timer0_interruptHundler(), timer0_interruptHundler(), 

    S2546$CCP1_InterruptHandler	PTR FTN()void  size(2) Largest target is 1
		 -> NULL(), 

    ccp1_obj.CCP1_InterruptHandler	PTR FTN()void  size(2) Largest target is 1
		 -> NULL(), 

    Timer1_Mode_Select@_timer.TMR1_InterruptHandler	PTR FTN()void  size(2) Largest target is 1
		 -> timer1_interruptHundler(), 

    Timer1_Read_value@_value	PTR unsigned short  size(2) Largest target is 1
		 -> timer1_count(COMRAM[1]), 

    Timer1_Read_value@_timer	PTR const struct . size(2) Largest target is 6
		 -> timer1(BANK0[6]), 

    Timer1_Write_value@_timer	PTR const struct . size(2) Largest target is 6
		 -> timer1(BANK0[6]), 

    TMR1_InterruptHandler	PTR FTN()void  size(2) Largest target is 1
		 -> timer1_interruptHundler(), NULL(), 

    S2273$TMR1_InterruptHandler	PTR FTN()void  size(2) Largest target is 1
		 -> timer1_interruptHundler(), 

    Timer1_Init@_timer.TMR1_InterruptHandler	PTR FTN()void  size(2) Largest target is 1
		 -> timer1_interruptHundler(), 

    Timer0_Register_Size@_timer.TMR0_InterruptHandler	PTR FTN()void  size(2) Largest target is 1
		 -> timer0_interruptHundler(), 

    Timer0_Mode_Select@_timer.TMR0_InterruptHandler	PTR FTN()void  size(2) Largest target is 1
		 -> timer0_interruptHundler(), 

    Timer0_prescaler_config@_timer.TMR0_InterruptHandler	PTR FTN()void  size(2) Largest target is 1
		 -> timer0_interruptHundler(), 

    TMR0_InterruptHandler	PTR FTN()void  size(2) Largest target is 1
		 -> timer0_interruptHundler(), NULL(), 

    S2050$TMR0_InterruptHandler	PTR FTN()void  size(2) Largest target is 1
		 -> timer0_interruptHundler(), 

    Timer0_Init@_timer.TMR0_InterruptHandler	PTR FTN()void  size(2) Largest target is 1
		 -> timer0_interruptHundler(), 

    Interrupt_INTx_SetInterruptHandler@int_obj.InterruptHandler	PTR FTN()void  size(2) Largest target is 0

    INT2_InterruptHandler	PTR FTN()void  size(2) Largest target is 1
		 -> NULL(), 

    INT1_InterruptHandler	PTR FTN()void  size(2) Largest target is 1
		 -> NULL(), 

    INT0_InterruptHandler	PTR FTN()void  size(2) Largest target is 1
		 -> NULL(), 

    Interrupt_RBx_Pin_Init@int_obj.InterruptHandler_LOW	PTR FTN()void  size(2) Largest target is 0

    Interrupt_RBx_Pin_Init@int_obj.InterruptHandler_HIGH	PTR FTN()void  size(2) Largest target is 0

    Interrupt_RBx_Priority_Init@int_obj.InterruptHandler_LOW	PTR FTN()void  size(2) Largest target is 0

    Interrupt_RBx_Priority_Init@int_obj.InterruptHandler_HIGH	PTR FTN()void  size(2) Largest target is 0

    Interrupt_INTx_Clear_Flag@int_obj.InterruptHandler	PTR FTN()void  size(2) Largest target is 0

    Interrupt_INTx_Pin_Init@int_obj.InterruptHandler	PTR FTN()void  size(2) Largest target is 0

    Interrupt_INTx_Edge_Init@int_obj.InterruptHandler	PTR FTN()void  size(2) Largest target is 0

    Interrupt_INTx_Priority_Init@int_obj.InterruptHandler	PTR FTN()void  size(2) Largest target is 0

    Interrupt_INTx_Disable@int_obj.InterruptHandler	PTR FTN()void  size(2) Largest target is 0

    S1650$InterruptHandler	PTR FTN()void  size(2) Largest target is 0

    Interrupt_INTx_Enable@int_obj.InterruptHandler	PTR FTN()void  size(2) Largest target is 0

    RB7_InterruptHandler_LOW	PTR FTN()void  size(2) Largest target is 1
		 -> NULL(), 

    RB7_InterruptHandler_HIGH	PTR FTN()void  size(2) Largest target is 1
		 -> NULL(), 

    RB6_InterruptHandler_LOW	PTR FTN()void  size(2) Largest target is 1
		 -> NULL(), 

    RB6_InterruptHandler_HIGH	PTR FTN()void  size(2) Largest target is 1
		 -> NULL(), 

    RB5_InterruptHandler_LOW	PTR FTN()void  size(2) Largest target is 1
		 -> NULL(), 

    RB5_InterruptHandler_HIGH	PTR FTN()void  size(2) Largest target is 1
		 -> NULL(), 

    RB4_InterruptHandler_LOW	PTR FTN()void  size(2) Largest target is 1
		 -> NULL(), 

    RB4_InterruptHandler_HIGH	PTR FTN()void  size(2) Largest target is 1
		 -> NULL(), 

    S1693$InterruptHandler_LOW	PTR FTN()void  size(2) Largest target is 0

    Interrupt_RBx_Init@int_obj.InterruptHandler_LOW	PTR FTN()void  size(2) Largest target is 0

    S1693$InterruptHandler_HIGH	PTR FTN()void  size(2) Largest target is 0

    Interrupt_RBx_Init@int_obj.InterruptHandler_HIGH	PTR FTN()void  size(2) Largest target is 0

    gpio_pin_intialize@_pin_config	PTR const struct . size(2) Largest target is 8
		 -> ccp1_obj(BANK0[8]), led_initialize@pin_obj(COMRAM[1]), 

    gpio_pin_toggle_logic@_pin_config	PTR const struct . size(2) Largest target is 1
		 -> led_turn_toggle@pin_obj(COMRAM[1]), 

    gpio_pin_write_logic@_pin_config	PTR const struct . size(2) Largest target is 8
		 -> ccp1_obj(BANK0[8]), led_turn_off@pin_obj(COMRAM[1]), led_turn_on@pin_obj(COMRAM[1]), led_initialize@pin_obj(COMRAM[1]), 

    gpio_pin_direction_intialize@_pin_config	PTR const struct . size(2) Largest target is 8
		 -> ccp1_obj(BANK0[8]), led_initialize@pin_obj(COMRAM[1]), 

    port_registers	PTR volatile unsigned char [5] size(2) Largest target is 1
		 -> PORTE(BITBIGSFRlllll[1]), PORTD(BITBIGSFRlllll[1]), PORTC(BITBIGSFRlllll[1]), PORTB(BITBIGSFRlllll[1]), 
		 -> PORTA(BITBIGSFRlllll[1]), 

    lat_registers	PTR volatile unsigned char [5] size(2) Largest target is 1
		 -> LATE(BITBIGSFRllllh[1]), LATD(BITBIGSFRllllh[1]), LATC(BITBIGSFRllllh[1]), LATB(BITBIGSFRllllh[1]), 
		 -> LATA(BITBIGSFRlllll[1]), 

    tris_registers	PTR volatile unsigned char [5] size(2) Largest target is 1
		 -> TRISD(ABS[1]), TRISC(ABS[1]), TRISB(ABS[1]), TRISE(ABS[1]), 
		 -> TRISA(BITBIGSFRlllll[1]), 

    select_voltage_referance@_adc.ADC_InterruptHandler	PTR FTN()void  size(2) Largest target is 0

    select_result_format@_adc.ADC_InterruptHandler	PTR FTN()void  size(2) Largest target is 0

    ADC_GetConversionResult@_adc.ADC_InterruptHandler	PTR FTN()void  size(2) Largest target is 0

    ADC_InterruptHandler	PTR FTN()void  size(2) Largest target is 1
		 -> NULL(), 

    S592$ADC_InterruptHandler	PTR FTN()void  size(2) Largest target is 0

    ADC_Init@_adc.ADC_InterruptHandler	PTR FTN()void  size(2) Largest target is 0

    led_turn_toggle@led	PTR const struct . size(2) Largest target is 1
		 -> led1(COMRAM[1]), 

    sp__memset	PTR void  size(2) Largest target is 0


Critical Paths under _main in COMRAM

    _CCP1_Init->___xxtofl
    _gpio_pin_intialize->_gpio_pin_write_logic
    ___fladd->___xxtofl
    _CCP1_PWM1_Set_Duty_Cycle->___xxtofl
    ___fltol->___xxtofl
    ___flmul->___xxtofl
    ___fldiv->___xxtofl

Critical Paths under _InterruptManagerLow in COMRAM

    _timer0_interruptHundler->_Timer1_Read_value
    _timer1_interruptHundler->_led_turn_toggle
    _led_turn_toggle->_gpio_pin_toggle_logic

Critical Paths under _InterruptManagerHigh in COMRAM

    i2_timer0_interruptHundler->i2_Timer1_Read_value
    i2_timer1_interruptHundler->i2_led_turn_toggle
    i2_led_turn_toggle->i2_gpio_pin_toggle_logic

Critical Paths under _main in BANK0

    _CCP1_Init->___fltol
    ___fladd->___fldiv
    _CCP1_PWM1_Set_Duty_Cycle->___fltol
    ___fltol->___fladd
    ___fldiv->___flmul

Critical Paths under _InterruptManagerLow in BANK0

    None.

Critical Paths under _InterruptManagerHigh in BANK0

    None.

Critical Paths under _main in BANK1

    _app_intialize->_CCP1_Init
    _CCP1_Init->___fltol
    _CCP1_PWM1_Set_Duty_Cycle->___fltol
    ___fltol->___fladd

Critical Paths under _InterruptManagerLow in BANK1

    None.

Critical Paths under _InterruptManagerHigh in BANK1

    None.

Critical Paths under _main in BANK2

    None.

Critical Paths under _InterruptManagerLow in BANK2

    None.

Critical Paths under _InterruptManagerHigh in BANK2

    None.

Critical Paths under _main in BANK3

    None.

Critical Paths under _InterruptManagerLow in BANK3

    None.

Critical Paths under _InterruptManagerHigh in BANK3

    None.

Critical Paths under _main in BANK4

    None.

Critical Paths under _InterruptManagerLow in BANK4

    None.

Critical Paths under _InterruptManagerHigh in BANK4

    None.

Critical Paths under _main in BANK5

    None.

Critical Paths under _InterruptManagerLow in BANK5

    None.

Critical Paths under _InterruptManagerHigh in BANK5

    None.

Critical Paths under _main in BANK6

    None.

Critical Paths under _InterruptManagerLow in BANK6

    None.

Critical Paths under _InterruptManagerHigh in BANK6

    None.

Critical Paths under _main in BANK7

    None.

Critical Paths under _InterruptManagerLow in BANK7

    None.

Critical Paths under _InterruptManagerHigh in BANK7

    None.

Critical Paths under _main in BANK8

    None.

Critical Paths under _InterruptManagerLow in BANK8

    None.

Critical Paths under _InterruptManagerHigh in BANK8

    None.

Critical Paths under _main in BANK9

    None.

Critical Paths under _InterruptManagerLow in BANK9

    None.

Critical Paths under _InterruptManagerHigh in BANK9

    None.

Critical Paths under _main in BANK10

    None.

Critical Paths under _InterruptManagerLow in BANK10

    None.

Critical Paths under _InterruptManagerHigh in BANK10

    None.

Critical Paths under _main in BANK11

    None.

Critical Paths under _InterruptManagerLow in BANK11

    None.

Critical Paths under _InterruptManagerHigh in BANK11

    None.

Critical Paths under _main in BANK12

    None.

Critical Paths under _InterruptManagerLow in BANK12

    None.

Critical Paths under _InterruptManagerHigh in BANK12

    None.

Critical Paths under _main in BANK13

    None.

Critical Paths under _InterruptManagerLow in BANK13

    None.

Critical Paths under _InterruptManagerHigh in BANK13

    None.

Critical Paths under _main in BANK14

    None.

Critical Paths under _InterruptManagerLow in BANK14

    None.

Critical Paths under _InterruptManagerHigh in BANK14

    None.

Critical Paths under _main in BANK15

    None.

Critical Paths under _InterruptManagerLow in BANK15

    None.

Critical Paths under _InterruptManagerHigh in BANK15

    None.

Call Graph Tables:

 ---------------------------------------------------------------------------------
 (Depth) Function   	        Calls       Base Space   Used Autos Params    Refs
 ---------------------------------------------------------------------------------
 (0) _main                                                 4     4      0   22982
                                             51 COMRAM     1     1      0
                                             33 BANK1      2     2      0
           _CCP1_PWM1_Set_Duty_Cycle
                    _CCP1_PWM1_Start
                      _app_intialize
 ---------------------------------------------------------------------------------
 (1) _app_intialize                                        1     1      0   16390
                          _CCP1_Init
                        _Timer2_Init
 ---------------------------------------------------------------------------------
 (2) _Timer2_Init                                          4     2      2     378
                                             37 COMRAM     4     2      2
 ---------------------------------------------------------------------------------
 (2) _CCP1_Init                                           13    11      2   16003
                                             20 BANK1     13    11      2
                            ___fladd
                            ___fldiv
                            ___flmul
                            ___fltol
                           ___xxtofl
                 _gpio_pin_intialize
 ---------------------------------------------------------------------------------
 (3) _gpio_pin_intialize                                   3     1      2    5991
                                             47 COMRAM     3     1      2
       _gpio_pin_direction_intialize
               _gpio_pin_write_logic
 ---------------------------------------------------------------------------------
 (4) _gpio_pin_write_logic                                10     7      3    4037
                                             37 COMRAM    10     7      3
 ---------------------------------------------------------------------------------
 (4) _gpio_pin_direction_intialize                         9     7      2     707
                                             37 COMRAM     9     7      2
 ---------------------------------------------------------------------------------
 (3) ___fladd                                             16     8      8    3292
                                             50 BANK0      4     4      0
                                              0 BANK1     12     4      8
                            ___fldiv (ARG)
                            ___flmul (ARG)
                           ___xxtofl (ARG)
 ---------------------------------------------------------------------------------
 (1) _CCP1_PWM1_Start                                      1     1      0      37
                                             37 COMRAM     1     1      0
 ---------------------------------------------------------------------------------
 (1) _CCP1_PWM1_Set_Duty_Cycle                            10    10      0    6444
                                             20 BANK1      9     9      0
                            ___fldiv
                            ___flmul
                            ___fltol
                           ___xxtofl
 ---------------------------------------------------------------------------------
 (3) ___xxtofl                                            14    10      4     786
                                             37 COMRAM    14    10      4
 ---------------------------------------------------------------------------------
 (3) ___fltol                                             10     6      4     462
                                             54 BANK0      2     2      0
                                             12 BANK1      8     4      4
                            ___fladd (ARG)
                            ___fldiv (ARG)
                            ___flmul (ARG)
                           ___xxtofl (ARG)
 ---------------------------------------------------------------------------------
 (3) ___flmul                                             25    17      8    2953
                                              0 BANK0     25    17      8
                           ___xxtofl (ARG)
 ---------------------------------------------------------------------------------
 (3) ___fldiv                                             25    17      8    2073
                                             25 BANK0     25    17      8
                            ___flmul (ARG)
                           ___xxtofl (ARG)
 ---------------------------------------------------------------------------------
 Estimated maximum stack depth 4
 ---------------------------------------------------------------------------------
 (Depth) Function   	        Calls       Base Space   Used Autos Params    Refs
 ---------------------------------------------------------------------------------
 (5) _InterruptManagerLow                                  9     9      0    1117
                                             28 COMRAM     9     9      0
                     _InterruptCheck
 ---------------------------------------------------------------------------------
 (6) _InterruptCheck                                       0     0      0    1117
                            _ADC_ISR
                           _INT0_ISR
                           _INT1_ISR
                           _INT2_ISR
                            _RB4_ISR
                            _RB5_ISR
                            _RB6_ISR
                            _RB7_ISR
                           _TMR1_ISR
                           _TMR2_ISR
                           _TMR3_ISR
                           _TMRO_ISR
 ---------------------------------------------------------------------------------
 (7) _TMRO_ISR                                             0     0      0     502
                                NULL *
            _timer0_interruptHundler *
 ---------------------------------------------------------------------------------
 (8) _timer0_interruptHundler                              0     0      0     502
                  _Timer1_Read_value
                 _Timer1_Write_value
 ---------------------------------------------------------------------------------
 (9) _Timer1_Write_value                                   5     1      4     227
                                             17 COMRAM     4     0      4
 ---------------------------------------------------------------------------------
 (9) _Timer1_Read_value                                    9     5      4     275
                                             17 COMRAM     8     4      4
 ---------------------------------------------------------------------------------
 (7) _TMR3_ISR                                             0     0      0       0
 ---------------------------------------------------------------------------------
 (7) _TMR2_ISR                                             0     0      0       0
 ---------------------------------------------------------------------------------
 (7) _TMR1_ISR                                             0     0      0     453
                                NULL *
            _timer1_interruptHundler *
 ---------------------------------------------------------------------------------
 (8) _timer1_interruptHundler                              0     0      0     453
                    _led_turn_toggle
 ---------------------------------------------------------------------------------
 (9) _led_turn_toggle                                      5     3      2     453
                                             24 COMRAM     4     2      2
              _gpio_pin_toggle_logic
 ---------------------------------------------------------------------------------
 (10) _gpio_pin_toggle_logic                               8     6      2     172
                                             17 COMRAM     7     5      2
 ---------------------------------------------------------------------------------
 (14) NULL(Fake)                                           0     0      0       0
 ---------------------------------------------------------------------------------
 (7) _RB7_ISR                                              1     1      0      44
                                             17 COMRAM     1     1      0
 ---------------------------------------------------------------------------------
 (7) _RB6_ISR                                              1     1      0      44
                                             17 COMRAM     1     1      0
 ---------------------------------------------------------------------------------
 (7) _RB5_ISR                                              1     1      0      44
                                             17 COMRAM     1     1      0
 ---------------------------------------------------------------------------------
 (7) _RB4_ISR                                              1     1      0      30
                                             17 COMRAM     1     1      0
 ---------------------------------------------------------------------------------
 (7) _INT2_ISR                                             0     0      0       0
 ---------------------------------------------------------------------------------
 (7) _INT1_ISR                                             0     0      0       0
 ---------------------------------------------------------------------------------
 (7) _INT0_ISR                                             0     0      0       0
 ---------------------------------------------------------------------------------
 (7) _ADC_ISR                                              0     0      0       0
 ---------------------------------------------------------------------------------
 Estimated maximum stack depth 14
 ---------------------------------------------------------------------------------
 (Depth) Function   	        Calls       Base Space   Used Autos Params    Refs
 ---------------------------------------------------------------------------------
 (11) _InterruptManagerHigh                                6     6      0     752
                                             11 COMRAM     6     6      0
                   i2_InterruptCheck
 ---------------------------------------------------------------------------------
 (12) i2_InterruptCheck                                    0     0      0     752
                          i2_ADC_ISR
                         i2_INT0_ISR
                         i2_INT1_ISR
                         i2_INT2_ISR
                          i2_RB4_ISR
                          i2_RB5_ISR
                          i2_RB6_ISR
                          i2_RB7_ISR
                         i2_TMR1_ISR
                         i2_TMR2_ISR
                         i2_TMR3_ISR
                         i2_TMRO_ISR
 ---------------------------------------------------------------------------------
 (13) i2_TMRO_ISR                                          0     0      0     302
                                NULL *
          i2_timer0_interruptHundler *
 ---------------------------------------------------------------------------------
 (14) i2_timer0_interruptHundler                           0     0      0     302
                i2_Timer1_Read_value
               i2_Timer1_Write_value
 ---------------------------------------------------------------------------------
 (15) i2_Timer1_Write_value                                5     1      4     127
                                              0 COMRAM     4     0      4
 ---------------------------------------------------------------------------------
 (15) i2_Timer1_Read_value                                 9     5      4     175
                                              0 COMRAM     8     4      4
 ---------------------------------------------------------------------------------
 (13) i2_TMR3_ISR                                          0     0      0       0
 ---------------------------------------------------------------------------------
 (13) i2_TMR2_ISR                                          0     0      0       0
 ---------------------------------------------------------------------------------
 (13) i2_TMR1_ISR                                          0     0      0     274
                                NULL *
          i2_timer1_interruptHundler *
 ---------------------------------------------------------------------------------
 (14) i2_timer1_interruptHundler                           0     0      0     274
                  i2_led_turn_toggle
 ---------------------------------------------------------------------------------
 (15) i2_led_turn_toggle                                   5     3      2     274
                                              7 COMRAM     4     2      2
            i2_gpio_pin_toggle_logic
 ---------------------------------------------------------------------------------
 (16) i2_gpio_pin_toggle_logic                             8     6      2     122
                                              0 COMRAM     7     5      2
 ---------------------------------------------------------------------------------
 (14) NULL(Fake)                                           0     0      0       0
 ---------------------------------------------------------------------------------
 (13) i2_RB7_ISR                                           1     1      0      44
                                              0 COMRAM     1     1      0
 ---------------------------------------------------------------------------------
 (13) i2_RB6_ISR                                           1     1      0      44
                                              0 COMRAM     1     1      0
 ---------------------------------------------------------------------------------
 (13) i2_RB5_ISR                                           1     1      0      44
                                              0 COMRAM     1     1      0
 ---------------------------------------------------------------------------------
 (13) i2_RB4_ISR                                           1     1      0      44
                                              0 COMRAM     1     1      0
 ---------------------------------------------------------------------------------
 (13) i2_INT2_ISR                                          0     0      0       0
 ---------------------------------------------------------------------------------
 (13) i2_INT1_ISR                                          0     0      0       0
 ---------------------------------------------------------------------------------
 (13) i2_INT0_ISR                                          0     0      0       0
 ---------------------------------------------------------------------------------
 (13) i2_ADC_ISR                                           0     0      0       0
 ---------------------------------------------------------------------------------
 Estimated maximum stack depth 16
 ---------------------------------------------------------------------------------

 Call Graph Graphs:

 _main (ROOT)
   _CCP1_PWM1_Set_Duty_Cycle
     ___fldiv
       ___flmul (ARG)
         ___xxtofl (ARG)
       ___xxtofl (ARG)
     ___flmul
     ___fltol
       ___fladd (ARG)
         ___fldiv (ARG)
         ___flmul (ARG)
         ___xxtofl (ARG)
       ___fldiv (ARG)
       ___flmul (ARG)
       ___xxtofl (ARG)
     ___xxtofl
   _CCP1_PWM1_Start
   _app_intialize
     _CCP1_Init
       ___fladd
       ___fldiv
       ___flmul
       ___fltol
       ___xxtofl
       _gpio_pin_intialize
         _gpio_pin_direction_intialize
         _gpio_pin_write_logic
     _Timer2_Init

 _InterruptManagerLow (ROOT)
   _InterruptCheck
     _ADC_ISR
     _INT0_ISR
     _INT1_ISR
     _INT2_ISR
     _RB4_ISR
     _RB5_ISR
     _RB6_ISR
     _RB7_ISR
     _TMR1_ISR
       NULL(Fake) *
       _timer1_interruptHundler *
         _led_turn_toggle
           _gpio_pin_toggle_logic
     _TMR2_ISR
     _TMR3_ISR
     _TMRO_ISR
       NULL(Fake) *
       _timer0_interruptHundler *
         _Timer1_Read_value
         _Timer1_Write_value

 _InterruptManagerHigh (ROOT)
   i2_InterruptCheck
     i2_ADC_ISR
     i2_INT0_ISR
     i2_INT1_ISR
     i2_INT2_ISR
     i2_RB4_ISR
     i2_RB5_ISR
     i2_RB6_ISR
     i2_RB7_ISR
     i2_TMR1_ISR
       NULL(Fake) *
       i2_timer1_interruptHundler *
         i2_led_turn_toggle
           i2_gpio_pin_toggle_logic
     i2_TMR2_ISR
     i2_TMR3_ISR
     i2_TMRO_ISR
       NULL(Fake) *
       i2_timer0_interruptHundler *
         i2_Timer1_Read_value
         i2_Timer1_Write_value

 Address spaces:
Name               Size   Autos  Total    Cost      Usage
BIGRAM             F7F      0       0      48        0.0%
EEDATA             400      0       0       0        0.0%
BITBANK14          100      0       0      32        0.0%
BANK14             100      0       0      33        0.0%
BITBANK13          100      0       0      30        0.0%
BANK13             100      0       0      31        0.0%
BITBANK12          100      0       0      28        0.0%
BANK12             100      0       0      29        0.0%
BITBANK11          100      0       0      26        0.0%
BANK11             100      0       0      27        0.0%
BITBANK10          100      0       0      24        0.0%
BANK10             100      0       0      25        0.0%
BITBANK9           100      0       0      22        0.0%
BANK9              100      0       0      23        0.0%
BITBANK8           100      0       0      20        0.0%
BANK8              100      0       0      21        0.0%
BITBANK7           100      0       0      18        0.0%
BANK7              100      0       0      19        0.0%
BITBANK6           100      0       0      16        0.0%
BANK6              100      0       0      17        0.0%
BITBANK5           100      0       0      14        0.0%
BANK5              100      0       0      15        0.0%
BITBANK4           100      0       0      12        0.0%
BANK4              100      0       0      13        0.0%
BITBANK3           100      0       0      10        0.0%
BANK3              100      0       0      11        0.0%
BITBANK2           100      0       0       8        0.0%
BANK2              100      0       0       9        0.0%
BITBANK1           100      0       0       6        0.0%
BANK1              100     23      49       7       28.5%
BITBANK15           80      0       0      34        0.0%
BANK15              80      0       0      35        0.0%
BITBANK0            80      0       0       4        0.0%
BANK0               80     38      7F       5       99.2%
BITCOMRAM           7E      0       0       0        0.0%
COMRAM              7E     34      59       1       70.6%
BITBIGSFRhhllhh     18      0       0      37        0.0%
BITBIGSFRhhh         D      0       0      36        0.0%
BITBIGSFRllhhhh      9      0       0      41        0.0%
BITBIGSFRllhhl       6      0       0      42        0.0%
BITBIGSFRlllhh       6      0       0      44        0.0%
BITBIGSFRhlhll       5      0       0      39        0.0%
BITBIGSFRllllh       4      0       0      45        0.0%
BITBIGSFRhhlll       4      0       0      38        0.0%
BITBIGSFRllhll       4      0       0      43        0.0%
BITBIGSFRlllll       4      0       0      46        0.0%
BITBIGSFRllhhhh      1      0       0      40        0.0%
BIGSFR               0      0       0     200        0.0%
BITSFR               0      0       0     200        0.0%
SFR                  0      0       0     200        0.0%
STACK                0      0       0       2        0.0%
NULL                 0      0       0       0        0.0%
ABS                  0      0     121      47        0.0%
DATA                 0      0     121       3        0.0%
CODE                 0      0       0       0        0.0%


Microchip Technology PIC18 Macro Assembler V2.41 build 20230208172133 
Symbol Table                                                                                   Fri May 26 03:09:16 2023

               _CCP1_PWM1_Set_Duty_Cycle 2A54                             ___fldiv@aexp 00B1  
                           ___fldiv@bexp 00B0                             ___fldiv@sign 00A9  
                                     bsr 0FE0                    ??_InterruptManagerLow 001D  
                      ??_led_turn_toggle 001B                                      l504 303C  
                                    l466 2808                                      l485 2934  
                                    _PR2 0FCB                          ??_app_intialize 0034  
                 ??_InterruptManagerHigh 000C                _RB5_InterruptHandler_HIGH 003F  
                        __end_of_ADC_ISR 339C                      led_initialize@F3048 0052  
                                    prod 0FF3                                      tosl 0FFD  
                                    wreg 0FE8                             ___flmul@aexp 008D  
                           ___flmul@bexp 0092                             ___flmul@sign 008C  
                           ___flmul@temp 0097                             ___flmul@prod 0093  
                        __end_of_RB4_ISR 32BC                          __end_of_RB5_ISR 32A2  
                        __end_of_RB6_ISR 3288                          __end_of_RB7_ISR 326E  
                           ___fltol@exp1 00B7                                     l1122 2B84  
                                   l1123 2C44                                     l1125 2C3E  
                                   l1128 2C46                                     l1242 250E  
                                   l1092 3236                                     l1253 2B68  
                                   l1245 2510                                     l1256 334E  
                                   l1559 2A52                                     l1807 133C  
                                   l1920 26C4                                     l1816 1412  
                                   l1817 13FE                                     l1931 265C  
                                   l1844 1CC4                                     l1924 2600  
                                   l1917 2568                                     l1846 1B24  
                                   l1790 11FC                                     l1855 1B6A  
                                   l1791 11E8                                     l1880 1928  
                                   l1792 11AE                                     l7000 1110  
                                   l1857 1BE2                                     l1849 1AE8  
                                   l1858 1BD0                                     l7010 1124  
                                   l7002 1114                                     l1883 17BA  
                                   l1876 15C4                                     l7100 139E  
                                   l7020 1138                                     l7012 1128  
                                   l7004 1118                                     l1893 18EA  
                                   l1885 1832                                     l1886 1820  
                                   l7102 13A6                                     l7110 13CA  
                                   l7030 114C                                     l7022 113C  
                                   l7014 112C                                     l7006 111C  
                                   l1799 14FC                                     l7120 1422  
                                   l7112 13CE                                     l7104 13AA  
                                   l7040 11C8                                     l7032 1178  
                                   l7024 1140                                     l7016 1130  
                                   l7008 1120                                     l7210 1A62  
                                   l7202 1A3E                                     l7130 148C  
                                   l7122 142E                                     l7114 13DC  
                                   l7106 13BA                                     l7050 120A  
                                   l7042 11CC                                     l7034 1196  
                                   l7026 1144                                     l7018 1134  
                                   l7220 1AB4                                     l7212 1A7C  
                                   l7204 1A4E                                     l7300 153C  
                                   l7140 14D4                                     l7132 149C  
                                   l7124 143C                                     l7116 13F4  
                                   l7108 13BC                                     l7060 124C  
                                   l7052 121A                                     l7044 11DA  
                                   l7036 11A6                                     l7028 1148  
                                   l7230 1B10                                     l7222 1AC4  
                                   l7214 1A8C                                     l7206 1A4E  
                                   l7310 156E                                     l7302 154C  
                                   l7142 14D6                                     l7134 14BC  
                                   l7126 147A                                     l7070 127A  
                                   l7062 125A                                     l7046 11DC  
                                   l7038 11BC                                     l7240 1B50  
                                   l7232 1B12                                     l7224 1AD8  
                                   l7216 1A9C                                     l7160 1958  
                                   l7152 192A                                     l7400 18A4  
                                   l7320 15AE                                     l7312 157C  
                                   l7304 1552                                     l7144 14DC  
                                   l7136 14C0                                     l7128 147C  
                                   l7080 130A                                     l7072 1284  
                                   l7064 1266                                     l7056 122E  
                                   l7048 11E6                                     l7250 1B8C  
                                   l7242 1B5A                                     l7234 1B22  
                                   l7226 1AE6                                     l7218 1AAC  
                                   l7170 1992                                     l7162 1968  
                                   l7154 1938                                     l7410 190C  
                                   l7402 18B8                                     l7330 15F8  
                                   l7322 15B4                                     l7314 157E  
                                   l7306 1562                                     l7146 14EA  
                                   l7138 14CE                                     l7082 131A  
                                   l7066 126A                                     l7058 123E  
                                   l7074 128A                                     l8130 2FA4  
                                   l7260 1BFE                                     l7252 1B9A  
                                   l7244 1B68                                     l7236 1B34  
                                   l7228 1AF2                                     l7180 19BE  
                                   l7172 1998                                     l7164 1978  
                                   l7156 1946                                     l7412 190E  
                                   l7404 18D2                                     l7340 1648  
                                   l7332 1604                                     l7324 15D4  
                                   l7316 158E                                     l7308 1568  
                                   l7420 2936                                     l7500 2694  
                                   l7148 14EC                                     l7092 1376  
                                   l7076 12B6                                     l7084 132A  
                                   l7068 1278                                     l8140 2FB8  
                                   l8132 2FA8                                     l8124 2F9A  
                                   l7270 1C6A                                     l7262 1C0C  
                                   l7254 1BC8                                     l7238 1B4A  
                                   l7246 1B7A                                     l7190 19F8  
                                   l7182 19CE                                     l7174 199E  
                                   l7166 197A                                     l7158 1948  
                                   l7406 18EE                                     l7414 1914  
                                   l7350 168A                                     l7342 1654  
                                   l7334 160E                                     l7326 15E4  
                                   l7318 159E                                     l7430 2998  
                                   l7422 2950                                     l7502 26A4  
                                   l7094 1380                                     l7086 1352  
                                   l7078 1308                                     l8142 2FC6  
                                   l8126 2F9A                                     l7280 1CB8  
                                   l7272 1C84                                     l7264 1C36  
                                   l7248 1B88                                     l7192 1A0E  
                                   l7184 19DE                                     l7176 19AC  
                                   l7168 1982                                     l7416 1918  
                                   l7408 18FE                                     l7360 16EC  
                                   l7352 1696                                     l7344 1660  
                                   l7336 1624                                     l7432 29A8  
                                   l7504 26B2                                     l7096 138E  
                                   l7088 1362                                     l7600 2BFA  
                                   l8144 2FD0                                     l8128 2F9E  
                                   l7282 1CBA                                     l7274 1CA0  
                                   l7258 1BF2                                     l7266 1C3A  
                                   l7194 1A1E                                     l7186 19E0  
                                   l7178 19AE                                     l7370 1782  
                                   l7362 16F8                                     l7354 16A6  
                                   l7346 166E                                     l7338 1630  
                                   l7290 14FE                                     l7442 29D4  
                                   l7434 29AE                                     l7426 2966  
                                   l7506 26B4                                     l7098 1390  
                                   l7602 2C16                                     l8138 2FB2  
                                   l7276 1CA4                                     l7268 1C54  
                                   l7196 1A26                                     l7188 19E8  
                                   l7380 17D8                                     l7372 17A0  
                                   l7364 1714                                     l7356 16C0  
                                   l7348 167A                                     l7292 150C  
                                   l7460 2A42                                     l7452 2A00  
                                   l7444 29E0                                     l7436 29BC  
                                   l7428 2994                                     l6900 28AC  
                                   l7620 2336                                     l7612 230A  
                                   l7604 2C1E                                     l7278 1CB2  
                                   l7198 1A2A                                     l7390 1842  
                                   l7382 17DC                                     l7374 17AA  
                                   l7366 173E                                     l7358 16D0  
                                   l7294 151A                                     l7454 2A10  
                                   l7446 29EC                                     l7470 2578  
                                   l7630 24AE                                     l7622 2394  
                                   l7614 2310                                     l7606 2C3A  
                                   l7710 321C                                     l7392 184E  
                                   l7384 17EA                                     l7376 17B8  
                                   l7368 1774                                     l7296 151C  
                                   l7456 2A20                                     l7480 25B6  
                                   l7472 258E                                     l7464 2514  
                                   l7720 2AF6                                     l6920 26FE  
                                   l6904 2908                                     l7640 24EA  
                                   l7632 24B0                                     l7624 23EC  
                                   l7616 2322                                     l7608 2C40  
                                   l7712 321C                                     l7394 185C  
                                   l7386 1818                                     l7378 17CA  
                                   l7298 152C                                     l7458 2A30  
                                   l7490 263E                                     l7482 25E8  
                                   l7466 2524                                     l7722 2B38  
                                   l6922 2706                                     l6930 2806  
                                   l6914 26C6                                     l8186 291C  
                                   l6906 2932                                     l7642 2506  
                                   l7634 24C4                                     l7626 2498  
                                   l7618 232A                                     l7714 3228  
                                   l7396 1886                                     l7492 264C  
                                   l7484 25EA                                     l7476 25A2  
                                   l7468 2532                                     l7724 2B4E  
                                   l7716 2A58                                     l7732 333C  
                                   l8188 27F0                                     l6924 2768  
                                   l6916 26CA                                     l6940 2FF4  
                                   l7636 24C6                                     l7628 24AC  
                                   l7644 250E                                     l7398 188A  
                                   l7494 266A                                     l7486 25F6  
                                   l7478 25AA                                     l7726 2B66  
                                   l7718 2A62                                     l6950 1006  
                                   l6918 26DC                                     l6942 3006  
                                   l7638 24E2                                     l7590 2B86  
                                   l7496 266C                                     l7488 2632  
                                   l7728 2B66                                     l6960 1044  
                                   l6952 1014                                     l6928 27C4  
                                   l6944 300E                                     l7592 2BE4  
                                   l7584 2B6A                                     l7498 2670  
                                   l6970 1074                                     l6962 1054  
                                   l6954 1022                                     l6890 280A  
                                   l6946 303A                                     l6938 2FF4  
                                   l7594 2BE6                                     l7586 2B6A  
                                   l6980 109E                                     l6972 1086  
                                   l6964 1056                                     l6956 1024  
                                   l6892 280E                                     l7596 2BE8  
                                   l7588 2B7C                                     l6982 10AE  
                                   l6990 10D8                                     l6974 1088  
                                   l6958 1034                                     l6966 105E  
                                   l6894 2820                                     l7598 2BF8  
                                   l6992 10E8                                     l6984 10BE  
                                   l6976 108E                                     l6968 106E  
                                   l6896 2842                                     l6994 10FA  
                                   l6986 10CE                                     l6978 109C  
                                   l6898 284A                                     l6996 1108  
                                   l6988 10D0                                     l6998 110C  
                                   STR_1 1001                                     _LATA 0F89  
                                   _LATB 0F8A                                     _LATC 0F8B  
                                   _LATD 0F8C                                     _LATE 0F8D  
                                   u8000 1B4A                                     u8001 1B46  
                                   u8010 1B68                                     u8011 1B64  
                                   u8100 1CB2                                     u8020 1B88  
                                   u8101 1CAE                                     u8021 1B84  
                                   u8030 1B9A                                     u8110 151A  
                                   u8031 1B96                                     u8111 1516  
                                   u8040 1BC8                                     u8200 17B8  
                                   u8120 152C                                     u8041 1BC4  
                                   u8201 17B4                                     u8121 1528  
                                   u8050 1BDE                                     u8210 17D8  
                                   u8130 153C                                     u8051 1BDA  
                                   u8211 17D4                                     u8131 1538  
                                   u8060 1BF2                                     u8220 17EA  
                                   u8140 157C                                     u8300 2950  
                                   u7500 1034                                     u7420 26DC  
                                   u7404 286A                                     u8061 1BEE  
                                   u8221 17E6                                     u8141 1578  
                                   u8301 294C                                     u7501 1030  
                                   u7421 26D8                                     u7405 2866  
                                   u8070 1C0C                                     u8230 1818  
                                   u8150 158E                                     u8310 2988  
                                   u7510 1044                                     u7430 26FE  
                                   u7414 28CC                                     u8071 1C08  
                                   u8231 1814                                     u8151 158A  
                                   u7511 1040                                     u7431 26FA  
                                   u7415 28C8                                     u8080 1C54  
                                   u8240 182E                                     u8160 159E  
                                   u8320 29BC                                     u8400 25E4  
                                   u7600 1194                                     u7520 1086  
                                   u8081 1C50                                     u8241 182A  
                                   u8161 159A                                     u8321 29B8  
                                   u8401 25E0                                     u7521 1082  
                                   u8090 1C84                                     u8250 1842  
                                   u8170 15D4                                     u8330 29D0  
                                   u8410 262E                                     u7610 11BC  
                                   u7530 109C                                     u8091 1C80  
                                   u8251 183E                                     u8171 15D0  
                                   u8331 29CC                                     u8315 297C  
                                   u8411 262A                                     u7611 11B8  
                                   u7531 1098                                     u8260 185C  
                                   u8180 15E4                                     u8340 29FC  
                                   u8420 264C                                     u7700 131A  
                                   u7620 11DA                                     u7540 10AE  
                                   u7460 27DC                                     u7444 2726  
                                   u7380 2820                                     u8261 1858  
                                   u8181 15E0                                     u8341 29F8  
                                   u8421 2648                                     u7701 1316  
                                   u7621 11D6                                     u7541 10AA  
                                   u7461 27D6                                     u7445 2722  
                                   u7381 281C                                     u8270 18A4  
                                   u8190 175E                                     u8350 2A20  
                                   u8430 265C                                     u7710 1352  
                                   u7630 11FC                                     u7550 10BE  
                                   u7470 27DE                                     u7454 2788  
                                   u7390 2842                                     u8510 2B7C  
                                   u8271 18A0                                     u8351 2A1C  
                                   u8431 2658                                     u7711 134E  
                                   u7631 11F8                                     u7551 10BA  
                                   u7455 2784                                     u7391 283E  
                                   u8511 2B78                                     u8280 18D2  
                                   u8360 2A30                                     u8440 266A  
                                   u7800 1422                                     u7720 1362  
                                   u7640 120A                                     u7560 10FA  
                                   u7480 3006                                     u8520 2C16  
                                   u8281 18CE                                     u8361 2A2C  
                                   u8441 2666                                     u7801 141E  
                                   u7721 135E                                     u7641 1206  
                                   u7561 10F6                                     u7481 3002  
                                   u8521 2C12                                     u8290 190C  
                                   u8450 26A4                                     u8370 2524  
                                   u7810 143C                                     u7730 138E  
                                   u7650 121A                                     u7570 1108  
                                   u7490 1022                                     u8530 2C3A  
                                   u8291 1908                                     u8195 1754  
                                   u8451 26A0                                     u8371 2520  
                                   u7811 1438                                     u7731 138A  
                                   u7651 1216                                     u7571 1104  
                                   u7491 101E                                     u8531 2C36  
                                   u7900 1968                                     u8460 26B2  
                                   u8380 2532                                     u7820 147A  
                                   u7740 139E                                     u7660 124C  
                                   u7580 1178                                     u8540 2322  
                                   u7901 1964                                     u8461 26AE  
                                   u8381 252E                                     u7821 1476  
                                   u7741 139A                                     u7661 1248  
                                   u7581 1174                                     u8541 231E  
                                   u7910 19AC                                     u8390 258E  
                                   u7830 148C                                     u7750 13BA  
                                   u7670 125A                                     u7590 1192  
                                   u8550 24E2                                     u7911 19A8  
                                   u8391 258A                                     u7831 1488  
                                   u7751 13B6                                     u7671 1256  
                                   u7591 118C                                     u8551 24DE  
                                   u7920 19BE                                     u7840 149C  
                                   u7760 13CA                                     u7680 1278  
                                   u8560 2506                                     u7921 19BA  
                                   u7841 1498                                     u7761 13C6  
                                   u7681 1274                                     u8561 2502  
                                   u7930 19CE                                     u7850 14BC  
                                   u7770 13DC                                     u7690 12B6  
                                   u7931 19CA                                     u7851 14B8  
                                   u7771 13D8                                     u7691 12B2  
                                   u7940 1A0E                                     u7860 14CE  
                                   u7780 13F4                                     u7941 1A0A  
                                   u7861 14CA                                     u7781 13F0  
                                   u7950 1A4E                                     u7870 14EA  
                                   u7790 140E                                     u7951 1A4A  
                                   u7871 14E6                                     u7791 140A  
                                   u7960 1AC4                                     u7880 1946  
                                   u7961 1AC0                                     u7881 1942  
                                   u7970 1AE6                                     u7890 1958  
                                   u7971 1AE2                                     u7891 1954  
                                   u7980 1B10                                     u7981 1B0C  
                                   u7990 1B34                                     u8950 2FEC  
                                   u7991 1B30                                     u8951 2FE8  
                                   u8967 2FBE                                     _TMR2 0FCC  
               _RB4_InterruptHandler_LOW 0041                                     _led1 0059  
                                   _led2 0054                              ?i2_INT0_ISR 0001  
                                   _main 2F9A                              ?i2_INT1_ISR 0001  
                            ?i2_INT2_ISR 0001                      i2RB7_ISR@RB7_Source 0001  
               _RB7_InterruptHandler_LOW 00F5                                     fsr2h 0FDA  
                                   indf2 0FDF                                     fsr1l 0FE1  
                                   fsr2l 0FD9                                     btemp 005A  
                                   prodh 0FF4                                     prodl 0FF3  
                                   start 006A                          ___fldiv@new_exp 00AA  
                           ___param_bank 0000                   ?_gpio_pin_toggle_logic 0012  
                            ?i2_TMR1_ISR 0001                              ?i2_TMR2_ISR 0001  
                            ?i2_TMR3_ISR 0001                     _gpio_pin_write_logic 280A  
                       __end_of_INT0_ISR 3398                         __end_of_INT1_ISR 3394  
                       __end_of_INT2_ISR 3390                              ?i2_TMRO_ISR 0001  
                          ___fltol@sign1 00B6                          __end_of___fladd 14FE  
                                  ?_main 0001                          __end_of___fldiv 1CC6  
                                  _EEADR 0FA9                          __end_of___flmul 192A  
                        __end_of___fltol 2A54                                    i1l251 2E6A  
                                  i1l247 2E10                                    i1l601 1D6A  
                                  i1l611 1EBE                                    i1l603 1DAE  
                                  i1l621 1FA6                                    i1l613 1F02  
                                  i1l605 1DF2                                    i1l623 1FC6  
                                  i1l615 1F46                                    i1l607 1E36  
                                  i1l393 339A                                    i1l617 1F66  
                                  i1l609 1E7A                                    i1l626 1FE6  
                                  i2l251 2EDC                                    i1l619 1F86  
                                  i1l901 326C                                    i2l247 2E82  
                                  i1l591 0042                                    i2l601 208C  
                                  i2l611 21E0                                    i2l603 20D0  
                                  i1l499 2CD8                                    i1l595 1CE6  
                                  i1l852 3392                                    i2l621 22C8  
                                  i2l613 2224                                    i2l605 2114  
                                  i1l597 1D06                                    i2l623 22E8  
                                  i2l615 2268                                    i2l607 2158  
                                  i1l847 3396                                    i1l599 1D26  
                                  i2l393 33AA                                    i2l617 2288  
                                  i2l609 219C                                    i1l857 338E  
                                  i1l953 30AC                                    i2l626 2308  
                                  i1l890 3286                                    i2l619 22A8  
                                  i1l868 32BA                                    i2l901 32D4  
                                  i1l879 32A0                                    i2l586 305C  
                                  i2l499 2D6A                                    i2l595 2008  
                                  i2l852 33A2                                    i2l597 2028  
                                  i2l847 33A6                                    i2l599 2048  
                                  i2l857 339E                                    i2l953 3118  
                                  i2l890 32EE                                    i2l868 3322  
                                  i2l879 3308                                    _TMR0H 0FD7  
                                  _TMR1H 0FCF                                    _TMR0L 0FD6  
                                  _TMR1L 0FCE                                    _TMR3H 0FB3  
                                  _TMR3L 0FB2                                    _PORTA 0F80  
                                  _PORTB 0F81                                    _PORTC 0F82  
                                  _PORTD 0F83                                    _PORTE 0F84  
                                  _TRISA 0F92                                    _TRISB 0F93  
                                  _TRISC 0F94                                    _TRISD 0F95  
                                  _TRISE 0F96               i2Timer1_Write_value@_value 0003  
             i2Timer1_Write_value@_timer 0001             fp_i2_timer0_interruptHundler 0000  
                       __end_of_TMR1_ISR 30E4                         __end_of_TMR2_ISR 337E  
                       __end_of_TMR3_ISR 336A                                    _lcd_1 00CC  
                                  _lcd_2 012D                         __end_of_TMRO_ISR 30AE  
                      __end_of_CCP1_Init 2512                                    main@i 0121  
                                  pclath 0FFA                                    pclatu 0FFB  
                                  tablat 0FF5                                    ttemp5 005B  
                                  ttemp6 005E                                    ttemp7 0062  
                                  status 0FD8                                    wtemp8 005B  
               i2Timer1_Read_value@tmr1h 0008                 i2Timer1_Read_value@tmr1l 0007  
                        __initialization 2D6C                  i2_gpio_pin_toggle_logic 2CDA  
                           __end_of_main 2FF4                    ?_gpio_pin_write_logic 0026  
                    i2_Timer1_Read_value 2F3C                                ??_ADC_ISR 0012  
                          _lat_registers 00B8                       _Timer1_Write_value 31DC  
                                 ??_main 0034                            __activetblptr 0003  
                  _TMR3_InterruptHandler 00F1                         led_turn_on@F3053 0051  
                              ??_RB4_ISR 0012                                ??_RB5_ISR 0012  
                              ??_RB6_ISR 0012                                ??_RB7_ISR 0012  
                    ?_Timer1_Write_value 0012                        __end_ofi2_ADC_ISR 33AC  
                                 _ADRESH 0FC4                                   _EEADRH 0FAA  
                                 _ADRESL 0FC3                                   _EEDATA 0FA8  
                                 _CCPR1L 0FBE                                   _EECON2 0FA7  
                   ?i2_Timer1_Read_value 0001                                   i1l1030 30E2  
                                 i1l1022 2F0E                                   i1l1026 2F3A  
                                 i1l1019 31FA                                   i1l1205 3368  
                                 i1l1149 337C                                   i1l1095 3182  
                                 i1l1098 333A                                   i2l1030 314E  
                                 i2l1022 2F6C                                   i1l6000 1F40  
                                 i2l1026 2F98                                   i1l6010 1F94  
                                 i1l6002 1F54                                   i2l1019 321A  
                                 i1l6020 1FE2                                   i1l6012 1FA2  
                                 i1l6004 1F62                                   i2l1205 3374  
                                 i1l6014 1FB4                                   i1l6006 1F74  
                                 i1l6016 1FC2                                   i1l6008 1F82  
                                 i1l6018 1FD4                                   i1l2772 3394  
                                 i2l1149 3384                                   i1l2766 3398  
                                 i1l2790 32A4                                   i2l1095 31DA  
                                 i1l2784 338C                                   i1l2792 32A6  
                                 i2l1098 335C                                   i1l2778 3390  
                                 i1l4810 2C5A                                   i1l5620 328A  
                                 i1l4812 2C7C                                   i1l4900 31F2  
                                 i1l2798 32BA                                   i1l5622 328C  
                                 i1l4814 2C80                                   i1l4806 2C48  
                                 i1l4910 2EF8                                   i1l4902 31F6  
                                 i1l4808 2C48                                   i1l4912 2F0A  
                                 i1l5642 3286                                   i1l5634 3270  
                                 i1l5650 3258                                   i1l4914 2F16  
                                 i1l4906 2EDE                                   i1l5628 32A0  
                                 i1l5636 3272                                   i1l4916 2F3A  
                                 i1l4908 2EE6                                   i1l5670 3094  
                                 i1l5662 3078                                   i1l5910 1CD4  
                      __end_ofi2_RB4_ISR 3324                                   i1l5656 326C  
                                 i1l5648 3256                                   i1l4880 2DFA  
                                 i1l5680 30CA                                   i1l5672 30AE  
                                 i1l5664 307A                                   i1l5920 1D22  
                                 i1l5912 1CE2                                   i1l4890 2E5E  
                                 i1l4882 2E0C                                   i1l5674 30B0  
                                 i1l5682 3376                                   i1l5690 3364  
                                 i1l5666 307E                                   i1l5930 1D64  
                                 i1l5922 1D34                                   i1l5914 1CF4  
                                 i2l6100 2152                                   i1l4884 2E14  
                                 i1l5676 30B4                                   i1l5668 3082  
                                 i1l5940 1DA8                                   i1l5932 1D78  
                                 i1l5924 1D42                                   i1l5916 1D02  
                                 i1l5908 1CC6                                   i2l6110 2196  
                                 i2l6102 2166                                   i1l4886 2E4A  
                                 i1l4878 2DFA                                   i1l5678 30B8  
                                 i1l5686 335E                                   i1l4894 31DC  
                                 i1l4974 315A                                   i1l5950 1DEC  
                                 i1l5942 1DBC                                   i1l5934 1D86  
                                 i1l5926 1D50                                   i1l5918 1D14  
                                 i2l6120 21DA                                   i2l6112 21AA  
                                 i2l6104 2174                                   i1l4888 2E4C  
                                 i1l5688 3360                                   i1l4896 31DC  
                                 i1l4976 316E                                   i1l5960 1E30  
                                 i1l5952 1E00                                   i1l5944 1DCA  
                                 i1l5936 1D94                                   i1l5928 1D60  
                                 i2l6130 221E                                   i2l6122 21EE  
                                 i2l6114 21B8                                   i2l6106 2182  
                                 i2l6050 1FF6                                   i1l4978 332E  
                                 i1l4898 31EE                                   i1l5970 1E74  
                                 i1l5962 1E44                                   i1l5954 1E0E  
                                 i1l5946 1DD8                                   i1l5938 1DA4  
                                 i2l6140 2262                                   i2l6132 2232  
                                 i2l6124 21FC                                   i2l6116 21C6  
                                 i2l6108 2192                                   i2l6060 2044  
                                 i2l6052 2004                                   i1l5980 1EB8  
                                 i1l5972 1E88                                   i1l5964 1E52  
                                 i1l5956 1E1C                                   i1l5948 1DE8  
                                 i2l2942 33A8                                   i2l6150 22B6  
                                 i2l6142 2276                                   i2l6134 2240  
                                 i2l6126 220A                                   i2l6118 21D6  
                                 i2l6070 2086                                   i2l6062 2056  
                                 i2l6054 2016                                   i1l5990 1EFC  
                                 i1l5982 1ECC                                   i1l5974 1E96  
                                 i1l5966 1E60                                   i1l5958 1E2C  
                                 i1l6694 003E                                   i2l2960 339C  
                      __end_ofi2_RB5_ISR 330A                                   i2l6160 2304  
                                 i2l6152 22C4                                   i2l6144 2284  
                                 i2l6136 224E                                   i2l6128 221A  
                                 i2l6080 20CA                                   i2l6072 209A  
                                 i2l6064 2064                                   i2l6056 2024  
                                 i2l6048 1FE8                                   i1l5992 1F10  
                                 i1l5984 1EDA                                   i1l5976 1EA4  
                                 i1l5968 1E70                                   i2l2954 33A0  
                                 i2l6154 22D6                                   i2l6146 2296  
                                 i2l6138 225E                                   i2l6090 210E  
                                 i2l6082 20DE                                   i2l6074 20A8  
                                 i2l6066 2072                                   i2l6058 2036  
                                 i1l5994 1F1E                                   i1l5986 1EE8  
                                 i1l5978 1EB4                                   i2l2948 33A4  
                                 i2l4820 2CDA                                   i2l5540 31B2  
                                 i2l6156 22E4                                   i2l6148 22A4  
                                 i2l6092 2122                                   i2l6084 20EC  
                                 i2l6076 20B6                                   i2l6068 2082  
                                 i1l5996 1F2C                                   i1l5988 1EF8  
                                 i2l4822 2CEC                                   i2l5542 31C6  
                                 i2l6158 22F6                                   i2l6094 2130  
                                 i2l6086 20FA                                   i2l6078 20C6  
                                 i1l5998 1F3C                                   i2l5800 32BE  
                                 i2l4824 2D0E                                   i2l4920 2E6C  
                                 i2l5544 3350                                   i2l6096 213E  
                                 i2l6088 210A                                   i2l5802 32C0  
                                 i2l4826 2D12                                   i2l4818 2CDA  
                                 i2l4930 2EBE                                   i2l4922 2E6C  
                                 i2l6098 214E                                   i2l4932 2ED0  
                                 i2l4924 2E7E                                   i2l4940 320E  
                                 i2l5820 30EE                                   i2l4926 2E86  
                                 i2l5830 3124                                   i2l4950 2F44  
                                 i2l4942 3212                                   i2l5822 3100  
                                 i2l5814 30E4                                   i2l5760 330E  
                      __end_ofi2_RB6_ISR 32F0                                   i2l5808 32D4  
                                 i2l4928 2EBC                                   i2l5832 3136  
                                 i2l5824 311A                                   i2l5840 336C  
                                 i2l4952 2F56                                   i2l4944 3216  
                                 i2l4936 31FC                                   i2l5816 30E6  
                                 i2l5826 311C                                   i2l5834 337E  
                                 i2l5842 3370                                   i2l4954 2F68  
                                 i2l4938 31FC                                   i2l5818 30EA  
                                 i2l5780 3308                                   i2l5772 32F2  
                                 i2l5828 3120                                   i2l4956 2F74  
                                 i2l4948 2F3C                                   i2l5766 3322  
                                 i2l5758 330C                                   i2l5774 32F4  
                                 i2l5838 336A                                   i2l4958 2F98  
                                 i2l5794 32EE                                   i2l5786 32D8  
                                 i2l5788 32DA                                   i2l6692 3058  
                      __end_ofi2_RB7_ISR 32D6                         __end_of___xxtofl 26C6  
       gpio_pin_toggle_logic@_pin_config 0012       i2gpio_pin_toggle_logic@_pin_config 0001  
                          ??_Timer2_Init 0028                     ??_Timer1_Write_value 0016  
                              ??___fladd 00B2                                ??___fldiv 00A1  
                              ??___flmul 0088                                ??___fltol 0110  
                                 clear_0 2DD2                                   clear_1 2DDE  
                                 clear_2 2DEA                                   _timer0 0137  
                                 _timer1 00DA                                   _timer2 00E0  
                                 isa$std 0001  gpio_pin_direction_intialize@_pin_config 0026  
                           __pdataCOMRAM 0054                        Timer2_Init@_timer 0026  
                           __mediumconst 0000                       CCP1_PWM1_Start@ret 0026  
                                 tblptrh 0FF7                                   tblptrl 0FF6  
                                 tblptru 0FF8                    ??i2_Timer1_Read_value 0005  
                   i2led_turn_toggle@led 0008                             ___xxtofl@arg 0030  
                           ___xxtofl@exp 002F                             ___xxtofl@val 0026  
             ??_CCP1_PWM1_Set_Duty_Cycle 0114                               __accesstop 0080  
                __end_of__initialization 2DF0                                ?_INT0_ISR 0001  
                              ?_INT1_ISR 0001                                ?_INT2_ISR 0001  
                          ___rparam_used 0001                ??i2_gpio_pin_toggle_logic 0003  
                             ___fltol@f1 010C                          _led_turn_toggle 2DFA  
                      RB5_ISR@RB5_Source 0012             fp_i2_timer1_interruptHundler 0000  
                 ??_gpio_pin_write_logic 0029                           __pcstackCOMRAM 0001  
                           __pidataBANK0 3184                             __pidataBANK1 3238  
                              ?_TMR1_ISR 0001                                ?_TMR2_ISR 0001  
                              ?_TMR3_ISR 0001                      __end_of_Timer2_Init 2C48  
                              ?_TMRO_ISR 0001            CCP1_PWM1_Set_Duty_Cycle@_duty 011A  
    CCP1_PWM1_Set_Duty_Cycle@l_duty_temp 011B                               __pbssBANK0 00E5  
                             __pbssBANK1 013E                             ??i2_INT0_ISR 0001  
                           ??i2_INT1_ISR 0001                    _INT0_InterruptHandler 0049  
                             ??_INT0_ISR 0012                             ??i2_INT2_ISR 0001  
                             ??_INT1_ISR 0012                               ??_INT2_ISR 0012  
             ?i2_timer0_interruptHundler 0001                  _timer0_interruptHundler 3150  
             fp__timer0_interruptHundler 0000                  ??_gpio_pin_toggle_logic 0014  
            __end_of_InterruptManagerLow 006A                             ??i2_TMR1_ISR 000C  
                           ??i2_TMR2_ISR 0001                               ??_TMR1_ISR 001D  
                           ??i2_TMR3_ISR 0001                               ??_TMR2_ISR 0012  
                             ??_TMR3_ISR 0012                        led_turn_off@F3058 0050  
                                _ADC_ISR 3398                             ??i2_TMRO_ISR 0009  
                             ??_TMRO_ISR 001A                        RB7_ISR@RB7_Source 0012  
                           CCP1_Init@ret 0120                                  _RB4_ISR 32A2  
                                _RB5_ISR 3288                                  _RB6_ISR 326E  
                                _RB7_ISR 3254                       __end_ofi2_INT0_ISR 33A8  
                     __end_ofi2_INT1_ISR 33A4                                ?___xxtofl 0026  
                     __end_ofi2_INT2_ISR 33A0                _RB6_InterruptHandler_HIGH 00FB  
               Timer1_Write_value@_value 0014                 Timer1_Write_value@_timer 0012  
                  __end_of_app_intialize 3238                     led_turn_toggle@F3063 004F  
           __end_ofi2_Timer1_Write_value 321C                  __end_of_led_turn_toggle 2E6C  
                     __end_ofi2_TMR1_ISR 3150                       __end_ofi2_TMR2_ISR 3386  
                     __end_ofi2_TMR3_ISR 3376                           _tris_registers 00C2  
               _RB6_InterruptHandler_LOW 00F9                                _CCP1_Init 230A  
                     __end_ofi2_TMRO_ISR 311A        __end_ofi2_timer0_interruptHundler 31DC  
                   _ADC_InterruptHandler 004B                                  __Hparam 0000  
                            _Timer2_Init 2B6A                                  __Lparam 0000  
                                ___fladd 1006                                  ___fldiv 192A  
                                ___flmul 14FE                                  ___fltol 2936  
                           __psmallconst 1000               __end_of_gpio_pin_intialize 303E  
                                __pcinit 2D6C                                  __ramtop 1000  
                                __ptext0 2F9A                                  __ptext1 321C  
                                __ptext2 2B6A                                  __ptext3 230A  
                                __ptext4 2FF4                                  __ptext5 280A  
                                __ptext6 26C6                                  __ptext7 1006  
                                __ptext8 333C                                  __ptext9 2A54  
                         _CCP1_Init$4298 0118                           _CCP1_Init$4299 011C  
                              _T0CONbits 0FD5                      i2RB4_ISR@RB4_Source 0001  
                              _T1CONbits 0FCD                                _T2CONbits 0FCA  
                             ??___xxtofl 002A                                _T3CONbits 0FB1  
                         __pintcode_body 303E                     end_of_initialization 2DF0  
              ??_timer0_interruptHundler 001A                        _Timer1_Read_value 2EDE  
                              i2_ADC_ISR 33A8                       ?_Timer1_Read_value 0012  
                                int_func 303E                               ?_CCP1_Init 0114  
                       i2_InterruptCheck 1FE8                                i2_RB4_ISR 330A  
                              i2_RB5_ISR 32F0                                i2_RB6_ISR 32D6  
                              i2_RB7_ISR 32BC                    gpio_pin_intialize@ret 0032  
                    ??_Timer1_Read_value 0016                                  postdec1 0FE5  
                                postdec2 0FDD                                  postinc0 0FEE  
                                postinc2 0FDE                        ??_CCP1_PWM1_Start 0026  
                Timer1_Read_value@_value 0014                  Timer1_Read_value@_timer 0012  
                  _INT1_InterruptHandler 0047                                _PORTBbits 0F81  
             ?i2_timer1_interruptHundler 0001                  _timer1_interruptHundler 3324  
             fp__timer1_interruptHundler 0000            gpio_pin_intialize@_pin_config 0030  
                            ___fladd@grs 010B     __end_of_gpio_pin_direction_intialize 280A  
           _gpio_pin_direction_intialize 26C6                            ___xxtofl@sign 002E  
              __end_of_Timer1_Read_value 2F3C                              ___fldiv@grs 00AC  
                            ___fldiv@rem 00A5                      i2RB6_ISR@RB6_Source 0001  
                             ?i2_ADC_ISR 0001                         ?_led_turn_toggle 0019  
                            ___flmul@grs 008E                              _CCP1CONbits 0FBD  
                             ?i2_RB4_ISR 0001                               ?i2_RB5_ISR 0001  
                             ?i2_RB6_ISR 0001                               ?i2_RB7_ISR 0001  
          convert_uint16_to_string@F3201 00E5            convert_uint32_to_string@F3208 013E  
        __end_of_timer0_interruptHundler 3184                            __pidataCOMRAM 3386  
                   i2_Timer1_Write_value 31FC                           _timer0_preload 003B  
                         _timer1_preload 0037              __end_ofi2_Timer1_Read_value 2F9A  
      __end_ofi2_timer1_interruptHundler 335E                           _timer2_preload 004D  
                    start_initialization 2D6C                           _timer3_preload 0035  
                 led_turn_toggle@pin_obj 001C            ?_gpio_pin_direction_intialize 0026  
                            ??_CCP1_Init 0116              ??i2_timer0_interruptHundler 0009  
          __end_of_gpio_pin_toggle_logic 2CDA                              __pdataBANK0 00B8  
                            __pdataBANK1 0123                ??_timer1_interruptHundler 001D  
           convert_uint8_to_string@F3194 00EB                                 ?_ADC_ISR 0001  
                  ?i2_Timer1_Write_value 0001                ?_CCP1_PWM1_Set_Duty_Cycle 0001  
                         _InterruptCheck 1CC6                                ___fladd@a 0104  
                              ___fladd@b 0100                                ___fldiv@a 009D  
                              ___fldiv@b 0099                                 ?_RB4_ISR 0001  
                               ?_RB5_ISR 0001                                 ?_RB6_ISR 0001  
                               ?_RB7_ISR 0001                                ___flmul@a 0084  
                              ___flmul@b 0080                              __pbssCOMRAM 0035  
                          __pcstackBANK0 0080                            __pcstackBANK1 0100  
                            ??i2_ADC_ISR 0001                 ?i2_gpio_pin_toggle_logic 0001  
                  _INT2_InterruptHandler 0045          gpio_pin_direction_intialize@ret 002E  
                  _TMR0_InterruptHandler 003D                              ??i2_RB4_ISR 0001  
                            ??i2_RB5_ISR 0001                              ??i2_RB6_ISR 0001  
                            ??i2_RB7_ISR 0001             __end_of_InterruptManagerHigh 3078  
                           ?_Timer2_Init 0026                                __pintcode 0008  
                 __CCP1_InterruptHandler 00EF        _timer1_interruptHundler$intlevel1 332E  
                               ?___fladd 0100          gpio_pin_write_logic@_pin_config 0026  
                               ?___fldiv 0099                                 ?___flmul 0080  
                               ?___fltol 010C                   __end_of_InterruptCheck 1FE8  
                            __pintcodelo 0018                gpio_pin_write_logic@logic 0028  
              i2_timer0_interruptHundler 31B2                              __smallconst 1000  
              _RB4_InterruptHandler_HIGH 0043                 __end_ofi2_InterruptCheck 230A  
              _RB7_InterruptHandler_HIGH 00F7                       _gpio_pin_intialize 2FF4  
                          CCP1_Init@_ccp 0114          __end_of_timer1_interruptHundler 333C  
         ??_gpio_pin_direction_intialize 0028                 _RB5_InterruptHandler_LOW 00FD  
                               _INT0_ISR 3394                                 _INT1_ISR 3390  
                               _INT2_ISR 338C                                 _RB4_Flag 0058  
                               _RB5_Flag 0057                                 _RB6_Flag 0056  
                               _RB7_Flag 0055                        RB4_ISR@RB4_Source 0012  
                    ?_gpio_pin_intialize 0030                          _CCP1_PWM1_Start 333C  
                               _IPR1bits 0F9F                                 _PIE1bits 0F9D  
                               _PIE2bits 0FA0                                 i1u130_20 32B6  
                               i1u130_21 32B2                                 i1u411_20 2C5A  
                               i1u411_21 2C56                                 i1u412_20 2C7C  
                               i1u412_21 2C78                                 i1u413_24 2CA0  
                               i1u413_25 2C9C                                 i1u430_20 2EF8  
                               i1u430_21 2EF4                                 i1u431_20 2F0A  
                               i1u431_21 2F06                                 i1u600_20 1EF8  
                               i1u600_21 1EF4                                 i1u601_20 1F10  
                               i1u601_21 1F0C                                 i1u610_20 1FA2  
                               i1u602_20 1F1E                                 i1u610_21 1F9E  
                               i1u602_21 1F1A                                 i1u427_20 2E0C  
                               i1u611_20 1FB4                                 i1u603_20 1F2C  
                               i1u427_21 2E08                                 i1u611_21 1FB0  
                               i1u603_21 1F28                                 i1u540_20 329C  
                               i1u612_20 1FC2                                 i1u604_20 1F3C  
                               i1u540_21 3298                                 i1u612_21 1FBE  
                               i1u604_21 1F38                                 i1u428_25 2E5C  
                               i1u428_27 2E5E                                 i1u541_20 3282  
                               i1u429_20 31EE                                 i1u613_20 1FD4  
                               i1u605_20 1F54                                 i1u541_21 327E  
                               i1u429_21 31EA                                 i1u613_21 1FD0  
                               i1u605_21 1F50                                 i1u542_20 3268  
                               i1u614_20 1FE2                                 i1u606_20 1F62  
                               i1u542_21 3264                                 i1u614_21 1FDE  
                               i1u606_21 1F5E                                 i1u543_20 3094  
                               i1u607_20 1F74                                 i1u543_21 3090  
                               i1u607_21 1F70                                 i1u608_20 1F82  
                               i1u608_21 1F7E                                 i1u545_20 30CA  
                               i1u544_28 309A                                 i1u609_20 1F94  
                               i1u545_21 30C6                                 i1u544_29 30AC  
                               i1u609_21 1F90                                 i1u570_20 1D02  
                               i1u570_21 1CFE                                 i1u546_28 30D0  
                               i1u571_20 1D14                                 i1u546_29 30E2  
                               i1u571_21 1D10                                 i1u580_20 1DA4  
                               i1u572_20 1D22                                 i1u580_21 1DA0  
                               i1u572_21 1D1E                                 i1u581_20 1DBC  
                               i1u573_20 1D34                                 i1u581_21 1DB8  
                               i1u573_21 1D30                                 i1u590_20 1E52  
                               i1u582_20 1DCA                                 i1u574_20 1D42  
                               i1u590_21 1E4E                                 i1u582_21 1DC6  
                               i1u574_21 1D3E                                 i2u414_40 2CEC  
                               i2u414_41 2CE8                                 i1u591_20 1E60  
                               i1u583_20 1DD8                                 i1u575_20 1D50  
                               i1u567_20 1CD4                                 i1u591_21 1E5C  
                               i1u583_21 1DD4                                 i1u575_21 1D4C  
                               i1u567_21 1CD0                                 i2u415_40 2D0E  
                               i2u415_41 2D0A                                 i1u592_20 1E70  
                               i1u584_20 1DE8                                 i1u576_20 1D60  
                               i1u568_20 1CE2                                 i1u592_21 1E6C  
                               i1u584_21 1DE4                                 i1u576_21 1D5C  
                               i1u568_21 1CDE                                 i2u432_40 2E7E  
                               i2u432_41 2E7A                                 i2u416_44 2D32  
                               i1u593_20 1E88                                 i1u585_20 1E00  
                               i1u577_20 1D78                                 i1u569_20 1CF4  
                               i2u416_45 2D2E                                 i1u593_21 1E84  
                               i1u585_21 1DFC                                 i1u577_21 1D74  
                               i1u569_21 1CF0                                 _PIR1bits 0F9E  
                               i1u594_20 1E96                                 i1u586_20 1E0E  
                               i1u578_20 1D86                                 i2u433_45 2ECE  
                               i1u594_21 1E92                                 i1u586_21 1E0A  
                               i1u578_21 1D82                                 i2u433_47 2ED0  
                               i2u434_40 320E                                 i2u434_41 320A  
                               i1u595_20 1EA4                                 i1u587_20 1E1C  
                               i1u579_20 1D94                                 i1u595_21 1EA0  
                               i1u587_21 1E18                                 i1u579_21 1D90  
                               i2u435_40 2F56                                 i2u435_41 2F52  
                               _PIR2bits 0FA1                                 i1u596_20 1EB4  
                               i1u588_20 1E2C                                 i1u596_21 1EB0  
                               i1u588_21 1E28                                 i2u436_40 2F68  
                               i2u620_40 2044                                 i2u436_41 2F64  
                               i2u620_41 2040                                 i1u597_20 1ECC  
                               i1u589_20 1E44                                 i1u597_21 1EC8  
                               i1u589_21 1E40                                 i2u621_40 2056  
                               i2u621_41 2052                                 i1u598_20 1EDA  
                               i1u598_21 1ED6                                 i2u630_40 20EC  
                               i2u622_40 2064                                 i2u630_41 20E8  
                               i2u622_41 2060                                 i1u599_20 1EE8  
                               i1u599_21 1EE4                                 i2u631_40 20FA  
                               i2u623_40 2072                                 i2u615_40 1FF6  
                               i2u631_41 20F6                                 i2u623_41 206E  
                               i2u615_41 1FF2                                 i2u640_40 2192  
                               i2u632_40 210A                                 i2u624_40 2082  
                               i2u616_40 2004                                 i2u640_41 218E  
                               i2u632_41 2106                                 i2u624_41 207E  
                               i2u616_41 2000                                 i2u553_40 331E  
                               i2u560_48 313C                                 i2u641_40 21AA  
                               i2u633_40 2122                                 i2u625_40 209A  
                               i2u617_40 2016                                 i2u553_41 331A  
                               i2u560_49 314E                                 i2u641_41 21A6  
                               i2u633_41 211E                                 i2u625_41 2096  
                               i2u617_41 2012                                 i2u554_40 3304  
                               i2u650_40 2240                                 i2u642_40 21B8  
                               i2u634_40 2130                                 i2u626_40 20A8  
                               i2u618_40 2024                                 i2u554_41 3300  
                               i2u650_41 223C                                 i2u642_41 21B4  
                               i2u634_41 212C                                 i2u626_41 20A4  
                               i2u618_41 2020                                 i2u555_40 32EA  
                               i2u651_40 224E                                 i2u643_40 21C6  
                               i2u635_40 213E                                 i2u627_40 20B6  
                               i2u619_40 2036                                 i2u555_41 32E6  
                               i2u651_41 224A                                 i2u643_41 21C2  
                               i2u635_41 213A                                 i2u627_41 20B2  
                               i2u619_41 2032                                 i2u556_40 32D0  
                               i2u660_40 22E4                                 i2u652_40 225E  
                               i2u644_40 21D6                                 i2u636_40 214E  
                               i2u628_40 20C6                                 i2u556_41 32CC  
                               i2u660_41 22E0                                 i2u652_41 225A  
                               i2u644_41 21D2                                 i2u636_41 214A  
                               i2u628_41 20C2                                 i2u557_40 3100  
                               i2u661_40 22F6                                 i2u653_40 2276  
                               i2u645_40 21EE                                 i2u637_40 2166  
                               i2u629_40 20DE                                 i2u557_41 30FC  
                               i2u661_41 22F2                                 i2u653_41 2272  
                               i2u645_41 21EA                                 i2u637_41 2162  
                               i2u629_41 20DA                                 i2u662_40 2304  
                               i2u654_40 2284                                 i2u646_40 21FC  
                               i2u638_40 2174                                 i2u662_41 2300  
                               i2u654_41 2280                                 i2u646_41 21F8  
                               i2u638_41 2170                                 i2u559_40 3136  
                               i2u558_48 3106                                 i2u655_40 2296  
                               i2u647_40 220A                                 i2u639_40 2182  
                               i2u559_41 3132                                 i2u558_49 3118  
                               i2u655_41 2292                                 i2u647_41 2206  
                               i2u639_41 217E                                 i2u656_40 22A4  
                               i2u648_40 221A                                 i2u656_41 22A0  
                               i2u648_41 2216                                 i2u657_40 22B6  
                               i2u649_40 2232                                 i2u657_41 22B2  
                               i2u649_41 222E                                 i2u658_40 22C4  
                               i2u658_41 22C0                                 i2u659_40 22D6  
                               i2u659_41 22D2                                 _RCONbits 0FD0  
                               _TMR1_ISR 30AE                                 _TMR2_ISR 3376  
                               _TMR3_ISR 335E                   ??i2_Timer1_Write_value 0005  
                 Timer1_Read_value@tmr1h 0019                   Timer1_Read_value@tmr1l 0018  
                        ?_InterruptCheck 0001                                 _TMRO_ISR 3078  
                             _ADCON0bits 0FC2                               _ADCON1bits 0FC1  
                             _ADCON2bits 0FC0                     ??_gpio_pin_intialize 0032  
            ??i2_timer1_interruptHundler 000C          __end_ofi2_gpio_pin_toggle_logic 2D6C  
                gpio_pin_write_logic@ret 002F                              _INTCON2bits 0FF1  
                            _INTCON3bits 0FF0                                copy_data0 2D80  
                              copy_data1 2DA0                                copy_data2 2DC0  
                             _EECON1bits 0FA6                                 __Hrparam 0000  
                               __Lrparam 0000                        RB6_ISR@RB6_Source 0012  
                               _ccp1_obj 00D2                    _TMR1_InterruptHandler 0039  
                               ___xxtofl 2512                 ?_timer0_interruptHundler 0001  
                          _app_intialize 321C                     _InterruptManagerHigh 0008  
                               __ptext10 2512                                 __ptext11 2936  
                               __ptext20 335E                                 __ptext12 14FE  
                               __ptext21 3376                                 __ptext13 192A  
                               __ptext30 338C                                 __ptext22 30AE  
                               __ptext31 3390                                 __ptext23 3324  
                               __ptext15 1CC6                                 __ptext40 336A  
                               __ptext32 3394                                 __ptext24 2DFA  
                               __ptext16 3078                                 __ptext41 337E  
                               __ptext33 3398                                 __ptext25 2C48  
                               __ptext17 3150                                 __ptext50 339C  
                               __ptext42 311A                                 __ptext26 3254  
                               __ptext18 31DC                                 __ptext51 33A0  
                               __ptext43 3350                                 __ptext35 1FE8  
                               __ptext27 326E                                 __ptext19 2EDE  
                               __ptext52 33A4                                 __ptext44 2E6C  
                               __ptext36 30E4                                 __ptext28 3288  
                               __ptext53 33A8                                 __ptext45 2CDA  
                               __ptext37 31B2                                 __ptext29 32A2  
                               __ptext54 0000                                 __ptext46 32BC  
                               __ptext38 31FC                                 __ptext47 32D6  
                               __ptext39 2F3C                                 __ptext48 32F0  
                               __ptext49 330A                  __end_of_CCP1_PWM1_Start 3350  
                     led_turn_toggle@led 0019                i2Timer1_Read_value@_value 0003  
              i2Timer1_Read_value@_timer 0001                i2_timer1_interruptHundler 3350  
       __end_of_CCP1_PWM1_Set_Duty_Cycle 2B6A               __end_of_Timer1_Write_value 31FC  
                               isa$xinst 0000                                 int$flags 005A  
                           _timer0_count 004E                             _timer1_count 0053  
                             _INTCONbits 0FF2                           ?_app_intialize 0001  
                  ?_InterruptManagerHigh 0001                           Timer2_Init@ret 0029  
           __end_of_gpio_pin_write_logic 2936            _CCP1_PWM1_Set_Duty_Cycle$4196 0116  
                               intlevel1 0000                                 intlevel2 0000  
                    _InterruptManagerLow 0018                               i2_INT0_ISR 33A4  
                             i2_INT1_ISR 33A0                               i2_INT2_ISR 339C  
                      i2_led_turn_toggle 2E6C        _timer0_interruptHundler$intlevel1 315A  
                             i2_TMR1_ISR 311A                               i2_TMR2_ISR 337E  
                             i2_TMR3_ISR 336A                    _gpio_pin_toggle_logic 2C48  
                     ?i2_led_turn_toggle 0008                               i2_TMRO_ISR 30E4  
                   ?_InterruptManagerLow 0001                 i2led_turn_toggle@pin_obj 000B  
                         _port_registers 0123                        ?i2_InterruptCheck 0001  
                    ??i2_led_turn_toggle 000A                      i2RB5_ISR@RB5_Source 0001  
                     ??i2_InterruptCheck 000C                            ___fladd@signs 0108  
                       ?_CCP1_PWM1_Start 0001                             ___fladd@aexp 0109  
                           ___fladd@bexp 010A                    _TMR2_InterruptHandler 00F3  
              __end_ofi2_led_turn_toggle 2EDE                         ??_InterruptCheck 001D  
               ?_timer1_interruptHundler 0001  
