

Microchip MPLAB XC8 Assembler V2.41 build 20230208172133 
                                                                                               Mon May 22 19:53:00 2023

Microchip MPLAB XC8 C Compiler v2.41 (Free license) build 20230208172133 Og1 
     1                           	processor	18F4620
     2                           	fnconf	rparam,??,?,0
     3                           	pagewidth 120
     4                           	opt	flic
     5                           	psect	idataCOMRAM,global,class=CODE,delta=1,noexec
     6                           	psect	idataBANK0,global,class=CODE,delta=1,noexec
     7                           	psect	smallconst,global,reloc=2,class=SMALLCONST,delta=1,noexec
     8                           	psect	cinit,global,reloc=2,class=CODE,delta=1
     9                           	psect	bssCOMRAM,global,class=COMRAM,space=1,delta=1,lowdata,noexec
    10                           	psect	dataCOMRAM,global,class=COMRAM,space=1,delta=1,lowdata,noexec
    11                           	psect	bssBANK0,global,class=BANK0,space=1,delta=1,lowdata,noexec
    12                           	psect	dataBANK0,global,class=BANK0,space=1,delta=1,lowdata,noexec
    13                           	psect	cstackBANK0,global,class=BANK0,space=1,delta=1,lowdata,noexec
    14                           	psect	cstackCOMRAM,global,class=COMRAM,space=1,delta=1,lowdata,noexec
    15                           	psect	text0,global,reloc=2,class=CODE,delta=1
    16                           	psect	text1,global,reloc=2,class=CODE,delta=1
    17                           	psect	text2,global,reloc=2,class=CODE,delta=1
    18                           	psect	text3,global,reloc=2,class=CODE,delta=1
    19                           	psect	text4,global,reloc=2,class=CODE,delta=1
    20                           	psect	text5,global,reloc=2,class=CODE,delta=1
    21                           	psect	text6,global,reloc=2,class=CODE,delta=1
    22                           	psect	text7,global,reloc=2,class=CODE,delta=1
    23                           	psect	text8,global,reloc=2,class=CODE,delta=1
    24                           	psect	text9,global,reloc=2,class=CODE,delta=1
    25                           	psect	text10,global,reloc=2,class=CODE,delta=1
    26                           	psect	text11,global,reloc=2,class=CODE,delta=1
    27                           	psect	text12,global,reloc=2,class=CODE,delta=1
    28                           	psect	text13,global,reloc=2,class=CODE,delta=1
    29                           	psect	intcodelo,global,reloc=2,class=CODE,delta=1
    30                           	psect	text15,global,reloc=2,class=CODE,delta=1
    31                           	psect	text16,global,reloc=2,class=CODE,delta=1
    32                           	psect	text17,global,reloc=2,class=CODE,delta=1
    33                           	psect	text18,global,reloc=2,class=CODE,delta=1
    34                           	psect	text19,global,reloc=2,class=CODE,delta=1
    35                           	psect	text20,global,reloc=2,class=CODE,delta=1
    36                           	psect	text21,global,reloc=2,class=CODE,delta=1
    37                           	psect	text22,global,reloc=2,class=CODE,delta=1
    38                           	psect	text23,global,reloc=2,class=CODE,delta=1
    39                           	psect	text24,global,reloc=2,class=CODE,delta=1
    40                           	psect	intcode,global,reloc=2,class=CODE,delta=1
    41                           	psect	intcode_body,global,reloc=2,class=CODE,delta=1
    42                           	psect	text26,global,reloc=2,class=CODE,delta=1
    43                           	psect	text27,global,reloc=2,class=CODE,delta=1
    44                           	psect	text28,global,reloc=2,class=CODE,delta=1
    45                           	psect	text29,global,reloc=2,class=CODE,delta=1
    46                           	psect	text30,global,reloc=2,class=CODE,delta=1
    47                           	psect	text31,global,reloc=2,class=CODE,delta=1
    48                           	psect	text32,global,reloc=2,class=CODE,delta=1
    49                           	psect	text33,global,reloc=2,class=CODE,delta=1
    50                           	psect	text34,global,reloc=2,class=CODE,delta=1
    51                           	psect	text35,global,reloc=2,class=CODE,delta=1
    52                           	psect	intsave_regs,global,class=BIGRAM,space=1,delta=1,noexec
    53                           	psect	rparam,global,class=COMRAM,space=1,delta=1,noexec
    54                           	psect	temp,global,ovrld,common,class=COMRAM,space=1,delta=1
    55                           	psect	idloc,global,abs,ovrld,class=IDLOC,space=5,delta=1,noexec
    56                           	psect	config,global,abs,ovrld,class=CONFIG,space=4,delta=1,noexec
    57   000000                     
    58                           ; Version 2.40
    59                           ; Generated 17/11/2021 GMT
    60                           ; 
    61                           ; Copyright © 2021, Microchip Technology Inc. and its subsidiaries ("Microchip")
    62                           ; All rights reserved.
    63                           ; 
    64                           ; This software is developed by Microchip Technology Inc. and its subsidiaries ("Microch
      +                          ip").
    65                           ; 
    66                           ; Redistribution and use in source and binary forms, with or without modification, are
    67                           ; permitted provided that the following conditions are met:
    68                           ; 
    69                           ;     1. Redistributions of source code must retain the above copyright notice, this lis
      +                          t of
    70                           ;        conditions and the following disclaimer.
    71                           ; 
    72                           ;     2. Redistributions in binary form must reproduce the above copyright notice, this 
      +                          list
    73                           ;        of conditions and the following disclaimer in the documentation and/or other
    74                           ;        materials provided with the distribution. Publication is not required when
    75                           ;        this file is used in an embedded application.
    76                           ; 
    77                           ;     3. Microchip's name may not be used to endorse or promote products derived from th
      +                          is
    78                           ;        software without specific prior written permission.
    79                           ; 
    80                           ; THIS SOFTWARE IS PROVIDED BY MICROCHIP "AS IS" AND ANY EXPRESS OR IMPLIED WARRANTIES,
    81                           ; INCLUDING, BUT NOT LIMITED TO, THE IMPLIED WARRANTIES OF MERCHANTABILITY AND FITNESS F
      +                          OR
    82                           ; PURPOSE ARE DISCLAIMED.  IN NO EVENT SHALL MICROCHIP BE LIABLE FOR ANY DIRECT, INDIREC
      +                          T,
    83                           ; INCIDENTAL, SPECIAL, EXEMPLARY, OR CONSEQUENTIAL DAMAGES (INCLUDING BUT NOT LIMITED TO
    84                           ; PROCUREMENT OF SUBSTITUTE GOODS OR SERVICES; LOSS OF USE, DATA OR PROFITS; OR BUSINESS
    85                           ; INTERRUPTION) HOWSOEVER CAUSED AND ON ANY THEORY OF LIABILITY, WHETHER IN CONTRACT, ST
      +                          RICT
    86                           ; LIABILITY, OR TORT (INCLUDING NEGLIGENCE OR OTHERWISE) ARISING IN ANY WAY OUT OF THE U
      +                          SE OF
    87                           ; THIS SOFTWARE, EVEN IF ADVISED OF THE POSSIBILITY OF SUCH DAMAGE.
    88                           ; 
    89                           ; 
    90                           ; Code-generator required, PIC18F4620 Definitions
    91                           ; 
    92                           ; SFR Addresses
    93   000000                     
    94                           	psect	idataCOMRAM
    95   001E3C                     __pidataCOMRAM:
    96                           	callstack 0
    97                           
    98                           ;initializer for _port_registers
    99   001E3C  80                 	db	128
   100   001E3D  0F                 	db	15
   101   001E3E  81                 	db	129
   102   001E3F  0F                 	db	15
   103   001E40  82                 	db	130
   104   001E41  0F                 	db	15
   105   001E42  83                 	db	131
   106   001E43  0F                 	db	15
   107   001E44  84                 	db	132
   108   001E45  0F                 	db	15
   109                           
   110                           ;initializer for _lat_registers
   111   001E46  89                 	db	137
   112   001E47  0F                 	db	15
   113   001E48  8A                 	db	138
   114   001E49  0F                 	db	15
   115   001E4A  8B                 	db	139
   116   001E4B  0F                 	db	15
   117   001E4C  8C                 	db	140
   118   001E4D  0F                 	db	15
   119   001E4E  8D                 	db	141
   120   001E4F  0F                 	db	15
   121                           
   122                           ;initializer for _tris_registers
   123   001E50  92                 	db	146
   124   001E51  0F                 	db	15
   125   001E52  93                 	db	147
   126   001E53  0F                 	db	15
   127   001E54  94                 	db	148
   128   001E55  0F                 	db	15
   129   001E56  95                 	db	149
   130   001E57  0F                 	db	15
   131   001E58  96                 	db	150
   132   001E59  0F                 	db	15
   133                           
   134                           ;initializer for _lcd_1
   135   001E5A  02                 	db	2
   136   001E5B  0A                 	db	10
   137   001E5C  12                 	db	18
   138   001E5D  1A                 	db	26
   139   001E5E  22                 	db	34
   140   001E5F  2A                 	db	42
   141                           
   142                           ;initializer for _RB7_Flag
   143   001E60  01                 	db	1
   144                           
   145                           ;initializer for _RB6_Flag
   146   001E61  01                 	db	1
   147                           
   148                           ;initializer for _RB5_Flag
   149   001E62  01                 	db	1
   150                           
   151                           ;initializer for _RB4_Flag
   152   001E63  01                 	db	1
   153                           
   154                           ;initializer for _btn_low
   155   001E64  5A                 	db	90
   156   001E65  00                 	db	0
   157                           
   158                           ;initializer for _btn_high
   159   001E66  52                 	db	82
   160   001E67  01                 	db	1
   161                           
   162                           ;initializer for _led2
   163   001E68  12                 	db	18
   164                           
   165                           ;initializer for _led1
   166   001E69  02                 	db	2
   167                           
   168                           	psect	idataBANK0
   169   001F7E                     __pidataBANK0:
   170                           	callstack 0
   171                           
   172                           ;initializer for _lcd_2
   173   001F7E  32                 	db	50
   174   001F7F  3A                 	db	58
   175   001F80  03                 	db	3
   176   001F81  0B                 	db	11
   177   001F82  13                 	db	19
   178   001F83  1B                 	db	27
   179   001F84  23                 	db	35
   180   001F85  2B                 	db	43
   181   001F86  33                 	db	51
   182   001F87  3B                 	db	59
   183   000000                     _TMR0L	set	4054
   184   000000                     _TMR0H	set	4055
   185   000000                     _INTCON2bits	set	4081
   186   000000                     _EECON2	set	4007
   187   000000                     _ADCON1bits	set	4033
   188   000000                     _ADRESL	set	4035
   189   000000                     _ADRESH	set	4036
   190   000000                     _RCONbits	set	4048
   191   000000                     _TRISD	set	3989
   192   000000                     _TRISC	set	3988
   193   000000                     _TRISB	set	3987
   194   000000                     _TRISE	set	3990
   195   000000                     _PORTBbits	set	3969
   196   000000                     _PIE1bits	set	3997
   197   000000                     _ADCON2bits	set	4032
   198   000000                     _ADCON0bits	set	4034
   199   000000                     _PORTE	set	3972
   200   000000                     _PORTD	set	3971
   201   000000                     _PORTC	set	3970
   202   000000                     _PORTB	set	3969
   203   000000                     _PORTA	set	3968
   204   000000                     _LATA	set	3977
   205   000000                     _TRISA	set	3986
   206   000000                     _EECON1bits	set	4006
   207   000000                     _EEDATA	set	4008
   208   000000                     _EEADR	set	4009
   209   000000                     _EEADRH	set	4010
   210   000000                     _IPR1bits	set	3999
   211   000000                     _PIR1bits	set	3998
   212   000000                     _T0CONbits	set	4053
   213   000000                     _INTCON3bits	set	4080
   214   000000                     _INTCONbits	set	4082
   215   000000                     _LATE	set	3981
   216   000000                     _LATD	set	3980
   217   000000                     _LATC	set	3979
   218   000000                     _LATB	set	3978
   219                           
   220                           	psect	smallconst
   221   001000                     __psmallconst:
   222                           	callstack 0
   223   001000  00                 	db	0
   224   001001                     STR_1:
   225   001001  25                 	db	37
   226   001002  69                 	db	105	;'i'
   227   001003  00                 	db	0
   228   001004  00                 	db	0	; dummy byte at the end
   229   000000                     
   230                           ; #config settings
   231                           
   232                           	psect	cinit
   233   001C58                     __pcinit:
   234                           	callstack 0
   235   001C58                     start_initialization:
   236                           	callstack 0
   237   001C58                     __initialization:
   238                           	callstack 0
   239                           
   240                           ; Initialize objects allocated to BANK0 (10 bytes)
   241                           ; load TBLPTR registers with __pidataBANK0
   242   001C58  0E7E               	movlw	low __pidataBANK0
   243   001C5A  6EF6               	movwf	tblptrl,c
   244   001C5C  0E1F               	movlw	high __pidataBANK0
   245   001C5E  6EF7               	movwf	tblptrh,c
   246   001C60  0E00               	movlw	low (__pidataBANK0 shr (0+16))
   247   001C62  6EF8               	movwf	tblptru,c
   248   001C64  EE00  F08B         	lfsr	0,__pdataBANK0
   249   001C68  EE10 F00A          	lfsr	1,10
   250   001C6C                     copy_data0:
   251   001C6C  0009               	tblrd		*+
   252   001C6E  CFF5 FFEE          	movff	tablat,postinc0
   253   001C72  50E5               	movf	postdec1,w,c
   254   001C74  50E1               	movf	fsr1l,w,c
   255   001C76  E1FA               	bnz	copy_data0
   256                           
   257                           ; Initialize objects allocated to COMRAM (46 bytes)
   258                           ; load TBLPTR registers with __pidataCOMRAM
   259   001C78  0E3C               	movlw	low __pidataCOMRAM
   260   001C7A  6EF6               	movwf	tblptrl,c
   261   001C7C  0E1E               	movlw	high __pidataCOMRAM
   262   001C7E  6EF7               	movwf	tblptrh,c
   263   001C80  0E00               	movlw	low (__pidataCOMRAM shr (0+16))
   264   001C82  6EF8               	movwf	tblptru,c
   265   001C84  EE00  F035         	lfsr	0,__pdataCOMRAM
   266   001C88  EE10 F02E          	lfsr	1,46
   267   001C8C                     copy_data1:
   268   001C8C  0009               	tblrd		*+
   269   001C8E  CFF5 FFEE          	movff	tablat,postinc0
   270   001C92  50E5               	movf	postdec1,w,c
   271   001C94  50E1               	movf	fsr1l,w,c
   272   001C96  E1FA               	bnz	copy_data1
   273                           
   274                           ; Clear objects allocated to BANK0 (11 bytes)
   275   001C98  EE00  F080         	lfsr	0,__pbssBANK0
   276   001C9C  0E0B               	movlw	11
   277   001C9E                     clear_0:
   278   001C9E  6AEE               	clrf	postinc0,c
   279   001CA0  06E8               	decf	wreg,f,c
   280   001CA2  E1FD               	bnz	clear_0
   281                           
   282                           ; Clear objects allocated to COMRAM (52 bytes)
   283   001CA4  EE00  F001         	lfsr	0,__pbssCOMRAM
   284   001CA8  0E34               	movlw	52
   285   001CAA                     clear_1:
   286   001CAA  6AEE               	clrf	postinc0,c
   287   001CAC  06E8               	decf	wreg,f,c
   288   001CAE  E1FD               	bnz	clear_1
   289   001CB0                     end_of_initialization:
   290                           	callstack 0
   291   001CB0                     __end_of__initialization:
   292                           	callstack 0
   293   001CB0  907A               	bcf	int$flags,0,c	;clear compiler interrupt flag (level 1)
   294   001CB2  927A               	bcf	int$flags,1,c	;clear compiler interrupt flag (level 2)
   295   001CB4  0100               	movlb	0
   296   001CB6  EFC5  F00A         	goto	_main	;jump to C main() function
   297                           
   298                           	psect	bssCOMRAM
   299   000001                     __pbssCOMRAM:
   300                           	callstack 0
   301   000001                     	ds	6
   302   000007                     	ds	4
   303   00000B                     _timer0_preload:
   304                           	callstack 0
   305   00000B                     	ds	2
   306   00000D                     _TMR0_InterruptHandler:
   307                           	callstack 0
   308   00000D                     	ds	2
   309   00000F                     _btn_low_valid:
   310                           	callstack 0
   311   00000F                     	ds	2
   312   000011                     _btn_high_valid:
   313                           	callstack 0
   314   000011                     	ds	2
   315   000013                     _RB7_InterruptHandler_LOW:
   316                           	callstack 0
   317   000013                     	ds	2
   318   000015                     _RB7_InterruptHandler_HIGH:
   319                           	callstack 0
   320   000015                     	ds	2
   321   000017                     _RB6_InterruptHandler_LOW:
   322                           	callstack 0
   323   000017                     	ds	2
   324   000019                     _RB6_InterruptHandler_HIGH:
   325                           	callstack 0
   326   000019                     	ds	2
   327   00001B                     _RB5_InterruptHandler_LOW:
   328                           	callstack 0
   329   00001B                     	ds	2
   330   00001D                     _RB5_InterruptHandler_HIGH:
   331                           	callstack 0
   332   00001D                     	ds	2
   333   00001F                     _RB4_InterruptHandler_LOW:
   334                           	callstack 0
   335   00001F                     	ds	2
   336   000021                     _RB4_InterruptHandler_HIGH:
   337                           	callstack 0
   338   000021                     	ds	2
   339   000023                     _INT2_InterruptHandler:
   340                           	callstack 0
   341   000023                     	ds	2
   342   000025                     _INT1_InterruptHandler:
   343                           	callstack 0
   344   000025                     	ds	2
   345   000027                     _INT0_InterruptHandler:
   346                           	callstack 0
   347   000027                     	ds	2
   348   000029                     _ADC_InterruptHandler:
   349                           	callstack 0
   350   000029                     	ds	2
   351   00002B                     _Program_Selected:
   352                           	callstack 0
   353   00002B                     	ds	1
   354   00002C                     _flag_low:
   355                           	callstack 0
   356   00002C                     	ds	1
   357   00002D                     _btn_high_last_valid_status:
   358                           	callstack 0
   359   00002D                     	ds	1
   360   00002E                     _btn_high_valid_status:
   361                           	callstack 0
   362   00002E                     	ds	1
   363   00002F                     led_turn_toggle@F3063:
   364                           	callstack 0
   365   00002F                     	ds	1
   366   000030                     led_turn_off@F3058:
   367                           	callstack 0
   368   000030                     	ds	1
   369   000031                     led_turn_on@F3053:
   370                           	callstack 0
   371   000031                     	ds	1
   372   000032                     led_initialize@F3048:
   373                           	callstack 0
   374   000032                     	ds	1
   375   000033                     _btn_high_status:
   376                           	callstack 0
   377   000033                     	ds	1
   378   000034                     _btn_low_status:
   379                           	callstack 0
   380   000034                     	ds	1
   381                           
   382                           	psect	dataCOMRAM
   383   000035                     __pdataCOMRAM:
   384                           	callstack 0
   385   000035                     _port_registers:
   386                           	callstack 0
   387   000035                     	ds	10
   388   00003F                     _lat_registers:
   389                           	callstack 0
   390   00003F                     	ds	10
   391   000049                     _tris_registers:
   392                           	callstack 0
   393   000049                     	ds	10
   394   000053                     _lcd_1:
   395                           	callstack 0
   396   000053                     	ds	6
   397   000059                     _RB7_Flag:
   398                           	callstack 0
   399   000059                     	ds	1
   400   00005A                     _RB6_Flag:
   401                           	callstack 0
   402   00005A                     	ds	1
   403   00005B                     _RB5_Flag:
   404                           	callstack 0
   405   00005B                     	ds	1
   406   00005C                     _RB4_Flag:
   407                           	callstack 0
   408   00005C                     	ds	1
   409   00005D                     _btn_low:
   410                           	callstack 0
   411   00005D                     	ds	2
   412   00005F                     _btn_high:
   413                           	callstack 0
   414   00005F                     	ds	2
   415   000061                     _led2:
   416                           	callstack 0
   417   000061                     	ds	1
   418   000062                     _led1:
   419                           	callstack 0
   420   000062                     	ds	1
   421                           
   422                           	psect	bssBANK0
   423   000080                     __pbssBANK0:
   424                           	callstack 0
   425   000080                     	ds	11
   426                           
   427                           	psect	dataBANK0
   428   00008B                     __pdataBANK0:
   429                           	callstack 0
   430   00008B                     _lcd_2:
   431                           	callstack 0
   432   00008B                     	ds	10
   433                           
   434                           	psect	cstackBANK0
   435   000095                     __pcstackBANK0:
   436                           	callstack 0
   437   000095                     ??_main:
   438                           
   439                           ; 1 bytes @ 0x0
   440   000095                     	ds	2
   441                           
   442                           	psect	cstackCOMRAM
   443   000063                     __pcstackCOMRAM:
   444                           	callstack 0
   445   000063                     i2RB4_ISR@RB4_Source:
   446                           	callstack 0
   447   000063                     i2RB5_ISR@RB5_Source:
   448                           	callstack 0
   449   000063                     i2RB6_ISR@RB6_Source:
   450                           	callstack 0
   451   000063                     i2RB7_ISR@RB7_Source:
   452                           	callstack 0
   453                           
   454                           ; 1 bytes @ 0x0
   455   000063                     	ds	1
   456   000064                     RB4_ISR@RB4_Source:
   457                           	callstack 0
   458   000064                     RB5_ISR@RB5_Source:
   459                           	callstack 0
   460   000064                     RB6_ISR@RB6_Source:
   461                           	callstack 0
   462   000064                     RB7_ISR@RB7_Source:
   463                           	callstack 0
   464                           
   465                           ; 1 bytes @ 0x1
   466   000064                     	ds	1
   467   000065                     ??_InterruptManagerLow:
   468                           
   469                           ; 1 bytes @ 0x2
   470   000065                     	ds	3
   471   000068                     gpio_pin_direction_intialize@_pin_config:
   472                           	callstack 0
   473   000068                     gpio_pin_write_logic@_pin_config:
   474                           	callstack 0
   475   000068                     gpio_pin_read_logic@_pin_config:
   476                           	callstack 0
   477                           
   478                           ; 2 bytes @ 0x5
   479   000068                     	ds	2
   480   00006A                     ??_gpio_pin_direction_intialize:
   481   00006A                     gpio_pin_write_logic@logic:
   482                           	callstack 0
   483   00006A                     gpio_pin_read_logic@logic:
   484                           	callstack 0
   485                           
   486                           ; 2 bytes @ 0x7
   487   00006A                     	ds	1
   488   00006B                     ??_gpio_pin_write_logic:
   489                           
   490                           ; 1 bytes @ 0x8
   491   00006B                     	ds	1
   492   00006C                     ??_gpio_pin_read_logic:
   493                           
   494                           ; 1 bytes @ 0x9
   495   00006C                     	ds	4
   496   000070                     gpio_pin_direction_intialize@ret:
   497                           	callstack 0
   498                           
   499                           ; 1 bytes @ 0xD
   500   000070                     	ds	1
   501   000071                     gpio_pin_write_logic@ret:
   502                           	callstack 0
   503   000071                     gpio_pin_read_logic@ret:
   504                           	callstack 0
   505   000071                     button_initialize@btn:
   506                           	callstack 0
   507                           
   508                           ; 2 bytes @ 0xE
   509   000071                     	ds	1
   510   000072                     button_read_state@btn:
   511                           	callstack 0
   512   000072                     led_turn_on@led:
   513                           	callstack 0
   514   000072                     led_turn_off@led:
   515                           	callstack 0
   516   000072                     gpio_pin_intialize@_pin_config:
   517                           	callstack 0
   518                           
   519                           ; 2 bytes @ 0xF
   520   000072                     	ds	1
   521   000073                     button_initialize@ret:
   522                           	callstack 0
   523                           
   524                           ; 1 bytes @ 0x10
   525   000073                     	ds	1
   526   000074                     ??_led_turn_on:
   527   000074                     ??_led_turn_off:
   528   000074                     gpio_pin_intialize@ret:
   529                           	callstack 0
   530   000074                     button_read_state@btn_state:
   531                           	callstack 0
   532                           
   533                           ; 2 bytes @ 0x11
   534   000074                     	ds	1
   535   000075                     led_turn_on@pin_obj:
   536                           	callstack 0
   537   000075                     led_turn_off@pin_obj:
   538                           	callstack 0
   539   000075                     led_initialize@led:
   540                           	callstack 0
   541                           
   542                           ; 2 bytes @ 0x12
   543   000075                     	ds	1
   544   000076                     ??_program_1:
   545   000076                     ??_program_2:
   546   000076                     ??_program_3:
   547   000076                     
   548                           ; 1 bytes @ 0x13
   549   000076                     	ds	1
   550   000077                     ??_led_initialize:
   551   000077                     button_read_state@ret:
   552                           	callstack 0
   553                           
   554                           ; 1 bytes @ 0x14
   555   000077                     	ds	1
   556   000078                     button_read_state@pin_logic_status:
   557                           	callstack 0
   558   000078                     led_initialize@ret:
   559                           	callstack 0
   560   000078                     program_2@counter:
   561                           	callstack 0
   562   000078                     program_3@counter:
   563                           	callstack 0
   564                           
   565                           ; 1 bytes @ 0x15
   566   000078                     	ds	1
   567   000079                     led_initialize@pin_obj:
   568                           	callstack 0
   569                           
   570                           ; 1 bytes @ 0x16
   571   000079                     	ds	1
   572   00007A                     
   573                           ; 1 bytes @ 0x17
   574 ;;
   575 ;;Main: autosize = 0, tempsize = 2, incstack = 0, save=0
   576 ;;
   577 ;; *************** function _main *****************
   578 ;; Defined at:
   579 ;;		line 38 in file "application.c"
   580 ;; Parameters:    Size  Location     Type
   581 ;;		None
   582 ;; Auto vars:     Size  Location     Type
   583 ;;  ret             1    0        unsigned char 
   584 ;; Return value:  Size  Location     Type
   585 ;;                  2  917[None  ] int 
   586 ;; Registers used:
   587 ;;		wreg, fsr2l, fsr2h, status,2, status,0, prodl, prodh, cstack
   588 ;; Tracked objects:
   589 ;;		On entry : 0/0
   590 ;;		On exit  : 0/0
   591 ;;		Unchanged: 0/0
   592 ;; Data sizes:     COMRAM   BANK0   BANK1   BANK2   BANK3   BANK4   BANK5   BANK6   BANK7   BANK8   BANK9  BANK10  BANK1
      +1  BANK12  BANK13  BANK14  BANK15
   593 ;;      Params:         0       0       0       0       0       0       0       0       0       0       0       0       
      +0       0       0       0       0
   594 ;;      Locals:         0       0       0       0       0       0       0       0       0       0       0       0       
      +0       0       0       0       0
   595 ;;      Temps:          0       2       0       0       0       0       0       0       0       0       0       0       
      +0       0       0       0       0
   596 ;;      Totals:         0       2       0       0       0       0       0       0       0       0       0       0       
      +0       0       0       0       0
   597 ;;Total ram usage:        2 bytes
   598 ;; Hardware stack levels required when called: 10
   599 ;; This function calls:
   600 ;;		_app_intialize
   601 ;;		_button_read_state
   602 ;;		_led_turn_off
   603 ;;		_led_turn_on
   604 ;;		_program_1
   605 ;;		_program_2
   606 ;;		_program_3
   607 ;; This function is called by:
   608 ;;		Startup code after reset
   609 ;; This function uses a non-reentrant model
   610 ;;
   611                           
   612                           	psect	text0
   613   00158A                     __ptext0:
   614                           	callstack 0
   615   00158A                     _main:
   616                           	callstack 21
   617   00158A                     
   618                           ;application.c: 40:     app_intialize();
   619   00158A  EC05  F00F         	call	_app_intialize	;wreg free
   620   00158E                     l4640:
   621   00158E  0E5F               	movlw	low _btn_high
   622   001590  6E72               	movwf	button_read_state@btn^0,c
   623   001592  0E00               	movlw	high _btn_high
   624   001594  6E73               	movwf	(button_read_state@btn+1)^0,c
   625   001596  0E33               	movlw	low _btn_high_status
   626   001598  6E74               	movwf	button_read_state@btn_state^0,c
   627   00159A  0E00               	movlw	high _btn_high_status
   628   00159C  6E75               	movwf	(button_read_state@btn_state+1)^0,c
   629   00159E  ECB9  F00C         	call	_button_read_state	;wreg free
   630   0015A2  0E5D               	movlw	low _btn_low
   631   0015A4  6E72               	movwf	button_read_state@btn^0,c
   632   0015A6  0E00               	movlw	high _btn_low
   633   0015A8  6E73               	movwf	(button_read_state@btn+1)^0,c
   634   0015AA  0E34               	movlw	low _btn_low_status
   635   0015AC  6E74               	movwf	button_read_state@btn_state^0,c
   636   0015AE  0E00               	movlw	high _btn_low_status
   637   0015B0  6E75               	movwf	(button_read_state@btn_state+1)^0,c
   638   0015B2  ECB9  F00C         	call	_button_read_state	;wreg free
   639   0015B6                     
   640                           ;application.c: 47:         if(BUTTON_PRESSED == btn_high_status){
   641   0015B6  0433               	decf	_btn_high_status^0,w,c
   642   0015B8  A4D8               	btfss	status,2,c
   643   0015BA  EFE1  F00A         	goto	u3871
   644   0015BE  EFE3  F00A         	goto	u3870
   645   0015C2                     u3871:
   646   0015C2  EFF4  F00A         	goto	l4652
   647   0015C6                     u3870:
   648   0015C6                     
   649                           ;application.c: 48:             btn_high_valid++;
   650   0015C6  4A11               	infsnz	_btn_high_valid^0,f,c
   651   0015C8  2A12               	incf	(_btn_high_valid+1)^0,f,c
   652   0015CA                     
   653                           ;application.c: 49:             if(btn_high_valid > 500){
   654   0015CA  0EF5               	movlw	245
   655   0015CC  5C11               	subwf	_btn_high_valid^0,w,c
   656   0015CE  0E01               	movlw	1
   657   0015D0  5812               	subwfb	(_btn_high_valid+1)^0,w,c
   658   0015D2  A0D8               	btfss	status,0,c
   659   0015D4  EFEE  F00A         	goto	u3881
   660   0015D8  EFF0  F00A         	goto	u3880
   661   0015DC                     u3881:
   662   0015DC  EFFA  F00A         	goto	l4654
   663   0015E0                     u3880:
   664   0015E0                     
   665                           ;application.c: 50:                 btn_high_valid_status = BUTTON_PRESSED;
   666   0015E0  0E01               	movlw	1
   667   0015E2  6E2E               	movwf	_btn_high_valid_status^0,c
   668   0015E4  EFFA  F00A         	goto	l4654
   669   0015E8                     l4652:
   670                           
   671                           ;application.c: 54:             btn_high_valid = 0;
   672   0015E8  0E00               	movlw	0
   673   0015EA  6E12               	movwf	(_btn_high_valid+1)^0,c
   674   0015EC  0E00               	movlw	0
   675   0015EE  6E11               	movwf	_btn_high_valid^0,c
   676                           
   677                           ;application.c: 55:             btn_high_valid_status = BUTTON_RELEASED;
   678   0015F0  0E00               	movlw	0
   679   0015F2  6E2E               	movwf	_btn_high_valid_status^0,c
   680   0015F4                     l4654:
   681                           
   682                           ;application.c: 58:         if(btn_high_valid_status != btn_high_last_valid_status){
   683   0015F4  502D               	movf	_btn_high_last_valid_status^0,w,c
   684   0015F6  182E               	xorwf	_btn_high_valid_status^0,w,c
   685   0015F8  B4D8               	btfsc	status,2,c
   686   0015FA  EF01  F00B         	goto	u3891
   687   0015FE  EF03  F00B         	goto	u3890
   688   001602                     u3891:
   689   001602  EF41  F00B         	goto	l4676
   690   001606                     u3890:
   691   001606                     
   692                           ;application.c: 59:             btn_high_last_valid_status = btn_high_valid_status;
   693   001606  C02E  F02D         	movff	_btn_high_valid_status,_btn_high_last_valid_status
   694   00160A                     
   695                           ;application.c: 60:             if(BUTTON_PRESSED == btn_high_valid_status){
   696   00160A  042E               	decf	_btn_high_valid_status^0,w,c
   697   00160C  A4D8               	btfss	status,2,c
   698   00160E  EF0B  F00B         	goto	u3901
   699   001612  EF0D  F00B         	goto	u3900
   700   001616                     u3901:
   701   001616  EF41  F00B         	goto	l4676
   702   00161A                     u3900:
   703   00161A                     
   704                           ;application.c: 61:                 if(3 == Program_Selected){
   705   00161A  0E03               	movlw	3
   706   00161C  182B               	xorwf	_Program_Selected^0,w,c
   707   00161E  A4D8               	btfss	status,2,c
   708   001620  EF14  F00B         	goto	u3911
   709   001624  EF16  F00B         	goto	u3910
   710   001628                     u3911:
   711   001628  EF18  F00B         	goto	l4664
   712   00162C                     u3910:
   713   00162C                     
   714                           ;application.c: 62:                     Program_Selected = 0;
   715   00162C  0E00               	movlw	0
   716   00162E  6E2B               	movwf	_Program_Selected^0,c
   717   001630                     l4664:
   718                           
   719                           ;application.c: 65:                 Program_Selected++;
   720   001630  2A2B               	incf	_Program_Selected^0,f,c
   721                           
   722                           ;application.c: 67:                 switch(Program_Selected){
   723   001632  EF27  F00B         	goto	l4674
   724   001636                     l4666:
   725                           
   726                           ; BSR set to: 0
   727   001636  ECE2  F00E         	call	_program_1	;wreg free
   728   00163A  EF41  F00B         	goto	l4676
   729   00163E                     l4668:
   730                           
   731                           ; BSR set to: 0
   732   00163E  EC8D  F00E         	call	_program_2	;wreg free
   733   001642  EF41  F00B         	goto	l4676
   734   001646                     l4670:
   735                           
   736                           ; BSR set to: 0
   737   001646  EC5D  F00E         	call	_program_3	;wreg free
   738   00164A  EF41  F00B         	goto	l4676
   739   00164E                     l4674:
   740   00164E  502B               	movf	_Program_Selected^0,w,c
   741   001650  0100               	movlb	0	; () banked
   742   001652  6F95               	movwf	??_main& (0+255),b
   743   001654  6B96               	clrf	(??_main+1)& (0+255),b
   744                           
   745                           ; Switch on 2 bytes has been partitioned into a top level switch of size 1, and 1 sub-sw
      +                          itches
   746                           ; Switch size 1, requested type "simple"
   747                           ; Number of cases is 1, Range of values is 0 to 0
   748                           ; switch strategies available:
   749                           ; Name         Instructions Cycles
   750                           ; simple_byte            4     3 (average)
   751                           ;	Chosen strategy is simple_byte
   752   001656  5196               	movf	(??_main+1)& (0+255),w,b
   753   001658  0A00               	xorlw	0	; case 0
   754   00165A  B4D8               	btfsc	status,2,c
   755   00165C  EF32  F00B         	goto	l4762
   756   001660  EF41  F00B         	goto	l932
   757   001664                     l4762:
   758                           
   759                           ; BSR set to: 0
   760                           ; Switch size 1, requested type "simple"
   761                           ; Number of cases is 3, Range of values is 1 to 3
   762                           ; switch strategies available:
   763                           ; Name         Instructions Cycles
   764                           ; simple_byte           10     6 (average)
   765                           ;	Chosen strategy is simple_byte
   766   001664  5195               	movf	??_main& (0+255),w,b
   767   001666  0A01               	xorlw	1	; case 1
   768   001668  B4D8               	btfsc	status,2,c
   769   00166A  EF1B  F00B         	goto	l4666
   770   00166E  0A03               	xorlw	3	; case 2
   771   001670  B4D8               	btfsc	status,2,c
   772   001672  EF1F  F00B         	goto	l4668
   773   001676  0A01               	xorlw	1	; case 3
   774   001678  B4D8               	btfsc	status,2,c
   775   00167A  EF23  F00B         	goto	l4670
   776   00167E  EF41  F00B         	goto	l932
   777   001682                     l932:
   778   001682                     l4676:
   779                           
   780                           ;application.c: 78:         if((BUTTON_PRESSED == btn_low_status) && (0 == flag_low)){
   781   001682  0434               	decf	_btn_low_status^0,w,c
   782   001684  A4D8               	btfss	status,2,c
   783   001686  EF47  F00B         	goto	u3921
   784   00168A  EF49  F00B         	goto	u3920
   785   00168E                     u3921:
   786   00168E  EF5D  F00B         	goto	l4686
   787   001692                     u3920:
   788   001692  502C               	movf	_flag_low^0,w,c
   789   001694  A4D8               	btfss	status,2,c
   790   001696  EF4F  F00B         	goto	u3931
   791   00169A  EF51  F00B         	goto	u3930
   792   00169E                     u3931:
   793   00169E  EF5D  F00B         	goto	l4686
   794   0016A2                     u3930:
   795   0016A2                     
   796                           ;application.c: 79:             led_turn_on(&led2);
   797   0016A2  0E61               	movlw	low _led2
   798   0016A4  6E72               	movwf	led_turn_on@led^0,c
   799   0016A6  0E00               	movlw	high _led2
   800   0016A8  6E73               	movwf	(led_turn_on@led+1)^0,c
   801   0016AA  ECB6  F00D         	call	_led_turn_on	;wreg free
   802   0016AE                     
   803                           ;application.c: 80:             btn_low_valid++;
   804   0016AE  4A0F               	infsnz	_btn_low_valid^0,f,c
   805   0016B0  2A10               	incf	(_btn_low_valid+1)^0,f,c
   806   0016B2                     
   807                           ;application.c: 81:             flag_low = 1;
   808   0016B2  0E01               	movlw	1
   809   0016B4  6E2C               	movwf	_flag_low^0,c
   810                           
   811                           ;application.c: 83:         }else if ((BUTTON_PRESSED == btn_low_status) && (1 == flag_l
      +                          ow)){
   812   0016B6  EFC7  F00A         	goto	l4640
   813   0016BA                     l4686:
   814   0016BA  0434               	decf	_btn_low_status^0,w,c
   815   0016BC  A4D8               	btfss	status,2,c
   816   0016BE  EF63  F00B         	goto	u3941
   817   0016C2  EF65  F00B         	goto	u3940
   818   0016C6                     u3941:
   819   0016C6  EF79  F00B         	goto	l4696
   820   0016CA                     u3940:
   821   0016CA  042C               	decf	_flag_low^0,w,c
   822   0016CC  A4D8               	btfss	status,2,c
   823   0016CE  EF6B  F00B         	goto	u3951
   824   0016D2  EF6D  F00B         	goto	u3950
   825   0016D6                     u3951:
   826   0016D6  EF79  F00B         	goto	l4696
   827   0016DA                     u3950:
   828   0016DA                     
   829                           ;application.c: 84:             btn_low_valid++;
   830   0016DA  4A0F               	infsnz	_btn_low_valid^0,f,c
   831   0016DC  2A10               	incf	(_btn_low_valid+1)^0,f,c
   832   0016DE                     
   833                           ;application.c: 85:             led_turn_off(&led2);
   834   0016DE  0E61               	movlw	low _led2
   835   0016E0  6E72               	movwf	led_turn_off@led^0,c
   836   0016E2  0E00               	movlw	high _led2
   837   0016E4  6E73               	movwf	(led_turn_off@led+1)^0,c
   838   0016E6  ECF1  F00D         	call	_led_turn_off	;wreg free
   839   0016EA                     
   840                           ;application.c: 86:             flag_low = 0;
   841   0016EA  0E00               	movlw	0
   842   0016EC  6E2C               	movwf	_flag_low^0,c
   843                           
   844                           ;application.c: 87:         }
   845   0016EE  EFC7  F00A         	goto	l4640
   846   0016F2                     l4696:
   847                           
   848                           ;application.c: 89:         btn_low_valid = 0;
   849   0016F2  0E00               	movlw	0
   850   0016F4  6E10               	movwf	(_btn_low_valid+1)^0,c
   851   0016F6  0E00               	movlw	0
   852   0016F8  6E0F               	movwf	_btn_low_valid^0,c
   853   0016FA  EFC7  F00A         	goto	l4640
   854   0016FE  EF1D  F000         	goto	start
   855   001702                     __end_of_main:
   856                           	callstack 0
   857                           
   858 ;; *************** function _program_3 *****************
   859 ;; Defined at:
   860 ;;		line 123 in file "application.c"
   861 ;; Parameters:    Size  Location     Type
   862 ;;		None
   863 ;; Auto vars:     Size  Location     Type
   864 ;;  counter         1   21[COMRAM] unsigned char 
   865 ;; Return value:  Size  Location     Type
   866 ;;                  1    wreg      void 
   867 ;; Registers used:
   868 ;;		wreg, fsr2l, fsr2h, status,2, status,0, prodl, prodh, cstack
   869 ;; Tracked objects:
   870 ;;		On entry : 0/0
   871 ;;		On exit  : 0/0
   872 ;;		Unchanged: 0/0
   873 ;; Data sizes:     COMRAM   BANK0   BANK1   BANK2   BANK3   BANK4   BANK5   BANK6   BANK7   BANK8   BANK9  BANK10  BANK1
      +1  BANK12  BANK13  BANK14  BANK15
   874 ;;      Params:         0       0       0       0       0       0       0       0       0       0       0       0       
      +0       0       0       0       0
   875 ;;      Locals:         1       0       0       0       0       0       0       0       0       0       0       0       
      +0       0       0       0       0
   876 ;;      Temps:          2       0       0       0       0       0       0       0       0       0       0       0       
      +0       0       0       0       0
   877 ;;      Totals:         3       0       0       0       0       0       0       0       0       0       0       0       
      +0       0       0       0       0
   878 ;;Total ram usage:        3 bytes
   879 ;; Hardware stack levels used: 1
   880 ;; Hardware stack levels required when called: 8
   881 ;; This function calls:
   882 ;;		_led_turn_off
   883 ;;		_led_turn_on
   884 ;; This function is called by:
   885 ;;		_main
   886 ;; This function uses a non-reentrant model
   887 ;;
   888                           
   889                           	psect	text1
   890   001CBA                     __ptext1:
   891                           	callstack 0
   892   001CBA                     _program_3:
   893                           	callstack 22
   894   001CBA                     
   895                           ;application.c: 124:     uint8 counter = 0;
   896   001CBA  0E00               	movlw	0
   897   001CBC  6E78               	movwf	program_3@counter^0,c
   898                           
   899                           ;application.c: 125:     for(counter = 0; counter < 3; counter ++){
   900   001CBE  0E00               	movlw	0
   901   001CC0  6E78               	movwf	program_3@counter^0,c
   902   001CC2                     l4032:
   903                           
   904                           ;application.c: 126:         led_turn_on(&led1);
   905   001CC2  0E62               	movlw	low _led1
   906   001CC4  6E72               	movwf	led_turn_on@led^0,c
   907   001CC6  0E00               	movlw	high _led1
   908   001CC8  6E73               	movwf	(led_turn_on@led+1)^0,c
   909   001CCA  ECB6  F00D         	call	_led_turn_on	;wreg free
   910   001CCE                     
   911                           ;application.c: 127:         _delay((unsigned long)((500)*(8000000UL/4000.0)));
   912   001CCE  0E06               	movlw	6
   913   001CD0  6E77               	movwf	(??_program_3+1)^0,c
   914   001CD2  0E13               	movlw	19
   915   001CD4  6E76               	movwf	??_program_3^0,c
   916   001CD6  0EAE               	movlw	174
   917   001CD8                     u3967:
   918   001CD8  2EE8               	decfsz	wreg,f,c
   919   001CDA  D7FE               	bra	u3967
   920   001CDC  2E76               	decfsz	??_program_3^0,f,c
   921   001CDE  D7FC               	bra	u3967
   922   001CE0  2E77               	decfsz	(??_program_3+1)^0,f,c
   923   001CE2  D7FA               	bra	u3967
   924   001CE4                     
   925                           ;application.c: 128:         led_turn_off(&led1);
   926   001CE4  0E62               	movlw	low _led1
   927   001CE6  6E72               	movwf	led_turn_off@led^0,c
   928   001CE8  0E00               	movlw	high _led1
   929   001CEA  6E73               	movwf	(led_turn_off@led+1)^0,c
   930   001CEC  ECF1  F00D         	call	_led_turn_off	;wreg free
   931                           
   932                           ;application.c: 129:         _delay((unsigned long)((500)*(8000000UL/4000.0)));
   933   001CF0  0E06               	movlw	6
   934   001CF2  6E77               	movwf	(??_program_3+1)^0,c
   935   001CF4  0E13               	movlw	19
   936   001CF6  6E76               	movwf	??_program_3^0,c
   937   001CF8  0EAE               	movlw	174
   938   001CFA                     u3977:
   939   001CFA  2EE8               	decfsz	wreg,f,c
   940   001CFC  D7FE               	bra	u3977
   941   001CFE  2E76               	decfsz	??_program_3^0,f,c
   942   001D00  D7FC               	bra	u3977
   943   001D02  2E77               	decfsz	(??_program_3+1)^0,f,c
   944   001D04  D7FA               	bra	u3977
   945   001D06                     
   946                           ;application.c: 130:     }
   947   001D06  2A78               	incf	program_3@counter^0,f,c
   948   001D08  0E02               	movlw	2
   949   001D0A  6478               	cpfsgt	program_3@counter^0,c
   950   001D0C  EF8A  F00E         	goto	u3001
   951   001D10  EF8C  F00E         	goto	u3000
   952   001D14                     u3001:
   953   001D14  EF61  F00E         	goto	l4032
   954   001D18                     u3000:
   955   001D18  0012               	return		;funcret
   956   001D1A                     __end_of_program_3:
   957                           	callstack 0
   958                           
   959 ;; *************** function _program_2 *****************
   960 ;; Defined at:
   961 ;;		line 113 in file "application.c"
   962 ;; Parameters:    Size  Location     Type
   963 ;;		None
   964 ;; Auto vars:     Size  Location     Type
   965 ;;  counter         1   21[COMRAM] unsigned char 
   966 ;; Return value:  Size  Location     Type
   967 ;;                  1    wreg      void 
   968 ;; Registers used:
   969 ;;		wreg, fsr2l, fsr2h, status,2, status,0, prodl, prodh, cstack
   970 ;; Tracked objects:
   971 ;;		On entry : 0/0
   972 ;;		On exit  : 0/0
   973 ;;		Unchanged: 0/0
   974 ;; Data sizes:     COMRAM   BANK0   BANK1   BANK2   BANK3   BANK4   BANK5   BANK6   BANK7   BANK8   BANK9  BANK10  BANK1
      +1  BANK12  BANK13  BANK14  BANK15
   975 ;;      Params:         0       0       0       0       0       0       0       0       0       0       0       0       
      +0       0       0       0       0
   976 ;;      Locals:         1       0       0       0       0       0       0       0       0       0       0       0       
      +0       0       0       0       0
   977 ;;      Temps:          2       0       0       0       0       0       0       0       0       0       0       0       
      +0       0       0       0       0
   978 ;;      Totals:         3       0       0       0       0       0       0       0       0       0       0       0       
      +0       0       0       0       0
   979 ;;Total ram usage:        3 bytes
   980 ;; Hardware stack levels used: 1
   981 ;; Hardware stack levels required when called: 8
   982 ;; This function calls:
   983 ;;		_led_turn_off
   984 ;;		_led_turn_on
   985 ;; This function is called by:
   986 ;;		_main
   987 ;; This function uses a non-reentrant model
   988 ;;
   989                           
   990                           	psect	text2
   991   001D1A                     __ptext2:
   992                           	callstack 0
   993   001D1A                     _program_2:
   994                           	callstack 22
   995   001D1A                     
   996                           ;application.c: 114:     uint8 counter = 0;
   997   001D1A  0E00               	movlw	0
   998   001D1C  6E78               	movwf	program_2@counter^0,c
   999                           
  1000                           ;application.c: 115:     for(counter = 0; counter < 2; counter ++){
  1001   001D1E  0E00               	movlw	0
  1002   001D20  6E78               	movwf	program_2@counter^0,c
  1003   001D22                     l4018:
  1004                           
  1005                           ;application.c: 116:         led_turn_on(&led1);
  1006   001D22  0E62               	movlw	low _led1
  1007   001D24  6E72               	movwf	led_turn_on@led^0,c
  1008   001D26  0E00               	movlw	high _led1
  1009   001D28  6E73               	movwf	(led_turn_on@led+1)^0,c
  1010   001D2A  ECB6  F00D         	call	_led_turn_on	;wreg free
  1011   001D2E                     
  1012                           ;application.c: 117:         _delay((unsigned long)((500)*(8000000UL/4000.0)));
  1013   001D2E  0E06               	movlw	6
  1014   001D30  6E77               	movwf	(??_program_2+1)^0,c
  1015   001D32  0E13               	movlw	19
  1016   001D34  6E76               	movwf	??_program_2^0,c
  1017   001D36  0EAE               	movlw	174
  1018   001D38                     u3987:
  1019   001D38  2EE8               	decfsz	wreg,f,c
  1020   001D3A  D7FE               	bra	u3987
  1021   001D3C  2E76               	decfsz	??_program_2^0,f,c
  1022   001D3E  D7FC               	bra	u3987
  1023   001D40  2E77               	decfsz	(??_program_2+1)^0,f,c
  1024   001D42  D7FA               	bra	u3987
  1025   001D44                     
  1026                           ;application.c: 118:         led_turn_off(&led1);
  1027   001D44  0E62               	movlw	low _led1
  1028   001D46  6E72               	movwf	led_turn_off@led^0,c
  1029   001D48  0E00               	movlw	high _led1
  1030   001D4A  6E73               	movwf	(led_turn_off@led+1)^0,c
  1031   001D4C  ECF1  F00D         	call	_led_turn_off	;wreg free
  1032                           
  1033                           ;application.c: 119:         _delay((unsigned long)((500)*(8000000UL/4000.0)));
  1034   001D50  0E06               	movlw	6
  1035   001D52  6E77               	movwf	(??_program_2+1)^0,c
  1036   001D54  0E13               	movlw	19
  1037   001D56  6E76               	movwf	??_program_2^0,c
  1038   001D58  0EAE               	movlw	174
  1039   001D5A                     u3997:
  1040   001D5A  2EE8               	decfsz	wreg,f,c
  1041   001D5C  D7FE               	bra	u3997
  1042   001D5E  2E76               	decfsz	??_program_2^0,f,c
  1043   001D60  D7FC               	bra	u3997
  1044   001D62  2E77               	decfsz	(??_program_2+1)^0,f,c
  1045   001D64  D7FA               	bra	u3997
  1046   001D66                     
  1047                           ;application.c: 120:     }
  1048   001D66  2A78               	incf	program_2@counter^0,f,c
  1049   001D68  0E01               	movlw	1
  1050   001D6A  6478               	cpfsgt	program_2@counter^0,c
  1051   001D6C  EFBA  F00E         	goto	u2991
  1052   001D70  EFBC  F00E         	goto	u2990
  1053   001D74                     u2991:
  1054   001D74  EF91  F00E         	goto	l4018
  1055   001D78                     u2990:
  1056   001D78  0012               	return		;funcret
  1057   001D7A                     __end_of_program_2:
  1058                           	callstack 0
  1059                           
  1060 ;; *************** function _program_1 *****************
  1061 ;; Defined at:
  1062 ;;		line 106 in file "application.c"
  1063 ;; Parameters:    Size  Location     Type
  1064 ;;		None
  1065 ;; Auto vars:     Size  Location     Type
  1066 ;;		None
  1067 ;; Return value:  Size  Location     Type
  1068 ;;                  1    wreg      void 
  1069 ;; Registers used:
  1070 ;;		wreg, fsr2l, fsr2h, status,2, status,0, prodl, prodh, cstack
  1071 ;; Tracked objects:
  1072 ;;		On entry : 0/0
  1073 ;;		On exit  : 0/0
  1074 ;;		Unchanged: 0/0
  1075 ;; Data sizes:     COMRAM   BANK0   BANK1   BANK2   BANK3   BANK4   BANK5   BANK6   BANK7   BANK8   BANK9  BANK10  BANK1
      +1  BANK12  BANK13  BANK14  BANK15
  1076 ;;      Params:         0       0       0       0       0       0       0       0       0       0       0       0       
      +0       0       0       0       0
  1077 ;;      Locals:         0       0       0       0       0       0       0       0       0       0       0       0       
      +0       0       0       0       0
  1078 ;;      Temps:          2       0       0       0       0       0       0       0       0       0       0       0       
      +0       0       0       0       0
  1079 ;;      Totals:         2       0       0       0       0       0       0       0       0       0       0       0       
      +0       0       0       0       0
  1080 ;;Total ram usage:        2 bytes
  1081 ;; Hardware stack levels used: 1
  1082 ;; Hardware stack levels required when called: 8
  1083 ;; This function calls:
  1084 ;;		_led_turn_off
  1085 ;;		_led_turn_on
  1086 ;; This function is called by:
  1087 ;;		_main
  1088 ;; This function uses a non-reentrant model
  1089 ;;
  1090                           
  1091                           	psect	text3
  1092   001DC4                     __ptext3:
  1093                           	callstack 0
  1094   001DC4                     _program_1:
  1095                           	callstack 22
  1096   001DC4                     
  1097                           ;application.c: 107:     led_turn_on(&led1);
  1098   001DC4  0E62               	movlw	low _led1
  1099   001DC6  6E72               	movwf	led_turn_on@led^0,c
  1100   001DC8  0E00               	movlw	high _led1
  1101   001DCA  6E73               	movwf	(led_turn_on@led+1)^0,c
  1102   001DCC  ECB6  F00D         	call	_led_turn_on	;wreg free
  1103   001DD0                     
  1104                           ;application.c: 108:     _delay((unsigned long)((500)*(8000000UL/4000.0)));
  1105   001DD0  0E06               	movlw	6
  1106   001DD2  6E77               	movwf	(??_program_1+1)^0,c
  1107   001DD4  0E13               	movlw	19
  1108   001DD6  6E76               	movwf	??_program_1^0,c
  1109   001DD8  0EAE               	movlw	174
  1110   001DDA                     u4007:
  1111   001DDA  2EE8               	decfsz	wreg,f,c
  1112   001DDC  D7FE               	bra	u4007
  1113   001DDE  2E76               	decfsz	??_program_1^0,f,c
  1114   001DE0  D7FC               	bra	u4007
  1115   001DE2  2E77               	decfsz	(??_program_1+1)^0,f,c
  1116   001DE4  D7FA               	bra	u4007
  1117   001DE6                     
  1118                           ;application.c: 109:     led_turn_off(&led1);
  1119   001DE6  0E62               	movlw	low _led1
  1120   001DE8  6E72               	movwf	led_turn_off@led^0,c
  1121   001DEA  0E00               	movlw	high _led1
  1122   001DEC  6E73               	movwf	(led_turn_off@led+1)^0,c
  1123   001DEE  ECF1  F00D         	call	_led_turn_off	;wreg free
  1124                           
  1125                           ;application.c: 110:     _delay((unsigned long)((500)*(8000000UL/4000.0)));
  1126   001DF2  0E06               	movlw	6
  1127   001DF4  6E77               	movwf	(??_program_1+1)^0,c
  1128   001DF6  0E13               	movlw	19
  1129   001DF8  6E76               	movwf	??_program_1^0,c
  1130   001DFA  0EAE               	movlw	174
  1131   001DFC                     u4017:
  1132   001DFC  2EE8               	decfsz	wreg,f,c
  1133   001DFE  D7FE               	bra	u4017
  1134   001E00  2E76               	decfsz	??_program_1^0,f,c
  1135   001E02  D7FC               	bra	u4017
  1136   001E04  2E77               	decfsz	(??_program_1+1)^0,f,c
  1137   001E06  D7FA               	bra	u4017
  1138   001E08  0012               	return		;funcret
  1139   001E0A                     __end_of_program_1:
  1140                           	callstack 0
  1141                           
  1142 ;; *************** function _led_turn_on *****************
  1143 ;; Defined at:
  1144 ;;		line 37 in file "ECU_Layer/LED/ecu_led.c"
  1145 ;; Parameters:    Size  Location     Type
  1146 ;;  led             2   15[COMRAM] PTR const struct .
  1147 ;;		 -> led1(1), led2(1), 
  1148 ;; Auto vars:     Size  Location     Type
  1149 ;;  pin_obj         1   18[COMRAM] struct .
  1150 ;;  ret             1    0        unsigned char 
  1151 ;; Return value:  Size  Location     Type
  1152 ;;                  1    wreg      unsigned char 
  1153 ;; Registers used:
  1154 ;;		wreg, fsr2l, fsr2h, status,2, status,0, prodl, prodh, cstack
  1155 ;; Tracked objects:
  1156 ;;		On entry : 0/0
  1157 ;;		On exit  : 0/0
  1158 ;;		Unchanged: 0/0
  1159 ;; Data sizes:     COMRAM   BANK0   BANK1   BANK2   BANK3   BANK4   BANK5   BANK6   BANK7   BANK8   BANK9  BANK10  BANK1
      +1  BANK12  BANK13  BANK14  BANK15
  1160 ;;      Params:         2       0       0       0       0       0       0       0       0       0       0       0       
      +0       0       0       0       0
  1161 ;;      Locals:         1       0       0       0       0       0       0       0       0       0       0       0       
      +0       0       0       0       0
  1162 ;;      Temps:          1       0       0       0       0       0       0       0       0       0       0       0       
      +0       0       0       0       0
  1163 ;;      Totals:         4       0       0       0       0       0       0       0       0       0       0       0       
      +0       0       0       0       0
  1164 ;;Total ram usage:        4 bytes
  1165 ;; Hardware stack levels used: 1
  1166 ;; Hardware stack levels required when called: 7
  1167 ;; This function calls:
  1168 ;;		_gpio_pin_write_logic
  1169 ;; This function is called by:
  1170 ;;		_main
  1171 ;;		_program_1
  1172 ;;		_program_2
  1173 ;;		_program_3
  1174 ;; This function uses a non-reentrant model
  1175 ;;
  1176                           
  1177                           	psect	text4
  1178   001B6C                     __ptext4:
  1179                           	callstack 0
  1180   001B6C                     _led_turn_on:
  1181                           	callstack 22
  1182   001B6C                     
  1183                           ;ECU_Layer/LED/ecu_led.c: 39:     if(((void*)0) == led){
  1184   001B6C  5072               	movf	led_turn_on@led^0,w,c
  1185   001B6E  1073               	iorwf	(led_turn_on@led+1)^0,w,c
  1186   001B70  A4D8               	btfss	status,2,c
  1187   001B72  EFBD  F00D         	goto	u2791
  1188   001B76  EFBF  F00D         	goto	u2790
  1189   001B7A                     u2791:
  1190   001B7A  EFC1  F00D         	goto	l217
  1191   001B7E                     u2790:
  1192   001B7E                     
  1193                           ;ECU_Layer/LED/ecu_led.c: 41:     }
  1194   001B7E  EFF0  F00D         	goto	l221
  1195   001B82                     l217:
  1196                           
  1197                           ;ECU_Layer/LED/ecu_led.c: 43:     {;ECU_Layer/LED/ecu_led.c: 44:         pin_config_t pi
      +                          n_obj={.port = led->port_name, .pin = led->pin, .direction = GPIO_OUTPUT, .logic = led->
      +                          led_status};
  1198   001B82  C031  F075         	movff	led_turn_on@F3053,led_turn_on@pin_obj
  1199   001B86  C072  FFD9         	movff	led_turn_on@led,fsr2l
  1200   001B8A  C073  FFDA         	movff	led_turn_on@led+1,fsr2h
  1201   001B8E  50DF               	movf	223,w,c
  1202   001B90  0B0F               	andlw	15
  1203   001B92  6E74               	movwf	??_led_turn_on^0,c
  1204   001B94  5075               	movf	led_turn_on@pin_obj^0,w,c
  1205   001B96  1874               	xorwf	??_led_turn_on^0,w,c
  1206   001B98  0BF8               	andlw	-8
  1207   001B9A  1874               	xorwf	??_led_turn_on^0,w,c
  1208   001B9C  6E75               	movwf	led_turn_on@pin_obj^0,c
  1209   001B9E  C072  FFD9         	movff	led_turn_on@led,fsr2l
  1210   001BA2  C073  FFDA         	movff	led_turn_on@led+1,fsr2h
  1211   001BA6  38DF               	swapf	223,w,c
  1212   001BA8  0B07               	andlw	7
  1213   001BAA  6E74               	movwf	??_led_turn_on^0,c
  1214   001BAC  4674               	rlncf	??_led_turn_on^0,f,c
  1215   001BAE  4674               	rlncf	??_led_turn_on^0,f,c
  1216   001BB0  4674               	rlncf	??_led_turn_on^0,f,c
  1217   001BB2  5075               	movf	led_turn_on@pin_obj^0,w,c
  1218   001BB4  1874               	xorwf	??_led_turn_on^0,w,c
  1219   001BB6  0BC7               	andlw	-57
  1220   001BB8  1874               	xorwf	??_led_turn_on^0,w,c
  1221   001BBA  6E75               	movwf	led_turn_on@pin_obj^0,c
  1222   001BBC  9C75               	bcf	led_turn_on@pin_obj^0,6,c
  1223   001BBE  C072  FFD9         	movff	led_turn_on@led,fsr2l
  1224   001BC2  C073  FFDA         	movff	led_turn_on@led+1,fsr2h
  1225   001BC6  AEDF               	btfss	indf2,7,c
  1226   001BC8  D002               	bra	u2805
  1227   001BCA  8E75               	bsf	led_turn_on@pin_obj^0,7,c
  1228   001BCC  D001               	bra	u2807
  1229   001BCE                     u2805:
  1230   001BCE  9E75               	bcf	led_turn_on@pin_obj^0,7,c
  1231   001BD0                     u2807:
  1232   001BD0                     
  1233                           ;ECU_Layer/LED/ecu_led.c: 45:         gpio_pin_write_logic(&pin_obj,GPIO_HIGH);
  1234   001BD0  0E75               	movlw	low led_turn_on@pin_obj
  1235   001BD2  6E68               	movwf	gpio_pin_write_logic@_pin_config^0,c
  1236   001BD4  0E00               	movlw	high led_turn_on@pin_obj
  1237   001BD6  6E69               	movwf	(gpio_pin_write_logic@_pin_config+1)^0,c
  1238   001BD8  0E01               	movlw	1
  1239   001BDA  6E6A               	movwf	gpio_pin_write_logic@logic^0,c
  1240   001BDC  EC23  F00C         	call	_gpio_pin_write_logic	;wreg free
  1241   001BE0                     l221:
  1242   001BE0  0012               	return		;funcret
  1243   001BE2                     __end_of_led_turn_on:
  1244                           	callstack 0
  1245                           
  1246 ;; *************** function _led_turn_off *****************
  1247 ;; Defined at:
  1248 ;;		line 57 in file "ECU_Layer/LED/ecu_led.c"
  1249 ;; Parameters:    Size  Location     Type
  1250 ;;  led             2   15[COMRAM] PTR const struct .
  1251 ;;		 -> led1(1), led2(1), 
  1252 ;; Auto vars:     Size  Location     Type
  1253 ;;  pin_obj         1   18[COMRAM] struct .
  1254 ;;  ret             1    0        unsigned char 
  1255 ;; Return value:  Size  Location     Type
  1256 ;;                  1    wreg      unsigned char 
  1257 ;; Registers used:
  1258 ;;		wreg, fsr2l, fsr2h, status,2, status,0, prodl, prodh, cstack
  1259 ;; Tracked objects:
  1260 ;;		On entry : 0/0
  1261 ;;		On exit  : 0/0
  1262 ;;		Unchanged: 0/0
  1263 ;; Data sizes:     COMRAM   BANK0   BANK1   BANK2   BANK3   BANK4   BANK5   BANK6   BANK7   BANK8   BANK9  BANK10  BANK1
      +1  BANK12  BANK13  BANK14  BANK15
  1264 ;;      Params:         2       0       0       0       0       0       0       0       0       0       0       0       
      +0       0       0       0       0
  1265 ;;      Locals:         1       0       0       0       0       0       0       0       0       0       0       0       
      +0       0       0       0       0
  1266 ;;      Temps:          1       0       0       0       0       0       0       0       0       0       0       0       
      +0       0       0       0       0
  1267 ;;      Totals:         4       0       0       0       0       0       0       0       0       0       0       0       
      +0       0       0       0       0
  1268 ;;Total ram usage:        4 bytes
  1269 ;; Hardware stack levels used: 1
  1270 ;; Hardware stack levels required when called: 7
  1271 ;; This function calls:
  1272 ;;		_gpio_pin_write_logic
  1273 ;; This function is called by:
  1274 ;;		_main
  1275 ;;		_program_1
  1276 ;;		_program_2
  1277 ;;		_program_3
  1278 ;; This function uses a non-reentrant model
  1279 ;;
  1280                           
  1281                           	psect	text5
  1282   001BE2                     __ptext5:
  1283                           	callstack 0
  1284   001BE2                     _led_turn_off:
  1285                           	callstack 22
  1286   001BE2                     
  1287                           ;ECU_Layer/LED/ecu_led.c: 59:     if(((void*)0) == led){
  1288   001BE2  5072               	movf	led_turn_off@led^0,w,c
  1289   001BE4  1073               	iorwf	(led_turn_off@led+1)^0,w,c
  1290   001BE6  A4D8               	btfss	status,2,c
  1291   001BE8  EFF8  F00D         	goto	u2811
  1292   001BEC  EFFA  F00D         	goto	u2810
  1293   001BF0                     u2811:
  1294   001BF0  EFFC  F00D         	goto	l224
  1295   001BF4                     u2810:
  1296   001BF4                     
  1297                           ;ECU_Layer/LED/ecu_led.c: 61:     }
  1298   001BF4  EF2B  F00E         	goto	l228
  1299   001BF8                     l224:
  1300                           
  1301                           ;ECU_Layer/LED/ecu_led.c: 63:     {;ECU_Layer/LED/ecu_led.c: 64:         pin_config_t pi
      +                          n_obj={.port = led->port_name, .pin = led->pin, .direction = GPIO_OUTPUT, .logic = led->
      +                          led_status};
  1302   001BF8  C030  F075         	movff	led_turn_off@F3058,led_turn_off@pin_obj
  1303   001BFC  C072  FFD9         	movff	led_turn_off@led,fsr2l
  1304   001C00  C073  FFDA         	movff	led_turn_off@led+1,fsr2h
  1305   001C04  50DF               	movf	223,w,c
  1306   001C06  0B0F               	andlw	15
  1307   001C08  6E74               	movwf	??_led_turn_off^0,c
  1308   001C0A  5075               	movf	led_turn_off@pin_obj^0,w,c
  1309   001C0C  1874               	xorwf	??_led_turn_off^0,w,c
  1310   001C0E  0BF8               	andlw	-8
  1311   001C10  1874               	xorwf	??_led_turn_off^0,w,c
  1312   001C12  6E75               	movwf	led_turn_off@pin_obj^0,c
  1313   001C14  C072  FFD9         	movff	led_turn_off@led,fsr2l
  1314   001C18  C073  FFDA         	movff	led_turn_off@led+1,fsr2h
  1315   001C1C  38DF               	swapf	223,w,c
  1316   001C1E  0B07               	andlw	7
  1317   001C20  6E74               	movwf	??_led_turn_off^0,c
  1318   001C22  4674               	rlncf	??_led_turn_off^0,f,c
  1319   001C24  4674               	rlncf	??_led_turn_off^0,f,c
  1320   001C26  4674               	rlncf	??_led_turn_off^0,f,c
  1321   001C28  5075               	movf	led_turn_off@pin_obj^0,w,c
  1322   001C2A  1874               	xorwf	??_led_turn_off^0,w,c
  1323   001C2C  0BC7               	andlw	-57
  1324   001C2E  1874               	xorwf	??_led_turn_off^0,w,c
  1325   001C30  6E75               	movwf	led_turn_off@pin_obj^0,c
  1326   001C32  9C75               	bcf	led_turn_off@pin_obj^0,6,c
  1327   001C34  C072  FFD9         	movff	led_turn_off@led,fsr2l
  1328   001C38  C073  FFDA         	movff	led_turn_off@led+1,fsr2h
  1329   001C3C  AEDF               	btfss	indf2,7,c
  1330   001C3E  D002               	bra	u2825
  1331   001C40  8E75               	bsf	led_turn_off@pin_obj^0,7,c
  1332   001C42  D001               	bra	u2827
  1333   001C44                     u2825:
  1334   001C44  9E75               	bcf	led_turn_off@pin_obj^0,7,c
  1335   001C46                     u2827:
  1336   001C46                     
  1337                           ;ECU_Layer/LED/ecu_led.c: 65:         gpio_pin_write_logic(&pin_obj,GPIO_LOW);
  1338   001C46  0E75               	movlw	low led_turn_off@pin_obj
  1339   001C48  6E68               	movwf	gpio_pin_write_logic@_pin_config^0,c
  1340   001C4A  0E00               	movlw	high led_turn_off@pin_obj
  1341   001C4C  6E69               	movwf	(gpio_pin_write_logic@_pin_config+1)^0,c
  1342   001C4E  0E00               	movlw	0
  1343   001C50  6E6A               	movwf	gpio_pin_write_logic@logic^0,c
  1344   001C52  EC23  F00C         	call	_gpio_pin_write_logic	;wreg free
  1345   001C56                     l228:
  1346   001C56  0012               	return		;funcret
  1347   001C58                     __end_of_led_turn_off:
  1348                           	callstack 0
  1349                           
  1350 ;; *************** function _button_read_state *****************
  1351 ;; Defined at:
  1352 ;;		line 22 in file "ECU_Layer/button/hal_button.c"
  1353 ;; Parameters:    Size  Location     Type
  1354 ;;  btn             2   15[COMRAM] PTR const struct .
  1355 ;;		 -> btn_low(2), btn_high(2), 
  1356 ;;  btn_state       2   17[COMRAM] PTR enum E3028
  1357 ;;		 -> btn_low_status(1), btn_high_status(1), 
  1358 ;; Auto vars:     Size  Location     Type
  1359 ;;  pin_logic_st    1   21[COMRAM] enum E2968
  1360 ;;  ret             1   20[COMRAM] unsigned char 
  1361 ;; Return value:  Size  Location     Type
  1362 ;;                  1    wreg      unsigned char 
  1363 ;; Registers used:
  1364 ;;		wreg, fsr2l, fsr2h, status,2, status,0, prodl, prodh, cstack
  1365 ;; Tracked objects:
  1366 ;;		On entry : 0/0
  1367 ;;		On exit  : 0/0
  1368 ;;		Unchanged: 0/0
  1369 ;; Data sizes:     COMRAM   BANK0   BANK1   BANK2   BANK3   BANK4   BANK5   BANK6   BANK7   BANK8   BANK9  BANK10  BANK1
      +1  BANK12  BANK13  BANK14  BANK15
  1370 ;;      Params:         4       0       0       0       0       0       0       0       0       0       0       0       
      +0       0       0       0       0
  1371 ;;      Locals:         2       0       0       0       0       0       0       0       0       0       0       0       
      +0       0       0       0       0
  1372 ;;      Temps:          1       0       0       0       0       0       0       0       0       0       0       0       
      +0       0       0       0       0
  1373 ;;      Totals:         7       0       0       0       0       0       0       0       0       0       0       0       
      +0       0       0       0       0
  1374 ;;Total ram usage:        7 bytes
  1375 ;; Hardware stack levels used: 1
  1376 ;; Hardware stack levels required when called: 7
  1377 ;; This function calls:
  1378 ;;		_gpio_pin_read_logic
  1379 ;; This function is called by:
  1380 ;;		_main
  1381 ;; This function uses a non-reentrant model
  1382 ;;
  1383                           
  1384                           	psect	text6
  1385   001972                     __ptext6:
  1386                           	callstack 0
  1387   001972                     _button_read_state:
  1388                           	callstack 23
  1389   001972                     
  1390                           ;ECU_Layer/button/hal_button.c: 24:     logic_t pin_logic_status = 0;
  1391   001972  0E00               	movlw	0
  1392   001974  6E78               	movwf	button_read_state@pin_logic_status^0,c
  1393   001976                     
  1394                           ;ECU_Layer/button/hal_button.c: 25:     if(((void*)0) == btn || ((void*)0) == btn_state)
      +                          {
  1395   001976  5072               	movf	button_read_state@btn^0,w,c
  1396   001978  1073               	iorwf	(button_read_state@btn+1)^0,w,c
  1397   00197A  B4D8               	btfsc	status,2,c
  1398   00197C  EFC2  F00C         	goto	u2871
  1399   001980  EFC4  F00C         	goto	u2870
  1400   001984                     u2871:
  1401   001984  EFCD  F00C         	goto	l3910
  1402   001988                     u2870:
  1403   001988  5074               	movf	button_read_state@btn_state^0,w,c
  1404   00198A  1075               	iorwf	(button_read_state@btn_state+1)^0,w,c
  1405   00198C  A4D8               	btfss	status,2,c
  1406   00198E  EFCB  F00C         	goto	u2881
  1407   001992  EFCD  F00C         	goto	u2880
  1408   001996                     u2881:
  1409   001996  EFD1  F00C         	goto	l3912
  1410   00199A                     u2880:
  1411   00199A                     l3910:
  1412                           
  1413                           ;ECU_Layer/button/hal_button.c: 26:         ret = (Std_ReturnType)0x00;
  1414   00199A  0E00               	movlw	0
  1415   00199C  6E77               	movwf	button_read_state@ret^0,c
  1416                           
  1417                           ;ECU_Layer/button/hal_button.c: 27:     }
  1418   00199E  EF1A  F00D         	goto	l15
  1419   0019A2                     l3912:
  1420   0019A2  C072  F068         	movff	button_read_state@btn,gpio_pin_read_logic@_pin_config
  1421   0019A6  C073  F069         	movff	button_read_state@btn+1,gpio_pin_read_logic@_pin_config+1
  1422   0019AA  0E78               	movlw	low button_read_state@pin_logic_status
  1423   0019AC  6E6A               	movwf	gpio_pin_read_logic@logic^0,c
  1424   0019AE  0E00               	movlw	high button_read_state@pin_logic_status
  1425   0019B0  6E6B               	movwf	(gpio_pin_read_logic@logic+1)^0,c
  1426   0019B2  EC1C  F00D         	call	_gpio_pin_read_logic	;wreg free
  1427   0019B6                     
  1428                           ;ECU_Layer/button/hal_button.c: 31:         if(BUTTON_ACTIVE_HIGH == btn->button_connect
      +                          ion)
  1429   0019B6  EE20 F001          	lfsr	2,1
  1430   0019BA  5072               	movf	button_read_state@btn^0,w,c
  1431   0019BC  26D9               	addwf	fsr2l,f,c
  1432   0019BE  5073               	movf	(button_read_state@btn+1)^0,w,c
  1433   0019C0  22DA               	addwfc	fsr2h,f,c
  1434   0019C2  04DE               	decf	postinc2,w,c
  1435   0019C4  A4D8               	btfss	status,2,c
  1436   0019C6  EFE7  F00C         	goto	u2891
  1437   0019CA  EFE9  F00C         	goto	u2890
  1438   0019CE                     u2891:
  1439   0019CE  EF00  F00D         	goto	l3922
  1440   0019D2                     u2890:
  1441   0019D2                     
  1442                           ;ECU_Layer/button/hal_button.c: 32:         {;ECU_Layer/button/hal_button.c: 33:        
      +                               if(GPIO_HIGH == pin_logic_status)
  1443   0019D2  0478               	decf	button_read_state@pin_logic_status^0,w,c
  1444   0019D4  A4D8               	btfss	status,2,c
  1445   0019D6  EFEF  F00C         	goto	u2901
  1446   0019DA  EFF1  F00C         	goto	u2900
  1447   0019DE                     u2901:
  1448   0019DE  EFF9  F00C         	goto	l3920
  1449   0019E2                     u2900:
  1450   0019E2                     l3918:
  1451                           
  1452                           ;ECU_Layer/button/hal_button.c: 34:             {;ECU_Layer/button/hal_button.c: 35:    
      +                                       *btn_state = BUTTON_PRESSED;
  1453   0019E2  C074  FFD9         	movff	button_read_state@btn_state,fsr2l
  1454   0019E6  C075  FFDA         	movff	button_read_state@btn_state+1,fsr2h
  1455   0019EA  0E01               	movlw	1
  1456   0019EC  6EDF               	movwf	indf2,c
  1457                           
  1458                           ;ECU_Layer/button/hal_button.c: 36:             }
  1459   0019EE  EF18  F00D         	goto	l3930
  1460   0019F2                     l3920:
  1461                           
  1462                           ;ECU_Layer/button/hal_button.c: 38:             {;ECU_Layer/button/hal_button.c: 39:    
      +                                       *btn_state = BUTTON_RELEASED;
  1463   0019F2  C074  FFD9         	movff	button_read_state@btn_state,fsr2l
  1464   0019F6  C075  FFDA         	movff	button_read_state@btn_state+1,fsr2h
  1465   0019FA  6ADF               	clrf	indf2,c
  1466   0019FC  EF18  F00D         	goto	l3930
  1467   001A00                     l3922:
  1468   001A00  EE20 F001          	lfsr	2,1
  1469   001A04  5072               	movf	button_read_state@btn^0,w,c
  1470   001A06  26D9               	addwf	fsr2l,f,c
  1471   001A08  5073               	movf	(button_read_state@btn+1)^0,w,c
  1472   001A0A  22DA               	addwfc	fsr2h,f,c
  1473   001A0C  50DF               	movf	indf2,w,c
  1474   001A0E  A4D8               	btfss	status,2,c
  1475   001A10  EF0C  F00D         	goto	u2911
  1476   001A14  EF0E  F00D         	goto	u2910
  1477   001A18                     u2911:
  1478   001A18  EF18  F00D         	goto	l3930
  1479   001A1C                     u2910:
  1480   001A1C                     
  1481                           ;ECU_Layer/button/hal_button.c: 43:         {;ECU_Layer/button/hal_button.c: 44:        
      +                               if(GPIO_HIGH == pin_logic_status)
  1482   001A1C  0478               	decf	button_read_state@pin_logic_status^0,w,c
  1483   001A1E  A4D8               	btfss	status,2,c
  1484   001A20  EF14  F00D         	goto	u2921
  1485   001A24  EF16  F00D         	goto	u2920
  1486   001A28                     u2921:
  1487   001A28  EFF1  F00C         	goto	l3918
  1488   001A2C                     u2920:
  1489   001A2C  EFF9  F00C         	goto	l3920
  1490   001A30                     l3930:
  1491                           
  1492                           ;ECU_Layer/button/hal_button.c: 55:         ret = (Std_ReturnType)0x01;
  1493   001A30  0E01               	movlw	1
  1494   001A32  6E77               	movwf	button_read_state@ret^0,c
  1495   001A34                     l15:
  1496                           
  1497                           ;ECU_Layer/button/hal_button.c: 58:     return ret;
  1498   001A34  5077               	movf	button_read_state@ret^0,w,c
  1499   001A36  0012               	return		;funcret
  1500   001A38                     __end_of_button_read_state:
  1501                           	callstack 0
  1502                           
  1503 ;; *************** function _gpio_pin_read_logic *****************
  1504 ;; Defined at:
  1505 ;;		line 113 in file "MCAL_Layer/GPIO/hal_gpio.c"
  1506 ;; Parameters:    Size  Location     Type
  1507 ;;  _pin_config     2    5[COMRAM] PTR const struct .
  1508 ;;		 -> btn_low(2), btn_high(2), 
  1509 ;;  logic           2    7[COMRAM] PTR enum E2968
  1510 ;;		 -> button_read_state@pin_logic_status(1), 
  1511 ;; Auto vars:     Size  Location     Type
  1512 ;;  ret             1   14[COMRAM] unsigned char 
  1513 ;; Return value:  Size  Location     Type
  1514 ;;                  1    wreg      unsigned char 
  1515 ;; Registers used:
  1516 ;;		wreg, fsr2l, fsr2h, status,2, status,0, prodl, prodh
  1517 ;; Tracked objects:
  1518 ;;		On entry : 0/0
  1519 ;;		On exit  : 0/0
  1520 ;;		Unchanged: 0/0
  1521 ;; Data sizes:     COMRAM   BANK0   BANK1   BANK2   BANK3   BANK4   BANK5   BANK6   BANK7   BANK8   BANK9  BANK10  BANK1
      +1  BANK12  BANK13  BANK14  BANK15
  1522 ;;      Params:         4       0       0       0       0       0       0       0       0       0       0       0       
      +0       0       0       0       0
  1523 ;;      Locals:         1       0       0       0       0       0       0       0       0       0       0       0       
      +0       0       0       0       0
  1524 ;;      Temps:          5       0       0       0       0       0       0       0       0       0       0       0       
      +0       0       0       0       0
  1525 ;;      Totals:        10       0       0       0       0       0       0       0       0       0       0       0       
      +0       0       0       0       0
  1526 ;;Total ram usage:       10 bytes
  1527 ;; Hardware stack levels used: 1
  1528 ;; Hardware stack levels required when called: 6
  1529 ;; This function calls:
  1530 ;;		Nothing
  1531 ;; This function is called by:
  1532 ;;		_button_read_state
  1533 ;; This function uses a non-reentrant model
  1534 ;;
  1535                           
  1536                           	psect	text7
  1537   001A38                     __ptext7:
  1538                           	callstack 0
  1539   001A38                     _gpio_pin_read_logic:
  1540                           	callstack 23
  1541   001A38                     
  1542                           ;MCAL_Layer/GPIO/hal_gpio.c: 114:     Std_ReturnType ret = (Std_ReturnType)0x01;
  1543   001A38  0E01               	movlw	1
  1544   001A3A  6E71               	movwf	gpio_pin_read_logic@ret^0,c
  1545   001A3C                     
  1546                           ;MCAL_Layer/GPIO/hal_gpio.c: 115:     if(((void*)0) == _pin_config || ((void*)0) == logi
      +                          c || _pin_config->pin > 8 -1)
  1547   001A3C  5068               	movf	gpio_pin_read_logic@_pin_config^0,w,c
  1548   001A3E  1069               	iorwf	(gpio_pin_read_logic@_pin_config+1)^0,w,c
  1549   001A40  B4D8               	btfsc	status,2,c
  1550   001A42  EF25  F00D         	goto	u2691
  1551   001A46  EF27  F00D         	goto	u2690
  1552   001A4A                     u2691:
  1553   001A4A  EF41  F00D         	goto	l3716
  1554   001A4E                     u2690:
  1555   001A4E  506A               	movf	gpio_pin_read_logic@logic^0,w,c
  1556   001A50  106B               	iorwf	(gpio_pin_read_logic@logic+1)^0,w,c
  1557   001A52  B4D8               	btfsc	status,2,c
  1558   001A54  EF2E  F00D         	goto	u2701
  1559   001A58  EF30  F00D         	goto	u2700
  1560   001A5C                     u2701:
  1561   001A5C  EF41  F00D         	goto	l3716
  1562   001A60                     u2700:
  1563   001A60  C068  FFD9         	movff	gpio_pin_read_logic@_pin_config,fsr2l
  1564   001A64  C069  FFDA         	movff	gpio_pin_read_logic@_pin_config+1,fsr2h
  1565   001A68  30DF               	rrcf	223,w,c
  1566   001A6A  32E8               	rrcf	wreg,f,c
  1567   001A6C  32E8               	rrcf	wreg,f,c
  1568   001A6E  0B07               	andlw	7
  1569   001A70  6E6C               	movwf	??_gpio_pin_read_logic^0,c
  1570   001A72  0E07               	movlw	7
  1571   001A74  646C               	cpfsgt	??_gpio_pin_read_logic^0,c
  1572   001A76  EF3F  F00D         	goto	u2711
  1573   001A7A  EF41  F00D         	goto	u2710
  1574   001A7E                     u2711:
  1575   001A7E  EF45  F00D         	goto	l3718
  1576   001A82                     u2710:
  1577   001A82                     l3716:
  1578                           
  1579                           ;MCAL_Layer/GPIO/hal_gpio.c: 116:     {;MCAL_Layer/GPIO/hal_gpio.c: 117:         ret = (
      +                          Std_ReturnType)0x00;
  1580   001A82  0E00               	movlw	0
  1581   001A84  6E71               	movwf	gpio_pin_read_logic@ret^0,c
  1582                           
  1583                           ;MCAL_Layer/GPIO/hal_gpio.c: 118:     }
  1584   001A86  EF76  F00D         	goto	l3720
  1585   001A8A                     l3718:
  1586                           
  1587                           ;MCAL_Layer/GPIO/hal_gpio.c: 120:     {;MCAL_Layer/GPIO/hal_gpio.c: 121:         *logic 
      +                          = ((*port_registers[_pin_config->port] >> _pin_config->pin) & (uint8)1);
  1588   001A8A  C068  FFD9         	movff	gpio_pin_read_logic@_pin_config,fsr2l
  1589   001A8E  C069  FFDA         	movff	gpio_pin_read_logic@_pin_config+1,fsr2h
  1590   001A92  30DF               	rrcf	223,w,c
  1591   001A94  32E8               	rrcf	wreg,f,c
  1592   001A96  32E8               	rrcf	wreg,f,c
  1593   001A98  0B07               	andlw	7
  1594   001A9A  6E6C               	movwf	??_gpio_pin_read_logic^0,c
  1595   001A9C  C068  FFD9         	movff	gpio_pin_read_logic@_pin_config,fsr2l
  1596   001AA0  C069  FFDA         	movff	gpio_pin_read_logic@_pin_config+1,fsr2h
  1597   001AA4  50DF               	movf	223,w,c
  1598   001AA6  0B07               	andlw	7
  1599   001AA8  6E6D               	movwf	(??_gpio_pin_read_logic+1)^0,c
  1600   001AAA  506D               	movf	(??_gpio_pin_read_logic+1)^0,w,c
  1601   001AAC  0D02               	mullw	2
  1602   001AAE  0E35               	movlw	low _port_registers
  1603   001AB0  24F3               	addwf	243,w,c
  1604   001AB2  6ED9               	movwf	fsr2l,c
  1605   001AB4  0E00               	movlw	high _port_registers
  1606   001AB6  20F4               	addwfc	prodh,w,c
  1607   001AB8  6EDA               	movwf	fsr2h,c
  1608   001ABA  CFDE F06E          	movff	postinc2,??_gpio_pin_read_logic+2
  1609   001ABE  CFDD F06F          	movff	postdec2,??_gpio_pin_read_logic+3
  1610   001AC2  C06E  FFD9         	movff	??_gpio_pin_read_logic+2,fsr2l
  1611   001AC6  C06F  FFDA         	movff	??_gpio_pin_read_logic+3,fsr2h
  1612   001ACA  50DF               	movf	indf2,w,c
  1613   001ACC  6E70               	movwf	(??_gpio_pin_read_logic+4)^0,c
  1614   001ACE  2A6C               	incf	??_gpio_pin_read_logic^0,f,c
  1615   001AD0  EF6C  F00D         	goto	u2724
  1616   001AD4                     u2725:
  1617   001AD4  90D8               	bcf	status,0,c
  1618   001AD6  3270               	rrcf	(??_gpio_pin_read_logic+4)^0,f,c
  1619   001AD8                     u2724:
  1620   001AD8  2E6C               	decfsz	??_gpio_pin_read_logic^0,f,c
  1621   001ADA  EF6A  F00D         	goto	u2725
  1622   001ADE  5070               	movf	(??_gpio_pin_read_logic+4)^0,w,c
  1623   001AE0  0B01               	andlw	1
  1624   001AE2  C06A  FFD9         	movff	gpio_pin_read_logic@logic,fsr2l
  1625   001AE6  C06B  FFDA         	movff	gpio_pin_read_logic@logic+1,fsr2h
  1626   001AEA  6EDF               	movwf	indf2,c
  1627   001AEC                     l3720:
  1628                           
  1629                           ;MCAL_Layer/GPIO/hal_gpio.c: 124:     return ret;
  1630   001AEC  5071               	movf	gpio_pin_read_logic@ret^0,w,c
  1631   001AEE  0012               	return		;funcret
  1632   001AF0                     __end_of_gpio_pin_read_logic:
  1633                           	callstack 0
  1634                           
  1635 ;; *************** function _app_intialize *****************
  1636 ;; Defined at:
  1637 ;;		line 97 in file "application.c"
  1638 ;; Parameters:    Size  Location     Type
  1639 ;;		None
  1640 ;; Auto vars:     Size  Location     Type
  1641 ;;  ret             1    0        unsigned char 
  1642 ;; Return value:  Size  Location     Type
  1643 ;;                  1    wreg      void 
  1644 ;; Registers used:
  1645 ;;		wreg, fsr2l, fsr2h, status,2, status,0, prodl, prodh, cstack
  1646 ;; Tracked objects:
  1647 ;;		On entry : 0/0
  1648 ;;		On exit  : 0/0
  1649 ;;		Unchanged: 0/0
  1650 ;; Data sizes:     COMRAM   BANK0   BANK1   BANK2   BANK3   BANK4   BANK5   BANK6   BANK7   BANK8   BANK9  BANK10  BANK1
      +1  BANK12  BANK13  BANK14  BANK15
  1651 ;;      Params:         0       0       0       0       0       0       0       0       0       0       0       0       
      +0       0       0       0       0
  1652 ;;      Locals:         0       0       0       0       0       0       0       0       0       0       0       0       
      +0       0       0       0       0
  1653 ;;      Temps:          0       0       0       0       0       0       0       0       0       0       0       0       
      +0       0       0       0       0
  1654 ;;      Totals:         0       0       0       0       0       0       0       0       0       0       0       0       
      +0       0       0       0       0
  1655 ;;Total ram usage:        0 bytes
  1656 ;; Hardware stack levels used: 1
  1657 ;; Hardware stack levels required when called: 9
  1658 ;; This function calls:
  1659 ;;		_button_initialize
  1660 ;;		_led_initialize
  1661 ;; This function is called by:
  1662 ;;		_main
  1663 ;; This function uses a non-reentrant model
  1664 ;;
  1665                           
  1666                           	psect	text8
  1667   001E0A                     __ptext8:
  1668                           	callstack 0
  1669   001E0A                     _app_intialize:
  1670                           	callstack 21
  1671   001E0A  0E5F               	movlw	low _btn_high
  1672   001E0C  6E71               	movwf	button_initialize@btn^0,c
  1673   001E0E  0E00               	movlw	high _btn_high
  1674   001E10  6E72               	movwf	(button_initialize@btn+1)^0,c
  1675   001E12  EC35  F00F         	call	_button_initialize	;wreg free
  1676   001E16  0E5D               	movlw	low _btn_low
  1677   001E18  6E71               	movwf	button_initialize@btn^0,c
  1678   001E1A  0E00               	movlw	high _btn_low
  1679   001E1C  6E72               	movwf	(button_initialize@btn+1)^0,c
  1680   001E1E  EC35  F00F         	call	_button_initialize	;wreg free
  1681   001E22  0E62               	movlw	low _led1
  1682   001E24  6E75               	movwf	led_initialize@led^0,c
  1683   001E26  0E00               	movlw	high _led1
  1684   001E28  6E76               	movwf	(led_initialize@led+1)^0,c
  1685   001E2A  EC78  F00D         	call	_led_initialize	;wreg free
  1686   001E2E  0E61               	movlw	low _led2
  1687   001E30  6E75               	movwf	led_initialize@led^0,c
  1688   001E32  0E00               	movlw	high _led2
  1689   001E34  6E76               	movwf	(led_initialize@led+1)^0,c
  1690   001E36  EC78  F00D         	call	_led_initialize	;wreg free
  1691   001E3A  0012               	return		;funcret
  1692   001E3C                     __end_of_app_intialize:
  1693                           	callstack 0
  1694                           
  1695 ;; *************** function _led_initialize *****************
  1696 ;; Defined at:
  1697 ;;		line 17 in file "ECU_Layer/LED/ecu_led.c"
  1698 ;; Parameters:    Size  Location     Type
  1699 ;;  led             2   18[COMRAM] PTR const struct .
  1700 ;;		 -> led1(1), led2(1), 
  1701 ;; Auto vars:     Size  Location     Type
  1702 ;;  pin_obj         1   22[COMRAM] struct .
  1703 ;;  ret             1   21[COMRAM] unsigned char 
  1704 ;; Return value:  Size  Location     Type
  1705 ;;                  1    wreg      unsigned char 
  1706 ;; Registers used:
  1707 ;;		wreg, fsr2l, fsr2h, status,2, status,0, prodl, prodh, cstack
  1708 ;; Tracked objects:
  1709 ;;		On entry : 0/0
  1710 ;;		On exit  : 0/0
  1711 ;;		Unchanged: 0/0
  1712 ;; Data sizes:     COMRAM   BANK0   BANK1   BANK2   BANK3   BANK4   BANK5   BANK6   BANK7   BANK8   BANK9  BANK10  BANK1
      +1  BANK12  BANK13  BANK14  BANK15
  1713 ;;      Params:         2       0       0       0       0       0       0       0       0       0       0       0       
      +0       0       0       0       0
  1714 ;;      Locals:         2       0       0       0       0       0       0       0       0       0       0       0       
      +0       0       0       0       0
  1715 ;;      Temps:          1       0       0       0       0       0       0       0       0       0       0       0       
      +0       0       0       0       0
  1716 ;;      Totals:         5       0       0       0       0       0       0       0       0       0       0       0       
      +0       0       0       0       0
  1717 ;;Total ram usage:        5 bytes
  1718 ;; Hardware stack levels used: 1
  1719 ;; Hardware stack levels required when called: 8
  1720 ;; This function calls:
  1721 ;;		_gpio_pin_intialize
  1722 ;; This function is called by:
  1723 ;;		_app_intialize
  1724 ;; This function uses a non-reentrant model
  1725 ;;
  1726                           
  1727                           	psect	text9
  1728   001AF0                     __ptext9:
  1729                           	callstack 0
  1730   001AF0                     _led_initialize:
  1731                           	callstack 21
  1732   001AF0                     
  1733                           ;ECU_Layer/LED/ecu_led.c: 18:     Std_ReturnType ret = (Std_ReturnType)0x01;
  1734   001AF0  0E01               	movlw	1
  1735   001AF2  6E78               	movwf	led_initialize@ret^0,c
  1736   001AF4                     
  1737                           ;ECU_Layer/LED/ecu_led.c: 19:     if(((void*)0) == led){
  1738   001AF4  5075               	movf	led_initialize@led^0,w,c
  1739   001AF6  1076               	iorwf	(led_initialize@led+1)^0,w,c
  1740   001AF8  A4D8               	btfss	status,2,c
  1741   001AFA  EF81  F00D         	goto	u2771
  1742   001AFE  EF83  F00D         	goto	u2770
  1743   001B02                     u2771:
  1744   001B02  EF87  F00D         	goto	l210
  1745   001B06                     u2770:
  1746   001B06                     
  1747                           ;ECU_Layer/LED/ecu_led.c: 20:         ret = (Std_ReturnType)0x00;
  1748   001B06  0E00               	movlw	0
  1749   001B08  6E78               	movwf	led_initialize@ret^0,c
  1750                           
  1751                           ;ECU_Layer/LED/ecu_led.c: 21:     }
  1752   001B0A  EFB4  F00D         	goto	l3812
  1753   001B0E                     l210:
  1754                           
  1755                           ;ECU_Layer/LED/ecu_led.c: 23:     {;ECU_Layer/LED/ecu_led.c: 24:         pin_config_t pi
      +                          n_obj={.port = led->port_name, .pin = led->pin, .direction = GPIO_OUTPUT, .logic = led->
      +                          led_status};
  1756   001B0E  C032  F079         	movff	led_initialize@F3048,led_initialize@pin_obj
  1757   001B12  C075  FFD9         	movff	led_initialize@led,fsr2l
  1758   001B16  C076  FFDA         	movff	led_initialize@led+1,fsr2h
  1759   001B1A  50DF               	movf	223,w,c
  1760   001B1C  0B0F               	andlw	15
  1761   001B1E  6E77               	movwf	??_led_initialize^0,c
  1762   001B20  5079               	movf	led_initialize@pin_obj^0,w,c
  1763   001B22  1877               	xorwf	??_led_initialize^0,w,c
  1764   001B24  0BF8               	andlw	-8
  1765   001B26  1877               	xorwf	??_led_initialize^0,w,c
  1766   001B28  6E79               	movwf	led_initialize@pin_obj^0,c
  1767   001B2A  C075  FFD9         	movff	led_initialize@led,fsr2l
  1768   001B2E  C076  FFDA         	movff	led_initialize@led+1,fsr2h
  1769   001B32  38DF               	swapf	223,w,c
  1770   001B34  0B07               	andlw	7
  1771   001B36  6E77               	movwf	??_led_initialize^0,c
  1772   001B38  4677               	rlncf	??_led_initialize^0,f,c
  1773   001B3A  4677               	rlncf	??_led_initialize^0,f,c
  1774   001B3C  4677               	rlncf	??_led_initialize^0,f,c
  1775   001B3E  5079               	movf	led_initialize@pin_obj^0,w,c
  1776   001B40  1877               	xorwf	??_led_initialize^0,w,c
  1777   001B42  0BC7               	andlw	-57
  1778   001B44  1877               	xorwf	??_led_initialize^0,w,c
  1779   001B46  6E79               	movwf	led_initialize@pin_obj^0,c
  1780   001B48  9C79               	bcf	led_initialize@pin_obj^0,6,c
  1781   001B4A  C075  FFD9         	movff	led_initialize@led,fsr2l
  1782   001B4E  C076  FFDA         	movff	led_initialize@led+1,fsr2h
  1783   001B52  AEDF               	btfss	indf2,7,c
  1784   001B54  D002               	bra	u2785
  1785   001B56  8E79               	bsf	led_initialize@pin_obj^0,7,c
  1786   001B58  D001               	bra	u2787
  1787   001B5A                     u2785:
  1788   001B5A  9E79               	bcf	led_initialize@pin_obj^0,7,c
  1789   001B5C                     u2787:
  1790   001B5C                     
  1791                           ;ECU_Layer/LED/ecu_led.c: 25:         gpio_pin_intialize(&pin_obj);
  1792   001B5C  0E79               	movlw	low led_initialize@pin_obj
  1793   001B5E  6E72               	movwf	gpio_pin_intialize@_pin_config^0,c
  1794   001B60  0E00               	movlw	high led_initialize@pin_obj
  1795   001B62  6E73               	movwf	(gpio_pin_intialize@_pin_config+1)^0,c
  1796   001B64  ECBD  F00E         	call	_gpio_pin_intialize	;wreg free
  1797   001B68                     l3812:
  1798                           
  1799                           ;ECU_Layer/LED/ecu_led.c: 27:     return ret;
  1800   001B68  5078               	movf	led_initialize@ret^0,w,c
  1801   001B6A  0012               	return		;funcret
  1802   001B6C                     __end_of_led_initialize:
  1803                           	callstack 0
  1804                           
  1805 ;; *************** function _gpio_pin_intialize *****************
  1806 ;; Defined at:
  1807 ;;		line 159 in file "MCAL_Layer/GPIO/hal_gpio.c"
  1808 ;; Parameters:    Size  Location     Type
  1809 ;;  _pin_config     2   15[COMRAM] PTR const struct .
  1810 ;;		 -> led_initialize@pin_obj(1), 
  1811 ;; Auto vars:     Size  Location     Type
  1812 ;;  ret             1   17[COMRAM] unsigned char 
  1813 ;; Return value:  Size  Location     Type
  1814 ;;                  1    wreg      unsigned char 
  1815 ;; Registers used:
  1816 ;;		wreg, fsr2l, fsr2h, status,2, status,0, prodl, prodh, cstack
  1817 ;; Tracked objects:
  1818 ;;		On entry : 0/0
  1819 ;;		On exit  : 0/0
  1820 ;;		Unchanged: 0/0
  1821 ;; Data sizes:     COMRAM   BANK0   BANK1   BANK2   BANK3   BANK4   BANK5   BANK6   BANK7   BANK8   BANK9  BANK10  BANK1
      +1  BANK12  BANK13  BANK14  BANK15
  1822 ;;      Params:         2       0       0       0       0       0       0       0       0       0       0       0       
      +0       0       0       0       0
  1823 ;;      Locals:         1       0       0       0       0       0       0       0       0       0       0       0       
      +0       0       0       0       0
  1824 ;;      Temps:          0       0       0       0       0       0       0       0       0       0       0       0       
      +0       0       0       0       0
  1825 ;;      Totals:         3       0       0       0       0       0       0       0       0       0       0       0       
      +0       0       0       0       0
  1826 ;;Total ram usage:        3 bytes
  1827 ;; Hardware stack levels used: 1
  1828 ;; Hardware stack levels required when called: 7
  1829 ;; This function calls:
  1830 ;;		_gpio_pin_direction_intialize
  1831 ;;		_gpio_pin_write_logic
  1832 ;; This function is called by:
  1833 ;;		_led_initialize
  1834 ;;		_lcd_4bit_intialize
  1835 ;;		_lcd_8bit_intialize
  1836 ;; This function uses a non-reentrant model
  1837 ;;
  1838                           
  1839                           	psect	text10
  1840   001D7A                     __ptext10:
  1841                           	callstack 0
  1842   001D7A                     _gpio_pin_intialize:
  1843                           	callstack 21
  1844   001D7A                     
  1845                           ;MCAL_Layer/GPIO/hal_gpio.c: 161:     if(((void*)0) == _pin_config)
  1846   001D7A  5072               	movf	gpio_pin_intialize@_pin_config^0,w,c
  1847   001D7C  1073               	iorwf	(gpio_pin_intialize@_pin_config+1)^0,w,c
  1848   001D7E  A4D8               	btfss	status,2,c
  1849   001D80  EFC4  F00E         	goto	u2671
  1850   001D84  EFC6  F00E         	goto	u2670
  1851   001D88                     u2671:
  1852   001D88  EFCA  F00E         	goto	l3690
  1853   001D8C                     u2670:
  1854   001D8C                     
  1855                           ;MCAL_Layer/GPIO/hal_gpio.c: 162:     {;MCAL_Layer/GPIO/hal_gpio.c: 163:         ret = (
      +                          Std_ReturnType)0x00;
  1856   001D8C  0E00               	movlw	0
  1857   001D8E  6E74               	movwf	gpio_pin_intialize@ret^0,c
  1858                           
  1859                           ;MCAL_Layer/GPIO/hal_gpio.c: 164:     }
  1860   001D90  EFE0  F00E         	goto	l3692
  1861   001D94                     l3690:
  1862                           
  1863                           ;MCAL_Layer/GPIO/hal_gpio.c: 166:     {;MCAL_Layer/GPIO/hal_gpio.c: 167:         ret = g
      +                          pio_pin_direction_intialize(_pin_config);
  1864   001D94  C072  F068         	movff	gpio_pin_intialize@_pin_config,gpio_pin_direction_intialize@_pin_config
  1865   001D98  C073  F069         	movff	gpio_pin_intialize@_pin_config+1,gpio_pin_direction_intialize@_pin_config+1
  1866   001D9C  EC81  F00B         	call	_gpio_pin_direction_intialize	;wreg free
  1867   001DA0  6E74               	movwf	gpio_pin_intialize@ret^0,c
  1868                           
  1869                           ;MCAL_Layer/GPIO/hal_gpio.c: 168:         ret &= gpio_pin_write_logic(_pin_config ,_pin_
      +                          config->logic);
  1870   001DA2  C072  F068         	movff	gpio_pin_intialize@_pin_config,gpio_pin_write_logic@_pin_config
  1871   001DA6  C073  F069         	movff	gpio_pin_intialize@_pin_config+1,gpio_pin_write_logic@_pin_config+1
  1872   001DAA  C072  FFD9         	movff	gpio_pin_intialize@_pin_config,fsr2l
  1873   001DAE  C073  FFDA         	movff	gpio_pin_intialize@_pin_config+1,fsr2h
  1874   001DB2  0E00               	movlw	0
  1875   001DB4  BEDF               	btfsc	indf2,7,c
  1876   001DB6  0E01               	movlw	1
  1877   001DB8  6E6A               	movwf	gpio_pin_write_logic@logic^0,c
  1878   001DBA  EC23  F00C         	call	_gpio_pin_write_logic	;wreg free
  1879   001DBE  1674               	andwf	gpio_pin_intialize@ret^0,f,c
  1880   001DC0                     l3692:
  1881                           
  1882                           ;MCAL_Layer/GPIO/hal_gpio.c: 172:     return ret;
  1883   001DC0  5074               	movf	gpio_pin_intialize@ret^0,w,c
  1884   001DC2  0012               	return		;funcret
  1885   001DC4                     __end_of_gpio_pin_intialize:
  1886                           	callstack 0
  1887                           
  1888 ;; *************** function _gpio_pin_write_logic *****************
  1889 ;; Defined at:
  1890 ;;		line 80 in file "MCAL_Layer/GPIO/hal_gpio.c"
  1891 ;; Parameters:    Size  Location     Type
  1892 ;;  _pin_config     2    5[COMRAM] PTR const struct .
  1893 ;;		 -> led_turn_off@pin_obj(1), led_turn_on@pin_obj(1), led_initialize@pin_obj(1), 
  1894 ;;  logic           1    7[COMRAM] enum E2968
  1895 ;; Auto vars:     Size  Location     Type
  1896 ;;  ret             1   14[COMRAM] unsigned char 
  1897 ;; Return value:  Size  Location     Type
  1898 ;;                  1    wreg      unsigned char 
  1899 ;; Registers used:
  1900 ;;		wreg, fsr2l, fsr2h, status,2, status,0, prodl, prodh
  1901 ;; Tracked objects:
  1902 ;;		On entry : 0/0
  1903 ;;		On exit  : 0/0
  1904 ;;		Unchanged: 0/0
  1905 ;; Data sizes:     COMRAM   BANK0   BANK1   BANK2   BANK3   BANK4   BANK5   BANK6   BANK7   BANK8   BANK9  BANK10  BANK1
      +1  BANK12  BANK13  BANK14  BANK15
  1906 ;;      Params:         3       0       0       0       0       0       0       0       0       0       0       0       
      +0       0       0       0       0
  1907 ;;      Locals:         1       0       0       0       0       0       0       0       0       0       0       0       
      +0       0       0       0       0
  1908 ;;      Temps:          6       0       0       0       0       0       0       0       0       0       0       0       
      +0       0       0       0       0
  1909 ;;      Totals:        10       0       0       0       0       0       0       0       0       0       0       0       
      +0       0       0       0       0
  1910 ;;Total ram usage:       10 bytes
  1911 ;; Hardware stack levels used: 1
  1912 ;; Hardware stack levels required when called: 6
  1913 ;; This function calls:
  1914 ;;		Nothing
  1915 ;; This function is called by:
  1916 ;;		_led_turn_on
  1917 ;;		_led_turn_off
  1918 ;;		_gpio_pin_intialize
  1919 ;;		_lcd_4bit_send_command
  1920 ;;		_lcd_4bit_send_char_data
  1921 ;;		_lcd_8bit_send_command
  1922 ;;		_lcd_8bit_send_char_data
  1923 ;;		_lcd_send_4bits
  1924 ;;		_lcd_4bit_send_enable_signal
  1925 ;;		_lcd_8bit_send_enable_signal
  1926 ;; This function uses a non-reentrant model
  1927 ;;
  1928                           
  1929                           	psect	text11
  1930   001846                     __ptext11:
  1931                           	callstack 0
  1932   001846                     _gpio_pin_write_logic:
  1933                           	callstack 22
  1934   001846                     
  1935                           ;MCAL_Layer/GPIO/hal_gpio.c: 81:     Std_ReturnType ret = (Std_ReturnType)0x01;
  1936   001846  0E01               	movlw	1
  1937   001848  6E71               	movwf	gpio_pin_write_logic@ret^0,c
  1938   00184A                     
  1939                           ;MCAL_Layer/GPIO/hal_gpio.c: 82:     if(((void*)0) == _pin_config || _pin_config->pin > 
      +                          8 -1)
  1940   00184A  5068               	movf	gpio_pin_write_logic@_pin_config^0,w,c
  1941   00184C  1069               	iorwf	(gpio_pin_write_logic@_pin_config+1)^0,w,c
  1942   00184E  B4D8               	btfsc	status,2,c
  1943   001850  EF2C  F00C         	goto	u2631
  1944   001854  EF2E  F00C         	goto	u2630
  1945   001858                     u2631:
  1946   001858  EF3F  F00C         	goto	l3666
  1947   00185C                     u2630:
  1948   00185C  C068  FFD9         	movff	gpio_pin_write_logic@_pin_config,fsr2l
  1949   001860  C069  FFDA         	movff	gpio_pin_write_logic@_pin_config+1,fsr2h
  1950   001864  30DF               	rrcf	223,w,c
  1951   001866  32E8               	rrcf	wreg,f,c
  1952   001868  32E8               	rrcf	wreg,f,c
  1953   00186A  0B07               	andlw	7
  1954   00186C  6E6B               	movwf	??_gpio_pin_write_logic^0,c
  1955   00186E  0E07               	movlw	7
  1956   001870  646B               	cpfsgt	??_gpio_pin_write_logic^0,c
  1957   001872  EF3D  F00C         	goto	u2641
  1958   001876  EF3F  F00C         	goto	u2640
  1959   00187A                     u2641:
  1960   00187A  EFA2  F00C         	goto	l3674
  1961   00187E                     u2640:
  1962   00187E                     l3666:
  1963                           
  1964                           ;MCAL_Layer/GPIO/hal_gpio.c: 83:     {;MCAL_Layer/GPIO/hal_gpio.c: 84:         ret = (St
      +                          d_ReturnType)0x00;
  1965   00187E  0E00               	movlw	0
  1966   001880  6E71               	movwf	gpio_pin_write_logic@ret^0,c
  1967                           
  1968                           ;MCAL_Layer/GPIO/hal_gpio.c: 85:     }
  1969   001882  EFB7  F00C         	goto	l3676
  1970   001886                     l3668:
  1971                           
  1972                           ;MCAL_Layer/GPIO/hal_gpio.c: 90:             (*lat_registers[_pin_config->port] &= ~((ui
      +                          nt8)1 << _pin_config->pin));
  1973   001886  C068  FFD9         	movff	gpio_pin_write_logic@_pin_config,fsr2l
  1974   00188A  C069  FFDA         	movff	gpio_pin_write_logic@_pin_config+1,fsr2h
  1975   00188E  30DF               	rrcf	223,w,c
  1976   001890  32E8               	rrcf	wreg,f,c
  1977   001892  32E8               	rrcf	wreg,f,c
  1978   001894  0B07               	andlw	7
  1979   001896  6E6B               	movwf	??_gpio_pin_write_logic^0,c
  1980   001898  0E01               	movlw	1
  1981   00189A  6E6C               	movwf	(??_gpio_pin_write_logic+1)^0,c
  1982   00189C  2A6B               	incf	??_gpio_pin_write_logic^0,f,c
  1983   00189E  EF53  F00C         	goto	u2654
  1984   0018A2                     u2655:
  1985   0018A2  90D8               	bcf	status,0,c
  1986   0018A4  366C               	rlcf	(??_gpio_pin_write_logic+1)^0,f,c
  1987   0018A6                     u2654:
  1988   0018A6  2E6B               	decfsz	??_gpio_pin_write_logic^0,f,c
  1989   0018A8  EF51  F00C         	goto	u2655
  1990   0018AC  506C               	movf	(??_gpio_pin_write_logic+1)^0,w,c
  1991   0018AE  0AFF               	xorlw	255
  1992   0018B0  6E6D               	movwf	(??_gpio_pin_write_logic+2)^0,c
  1993   0018B2  C068  FFD9         	movff	gpio_pin_write_logic@_pin_config,fsr2l
  1994   0018B6  C069  FFDA         	movff	gpio_pin_write_logic@_pin_config+1,fsr2h
  1995   0018BA  50DF               	movf	223,w,c
  1996   0018BC  0B07               	andlw	7
  1997   0018BE  6E6E               	movwf	(??_gpio_pin_write_logic+3)^0,c
  1998   0018C0  506E               	movf	(??_gpio_pin_write_logic+3)^0,w,c
  1999   0018C2  0D02               	mullw	2
  2000   0018C4  0E3F               	movlw	low _lat_registers
  2001   0018C6  24F3               	addwf	243,w,c
  2002   0018C8  6ED9               	movwf	fsr2l,c
  2003   0018CA  0E00               	movlw	high _lat_registers
  2004   0018CC  20F4               	addwfc	prodh,w,c
  2005   0018CE  6EDA               	movwf	fsr2h,c
  2006   0018D0  CFDE F06F          	movff	postinc2,??_gpio_pin_write_logic+4
  2007   0018D4  CFDD F070          	movff	postdec2,??_gpio_pin_write_logic+5
  2008   0018D8  C06F  FFD9         	movff	??_gpio_pin_write_logic+4,fsr2l
  2009   0018DC  C070  FFDA         	movff	??_gpio_pin_write_logic+5,fsr2h
  2010   0018E0  506D               	movf	(??_gpio_pin_write_logic+2)^0,w,c
  2011   0018E2  16DF               	andwf	indf2,f,c
  2012                           
  2013                           ;MCAL_Layer/GPIO/hal_gpio.c: 91:             break;
  2014   0018E4  EFB7  F00C         	goto	l3676
  2015   0018E8                     l3670:
  2016                           
  2017                           ;MCAL_Layer/GPIO/hal_gpio.c: 93:             (*lat_registers[_pin_config->port] |= ((uin
      +                          t8)1 << _pin_config->pin));
  2018   0018E8  C068  FFD9         	movff	gpio_pin_write_logic@_pin_config,fsr2l
  2019   0018EC  C069  FFDA         	movff	gpio_pin_write_logic@_pin_config+1,fsr2h
  2020   0018F0  30DF               	rrcf	223,w,c
  2021   0018F2  32E8               	rrcf	wreg,f,c
  2022   0018F4  32E8               	rrcf	wreg,f,c
  2023   0018F6  0B07               	andlw	7
  2024   0018F8  6E6B               	movwf	??_gpio_pin_write_logic^0,c
  2025   0018FA  0E01               	movlw	1
  2026   0018FC  6E6C               	movwf	(??_gpio_pin_write_logic+1)^0,c
  2027   0018FE  2A6B               	incf	??_gpio_pin_write_logic^0,f,c
  2028   001900  EF84  F00C         	goto	u2664
  2029   001904                     u2665:
  2030   001904  90D8               	bcf	status,0,c
  2031   001906  366C               	rlcf	(??_gpio_pin_write_logic+1)^0,f,c
  2032   001908                     u2664:
  2033   001908  2E6B               	decfsz	??_gpio_pin_write_logic^0,f,c
  2034   00190A  EF82  F00C         	goto	u2665
  2035   00190E  C068  FFD9         	movff	gpio_pin_write_logic@_pin_config,fsr2l
  2036   001912  C069  FFDA         	movff	gpio_pin_write_logic@_pin_config+1,fsr2h
  2037   001916  50DF               	movf	223,w,c
  2038   001918  0B07               	andlw	7
  2039   00191A  6E6D               	movwf	(??_gpio_pin_write_logic+2)^0,c
  2040   00191C  506D               	movf	(??_gpio_pin_write_logic+2)^0,w,c
  2041   00191E  0D02               	mullw	2
  2042   001920  0E3F               	movlw	low _lat_registers
  2043   001922  24F3               	addwf	243,w,c
  2044   001924  6ED9               	movwf	fsr2l,c
  2045   001926  0E00               	movlw	high _lat_registers
  2046   001928  20F4               	addwfc	prodh,w,c
  2047   00192A  6EDA               	movwf	fsr2h,c
  2048   00192C  CFDE F06E          	movff	postinc2,??_gpio_pin_write_logic+3
  2049   001930  CFDD F06F          	movff	postdec2,??_gpio_pin_write_logic+4
  2050   001934  C06E  FFD9         	movff	??_gpio_pin_write_logic+3,fsr2l
  2051   001938  C06F  FFDA         	movff	??_gpio_pin_write_logic+4,fsr2h
  2052   00193C  506C               	movf	(??_gpio_pin_write_logic+1)^0,w,c
  2053   00193E  12DF               	iorwf	indf2,f,c
  2054                           
  2055                           ;MCAL_Layer/GPIO/hal_gpio.c: 94:             break;
  2056   001940  EFB7  F00C         	goto	l3676
  2057   001944                     l3674:
  2058   001944  506A               	movf	gpio_pin_write_logic@logic^0,w,c
  2059   001946  6E6B               	movwf	??_gpio_pin_write_logic^0,c
  2060   001948  6A6C               	clrf	(??_gpio_pin_write_logic+1)^0,c
  2061                           
  2062                           ; Switch on 2 bytes has been partitioned into a top level switch of size 1, and 1 sub-sw
      +                          itches
  2063                           ; Switch size 1, requested type "simple"
  2064                           ; Number of cases is 1, Range of values is 0 to 0
  2065                           ; switch strategies available:
  2066                           ; Name         Instructions Cycles
  2067                           ; simple_byte            4     3 (average)
  2068                           ;	Chosen strategy is simple_byte
  2069   00194A  506C               	movf	(??_gpio_pin_write_logic+1)^0,w,c
  2070   00194C  0A00               	xorlw	0	; case 0
  2071   00194E  B4D8               	btfsc	status,2,c
  2072   001950  EFAC  F00C         	goto	l4764
  2073   001954  EF3F  F00C         	goto	l3666
  2074   001958                     l4764:
  2075                           
  2076                           ; Switch size 1, requested type "simple"
  2077                           ; Number of cases is 2, Range of values is 0 to 1
  2078                           ; switch strategies available:
  2079                           ; Name         Instructions Cycles
  2080                           ; simple_byte            7     4 (average)
  2081                           ;	Chosen strategy is simple_byte
  2082   001958  506B               	movf	??_gpio_pin_write_logic^0,w,c
  2083   00195A  0A00               	xorlw	0	; case 0
  2084   00195C  B4D8               	btfsc	status,2,c
  2085   00195E  EF43  F00C         	goto	l3668
  2086   001962  0A01               	xorlw	1	; case 1
  2087   001964  B4D8               	btfsc	status,2,c
  2088   001966  EF74  F00C         	goto	l3670
  2089   00196A  EF3F  F00C         	goto	l3666
  2090   00196E                     l3676:
  2091                           
  2092                           ;MCAL_Layer/GPIO/hal_gpio.c: 100:     return ret;
  2093   00196E  5071               	movf	gpio_pin_write_logic@ret^0,w,c
  2094   001970  0012               	return		;funcret
  2095   001972                     __end_of_gpio_pin_write_logic:
  2096                           	callstack 0
  2097                           
  2098 ;; *************** function _button_initialize *****************
  2099 ;; Defined at:
  2100 ;;		line 11 in file "ECU_Layer/button/hal_button.c"
  2101 ;; Parameters:    Size  Location     Type
  2102 ;;  btn             2   14[COMRAM] PTR const struct .
  2103 ;;		 -> btn_low(2), btn_high(2), 
  2104 ;; Auto vars:     Size  Location     Type
  2105 ;;  ret             1   16[COMRAM] unsigned char 
  2106 ;; Return value:  Size  Location     Type
  2107 ;;                  1    wreg      unsigned char 
  2108 ;; Registers used:
  2109 ;;		wreg, fsr2l, fsr2h, status,2, status,0, prodl, prodh, cstack
  2110 ;; Tracked objects:
  2111 ;;		On entry : 0/0
  2112 ;;		On exit  : 0/0
  2113 ;;		Unchanged: 0/0
  2114 ;; Data sizes:     COMRAM   BANK0   BANK1   BANK2   BANK3   BANK4   BANK5   BANK6   BANK7   BANK8   BANK9  BANK10  BANK1
      +1  BANK12  BANK13  BANK14  BANK15
  2115 ;;      Params:         2       0       0       0       0       0       0       0       0       0       0       0       
      +0       0       0       0       0
  2116 ;;      Locals:         1       0       0       0       0       0       0       0       0       0       0       0       
      +0       0       0       0       0
  2117 ;;      Temps:          0       0       0       0       0       0       0       0       0       0       0       0       
      +0       0       0       0       0
  2118 ;;      Totals:         3       0       0       0       0       0       0       0       0       0       0       0       
      +0       0       0       0       0
  2119 ;;Total ram usage:        3 bytes
  2120 ;; Hardware stack levels used: 1
  2121 ;; Hardware stack levels required when called: 7
  2122 ;; This function calls:
  2123 ;;		_gpio_pin_direction_intialize
  2124 ;; This function is called by:
  2125 ;;		_app_intialize
  2126 ;; This function uses a non-reentrant model
  2127 ;;
  2128                           
  2129                           	psect	text12
  2130   001E6A                     __ptext12:
  2131                           	callstack 0
  2132   001E6A                     _button_initialize:
  2133                           	callstack 22
  2134   001E6A                     
  2135                           ;ECU_Layer/button/hal_button.c: 13:     if(((void*)0) == btn){
  2136   001E6A  5071               	movf	button_initialize@btn^0,w,c
  2137   001E6C  1072               	iorwf	(button_initialize@btn+1)^0,w,c
  2138   001E6E  A4D8               	btfss	status,2,c
  2139   001E70  EF3C  F00F         	goto	u2681
  2140   001E74  EF3E  F00F         	goto	u2680
  2141   001E78                     u2681:
  2142   001E78  EF42  F00F         	goto	l3702
  2143   001E7C                     u2680:
  2144   001E7C                     
  2145                           ;ECU_Layer/button/hal_button.c: 14:         ret = (Std_ReturnType)0x00;
  2146   001E7C  0E00               	movlw	0
  2147   001E7E  6E73               	movwf	button_initialize@ret^0,c
  2148                           
  2149                           ;ECU_Layer/button/hal_button.c: 15:     }
  2150   001E80  EF49  F00F         	goto	l3704
  2151   001E84                     l3702:
  2152                           
  2153                           ;ECU_Layer/button/hal_button.c: 17:     {;ECU_Layer/button/hal_button.c: 18:         ret
      +                           = gpio_pin_direction_intialize(&(btn->button_pin));
  2154   001E84  C071  F068         	movff	button_initialize@btn,gpio_pin_direction_intialize@_pin_config
  2155   001E88  C072  F069         	movff	button_initialize@btn+1,gpio_pin_direction_intialize@_pin_config+1
  2156   001E8C  EC81  F00B         	call	_gpio_pin_direction_intialize	;wreg free
  2157   001E90  6E73               	movwf	button_initialize@ret^0,c
  2158   001E92                     l3704:
  2159                           
  2160                           ;ECU_Layer/button/hal_button.c: 20:     return ret;
  2161   001E92  5073               	movf	button_initialize@ret^0,w,c
  2162   001E94  0012               	return		;funcret
  2163   001E96                     __end_of_button_initialize:
  2164                           	callstack 0
  2165                           
  2166 ;; *************** function _gpio_pin_direction_intialize *****************
  2167 ;; Defined at:
  2168 ;;		line 22 in file "MCAL_Layer/GPIO/hal_gpio.c"
  2169 ;; Parameters:    Size  Location     Type
  2170 ;;  _pin_config     2    5[COMRAM] PTR const struct .
  2171 ;;		 -> btn_low(2), btn_high(2), led_initialize@pin_obj(1), 
  2172 ;; Auto vars:     Size  Location     Type
  2173 ;;  ret             1   13[COMRAM] unsigned char 
  2174 ;; Return value:  Size  Location     Type
  2175 ;;                  1    wreg      unsigned char 
  2176 ;; Registers used:
  2177 ;;		wreg, fsr2l, fsr2h, status,2, status,0, prodl, prodh
  2178 ;; Tracked objects:
  2179 ;;		On entry : 0/0
  2180 ;;		On exit  : 0/0
  2181 ;;		Unchanged: 0/0
  2182 ;; Data sizes:     COMRAM   BANK0   BANK1   BANK2   BANK3   BANK4   BANK5   BANK6   BANK7   BANK8   BANK9  BANK10  BANK1
      +1  BANK12  BANK13  BANK14  BANK15
  2183 ;;      Params:         2       0       0       0       0       0       0       0       0       0       0       0       
      +0       0       0       0       0
  2184 ;;      Locals:         1       0       0       0       0       0       0       0       0       0       0       0       
      +0       0       0       0       0
  2185 ;;      Temps:          6       0       0       0       0       0       0       0       0       0       0       0       
      +0       0       0       0       0
  2186 ;;      Totals:         9       0       0       0       0       0       0       0       0       0       0       0       
      +0       0       0       0       0
  2187 ;;Total ram usage:        9 bytes
  2188 ;; Hardware stack levels used: 1
  2189 ;; Hardware stack levels required when called: 6
  2190 ;; This function calls:
  2191 ;;		Nothing
  2192 ;; This function is called by:
  2193 ;;		_button_initialize
  2194 ;;		_gpio_pin_intialize
  2195 ;;		_Interrupt_RBx_Init
  2196 ;;		_Interrupt_INTx_Pin_Init
  2197 ;;		_Interrupt_RBx_Pin_Init
  2198 ;; This function uses a non-reentrant model
  2199 ;;
  2200                           
  2201                           	psect	text13
  2202   001702                     __ptext13:
  2203                           	callstack 0
  2204   001702                     _gpio_pin_direction_intialize:
  2205                           	callstack 21
  2206   001702                     
  2207                           ;MCAL_Layer/GPIO/hal_gpio.c: 23:     Std_ReturnType ret = (Std_ReturnType)0x01;
  2208   001702  0E01               	movlw	1
  2209   001704  6E70               	movwf	gpio_pin_direction_intialize@ret^0,c
  2210   001706                     
  2211                           ;MCAL_Layer/GPIO/hal_gpio.c: 24:     if(((void*)0) == _pin_config || _pin_config->pin > 
      +                          8 -1)
  2212   001706  5068               	movf	gpio_pin_direction_intialize@_pin_config^0,w,c
  2213   001708  1069               	iorwf	(gpio_pin_direction_intialize@_pin_config+1)^0,w,c
  2214   00170A  B4D8               	btfsc	status,2,c
  2215   00170C  EF8A  F00B         	goto	u2571
  2216   001710  EF8C  F00B         	goto	u2570
  2217   001714                     u2571:
  2218   001714  EF9D  F00B         	goto	l3642
  2219   001718                     u2570:
  2220   001718  C068  FFD9         	movff	gpio_pin_direction_intialize@_pin_config,fsr2l
  2221   00171C  C069  FFDA         	movff	gpio_pin_direction_intialize@_pin_config+1,fsr2h
  2222   001720  30DF               	rrcf	223,w,c
  2223   001722  32E8               	rrcf	wreg,f,c
  2224   001724  32E8               	rrcf	wreg,f,c
  2225   001726  0B07               	andlw	7
  2226   001728  6E6A               	movwf	??_gpio_pin_direction_intialize^0,c
  2227   00172A  0E07               	movlw	7
  2228   00172C  646A               	cpfsgt	??_gpio_pin_direction_intialize^0,c
  2229   00172E  EF9B  F00B         	goto	u2581
  2230   001732  EF9D  F00B         	goto	u2580
  2231   001736                     u2581:
  2232   001736  EF00  F00C         	goto	l3650
  2233   00173A                     u2580:
  2234   00173A                     l3642:
  2235                           
  2236                           ;MCAL_Layer/GPIO/hal_gpio.c: 25:     {;MCAL_Layer/GPIO/hal_gpio.c: 26:         ret = (St
      +                          d_ReturnType)0x00;
  2237   00173A  0E00               	movlw	0
  2238   00173C  6E70               	movwf	gpio_pin_direction_intialize@ret^0,c
  2239                           
  2240                           ;MCAL_Layer/GPIO/hal_gpio.c: 27:     }
  2241   00173E  EF21  F00C         	goto	l3652
  2242   001742                     l3644:
  2243                           
  2244                           ;MCAL_Layer/GPIO/hal_gpio.c: 32:             (*tris_registers[_pin_config->port] &= ~((u
      +                          int8)1 << _pin_config->pin));
  2245   001742  C068  FFD9         	movff	gpio_pin_direction_intialize@_pin_config,fsr2l
  2246   001746  C069  FFDA         	movff	gpio_pin_direction_intialize@_pin_config+1,fsr2h
  2247   00174A  30DF               	rrcf	223,w,c
  2248   00174C  32E8               	rrcf	wreg,f,c
  2249   00174E  32E8               	rrcf	wreg,f,c
  2250   001750  0B07               	andlw	7
  2251   001752  6E6A               	movwf	??_gpio_pin_direction_intialize^0,c
  2252   001754  0E01               	movlw	1
  2253   001756  6E6B               	movwf	(??_gpio_pin_direction_intialize+1)^0,c
  2254   001758  2A6A               	incf	??_gpio_pin_direction_intialize^0,f,c
  2255   00175A  EFB1  F00B         	goto	u2594
  2256   00175E                     u2595:
  2257   00175E  90D8               	bcf	status,0,c
  2258   001760  366B               	rlcf	(??_gpio_pin_direction_intialize+1)^0,f,c
  2259   001762                     u2594:
  2260   001762  2E6A               	decfsz	??_gpio_pin_direction_intialize^0,f,c
  2261   001764  EFAF  F00B         	goto	u2595
  2262   001768  506B               	movf	(??_gpio_pin_direction_intialize+1)^0,w,c
  2263   00176A  0AFF               	xorlw	255
  2264   00176C  6E6C               	movwf	(??_gpio_pin_direction_intialize+2)^0,c
  2265   00176E  C068  FFD9         	movff	gpio_pin_direction_intialize@_pin_config,fsr2l
  2266   001772  C069  FFDA         	movff	gpio_pin_direction_intialize@_pin_config+1,fsr2h
  2267   001776  50DF               	movf	223,w,c
  2268   001778  0B07               	andlw	7
  2269   00177A  6E6D               	movwf	(??_gpio_pin_direction_intialize+3)^0,c
  2270   00177C  506D               	movf	(??_gpio_pin_direction_intialize+3)^0,w,c
  2271   00177E  0D02               	mullw	2
  2272   001780  0E49               	movlw	low _tris_registers
  2273   001782  24F3               	addwf	243,w,c
  2274   001784  6ED9               	movwf	fsr2l,c
  2275   001786  0E00               	movlw	high _tris_registers
  2276   001788  20F4               	addwfc	prodh,w,c
  2277   00178A  6EDA               	movwf	fsr2h,c
  2278   00178C  CFDE F06E          	movff	postinc2,??_gpio_pin_direction_intialize+4
  2279   001790  CFDD F06F          	movff	postdec2,??_gpio_pin_direction_intialize+5
  2280   001794  C06E  FFD9         	movff	??_gpio_pin_direction_intialize+4,fsr2l
  2281   001798  C06F  FFDA         	movff	??_gpio_pin_direction_intialize+5,fsr2h
  2282   00179C  506C               	movf	(??_gpio_pin_direction_intialize+2)^0,w,c
  2283   00179E  16DF               	andwf	indf2,f,c
  2284                           
  2285                           ;MCAL_Layer/GPIO/hal_gpio.c: 33:             break;
  2286   0017A0  EF21  F00C         	goto	l3652
  2287   0017A4                     l3646:
  2288                           
  2289                           ;MCAL_Layer/GPIO/hal_gpio.c: 35:             (*tris_registers[_pin_config->port] |= ((ui
      +                          nt8)1 << _pin_config->pin));
  2290   0017A4  C068  FFD9         	movff	gpio_pin_direction_intialize@_pin_config,fsr2l
  2291   0017A8  C069  FFDA         	movff	gpio_pin_direction_intialize@_pin_config+1,fsr2h
  2292   0017AC  30DF               	rrcf	223,w,c
  2293   0017AE  32E8               	rrcf	wreg,f,c
  2294   0017B0  32E8               	rrcf	wreg,f,c
  2295   0017B2  0B07               	andlw	7
  2296   0017B4  6E6A               	movwf	??_gpio_pin_direction_intialize^0,c
  2297   0017B6  0E01               	movlw	1
  2298   0017B8  6E6B               	movwf	(??_gpio_pin_direction_intialize+1)^0,c
  2299   0017BA  2A6A               	incf	??_gpio_pin_direction_intialize^0,f,c
  2300   0017BC  EFE2  F00B         	goto	u2604
  2301   0017C0                     u2605:
  2302   0017C0  90D8               	bcf	status,0,c
  2303   0017C2  366B               	rlcf	(??_gpio_pin_direction_intialize+1)^0,f,c
  2304   0017C4                     u2604:
  2305   0017C4  2E6A               	decfsz	??_gpio_pin_direction_intialize^0,f,c
  2306   0017C6  EFE0  F00B         	goto	u2605
  2307   0017CA  C068  FFD9         	movff	gpio_pin_direction_intialize@_pin_config,fsr2l
  2308   0017CE  C069  FFDA         	movff	gpio_pin_direction_intialize@_pin_config+1,fsr2h
  2309   0017D2  50DF               	movf	223,w,c
  2310   0017D4  0B07               	andlw	7
  2311   0017D6  6E6C               	movwf	(??_gpio_pin_direction_intialize+2)^0,c
  2312   0017D8  506C               	movf	(??_gpio_pin_direction_intialize+2)^0,w,c
  2313   0017DA  0D02               	mullw	2
  2314   0017DC  0E49               	movlw	low _tris_registers
  2315   0017DE  24F3               	addwf	243,w,c
  2316   0017E0  6ED9               	movwf	fsr2l,c
  2317   0017E2  0E00               	movlw	high _tris_registers
  2318   0017E4  20F4               	addwfc	prodh,w,c
  2319   0017E6  6EDA               	movwf	fsr2h,c
  2320   0017E8  CFDE F06D          	movff	postinc2,??_gpio_pin_direction_intialize+3
  2321   0017EC  CFDD F06E          	movff	postdec2,??_gpio_pin_direction_intialize+4
  2322   0017F0  C06D  FFD9         	movff	??_gpio_pin_direction_intialize+3,fsr2l
  2323   0017F4  C06E  FFDA         	movff	??_gpio_pin_direction_intialize+4,fsr2h
  2324   0017F8  506B               	movf	(??_gpio_pin_direction_intialize+1)^0,w,c
  2325   0017FA  12DF               	iorwf	indf2,f,c
  2326                           
  2327                           ;MCAL_Layer/GPIO/hal_gpio.c: 36:             break;
  2328   0017FC  EF21  F00C         	goto	l3652
  2329   001800                     l3650:
  2330   001800  C068  FFD9         	movff	gpio_pin_direction_intialize@_pin_config,fsr2l
  2331   001804  C069  FFDA         	movff	gpio_pin_direction_intialize@_pin_config+1,fsr2h
  2332   001808  BCDF               	btfsc	indf2,6,c
  2333   00180A  EF09  F00C         	goto	u2611
  2334   00180E  EF0C  F00C         	goto	u2610
  2335   001812                     u2611:
  2336   001812  0E01               	movlw	1
  2337   001814  EF0D  F00C         	goto	u2620
  2338   001818                     u2610:
  2339   001818  0E00               	movlw	0
  2340   00181A                     u2620:
  2341   00181A  6E6A               	movwf	??_gpio_pin_direction_intialize^0,c
  2342   00181C  6A6B               	clrf	(??_gpio_pin_direction_intialize+1)^0,c
  2343                           
  2344                           ; Switch on 2 bytes has been partitioned into a top level switch of size 1, and 1 sub-sw
      +                          itches
  2345                           ; Switch size 1, requested type "simple"
  2346                           ; Number of cases is 1, Range of values is 0 to 0
  2347                           ; switch strategies available:
  2348                           ; Name         Instructions Cycles
  2349                           ; simple_byte            4     3 (average)
  2350                           ;	Chosen strategy is simple_byte
  2351   00181E  506B               	movf	(??_gpio_pin_direction_intialize+1)^0,w,c
  2352   001820  0A00               	xorlw	0	; case 0
  2353   001822  B4D8               	btfsc	status,2,c
  2354   001824  EF16  F00C         	goto	l4766
  2355   001828  EF9D  F00B         	goto	l3642
  2356   00182C                     l4766:
  2357                           
  2358                           ; Switch size 1, requested type "simple"
  2359                           ; Number of cases is 2, Range of values is 0 to 1
  2360                           ; switch strategies available:
  2361                           ; Name         Instructions Cycles
  2362                           ; simple_byte            7     4 (average)
  2363                           ;	Chosen strategy is simple_byte
  2364   00182C  506A               	movf	??_gpio_pin_direction_intialize^0,w,c
  2365   00182E  0A00               	xorlw	0	; case 0
  2366   001830  B4D8               	btfsc	status,2,c
  2367   001832  EFA1  F00B         	goto	l3644
  2368   001836  0A01               	xorlw	1	; case 1
  2369   001838  B4D8               	btfsc	status,2,c
  2370   00183A  EFD2  F00B         	goto	l3646
  2371   00183E  EF9D  F00B         	goto	l3642
  2372   001842                     l3652:
  2373                           
  2374                           ;MCAL_Layer/GPIO/hal_gpio.c: 43:     return ret;
  2375   001842  5070               	movf	gpio_pin_direction_intialize@ret^0,w,c
  2376   001844  0012               	return		;funcret
  2377   001846                     __end_of_gpio_pin_direction_intialize:
  2378                           	callstack 0
  2379                           
  2380 ;; *************** function _InterruptManagerLow *****************
  2381 ;; Defined at:
  2382 ;;		line 20 in file "MCAL_Layer/Interrupt/mcal_interrupt_manager.c"
  2383 ;; Parameters:    Size  Location     Type
  2384 ;;		None
  2385 ;; Auto vars:     Size  Location     Type
  2386 ;;		None
  2387 ;; Return value:  Size  Location     Type
  2388 ;;                  1    wreg      void 
  2389 ;; Registers used:
  2390 ;;		wreg, status,2, status,0, cstack
  2391 ;; Tracked objects:
  2392 ;;		On entry : 0/0
  2393 ;;		On exit  : 0/0
  2394 ;;		Unchanged: 0/0
  2395 ;; Data sizes:     COMRAM   BANK0   BANK1   BANK2   BANK3   BANK4   BANK5   BANK6   BANK7   BANK8   BANK9  BANK10  BANK1
      +1  BANK12  BANK13  BANK14  BANK15
  2396 ;;      Params:         0       0       0       0       0       0       0       0       0       0       0       0       
      +0       0       0       0       0
  2397 ;;      Locals:         0       0       0       0       0       0       0       0       0       0       0       0       
      +0       0       0       0       0
  2398 ;;      Temps:          3       0       0       0       0       0       0       0       0       0       0       0       
      +0       0       0       0       0
  2399 ;;      Totals:         3       0       0       0       0       0       0       0       0       0       0       0       
      +0       0       0       0       0
  2400 ;;Total ram usage:        3 bytes
  2401 ;; Hardware stack levels used: 1
  2402 ;; Hardware stack levels required when called: 5
  2403 ;; This function calls:
  2404 ;;		_InterruptCheck
  2405 ;; This function is called by:
  2406 ;;		Interrupt level 1
  2407 ;; This function uses a non-reentrant model
  2408 ;;
  2409                           
  2410                           	psect	intcodelo
  2411   000018                     __pintcodelo:
  2412                           	callstack 0
  2413   000018                     _InterruptManagerLow:
  2414                           	callstack 21
  2415                           
  2416                           ;incstack = 0
  2417   000018  807A               	bsf	int$flags,0,c	;set compiler interrupt flag (level 1)
  2418   00001A  CFD8 F065          	movff	status,??_InterruptManagerLow
  2419   00001E  CFE8 F066          	movff	wreg,??_InterruptManagerLow+1
  2420   000022  CFE0 F067          	movff	bsr,??_InterruptManagerLow+2
  2421   000026                     
  2422                           ;MCAL_Layer/Interrupt/mcal_interrupt_manager.c: 21:     InterruptCheck();
  2423   000026  EC03  F008         	call	_InterruptCheck	;wreg free
  2424   00002A  C067  FFE0         	movff	??_InterruptManagerLow+2,bsr
  2425   00002E  C066  FFE8         	movff	??_InterruptManagerLow+1,wreg
  2426   000032  C065  FFD8         	movff	??_InterruptManagerLow,status
  2427   000036  907A               	bcf	int$flags,0,c	;clear compiler interrupt flag (level 1)
  2428   000038  0010               	retfie	
  2429   00003A                     __end_of_InterruptManagerLow:
  2430                           	callstack 0
  2431                           
  2432 ;; *************** function _InterruptCheck *****************
  2433 ;; Defined at:
  2434 ;;		line 31 in file "MCAL_Layer/Interrupt/mcal_interrupt_manager.c"
  2435 ;; Parameters:    Size  Location     Type
  2436 ;;		None
  2437 ;; Auto vars:     Size  Location     Type
  2438 ;;		None
  2439 ;; Return value:  Size  Location     Type
  2440 ;;                  1    wreg      void 
  2441 ;; Registers used:
  2442 ;;		wreg, status,2, status,0, cstack
  2443 ;; Tracked objects:
  2444 ;;		On entry : 0/0
  2445 ;;		On exit  : 0/0
  2446 ;;		Unchanged: 0/0
  2447 ;; Data sizes:     COMRAM   BANK0   BANK1   BANK2   BANK3   BANK4   BANK5   BANK6   BANK7   BANK8   BANK9  BANK10  BANK1
      +1  BANK12  BANK13  BANK14  BANK15
  2448 ;;      Params:         0       0       0       0       0       0       0       0       0       0       0       0       
      +0       0       0       0       0
  2449 ;;      Locals:         0       0       0       0       0       0       0       0       0       0       0       0       
      +0       0       0       0       0
  2450 ;;      Temps:          0       0       0       0       0       0       0       0       0       0       0       0       
      +0       0       0       0       0
  2451 ;;      Totals:         0       0       0       0       0       0       0       0       0       0       0       0       
      +0       0       0       0       0
  2452 ;;Total ram usage:        0 bytes
  2453 ;; Hardware stack levels used: 1
  2454 ;; Hardware stack levels required when called: 4
  2455 ;; This function calls:
  2456 ;;		_ADC_ISR
  2457 ;;		_INT0_ISR
  2458 ;;		_INT1_ISR
  2459 ;;		_INT2_ISR
  2460 ;;		_RB4_ISR
  2461 ;;		_RB5_ISR
  2462 ;;		_RB6_ISR
  2463 ;;		_RB7_ISR
  2464 ;;		_TMRO_ISR
  2465 ;; This function is called by:
  2466 ;;		_InterruptManagerLow
  2467 ;; This function uses a non-reentrant model
  2468 ;;
  2469                           
  2470                           	psect	text15
  2471   001006                     __ptext15:
  2472                           	callstack 0
  2473   001006                     _InterruptCheck:
  2474                           	callstack 21
  2475   001006                     
  2476                           ;MCAL_Layer/Interrupt/mcal_interrupt_manager.c: 32:     if((1 == INTCONbits.INT0IE)&&(1 
      +                          == INTCONbits.INT0IF)){
  2477   001006  A8F2               	btfss	242,4,c	;volatile
  2478   001008  EF08  F008         	goto	i1u54_21
  2479   00100C  EF0A  F008         	goto	i1u54_20
  2480   001010                     i1u54_21:
  2481   001010  EF13  F008         	goto	i1l569
  2482   001014                     i1u54_20:
  2483   001014  A2F2               	btfss	242,1,c	;volatile
  2484   001016  EF0F  F008         	goto	i1u55_21
  2485   00101A  EF11  F008         	goto	i1u55_20
  2486   00101E                     i1u55_21:
  2487   00101E  EF13  F008         	goto	i1l569
  2488   001022                     i1u55_20:
  2489   001022                     
  2490                           ;MCAL_Layer/Interrupt/mcal_interrupt_manager.c: 33:         INT0_ISR();
  2491   001022  ECCD  F00F         	call	_INT0_ISR	;wreg free
  2492   001026                     i1l569:
  2493                           
  2494                           ;MCAL_Layer/Interrupt/mcal_interrupt_manager.c: 37:     if((1 == INTCON3bits.INT1IE)&&(1
      +                           == INTCON3bits.INT1IF)){
  2495   001026  A6F0               	btfss	240,3,c	;volatile
  2496   001028  EF18  F008         	goto	i1u56_21
  2497   00102C  EF1A  F008         	goto	i1u56_20
  2498   001030                     i1u56_21:
  2499   001030  EF23  F008         	goto	i1l571
  2500   001034                     i1u56_20:
  2501   001034  A0F0               	btfss	240,0,c	;volatile
  2502   001036  EF1F  F008         	goto	i1u57_21
  2503   00103A  EF21  F008         	goto	i1u57_20
  2504   00103E                     i1u57_21:
  2505   00103E  EF23  F008         	goto	i1l571
  2506   001042                     i1u57_20:
  2507   001042                     
  2508                           ;MCAL_Layer/Interrupt/mcal_interrupt_manager.c: 38:         INT1_ISR();
  2509   001042  ECCB  F00F         	call	_INT1_ISR	;wreg free
  2510   001046                     i1l571:
  2511                           
  2512                           ;MCAL_Layer/Interrupt/mcal_interrupt_manager.c: 42:     if((1 == INTCON3bits.INT2IE)&&(1
      +                           == INTCON3bits.INT2IF)){
  2513   001046  A8F0               	btfss	240,4,c	;volatile
  2514   001048  EF28  F008         	goto	i1u58_21
  2515   00104C  EF2A  F008         	goto	i1u58_20
  2516   001050                     i1u58_21:
  2517   001050  EF33  F008         	goto	i1l573
  2518   001054                     i1u58_20:
  2519   001054  A2F0               	btfss	240,1,c	;volatile
  2520   001056  EF2F  F008         	goto	i1u59_21
  2521   00105A  EF31  F008         	goto	i1u59_20
  2522   00105E                     i1u59_21:
  2523   00105E  EF33  F008         	goto	i1l573
  2524   001062                     i1u59_20:
  2525   001062                     
  2526                           ;MCAL_Layer/Interrupt/mcal_interrupt_manager.c: 43:         INT2_ISR();
  2527   001062  ECC9  F00F         	call	_INT2_ISR	;wreg free
  2528   001066                     i1l573:
  2529                           
  2530                           ;MCAL_Layer/Interrupt/mcal_interrupt_manager.c: 47:     if((1 == INTCONbits.RBIE)&&(1 ==
      +                           INTCONbits.RBIF)&&(PORTBbits.RB4 == GPIO_HIGH) && (RB4_Flag ==1)){
  2531   001066  A6F2               	btfss	242,3,c	;volatile
  2532   001068  EF38  F008         	goto	i1u60_21
  2533   00106C  EF3A  F008         	goto	i1u60_20
  2534   001070                     i1u60_21:
  2535   001070  EF55  F008         	goto	i1l575
  2536   001074                     i1u60_20:
  2537   001074  A0F2               	btfss	242,0,c	;volatile
  2538   001076  EF3F  F008         	goto	i1u61_21
  2539   00107A  EF41  F008         	goto	i1u61_20
  2540   00107E                     i1u61_21:
  2541   00107E  EF55  F008         	goto	i1l575
  2542   001082                     i1u61_20:
  2543   001082  A881               	btfss	129,4,c	;volatile
  2544   001084  EF46  F008         	goto	i1u62_21
  2545   001088  EF48  F008         	goto	i1u62_20
  2546   00108C                     i1u62_21:
  2547   00108C  EF55  F008         	goto	i1l575
  2548   001090                     i1u62_20:
  2549   001090  045C               	decf	_RB4_Flag^0,w,c	;volatile
  2550   001092  A4D8               	btfss	status,2,c
  2551   001094  EF4E  F008         	goto	i1u63_21
  2552   001098  EF50  F008         	goto	i1u63_20
  2553   00109C                     i1u63_21:
  2554   00109C  EF55  F008         	goto	i1l575
  2555   0010A0                     i1u63_20:
  2556   0010A0                     
  2557                           ;MCAL_Layer/Interrupt/mcal_interrupt_manager.c: 48:         RB4_Flag = 0;
  2558   0010A0  0E00               	movlw	0
  2559   0010A2  6E5C               	movwf	_RB4_Flag^0,c	;volatile
  2560   0010A4                     
  2561                           ;MCAL_Layer/Interrupt/mcal_interrupt_manager.c: 49:         RB4_ISR(1);
  2562   0010A4  0E01               	movlw	1
  2563   0010A6  EC72  F00F         	call	_RB4_ISR
  2564   0010AA                     i1l575:
  2565                           
  2566                           ;MCAL_Layer/Interrupt/mcal_interrupt_manager.c: 52:     if((1 == INTCONbits.RBIE)&&(1 ==
      +                           INTCONbits.RBIF)&&(PORTBbits.RB4 == GPIO_LOW)&& (RB4_Flag ==0)){
  2567   0010AA  A6F2               	btfss	242,3,c	;volatile
  2568   0010AC  EF5A  F008         	goto	i1u64_21
  2569   0010B0  EF5C  F008         	goto	i1u64_20
  2570   0010B4                     i1u64_21:
  2571   0010B4  EF77  F008         	goto	i1l577
  2572   0010B8                     i1u64_20:
  2573   0010B8  A0F2               	btfss	242,0,c	;volatile
  2574   0010BA  EF61  F008         	goto	i1u65_21
  2575   0010BE  EF63  F008         	goto	i1u65_20
  2576   0010C2                     i1u65_21:
  2577   0010C2  EF77  F008         	goto	i1l577
  2578   0010C6                     i1u65_20:
  2579   0010C6  B881               	btfsc	129,4,c	;volatile
  2580   0010C8  EF68  F008         	goto	i1u66_21
  2581   0010CC  EF6A  F008         	goto	i1u66_20
  2582   0010D0                     i1u66_21:
  2583   0010D0  EF77  F008         	goto	i1l577
  2584   0010D4                     i1u66_20:
  2585   0010D4  505C               	movf	_RB4_Flag^0,w,c	;volatile
  2586   0010D6  A4D8               	btfss	status,2,c
  2587   0010D8  EF70  F008         	goto	i1u67_21
  2588   0010DC  EF72  F008         	goto	i1u67_20
  2589   0010E0                     i1u67_21:
  2590   0010E0  EF77  F008         	goto	i1l577
  2591   0010E4                     i1u67_20:
  2592   0010E4                     
  2593                           ;MCAL_Layer/Interrupt/mcal_interrupt_manager.c: 53:         RB4_Flag = 1;
  2594   0010E4  0E01               	movlw	1
  2595   0010E6  6E5C               	movwf	_RB4_Flag^0,c	;volatile
  2596   0010E8                     
  2597                           ;MCAL_Layer/Interrupt/mcal_interrupt_manager.c: 54:         RB4_ISR(0);
  2598   0010E8  0E00               	movlw	0
  2599   0010EA  EC72  F00F         	call	_RB4_ISR
  2600   0010EE                     i1l577:
  2601                           
  2602                           ;MCAL_Layer/Interrupt/mcal_interrupt_manager.c: 58:     if((1 == INTCONbits.RBIE)&&(1 ==
      +                           INTCONbits.RBIF)&&(PORTBbits.RB5 == GPIO_HIGH) && (RB5_Flag ==1)){
  2603   0010EE  A6F2               	btfss	242,3,c	;volatile
  2604   0010F0  EF7C  F008         	goto	i1u68_21
  2605   0010F4  EF7E  F008         	goto	i1u68_20
  2606   0010F8                     i1u68_21:
  2607   0010F8  EF99  F008         	goto	i1l579
  2608   0010FC                     i1u68_20:
  2609   0010FC  A0F2               	btfss	242,0,c	;volatile
  2610   0010FE  EF83  F008         	goto	i1u69_21
  2611   001102  EF85  F008         	goto	i1u69_20
  2612   001106                     i1u69_21:
  2613   001106  EF99  F008         	goto	i1l579
  2614   00110A                     i1u69_20:
  2615   00110A  AA81               	btfss	129,5,c	;volatile
  2616   00110C  EF8A  F008         	goto	i1u70_21
  2617   001110  EF8C  F008         	goto	i1u70_20
  2618   001114                     i1u70_21:
  2619   001114  EF99  F008         	goto	i1l579
  2620   001118                     i1u70_20:
  2621   001118  045B               	decf	_RB5_Flag^0,w,c	;volatile
  2622   00111A  A4D8               	btfss	status,2,c
  2623   00111C  EF92  F008         	goto	i1u71_21
  2624   001120  EF94  F008         	goto	i1u71_20
  2625   001124                     i1u71_21:
  2626   001124  EF99  F008         	goto	i1l579
  2627   001128                     i1u71_20:
  2628   001128                     
  2629                           ;MCAL_Layer/Interrupt/mcal_interrupt_manager.c: 59:         RB5_Flag = 0;
  2630   001128  0E00               	movlw	0
  2631   00112A  6E5B               	movwf	_RB5_Flag^0,c	;volatile
  2632   00112C                     
  2633                           ;MCAL_Layer/Interrupt/mcal_interrupt_manager.c: 60:         RB5_ISR(1);
  2634   00112C  0E01               	movlw	1
  2635   00112E  EC65  F00F         	call	_RB5_ISR
  2636   001132                     i1l579:
  2637                           
  2638                           ;MCAL_Layer/Interrupt/mcal_interrupt_manager.c: 63:     if((1 == INTCONbits.RBIE)&&(1 ==
      +                           INTCONbits.RBIF)&&(PORTBbits.RB5 == GPIO_LOW)&& (RB5_Flag ==0)){
  2639   001132  A6F2               	btfss	242,3,c	;volatile
  2640   001134  EF9E  F008         	goto	i1u72_21
  2641   001138  EFA0  F008         	goto	i1u72_20
  2642   00113C                     i1u72_21:
  2643   00113C  EFBB  F008         	goto	i1l581
  2644   001140                     i1u72_20:
  2645   001140  A0F2               	btfss	242,0,c	;volatile
  2646   001142  EFA5  F008         	goto	i1u73_21
  2647   001146  EFA7  F008         	goto	i1u73_20
  2648   00114A                     i1u73_21:
  2649   00114A  EFBB  F008         	goto	i1l581
  2650   00114E                     i1u73_20:
  2651   00114E  BA81               	btfsc	129,5,c	;volatile
  2652   001150  EFAC  F008         	goto	i1u74_21
  2653   001154  EFAE  F008         	goto	i1u74_20
  2654   001158                     i1u74_21:
  2655   001158  EFBB  F008         	goto	i1l581
  2656   00115C                     i1u74_20:
  2657   00115C  505B               	movf	_RB5_Flag^0,w,c	;volatile
  2658   00115E  A4D8               	btfss	status,2,c
  2659   001160  EFB4  F008         	goto	i1u75_21
  2660   001164  EFB6  F008         	goto	i1u75_20
  2661   001168                     i1u75_21:
  2662   001168  EFBB  F008         	goto	i1l581
  2663   00116C                     i1u75_20:
  2664   00116C                     
  2665                           ;MCAL_Layer/Interrupt/mcal_interrupt_manager.c: 64:         RB5_Flag = 1;
  2666   00116C  0E01               	movlw	1
  2667   00116E  6E5B               	movwf	_RB5_Flag^0,c	;volatile
  2668   001170                     
  2669                           ;MCAL_Layer/Interrupt/mcal_interrupt_manager.c: 65:         RB5_ISR(0);
  2670   001170  0E00               	movlw	0
  2671   001172  EC65  F00F         	call	_RB5_ISR
  2672   001176                     i1l581:
  2673                           
  2674                           ;MCAL_Layer/Interrupt/mcal_interrupt_manager.c: 69:     if((1 == INTCONbits.RBIE)&&(1 ==
      +                           INTCONbits.RBIF)&&(PORTBbits.RB6 == GPIO_HIGH) && (RB6_Flag ==1)){
  2675   001176  A6F2               	btfss	242,3,c	;volatile
  2676   001178  EFC0  F008         	goto	i1u76_21
  2677   00117C  EFC2  F008         	goto	i1u76_20
  2678   001180                     i1u76_21:
  2679   001180  EFDD  F008         	goto	i1l583
  2680   001184                     i1u76_20:
  2681   001184  A0F2               	btfss	242,0,c	;volatile
  2682   001186  EFC7  F008         	goto	i1u77_21
  2683   00118A  EFC9  F008         	goto	i1u77_20
  2684   00118E                     i1u77_21:
  2685   00118E  EFDD  F008         	goto	i1l583
  2686   001192                     i1u77_20:
  2687   001192  AC81               	btfss	129,6,c	;volatile
  2688   001194  EFCE  F008         	goto	i1u78_21
  2689   001198  EFD0  F008         	goto	i1u78_20
  2690   00119C                     i1u78_21:
  2691   00119C  EFDD  F008         	goto	i1l583
  2692   0011A0                     i1u78_20:
  2693   0011A0  045A               	decf	_RB6_Flag^0,w,c	;volatile
  2694   0011A2  A4D8               	btfss	status,2,c
  2695   0011A4  EFD6  F008         	goto	i1u79_21
  2696   0011A8  EFD8  F008         	goto	i1u79_20
  2697   0011AC                     i1u79_21:
  2698   0011AC  EFDD  F008         	goto	i1l583
  2699   0011B0                     i1u79_20:
  2700   0011B0                     
  2701                           ;MCAL_Layer/Interrupt/mcal_interrupt_manager.c: 70:         RB6_Flag = 0;
  2702   0011B0  0E00               	movlw	0
  2703   0011B2  6E5A               	movwf	_RB6_Flag^0,c	;volatile
  2704   0011B4                     
  2705                           ;MCAL_Layer/Interrupt/mcal_interrupt_manager.c: 71:         RB6_ISR(1);
  2706   0011B4  0E01               	movlw	1
  2707   0011B6  EC58  F00F         	call	_RB6_ISR
  2708   0011BA                     i1l583:
  2709                           
  2710                           ;MCAL_Layer/Interrupt/mcal_interrupt_manager.c: 74:     if((1 == INTCONbits.RBIE)&&(1 ==
      +                           INTCONbits.RBIF)&&(PORTBbits.RB6 == GPIO_LOW)&& (RB6_Flag ==0)){
  2711   0011BA  A6F2               	btfss	242,3,c	;volatile
  2712   0011BC  EFE2  F008         	goto	i1u80_21
  2713   0011C0  EFE4  F008         	goto	i1u80_20
  2714   0011C4                     i1u80_21:
  2715   0011C4  EFFF  F008         	goto	i1l585
  2716   0011C8                     i1u80_20:
  2717   0011C8  A0F2               	btfss	242,0,c	;volatile
  2718   0011CA  EFE9  F008         	goto	i1u81_21
  2719   0011CE  EFEB  F008         	goto	i1u81_20
  2720   0011D2                     i1u81_21:
  2721   0011D2  EFFF  F008         	goto	i1l585
  2722   0011D6                     i1u81_20:
  2723   0011D6  BC81               	btfsc	129,6,c	;volatile
  2724   0011D8  EFF0  F008         	goto	i1u82_21
  2725   0011DC  EFF2  F008         	goto	i1u82_20
  2726   0011E0                     i1u82_21:
  2727   0011E0  EFFF  F008         	goto	i1l585
  2728   0011E4                     i1u82_20:
  2729   0011E4  505A               	movf	_RB6_Flag^0,w,c	;volatile
  2730   0011E6  A4D8               	btfss	status,2,c
  2731   0011E8  EFF8  F008         	goto	i1u83_21
  2732   0011EC  EFFA  F008         	goto	i1u83_20
  2733   0011F0                     i1u83_21:
  2734   0011F0  EFFF  F008         	goto	i1l585
  2735   0011F4                     i1u83_20:
  2736   0011F4                     
  2737                           ;MCAL_Layer/Interrupt/mcal_interrupt_manager.c: 75:         RB6_Flag = 1;
  2738   0011F4  0E01               	movlw	1
  2739   0011F6  6E5A               	movwf	_RB6_Flag^0,c	;volatile
  2740   0011F8                     
  2741                           ;MCAL_Layer/Interrupt/mcal_interrupt_manager.c: 76:         RB6_ISR(0);
  2742   0011F8  0E00               	movlw	0
  2743   0011FA  EC58  F00F         	call	_RB6_ISR
  2744   0011FE                     i1l585:
  2745                           
  2746                           ;MCAL_Layer/Interrupt/mcal_interrupt_manager.c: 80:     if((1 == INTCONbits.RBIE)&&(1 ==
      +                           INTCONbits.RBIF)&&(PORTBbits.RB7 == GPIO_HIGH) && (RB7_Flag ==1)){
  2747   0011FE  A6F2               	btfss	242,3,c	;volatile
  2748   001200  EF04  F009         	goto	i1u84_21
  2749   001204  EF06  F009         	goto	i1u84_20
  2750   001208                     i1u84_21:
  2751   001208  EF21  F009         	goto	i1l587
  2752   00120C                     i1u84_20:
  2753   00120C  A0F2               	btfss	242,0,c	;volatile
  2754   00120E  EF0B  F009         	goto	i1u85_21
  2755   001212  EF0D  F009         	goto	i1u85_20
  2756   001216                     i1u85_21:
  2757   001216  EF21  F009         	goto	i1l587
  2758   00121A                     i1u85_20:
  2759   00121A  AE81               	btfss	129,7,c	;volatile
  2760   00121C  EF12  F009         	goto	i1u86_21
  2761   001220  EF14  F009         	goto	i1u86_20
  2762   001224                     i1u86_21:
  2763   001224  EF21  F009         	goto	i1l587
  2764   001228                     i1u86_20:
  2765   001228  0459               	decf	_RB7_Flag^0,w,c	;volatile
  2766   00122A  A4D8               	btfss	status,2,c
  2767   00122C  EF1A  F009         	goto	i1u87_21
  2768   001230  EF1C  F009         	goto	i1u87_20
  2769   001234                     i1u87_21:
  2770   001234  EF21  F009         	goto	i1l587
  2771   001238                     i1u87_20:
  2772   001238                     
  2773                           ;MCAL_Layer/Interrupt/mcal_interrupt_manager.c: 81:         RB7_Flag = 0;
  2774   001238  0E00               	movlw	0
  2775   00123A  6E59               	movwf	_RB7_Flag^0,c	;volatile
  2776   00123C                     
  2777                           ;MCAL_Layer/Interrupt/mcal_interrupt_manager.c: 82:         RB7_ISR(1);
  2778   00123C  0E01               	movlw	1
  2779   00123E  EC4B  F00F         	call	_RB7_ISR
  2780   001242                     i1l587:
  2781                           
  2782                           ;MCAL_Layer/Interrupt/mcal_interrupt_manager.c: 85:     if((1 == INTCONbits.RBIE)&&(1 ==
      +                           INTCONbits.RBIF)&&(PORTBbits.RB7 == GPIO_LOW)&& (RB7_Flag ==0)){
  2783   001242  A6F2               	btfss	242,3,c	;volatile
  2784   001244  EF26  F009         	goto	i1u88_21
  2785   001248  EF28  F009         	goto	i1u88_20
  2786   00124C                     i1u88_21:
  2787   00124C  EF43  F009         	goto	i1l589
  2788   001250                     i1u88_20:
  2789   001250  A0F2               	btfss	242,0,c	;volatile
  2790   001252  EF2D  F009         	goto	i1u89_21
  2791   001256  EF2F  F009         	goto	i1u89_20
  2792   00125A                     i1u89_21:
  2793   00125A  EF43  F009         	goto	i1l589
  2794   00125E                     i1u89_20:
  2795   00125E  BE81               	btfsc	129,7,c	;volatile
  2796   001260  EF34  F009         	goto	i1u90_21
  2797   001264  EF36  F009         	goto	i1u90_20
  2798   001268                     i1u90_21:
  2799   001268  EF43  F009         	goto	i1l589
  2800   00126C                     i1u90_20:
  2801   00126C  5059               	movf	_RB7_Flag^0,w,c	;volatile
  2802   00126E  A4D8               	btfss	status,2,c
  2803   001270  EF3C  F009         	goto	i1u91_21
  2804   001274  EF3E  F009         	goto	i1u91_20
  2805   001278                     i1u91_21:
  2806   001278  EF43  F009         	goto	i1l589
  2807   00127C                     i1u91_20:
  2808   00127C                     
  2809                           ;MCAL_Layer/Interrupt/mcal_interrupt_manager.c: 86:         RB7_Flag = 1;
  2810   00127C  0E01               	movlw	1
  2811   00127E  6E59               	movwf	_RB7_Flag^0,c	;volatile
  2812   001280                     
  2813                           ;MCAL_Layer/Interrupt/mcal_interrupt_manager.c: 87:         RB7_ISR(0);
  2814   001280  0E00               	movlw	0
  2815   001282  EC4B  F00F         	call	_RB7_ISR
  2816   001286                     i1l589:
  2817                           
  2818                           ;MCAL_Layer/Interrupt/mcal_interrupt_manager.c: 91:     if((1 == PIE1bits.ADIE)&&(1 == P
      +                          IR1bits.ADIF)){
  2819   001286  AC9D               	btfss	157,6,c	;volatile
  2820   001288  EF48  F009         	goto	i1u92_21
  2821   00128C  EF4A  F009         	goto	i1u92_20
  2822   001290                     i1u92_21:
  2823   001290  EF53  F009         	goto	i1l591
  2824   001294                     i1u92_20:
  2825   001294  AC9E               	btfss	158,6,c	;volatile
  2826   001296  EF4F  F009         	goto	i1u93_21
  2827   00129A  EF51  F009         	goto	i1u93_20
  2828   00129E                     i1u93_21:
  2829   00129E  EF53  F009         	goto	i1l591
  2830   0012A2                     i1u93_20:
  2831   0012A2                     
  2832                           ;MCAL_Layer/Interrupt/mcal_interrupt_manager.c: 92:         ADC_ISR();
  2833   0012A2  ECCF  F00F         	call	_ADC_ISR	;wreg free
  2834   0012A6                     i1l591:
  2835                           
  2836                           ;MCAL_Layer/Interrupt/mcal_interrupt_manager.c: 96:     if((1 == INTCONbits.TMR0IE)&&(1 
      +                          == INTCONbits.TMR0IF)){
  2837   0012A6  AAF2               	btfss	242,5,c	;volatile
  2838   0012A8  EF58  F009         	goto	i1u94_21
  2839   0012AC  EF5A  F009         	goto	i1u94_20
  2840   0012B0                     i1u94_21:
  2841   0012B0  EF63  F009         	goto	i1l594
  2842   0012B4                     i1u94_20:
  2843   0012B4  A4F2               	btfss	242,2,c	;volatile
  2844   0012B6  EF5F  F009         	goto	i1u95_21
  2845   0012BA  EF61  F009         	goto	i1u95_20
  2846   0012BE                     i1u95_21:
  2847   0012BE  EF63  F009         	goto	i1l594
  2848   0012C2                     i1u95_20:
  2849   0012C2                     
  2850                           ;MCAL_Layer/Interrupt/mcal_interrupt_manager.c: 97:         TMRO_ISR();
  2851   0012C2  ECB3  F00F         	call	_TMRO_ISR	;wreg free
  2852   0012C6                     i1l594:
  2853   0012C6  0012               	return		;funcret
  2854   0012C8                     __end_of_InterruptCheck:
  2855                           	callstack 0
  2856                           
  2857 ;; *************** function _TMRO_ISR *****************
  2858 ;; Defined at:
  2859 ;;		line 131 in file "MCAL_Layer/Timer/Timer0/hal_timer0.c"
  2860 ;; Parameters:    Size  Location     Type
  2861 ;;		None
  2862 ;; Auto vars:     Size  Location     Type
  2863 ;;		None
  2864 ;; Return value:  Size  Location     Type
  2865 ;;                  1    wreg      void 
  2866 ;; Registers used:
  2867 ;;		wreg, status,2
  2868 ;; Tracked objects:
  2869 ;;		On entry : 0/0
  2870 ;;		On exit  : 0/0
  2871 ;;		Unchanged: 0/0
  2872 ;; Data sizes:     COMRAM   BANK0   BANK1   BANK2   BANK3   BANK4   BANK5   BANK6   BANK7   BANK8   BANK9  BANK10  BANK1
      +1  BANK12  BANK13  BANK14  BANK15
  2873 ;;      Params:         0       0       0       0       0       0       0       0       0       0       0       0       
      +0       0       0       0       0
  2874 ;;      Locals:         0       0       0       0       0       0       0       0       0       0       0       0       
      +0       0       0       0       0
  2875 ;;      Temps:          0       0       0       0       0       0       0       0       0       0       0       0       
      +0       0       0       0       0
  2876 ;;      Totals:         0       0       0       0       0       0       0       0       0       0       0       0       
      +0       0       0       0       0
  2877 ;;Total ram usage:        0 bytes
  2878 ;; Hardware stack levels used: 1
  2879 ;; Hardware stack levels required when called: 3
  2880 ;; This function calls:
  2881 ;;		Nothing
  2882 ;; This function is called by:
  2883 ;;		_InterruptCheck
  2884 ;; This function uses a non-reentrant model
  2885 ;;
  2886                           
  2887                           	psect	text16
  2888   001F66                     __ptext16:
  2889                           	callstack 0
  2890   001F66                     _TMRO_ISR:
  2891                           	callstack 21
  2892   001F66                     
  2893                           ;MCAL_Layer/Timer/Timer0/hal_timer0.c: 132:     (INTCONbits.TMR0IF = 0);
  2894   001F66  94F2               	bcf	242,2,c	;volatile
  2895   001F68                     
  2896                           ;MCAL_Layer/Timer/Timer0/hal_timer0.c: 133:     TMR0H = timer0_preload >>8;
  2897   001F68  500C               	movf	(_timer0_preload+1)^0,w,c
  2898   001F6A  6ED7               	movwf	215,c	;volatile
  2899   001F6C                     
  2900                           ;MCAL_Layer/Timer/Timer0/hal_timer0.c: 134:     TMR0L = (uint8)timer0_preload;
  2901   001F6C  C00B  FFD6         	movff	_timer0_preload,4054	;volatile
  2902   001F70  0012               	return		;funcret
  2903   001F72                     __end_of_TMRO_ISR:
  2904                           	callstack 0
  2905                           
  2906 ;; *************** function _RB7_ISR *****************
  2907 ;; Defined at:
  2908 ;;		line 605 in file "mcal_external_interrupt.c"
  2909 ;; Parameters:    Size  Location     Type
  2910 ;;  RB7_Source      1    wreg     unsigned char 
  2911 ;; Auto vars:     Size  Location     Type
  2912 ;;  RB7_Source      1    1[COMRAM] unsigned char 
  2913 ;; Return value:  Size  Location     Type
  2914 ;;                  1    wreg      void 
  2915 ;; Registers used:
  2916 ;;		wreg, status,2, status,0
  2917 ;; Tracked objects:
  2918 ;;		On entry : 0/0
  2919 ;;		On exit  : 0/0
  2920 ;;		Unchanged: 0/0
  2921 ;; Data sizes:     COMRAM   BANK0   BANK1   BANK2   BANK3   BANK4   BANK5   BANK6   BANK7   BANK8   BANK9  BANK10  BANK1
      +1  BANK12  BANK13  BANK14  BANK15
  2922 ;;      Params:         0       0       0       0       0       0       0       0       0       0       0       0       
      +0       0       0       0       0
  2923 ;;      Locals:         1       0       0       0       0       0       0       0       0       0       0       0       
      +0       0       0       0       0
  2924 ;;      Temps:          0       0       0       0       0       0       0       0       0       0       0       0       
      +0       0       0       0       0
  2925 ;;      Totals:         1       0       0       0       0       0       0       0       0       0       0       0       
      +0       0       0       0       0
  2926 ;;Total ram usage:        1 bytes
  2927 ;; Hardware stack levels used: 1
  2928 ;; Hardware stack levels required when called: 3
  2929 ;; This function calls:
  2930 ;;		Nothing
  2931 ;; This function is called by:
  2932 ;;		_InterruptCheck
  2933 ;; This function uses a non-reentrant model
  2934 ;;
  2935                           
  2936                           	psect	text17
  2937   001E96                     __ptext17:
  2938                           	callstack 0
  2939   001E96                     _RB7_ISR:
  2940                           	callstack 21
  2941                           
  2942                           ;incstack = 0
  2943                           ;RB7_ISR@RB7_Source stored from wreg
  2944   001E96  6E64               	movwf	RB7_ISR@RB7_Source^0,c
  2945   001E98                     
  2946                           ;mcal_external_interrupt.c: 607:     (INTCONbits.RBIF = 0);
  2947   001E98  90F2               	bcf	242,0,c	;volatile
  2948   001E9A                     
  2949                           ;mcal_external_interrupt.c: 611:     if(0 == RB7_Source){
  2950   001E9A  5064               	movf	RB7_ISR@RB7_Source^0,w,c
  2951   001E9C  A4D8               	btfss	status,2,c
  2952   001E9E  EF53  F00F         	goto	i1u30_21
  2953   001EA2  EF55  F00F         	goto	i1u30_20
  2954   001EA6                     i1u30_21:
  2955   001EA6  EF57  F00F         	goto	i1l2012
  2956   001EAA                     i1u30_20:
  2957   001EAA  EF57  F00F         	goto	i1l869
  2958   001EAE                     i1l2012:
  2959   001EAE                     i1l869:
  2960   001EAE  0012               	return		;funcret
  2961   001EB0                     __end_of_RB7_ISR:
  2962                           	callstack 0
  2963                           
  2964 ;; *************** function _RB6_ISR *****************
  2965 ;; Defined at:
  2966 ;;		line 587 in file "mcal_external_interrupt.c"
  2967 ;; Parameters:    Size  Location     Type
  2968 ;;  RB6_Source      1    wreg     unsigned char 
  2969 ;; Auto vars:     Size  Location     Type
  2970 ;;  RB6_Source      1    1[COMRAM] unsigned char 
  2971 ;; Return value:  Size  Location     Type
  2972 ;;                  1    wreg      void 
  2973 ;; Registers used:
  2974 ;;		wreg, status,2, status,0
  2975 ;; Tracked objects:
  2976 ;;		On entry : 0/0
  2977 ;;		On exit  : 0/0
  2978 ;;		Unchanged: 0/0
  2979 ;; Data sizes:     COMRAM   BANK0   BANK1   BANK2   BANK3   BANK4   BANK5   BANK6   BANK7   BANK8   BANK9  BANK10  BANK1
      +1  BANK12  BANK13  BANK14  BANK15
  2980 ;;      Params:         0       0       0       0       0       0       0       0       0       0       0       0       
      +0       0       0       0       0
  2981 ;;      Locals:         1       0       0       0       0       0       0       0       0       0       0       0       
      +0       0       0       0       0
  2982 ;;      Temps:          0       0       0       0       0       0       0       0       0       0       0       0       
      +0       0       0       0       0
  2983 ;;      Totals:         1       0       0       0       0       0       0       0       0       0       0       0       
      +0       0       0       0       0
  2984 ;;Total ram usage:        1 bytes
  2985 ;; Hardware stack levels used: 1
  2986 ;; Hardware stack levels required when called: 3
  2987 ;; This function calls:
  2988 ;;		Nothing
  2989 ;; This function is called by:
  2990 ;;		_InterruptCheck
  2991 ;; This function uses a non-reentrant model
  2992 ;;
  2993                           
  2994                           	psect	text18
  2995   001EB0                     __ptext18:
  2996                           	callstack 0
  2997   001EB0                     _RB6_ISR:
  2998                           	callstack 21
  2999                           
  3000                           ;incstack = 0
  3001                           ;RB6_ISR@RB6_Source stored from wreg
  3002   001EB0  6E64               	movwf	RB6_ISR@RB6_Source^0,c
  3003   001EB2                     
  3004                           ;mcal_external_interrupt.c: 589:     (INTCONbits.RBIF = 0);
  3005   001EB2  90F2               	bcf	242,0,c	;volatile
  3006   001EB4                     
  3007                           ;mcal_external_interrupt.c: 593:     if(0 == RB6_Source){
  3008   001EB4  5064               	movf	RB6_ISR@RB6_Source^0,w,c
  3009   001EB6  A4D8               	btfss	status,2,c
  3010   001EB8  EF60  F00F         	goto	i1u29_21
  3011   001EBC  EF62  F00F         	goto	i1u29_20
  3012   001EC0                     i1u29_21:
  3013   001EC0  EF64  F00F         	goto	i1l1998
  3014   001EC4                     i1u29_20:
  3015   001EC4  EF64  F00F         	goto	i1l858
  3016   001EC8                     i1l1998:
  3017   001EC8                     i1l858:
  3018   001EC8  0012               	return		;funcret
  3019   001ECA                     __end_of_RB6_ISR:
  3020                           	callstack 0
  3021                           
  3022 ;; *************** function _RB5_ISR *****************
  3023 ;; Defined at:
  3024 ;;		line 569 in file "mcal_external_interrupt.c"
  3025 ;; Parameters:    Size  Location     Type
  3026 ;;  RB5_Source      1    wreg     unsigned char 
  3027 ;; Auto vars:     Size  Location     Type
  3028 ;;  RB5_Source      1    1[COMRAM] unsigned char 
  3029 ;; Return value:  Size  Location     Type
  3030 ;;                  1    wreg      void 
  3031 ;; Registers used:
  3032 ;;		wreg, status,2, status,0
  3033 ;; Tracked objects:
  3034 ;;		On entry : 0/0
  3035 ;;		On exit  : 0/0
  3036 ;;		Unchanged: 0/0
  3037 ;; Data sizes:     COMRAM   BANK0   BANK1   BANK2   BANK3   BANK4   BANK5   BANK6   BANK7   BANK8   BANK9  BANK10  BANK1
      +1  BANK12  BANK13  BANK14  BANK15
  3038 ;;      Params:         0       0       0       0       0       0       0       0       0       0       0       0       
      +0       0       0       0       0
  3039 ;;      Locals:         1       0       0       0       0       0       0       0       0       0       0       0       
      +0       0       0       0       0
  3040 ;;      Temps:          0       0       0       0       0       0       0       0       0       0       0       0       
      +0       0       0       0       0
  3041 ;;      Totals:         1       0       0       0       0       0       0       0       0       0       0       0       
      +0       0       0       0       0
  3042 ;;Total ram usage:        1 bytes
  3043 ;; Hardware stack levels used: 1
  3044 ;; Hardware stack levels required when called: 3
  3045 ;; This function calls:
  3046 ;;		Nothing
  3047 ;; This function is called by:
  3048 ;;		_InterruptCheck
  3049 ;; This function uses a non-reentrant model
  3050 ;;
  3051                           
  3052                           	psect	text19
  3053   001ECA                     __ptext19:
  3054                           	callstack 0
  3055   001ECA                     _RB5_ISR:
  3056                           	callstack 21
  3057                           
  3058                           ;incstack = 0
  3059                           ;RB5_ISR@RB5_Source stored from wreg
  3060   001ECA  6E64               	movwf	RB5_ISR@RB5_Source^0,c
  3061   001ECC                     
  3062                           ;mcal_external_interrupt.c: 571:     (INTCONbits.RBIF = 0);
  3063   001ECC  90F2               	bcf	242,0,c	;volatile
  3064   001ECE                     
  3065                           ;mcal_external_interrupt.c: 575:     if(0 == RB5_Source){
  3066   001ECE  5064               	movf	RB5_ISR@RB5_Source^0,w,c
  3067   001ED0  A4D8               	btfss	status,2,c
  3068   001ED2  EF6D  F00F         	goto	i1u28_21
  3069   001ED6  EF6F  F00F         	goto	i1u28_20
  3070   001EDA                     i1u28_21:
  3071   001EDA  EF71  F00F         	goto	i1l1984
  3072   001EDE                     i1u28_20:
  3073   001EDE  EF71  F00F         	goto	i1l847
  3074   001EE2                     i1l1984:
  3075   001EE2                     i1l847:
  3076   001EE2  0012               	return		;funcret
  3077   001EE4                     __end_of_RB5_ISR:
  3078                           	callstack 0
  3079                           
  3080 ;; *************** function _RB4_ISR *****************
  3081 ;; Defined at:
  3082 ;;		line 551 in file "mcal_external_interrupt.c"
  3083 ;; Parameters:    Size  Location     Type
  3084 ;;  RB4_Source      1    wreg     unsigned char 
  3085 ;; Auto vars:     Size  Location     Type
  3086 ;;  RB4_Source      1    1[COMRAM] unsigned char 
  3087 ;; Return value:  Size  Location     Type
  3088 ;;                  1    wreg      void 
  3089 ;; Registers used:
  3090 ;;		wreg, status,2, status,0
  3091 ;; Tracked objects:
  3092 ;;		On entry : 0/0
  3093 ;;		On exit  : 0/0
  3094 ;;		Unchanged: 0/0
  3095 ;; Data sizes:     COMRAM   BANK0   BANK1   BANK2   BANK3   BANK4   BANK5   BANK6   BANK7   BANK8   BANK9  BANK10  BANK1
      +1  BANK12  BANK13  BANK14  BANK15
  3096 ;;      Params:         0       0       0       0       0       0       0       0       0       0       0       0       
      +0       0       0       0       0
  3097 ;;      Locals:         1       0       0       0       0       0       0       0       0       0       0       0       
      +0       0       0       0       0
  3098 ;;      Temps:          0       0       0       0       0       0       0       0       0       0       0       0       
      +0       0       0       0       0
  3099 ;;      Totals:         1       0       0       0       0       0       0       0       0       0       0       0       
      +0       0       0       0       0
  3100 ;;Total ram usage:        1 bytes
  3101 ;; Hardware stack levels used: 1
  3102 ;; Hardware stack levels required when called: 3
  3103 ;; This function calls:
  3104 ;;		Nothing
  3105 ;; This function is called by:
  3106 ;;		_InterruptCheck
  3107 ;; This function uses a non-reentrant model
  3108 ;;
  3109                           
  3110                           	psect	text20
  3111   001EE4                     __ptext20:
  3112                           	callstack 0
  3113   001EE4                     _RB4_ISR:
  3114                           	callstack 21
  3115                           
  3116                           ;incstack = 0
  3117                           ;RB4_ISR@RB4_Source stored from wreg
  3118   001EE4  6E64               	movwf	RB4_ISR@RB4_Source^0,c
  3119   001EE6                     
  3120                           ;mcal_external_interrupt.c: 553:     (INTCONbits.RBIF = 0);
  3121   001EE6  90F2               	bcf	242,0,c	;volatile
  3122   001EE8                     
  3123                           ;mcal_external_interrupt.c: 557:     if(0 == RB4_Source){
  3124   001EE8  5064               	movf	RB4_ISR@RB4_Source^0,w,c
  3125   001EEA  A4D8               	btfss	status,2,c
  3126   001EEC  EF7A  F00F         	goto	i1u27_21
  3127   001EF0  EF7C  F00F         	goto	i1u27_20
  3128   001EF4                     i1u27_21:
  3129   001EF4  EF7E  F00F         	goto	i1l1970
  3130   001EF8                     i1u27_20:
  3131   001EF8  EF7E  F00F         	goto	i1l836
  3132   001EFC                     i1l1970:
  3133   001EFC                     i1l836:
  3134   001EFC  0012               	return		;funcret
  3135   001EFE                     __end_of_RB4_ISR:
  3136                           	callstack 0
  3137                           
  3138 ;; *************** function _INT2_ISR *****************
  3139 ;; Defined at:
  3140 ;;		line 540 in file "mcal_external_interrupt.c"
  3141 ;; Parameters:    Size  Location     Type
  3142 ;;		None
  3143 ;; Auto vars:     Size  Location     Type
  3144 ;;		None
  3145 ;; Return value:  Size  Location     Type
  3146 ;;                  1    wreg      void 
  3147 ;; Registers used:
  3148 ;;		None
  3149 ;; Tracked objects:
  3150 ;;		On entry : 0/0
  3151 ;;		On exit  : 0/0
  3152 ;;		Unchanged: 0/0
  3153 ;; Data sizes:     COMRAM   BANK0   BANK1   BANK2   BANK3   BANK4   BANK5   BANK6   BANK7   BANK8   BANK9  BANK10  BANK1
      +1  BANK12  BANK13  BANK14  BANK15
  3154 ;;      Params:         0       0       0       0       0       0       0       0       0       0       0       0       
      +0       0       0       0       0
  3155 ;;      Locals:         0       0       0       0       0       0       0       0       0       0       0       0       
      +0       0       0       0       0
  3156 ;;      Temps:          0       0       0       0       0       0       0       0       0       0       0       0       
      +0       0       0       0       0
  3157 ;;      Totals:         0       0       0       0       0       0       0       0       0       0       0       0       
      +0       0       0       0       0
  3158 ;;Total ram usage:        0 bytes
  3159 ;; Hardware stack levels used: 1
  3160 ;; Hardware stack levels required when called: 3
  3161 ;; This function calls:
  3162 ;;		Nothing
  3163 ;; This function is called by:
  3164 ;;		_InterruptCheck
  3165 ;; This function uses a non-reentrant model
  3166 ;;
  3167                           
  3168                           	psect	text21
  3169   001F92                     __ptext21:
  3170                           	callstack 0
  3171   001F92                     _INT2_ISR:
  3172                           	callstack 21
  3173   001F92                     
  3174                           ;mcal_external_interrupt.c: 542:     (INTCON3bits.INT2IF = 0);
  3175   001F92  92F0               	bcf	240,1,c	;volatile
  3176   001F94  0012               	return		;funcret
  3177   001F96                     __end_of_INT2_ISR:
  3178                           	callstack 0
  3179                           
  3180 ;; *************** function _INT1_ISR *****************
  3181 ;; Defined at:
  3182 ;;		line 530 in file "mcal_external_interrupt.c"
  3183 ;; Parameters:    Size  Location     Type
  3184 ;;		None
  3185 ;; Auto vars:     Size  Location     Type
  3186 ;;		None
  3187 ;; Return value:  Size  Location     Type
  3188 ;;                  1    wreg      void 
  3189 ;; Registers used:
  3190 ;;		None
  3191 ;; Tracked objects:
  3192 ;;		On entry : 0/0
  3193 ;;		On exit  : 0/0
  3194 ;;		Unchanged: 0/0
  3195 ;; Data sizes:     COMRAM   BANK0   BANK1   BANK2   BANK3   BANK4   BANK5   BANK6   BANK7   BANK8   BANK9  BANK10  BANK1
      +1  BANK12  BANK13  BANK14  BANK15
  3196 ;;      Params:         0       0       0       0       0       0       0       0       0       0       0       0       
      +0       0       0       0       0
  3197 ;;      Locals:         0       0       0       0       0       0       0       0       0       0       0       0       
      +0       0       0       0       0
  3198 ;;      Temps:          0       0       0       0       0       0       0       0       0       0       0       0       
      +0       0       0       0       0
  3199 ;;      Totals:         0       0       0       0       0       0       0       0       0       0       0       0       
      +0       0       0       0       0
  3200 ;;Total ram usage:        0 bytes
  3201 ;; Hardware stack levels used: 1
  3202 ;; Hardware stack levels required when called: 3
  3203 ;; This function calls:
  3204 ;;		Nothing
  3205 ;; This function is called by:
  3206 ;;		_InterruptCheck
  3207 ;; This function uses a non-reentrant model
  3208 ;;
  3209                           
  3210                           	psect	text22
  3211   001F96                     __ptext22:
  3212                           	callstack 0
  3213   001F96                     _INT1_ISR:
  3214                           	callstack 21
  3215   001F96                     
  3216                           ;mcal_external_interrupt.c: 532:     (INTCON3bits.INT1IF = 0);
  3217   001F96  90F0               	bcf	240,0,c	;volatile
  3218   001F98  0012               	return		;funcret
  3219   001F9A                     __end_of_INT1_ISR:
  3220                           	callstack 0
  3221                           
  3222 ;; *************** function _INT0_ISR *****************
  3223 ;; Defined at:
  3224 ;;		line 520 in file "mcal_external_interrupt.c"
  3225 ;; Parameters:    Size  Location     Type
  3226 ;;		None
  3227 ;; Auto vars:     Size  Location     Type
  3228 ;;		None
  3229 ;; Return value:  Size  Location     Type
  3230 ;;                  1    wreg      void 
  3231 ;; Registers used:
  3232 ;;		None
  3233 ;; Tracked objects:
  3234 ;;		On entry : 0/0
  3235 ;;		On exit  : 0/0
  3236 ;;		Unchanged: 0/0
  3237 ;; Data sizes:     COMRAM   BANK0   BANK1   BANK2   BANK3   BANK4   BANK5   BANK6   BANK7   BANK8   BANK9  BANK10  BANK1
      +1  BANK12  BANK13  BANK14  BANK15
  3238 ;;      Params:         0       0       0       0       0       0       0       0       0       0       0       0       
      +0       0       0       0       0
  3239 ;;      Locals:         0       0       0       0       0       0       0       0       0       0       0       0       
      +0       0       0       0       0
  3240 ;;      Temps:          0       0       0       0       0       0       0       0       0       0       0       0       
      +0       0       0       0       0
  3241 ;;      Totals:         0       0       0       0       0       0       0       0       0       0       0       0       
      +0       0       0       0       0
  3242 ;;Total ram usage:        0 bytes
  3243 ;; Hardware stack levels used: 1
  3244 ;; Hardware stack levels required when called: 3
  3245 ;; This function calls:
  3246 ;;		Nothing
  3247 ;; This function is called by:
  3248 ;;		_InterruptCheck
  3249 ;; This function uses a non-reentrant model
  3250 ;;
  3251                           
  3252                           	psect	text23
  3253   001F9A                     __ptext23:
  3254                           	callstack 0
  3255   001F9A                     _INT0_ISR:
  3256                           	callstack 21
  3257   001F9A                     
  3258                           ;mcal_external_interrupt.c: 522:     (INTCONbits.INT0IF = 0);
  3259   001F9A  92F2               	bcf	242,1,c	;volatile
  3260   001F9C  0012               	return		;funcret
  3261   001F9E                     __end_of_INT0_ISR:
  3262                           	callstack 0
  3263                           
  3264 ;; *************** function _ADC_ISR *****************
  3265 ;; Defined at:
  3266 ;;		line 348 in file "MCAL_Layer/ADC/hal_adc.c"
  3267 ;; Parameters:    Size  Location     Type
  3268 ;;		None
  3269 ;; Auto vars:     Size  Location     Type
  3270 ;;		None
  3271 ;; Return value:  Size  Location     Type
  3272 ;;                  1    wreg      void 
  3273 ;; Registers used:
  3274 ;;		None
  3275 ;; Tracked objects:
  3276 ;;		On entry : 0/0
  3277 ;;		On exit  : 0/0
  3278 ;;		Unchanged: 0/0
  3279 ;; Data sizes:     COMRAM   BANK0   BANK1   BANK2   BANK3   BANK4   BANK5   BANK6   BANK7   BANK8   BANK9  BANK10  BANK1
      +1  BANK12  BANK13  BANK14  BANK15
  3280 ;;      Params:         0       0       0       0       0       0       0       0       0       0       0       0       
      +0       0       0       0       0
  3281 ;;      Locals:         0       0       0       0       0       0       0       0       0       0       0       0       
      +0       0       0       0       0
  3282 ;;      Temps:          0       0       0       0       0       0       0       0       0       0       0       0       
      +0       0       0       0       0
  3283 ;;      Totals:         0       0       0       0       0       0       0       0       0       0       0       0       
      +0       0       0       0       0
  3284 ;;Total ram usage:        0 bytes
  3285 ;; Hardware stack levels used: 1
  3286 ;; Hardware stack levels required when called: 3
  3287 ;; This function calls:
  3288 ;;		Nothing
  3289 ;; This function is called by:
  3290 ;;		_InterruptCheck
  3291 ;; This function uses a non-reentrant model
  3292 ;;
  3293                           
  3294                           	psect	text24
  3295   001F9E                     __ptext24:
  3296                           	callstack 0
  3297   001F9E                     _ADC_ISR:
  3298                           	callstack 21
  3299   001F9E                     
  3300                           ;MCAL_Layer/ADC/hal_adc.c: 349:     (PIR1bits.ADIF = 0);
  3301   001F9E  9C9E               	bcf	158,6,c	;volatile
  3302   001FA0  0012               	return		;funcret
  3303   001FA2                     __end_of_ADC_ISR:
  3304                           	callstack 0
  3305                           
  3306 ;; *************** function _InterruptManagerHigh *****************
  3307 ;; Defined at:
  3308 ;;		line 16 in file "MCAL_Layer/Interrupt/mcal_interrupt_manager.c"
  3309 ;; Parameters:    Size  Location     Type
  3310 ;;		None
  3311 ;; Auto vars:     Size  Location     Type
  3312 ;;		None
  3313 ;; Return value:  Size  Location     Type
  3314 ;;                  1    wreg      void 
  3315 ;; Registers used:
  3316 ;;		wreg, status,2, status,0, cstack
  3317 ;; Tracked objects:
  3318 ;;		On entry : 0/0
  3319 ;;		On exit  : 0/0
  3320 ;;		Unchanged: 0/0
  3321 ;; Data sizes:     COMRAM   BANK0   BANK1   BANK2   BANK3   BANK4   BANK5   BANK6   BANK7   BANK8   BANK9  BANK10  BANK1
      +1  BANK12  BANK13  BANK14  BANK15
  3322 ;;      Params:         0       0       0       0       0       0       0       0       0       0       0       0       
      +0       0       0       0       0
  3323 ;;      Locals:         0       0       0       0       0       0       0       0       0       0       0       0       
      +0       0       0       0       0
  3324 ;;      Temps:          0       0       0       0       0       0       0       0       0       0       0       0       
      +0       0       0       0       0
  3325 ;;      Totals:         0       0       0       0       0       0       0       0       0       0       0       0       
      +0       0       0       0       0
  3326 ;;Total ram usage:        0 bytes
  3327 ;; Hardware stack levels used: 1
  3328 ;; Hardware stack levels required when called: 2
  3329 ;; This function calls:
  3330 ;;		i2_InterruptCheck
  3331 ;; This function is called by:
  3332 ;;		Interrupt level 2
  3333 ;; This function uses a non-reentrant model
  3334 ;;
  3335                           
  3336                           	psect	intcode
  3337   000008                     __pintcode:
  3338                           	callstack 0
  3339   000008                     _InterruptManagerHigh:
  3340                           	callstack 21
  3341                           
  3342                           ;incstack = 0
  3343   000008  827A               	bsf	int$flags,1,c	;set compiler interrupt flag (level 2)
  3344   00000A  EDC4  F00F         	call	int_func,f	;refresh shadow registers
  3345                           
  3346                           	psect	intcode_body
  3347   001F88                     __pintcode_body:
  3348                           	callstack 21
  3349   001F88                     int_func:
  3350                           	callstack 21
  3351   001F88  0006               	pop		; remove dummy address from shadow register refresh
  3352   001F8A                     
  3353                           ;MCAL_Layer/Interrupt/mcal_interrupt_manager.c: 17:     InterruptCheck();
  3354   001F8A  EC64  F009         	call	i2_InterruptCheck	;wreg free
  3355   001F8E  927A               	bcf	int$flags,1,c	;clear compiler interrupt flag (level 2)
  3356   001F90  0011               	retfie		f
  3357   001F92                     __end_of_InterruptManagerHigh:
  3358                           	callstack 0
  3359                           
  3360 ;; *************** function i2_InterruptCheck *****************
  3361 ;; Defined at:
  3362 ;;		line 31 in file "MCAL_Layer/Interrupt/mcal_interrupt_manager.c"
  3363 ;; Parameters:    Size  Location     Type
  3364 ;;		None
  3365 ;; Auto vars:     Size  Location     Type
  3366 ;;		None
  3367 ;; Return value:  Size  Location     Type
  3368 ;;                  1    wreg      void 
  3369 ;; Registers used:
  3370 ;;		wreg, status,2, status,0, cstack
  3371 ;; Tracked objects:
  3372 ;;		On entry : 0/0
  3373 ;;		On exit  : 0/0
  3374 ;;		Unchanged: 0/0
  3375 ;; Data sizes:     COMRAM   BANK0   BANK1   BANK2   BANK3   BANK4   BANK5   BANK6   BANK7   BANK8   BANK9  BANK10  BANK1
      +1  BANK12  BANK13  BANK14  BANK15
  3376 ;;      Params:         0       0       0       0       0       0       0       0       0       0       0       0       
      +0       0       0       0       0
  3377 ;;      Locals:         0       0       0       0       0       0       0       0       0       0       0       0       
      +0       0       0       0       0
  3378 ;;      Temps:          0       0       0       0       0       0       0       0       0       0       0       0       
      +0       0       0       0       0
  3379 ;;      Totals:         0       0       0       0       0       0       0       0       0       0       0       0       
      +0       0       0       0       0
  3380 ;;Total ram usage:        0 bytes
  3381 ;; Hardware stack levels used: 1
  3382 ;; Hardware stack levels required when called: 1
  3383 ;; This function calls:
  3384 ;;		i2_ADC_ISR
  3385 ;;		i2_INT0_ISR
  3386 ;;		i2_INT1_ISR
  3387 ;;		i2_INT2_ISR
  3388 ;;		i2_RB4_ISR
  3389 ;;		i2_RB5_ISR
  3390 ;;		i2_RB6_ISR
  3391 ;;		i2_RB7_ISR
  3392 ;;		i2_TMRO_ISR
  3393 ;; This function is called by:
  3394 ;;		_InterruptManagerHigh
  3395 ;; This function uses a non-reentrant model
  3396 ;;
  3397                           
  3398                           	psect	text26
  3399   0012C8                     __ptext26:
  3400                           	callstack 0
  3401   0012C8                     i2_InterruptCheck:
  3402                           	callstack 21
  3403   0012C8                     
  3404                           ;MCAL_Layer/Interrupt/mcal_interrupt_manager.c: 32:     if((1 == INTCONbits.INT0IE)&&(1 
      +                          == INTCONbits.INT0IF)){
  3405   0012C8  A8F2               	btfss	242,4,c	;volatile
  3406   0012CA  EF69  F009         	goto	i2u301_41
  3407   0012CE  EF6B  F009         	goto	i2u301_40
  3408   0012D2                     i2u301_41:
  3409   0012D2  EF74  F009         	goto	i2l569
  3410   0012D6                     i2u301_40:
  3411   0012D6  A2F2               	btfss	242,1,c	;volatile
  3412   0012D8  EF70  F009         	goto	i2u302_41
  3413   0012DC  EF72  F009         	goto	i2u302_40
  3414   0012E0                     i2u302_41:
  3415   0012E0  EF74  F009         	goto	i2l569
  3416   0012E4                     i2u302_40:
  3417   0012E4                     
  3418                           ;MCAL_Layer/Interrupt/mcal_interrupt_manager.c: 33:         INT0_ISR();
  3419   0012E4  ECD5  F00F         	call	i2_INT0_ISR	;wreg free
  3420   0012E8                     i2l569:
  3421                           
  3422                           ;MCAL_Layer/Interrupt/mcal_interrupt_manager.c: 37:     if((1 == INTCON3bits.INT1IE)&&(1
      +                           == INTCON3bits.INT1IF)){
  3423   0012E8  A6F0               	btfss	240,3,c	;volatile
  3424   0012EA  EF79  F009         	goto	i2u303_41
  3425   0012EE  EF7B  F009         	goto	i2u303_40
  3426   0012F2                     i2u303_41:
  3427   0012F2  EF84  F009         	goto	i2l571
  3428   0012F6                     i2u303_40:
  3429   0012F6  A0F0               	btfss	240,0,c	;volatile
  3430   0012F8  EF80  F009         	goto	i2u304_41
  3431   0012FC  EF82  F009         	goto	i2u304_40
  3432   001300                     i2u304_41:
  3433   001300  EF84  F009         	goto	i2l571
  3434   001304                     i2u304_40:
  3435   001304                     
  3436                           ;MCAL_Layer/Interrupt/mcal_interrupt_manager.c: 38:         INT1_ISR();
  3437   001304  ECD3  F00F         	call	i2_INT1_ISR	;wreg free
  3438   001308                     i2l571:
  3439                           
  3440                           ;MCAL_Layer/Interrupt/mcal_interrupt_manager.c: 42:     if((1 == INTCON3bits.INT2IE)&&(1
      +                           == INTCON3bits.INT2IF)){
  3441   001308  A8F0               	btfss	240,4,c	;volatile
  3442   00130A  EF89  F009         	goto	i2u305_41
  3443   00130E  EF8B  F009         	goto	i2u305_40
  3444   001312                     i2u305_41:
  3445   001312  EF94  F009         	goto	i2l573
  3446   001316                     i2u305_40:
  3447   001316  A2F0               	btfss	240,1,c	;volatile
  3448   001318  EF90  F009         	goto	i2u306_41
  3449   00131C  EF92  F009         	goto	i2u306_40
  3450   001320                     i2u306_41:
  3451   001320  EF94  F009         	goto	i2l573
  3452   001324                     i2u306_40:
  3453   001324                     
  3454                           ;MCAL_Layer/Interrupt/mcal_interrupt_manager.c: 43:         INT2_ISR();
  3455   001324  ECD1  F00F         	call	i2_INT2_ISR	;wreg free
  3456   001328                     i2l573:
  3457                           
  3458                           ;MCAL_Layer/Interrupt/mcal_interrupt_manager.c: 47:     if((1 == INTCONbits.RBIE)&&(1 ==
      +                           INTCONbits.RBIF)&&(PORTBbits.RB4 == GPIO_HIGH) && (RB4_Flag ==1)){
  3459   001328  A6F2               	btfss	242,3,c	;volatile
  3460   00132A  EF99  F009         	goto	i2u307_41
  3461   00132E  EF9B  F009         	goto	i2u307_40
  3462   001332                     i2u307_41:
  3463   001332  EFB6  F009         	goto	i2l575
  3464   001336                     i2u307_40:
  3465   001336  A0F2               	btfss	242,0,c	;volatile
  3466   001338  EFA0  F009         	goto	i2u308_41
  3467   00133C  EFA2  F009         	goto	i2u308_40
  3468   001340                     i2u308_41:
  3469   001340  EFB6  F009         	goto	i2l575
  3470   001344                     i2u308_40:
  3471   001344  A881               	btfss	129,4,c	;volatile
  3472   001346  EFA7  F009         	goto	i2u309_41
  3473   00134A  EFA9  F009         	goto	i2u309_40
  3474   00134E                     i2u309_41:
  3475   00134E  EFB6  F009         	goto	i2l575
  3476   001352                     i2u309_40:
  3477   001352  045C               	decf	_RB4_Flag^0,w,c	;volatile
  3478   001354  A4D8               	btfss	status,2,c
  3479   001356  EFAF  F009         	goto	i2u310_41
  3480   00135A  EFB1  F009         	goto	i2u310_40
  3481   00135E                     i2u310_41:
  3482   00135E  EFB6  F009         	goto	i2l575
  3483   001362                     i2u310_40:
  3484   001362                     
  3485                           ;MCAL_Layer/Interrupt/mcal_interrupt_manager.c: 48:         RB4_Flag = 0;
  3486   001362  0E00               	movlw	0
  3487   001364  6E5C               	movwf	_RB4_Flag^0,c	;volatile
  3488   001366                     
  3489                           ;MCAL_Layer/Interrupt/mcal_interrupt_manager.c: 49:         RB4_ISR(1);
  3490   001366  0E01               	movlw	1
  3491   001368  ECA6  F00F         	call	i2_RB4_ISR
  3492   00136C                     i2l575:
  3493                           
  3494                           ;MCAL_Layer/Interrupt/mcal_interrupt_manager.c: 52:     if((1 == INTCONbits.RBIE)&&(1 ==
      +                           INTCONbits.RBIF)&&(PORTBbits.RB4 == GPIO_LOW)&& (RB4_Flag ==0)){
  3495   00136C  A6F2               	btfss	242,3,c	;volatile
  3496   00136E  EFBB  F009         	goto	i2u311_41
  3497   001372  EFBD  F009         	goto	i2u311_40
  3498   001376                     i2u311_41:
  3499   001376  EFD8  F009         	goto	i2l577
  3500   00137A                     i2u311_40:
  3501   00137A  A0F2               	btfss	242,0,c	;volatile
  3502   00137C  EFC2  F009         	goto	i2u312_41
  3503   001380  EFC4  F009         	goto	i2u312_40
  3504   001384                     i2u312_41:
  3505   001384  EFD8  F009         	goto	i2l577
  3506   001388                     i2u312_40:
  3507   001388  B881               	btfsc	129,4,c	;volatile
  3508   00138A  EFC9  F009         	goto	i2u313_41
  3509   00138E  EFCB  F009         	goto	i2u313_40
  3510   001392                     i2u313_41:
  3511   001392  EFD8  F009         	goto	i2l577
  3512   001396                     i2u313_40:
  3513   001396  505C               	movf	_RB4_Flag^0,w,c	;volatile
  3514   001398  A4D8               	btfss	status,2,c
  3515   00139A  EFD1  F009         	goto	i2u314_41
  3516   00139E  EFD3  F009         	goto	i2u314_40
  3517   0013A2                     i2u314_41:
  3518   0013A2  EFD8  F009         	goto	i2l577
  3519   0013A6                     i2u314_40:
  3520   0013A6                     
  3521                           ;MCAL_Layer/Interrupt/mcal_interrupt_manager.c: 53:         RB4_Flag = 1;
  3522   0013A6  0E01               	movlw	1
  3523   0013A8  6E5C               	movwf	_RB4_Flag^0,c	;volatile
  3524   0013AA                     
  3525                           ;MCAL_Layer/Interrupt/mcal_interrupt_manager.c: 54:         RB4_ISR(0);
  3526   0013AA  0E00               	movlw	0
  3527   0013AC  ECA6  F00F         	call	i2_RB4_ISR
  3528   0013B0                     i2l577:
  3529                           
  3530                           ;MCAL_Layer/Interrupt/mcal_interrupt_manager.c: 58:     if((1 == INTCONbits.RBIE)&&(1 ==
      +                           INTCONbits.RBIF)&&(PORTBbits.RB5 == GPIO_HIGH) && (RB5_Flag ==1)){
  3531   0013B0  A6F2               	btfss	242,3,c	;volatile
  3532   0013B2  EFDD  F009         	goto	i2u315_41
  3533   0013B6  EFDF  F009         	goto	i2u315_40
  3534   0013BA                     i2u315_41:
  3535   0013BA  EFFA  F009         	goto	i2l579
  3536   0013BE                     i2u315_40:
  3537   0013BE  A0F2               	btfss	242,0,c	;volatile
  3538   0013C0  EFE4  F009         	goto	i2u316_41
  3539   0013C4  EFE6  F009         	goto	i2u316_40
  3540   0013C8                     i2u316_41:
  3541   0013C8  EFFA  F009         	goto	i2l579
  3542   0013CC                     i2u316_40:
  3543   0013CC  AA81               	btfss	129,5,c	;volatile
  3544   0013CE  EFEB  F009         	goto	i2u317_41
  3545   0013D2  EFED  F009         	goto	i2u317_40
  3546   0013D6                     i2u317_41:
  3547   0013D6  EFFA  F009         	goto	i2l579
  3548   0013DA                     i2u317_40:
  3549   0013DA  045B               	decf	_RB5_Flag^0,w,c	;volatile
  3550   0013DC  A4D8               	btfss	status,2,c
  3551   0013DE  EFF3  F009         	goto	i2u318_41
  3552   0013E2  EFF5  F009         	goto	i2u318_40
  3553   0013E6                     i2u318_41:
  3554   0013E6  EFFA  F009         	goto	i2l579
  3555   0013EA                     i2u318_40:
  3556   0013EA                     
  3557                           ;MCAL_Layer/Interrupt/mcal_interrupt_manager.c: 59:         RB5_Flag = 0;
  3558   0013EA  0E00               	movlw	0
  3559   0013EC  6E5B               	movwf	_RB5_Flag^0,c	;volatile
  3560   0013EE                     
  3561                           ;MCAL_Layer/Interrupt/mcal_interrupt_manager.c: 60:         RB5_ISR(1);
  3562   0013EE  0E01               	movlw	1
  3563   0013F0  EC99  F00F         	call	i2_RB5_ISR
  3564   0013F4                     i2l579:
  3565                           
  3566                           ;MCAL_Layer/Interrupt/mcal_interrupt_manager.c: 63:     if((1 == INTCONbits.RBIE)&&(1 ==
      +                           INTCONbits.RBIF)&&(PORTBbits.RB5 == GPIO_LOW)&& (RB5_Flag ==0)){
  3567   0013F4  A6F2               	btfss	242,3,c	;volatile
  3568   0013F6  EFFF  F009         	goto	i2u319_41
  3569   0013FA  EF01  F00A         	goto	i2u319_40
  3570   0013FE                     i2u319_41:
  3571   0013FE  EF1C  F00A         	goto	i2l581
  3572   001402                     i2u319_40:
  3573   001402  A0F2               	btfss	242,0,c	;volatile
  3574   001404  EF06  F00A         	goto	i2u320_41
  3575   001408  EF08  F00A         	goto	i2u320_40
  3576   00140C                     i2u320_41:
  3577   00140C  EF1C  F00A         	goto	i2l581
  3578   001410                     i2u320_40:
  3579   001410  BA81               	btfsc	129,5,c	;volatile
  3580   001412  EF0D  F00A         	goto	i2u321_41
  3581   001416  EF0F  F00A         	goto	i2u321_40
  3582   00141A                     i2u321_41:
  3583   00141A  EF1C  F00A         	goto	i2l581
  3584   00141E                     i2u321_40:
  3585   00141E  505B               	movf	_RB5_Flag^0,w,c	;volatile
  3586   001420  A4D8               	btfss	status,2,c
  3587   001422  EF15  F00A         	goto	i2u322_41
  3588   001426  EF17  F00A         	goto	i2u322_40
  3589   00142A                     i2u322_41:
  3590   00142A  EF1C  F00A         	goto	i2l581
  3591   00142E                     i2u322_40:
  3592   00142E                     
  3593                           ;MCAL_Layer/Interrupt/mcal_interrupt_manager.c: 64:         RB5_Flag = 1;
  3594   00142E  0E01               	movlw	1
  3595   001430  6E5B               	movwf	_RB5_Flag^0,c	;volatile
  3596   001432                     
  3597                           ;MCAL_Layer/Interrupt/mcal_interrupt_manager.c: 65:         RB5_ISR(0);
  3598   001432  0E00               	movlw	0
  3599   001434  EC99  F00F         	call	i2_RB5_ISR
  3600   001438                     i2l581:
  3601                           
  3602                           ;MCAL_Layer/Interrupt/mcal_interrupt_manager.c: 69:     if((1 == INTCONbits.RBIE)&&(1 ==
      +                           INTCONbits.RBIF)&&(PORTBbits.RB6 == GPIO_HIGH) && (RB6_Flag ==1)){
  3603   001438  A6F2               	btfss	242,3,c	;volatile
  3604   00143A  EF21  F00A         	goto	i2u323_41
  3605   00143E  EF23  F00A         	goto	i2u323_40
  3606   001442                     i2u323_41:
  3607   001442  EF3E  F00A         	goto	i2l583
  3608   001446                     i2u323_40:
  3609   001446  A0F2               	btfss	242,0,c	;volatile
  3610   001448  EF28  F00A         	goto	i2u324_41
  3611   00144C  EF2A  F00A         	goto	i2u324_40
  3612   001450                     i2u324_41:
  3613   001450  EF3E  F00A         	goto	i2l583
  3614   001454                     i2u324_40:
  3615   001454  AC81               	btfss	129,6,c	;volatile
  3616   001456  EF2F  F00A         	goto	i2u325_41
  3617   00145A  EF31  F00A         	goto	i2u325_40
  3618   00145E                     i2u325_41:
  3619   00145E  EF3E  F00A         	goto	i2l583
  3620   001462                     i2u325_40:
  3621   001462  045A               	decf	_RB6_Flag^0,w,c	;volatile
  3622   001464  A4D8               	btfss	status,2,c
  3623   001466  EF37  F00A         	goto	i2u326_41
  3624   00146A  EF39  F00A         	goto	i2u326_40
  3625   00146E                     i2u326_41:
  3626   00146E  EF3E  F00A         	goto	i2l583
  3627   001472                     i2u326_40:
  3628   001472                     
  3629                           ;MCAL_Layer/Interrupt/mcal_interrupt_manager.c: 70:         RB6_Flag = 0;
  3630   001472  0E00               	movlw	0
  3631   001474  6E5A               	movwf	_RB6_Flag^0,c	;volatile
  3632   001476                     
  3633                           ;MCAL_Layer/Interrupt/mcal_interrupt_manager.c: 71:         RB6_ISR(1);
  3634   001476  0E01               	movlw	1
  3635   001478  EC8C  F00F         	call	i2_RB6_ISR
  3636   00147C                     i2l583:
  3637                           
  3638                           ;MCAL_Layer/Interrupt/mcal_interrupt_manager.c: 74:     if((1 == INTCONbits.RBIE)&&(1 ==
      +                           INTCONbits.RBIF)&&(PORTBbits.RB6 == GPIO_LOW)&& (RB6_Flag ==0)){
  3639   00147C  A6F2               	btfss	242,3,c	;volatile
  3640   00147E  EF43  F00A         	goto	i2u327_41
  3641   001482  EF45  F00A         	goto	i2u327_40
  3642   001486                     i2u327_41:
  3643   001486  EF60  F00A         	goto	i2l585
  3644   00148A                     i2u327_40:
  3645   00148A  A0F2               	btfss	242,0,c	;volatile
  3646   00148C  EF4A  F00A         	goto	i2u328_41
  3647   001490  EF4C  F00A         	goto	i2u328_40
  3648   001494                     i2u328_41:
  3649   001494  EF60  F00A         	goto	i2l585
  3650   001498                     i2u328_40:
  3651   001498  BC81               	btfsc	129,6,c	;volatile
  3652   00149A  EF51  F00A         	goto	i2u329_41
  3653   00149E  EF53  F00A         	goto	i2u329_40
  3654   0014A2                     i2u329_41:
  3655   0014A2  EF60  F00A         	goto	i2l585
  3656   0014A6                     i2u329_40:
  3657   0014A6  505A               	movf	_RB6_Flag^0,w,c	;volatile
  3658   0014A8  A4D8               	btfss	status,2,c
  3659   0014AA  EF59  F00A         	goto	i2u330_41
  3660   0014AE  EF5B  F00A         	goto	i2u330_40
  3661   0014B2                     i2u330_41:
  3662   0014B2  EF60  F00A         	goto	i2l585
  3663   0014B6                     i2u330_40:
  3664   0014B6                     
  3665                           ;MCAL_Layer/Interrupt/mcal_interrupt_manager.c: 75:         RB6_Flag = 1;
  3666   0014B6  0E01               	movlw	1
  3667   0014B8  6E5A               	movwf	_RB6_Flag^0,c	;volatile
  3668   0014BA                     
  3669                           ;MCAL_Layer/Interrupt/mcal_interrupt_manager.c: 76:         RB6_ISR(0);
  3670   0014BA  0E00               	movlw	0
  3671   0014BC  EC8C  F00F         	call	i2_RB6_ISR
  3672   0014C0                     i2l585:
  3673                           
  3674                           ;MCAL_Layer/Interrupt/mcal_interrupt_manager.c: 80:     if((1 == INTCONbits.RBIE)&&(1 ==
      +                           INTCONbits.RBIF)&&(PORTBbits.RB7 == GPIO_HIGH) && (RB7_Flag ==1)){
  3675   0014C0  A6F2               	btfss	242,3,c	;volatile
  3676   0014C2  EF65  F00A         	goto	i2u331_41
  3677   0014C6  EF67  F00A         	goto	i2u331_40
  3678   0014CA                     i2u331_41:
  3679   0014CA  EF82  F00A         	goto	i2l587
  3680   0014CE                     i2u331_40:
  3681   0014CE  A0F2               	btfss	242,0,c	;volatile
  3682   0014D0  EF6C  F00A         	goto	i2u332_41
  3683   0014D4  EF6E  F00A         	goto	i2u332_40
  3684   0014D8                     i2u332_41:
  3685   0014D8  EF82  F00A         	goto	i2l587
  3686   0014DC                     i2u332_40:
  3687   0014DC  AE81               	btfss	129,7,c	;volatile
  3688   0014DE  EF73  F00A         	goto	i2u333_41
  3689   0014E2  EF75  F00A         	goto	i2u333_40
  3690   0014E6                     i2u333_41:
  3691   0014E6  EF82  F00A         	goto	i2l587
  3692   0014EA                     i2u333_40:
  3693   0014EA  0459               	decf	_RB7_Flag^0,w,c	;volatile
  3694   0014EC  A4D8               	btfss	status,2,c
  3695   0014EE  EF7B  F00A         	goto	i2u334_41
  3696   0014F2  EF7D  F00A         	goto	i2u334_40
  3697   0014F6                     i2u334_41:
  3698   0014F6  EF82  F00A         	goto	i2l587
  3699   0014FA                     i2u334_40:
  3700   0014FA                     
  3701                           ;MCAL_Layer/Interrupt/mcal_interrupt_manager.c: 81:         RB7_Flag = 0;
  3702   0014FA  0E00               	movlw	0
  3703   0014FC  6E59               	movwf	_RB7_Flag^0,c	;volatile
  3704   0014FE                     
  3705                           ;MCAL_Layer/Interrupt/mcal_interrupt_manager.c: 82:         RB7_ISR(1);
  3706   0014FE  0E01               	movlw	1
  3707   001500  EC7F  F00F         	call	i2_RB7_ISR
  3708   001504                     i2l587:
  3709                           
  3710                           ;MCAL_Layer/Interrupt/mcal_interrupt_manager.c: 85:     if((1 == INTCONbits.RBIE)&&(1 ==
      +                           INTCONbits.RBIF)&&(PORTBbits.RB7 == GPIO_LOW)&& (RB7_Flag ==0)){
  3711   001504  A6F2               	btfss	242,3,c	;volatile
  3712   001506  EF87  F00A         	goto	i2u335_41
  3713   00150A  EF89  F00A         	goto	i2u335_40
  3714   00150E                     i2u335_41:
  3715   00150E  EFA4  F00A         	goto	i2l589
  3716   001512                     i2u335_40:
  3717   001512  A0F2               	btfss	242,0,c	;volatile
  3718   001514  EF8E  F00A         	goto	i2u336_41
  3719   001518  EF90  F00A         	goto	i2u336_40
  3720   00151C                     i2u336_41:
  3721   00151C  EFA4  F00A         	goto	i2l589
  3722   001520                     i2u336_40:
  3723   001520  BE81               	btfsc	129,7,c	;volatile
  3724   001522  EF95  F00A         	goto	i2u337_41
  3725   001526  EF97  F00A         	goto	i2u337_40
  3726   00152A                     i2u337_41:
  3727   00152A  EFA4  F00A         	goto	i2l589
  3728   00152E                     i2u337_40:
  3729   00152E  5059               	movf	_RB7_Flag^0,w,c	;volatile
  3730   001530  A4D8               	btfss	status,2,c
  3731   001532  EF9D  F00A         	goto	i2u338_41
  3732   001536  EF9F  F00A         	goto	i2u338_40
  3733   00153A                     i2u338_41:
  3734   00153A  EFA4  F00A         	goto	i2l589
  3735   00153E                     i2u338_40:
  3736   00153E                     
  3737                           ;MCAL_Layer/Interrupt/mcal_interrupt_manager.c: 86:         RB7_Flag = 1;
  3738   00153E  0E01               	movlw	1
  3739   001540  6E59               	movwf	_RB7_Flag^0,c	;volatile
  3740   001542                     
  3741                           ;MCAL_Layer/Interrupt/mcal_interrupt_manager.c: 87:         RB7_ISR(0);
  3742   001542  0E00               	movlw	0
  3743   001544  EC7F  F00F         	call	i2_RB7_ISR
  3744   001548                     i2l589:
  3745                           
  3746                           ;MCAL_Layer/Interrupt/mcal_interrupt_manager.c: 91:     if((1 == PIE1bits.ADIE)&&(1 == P
      +                          IR1bits.ADIF)){
  3747   001548  AC9D               	btfss	157,6,c	;volatile
  3748   00154A  EFA9  F00A         	goto	i2u339_41
  3749   00154E  EFAB  F00A         	goto	i2u339_40
  3750   001552                     i2u339_41:
  3751   001552  EFB4  F00A         	goto	i2l591
  3752   001556                     i2u339_40:
  3753   001556  AC9E               	btfss	158,6,c	;volatile
  3754   001558  EFB0  F00A         	goto	i2u340_41
  3755   00155C  EFB2  F00A         	goto	i2u340_40
  3756   001560                     i2u340_41:
  3757   001560  EFB4  F00A         	goto	i2l591
  3758   001564                     i2u340_40:
  3759   001564                     
  3760                           ;MCAL_Layer/Interrupt/mcal_interrupt_manager.c: 92:         ADC_ISR();
  3761   001564  ECD7  F00F         	call	i2_ADC_ISR	;wreg free
  3762   001568                     i2l591:
  3763                           
  3764                           ;MCAL_Layer/Interrupt/mcal_interrupt_manager.c: 96:     if((1 == INTCONbits.TMR0IE)&&(1 
      +                          == INTCONbits.TMR0IF)){
  3765   001568  AAF2               	btfss	242,5,c	;volatile
  3766   00156A  EFB9  F00A         	goto	i2u341_41
  3767   00156E  EFBB  F00A         	goto	i2u341_40
  3768   001572                     i2u341_41:
  3769   001572  EFC4  F00A         	goto	i2l594
  3770   001576                     i2u341_40:
  3771   001576  A4F2               	btfss	242,2,c	;volatile
  3772   001578  EFC0  F00A         	goto	i2u342_41
  3773   00157C  EFC2  F00A         	goto	i2u342_40
  3774   001580                     i2u342_41:
  3775   001580  EFC4  F00A         	goto	i2l594
  3776   001584                     i2u342_40:
  3777   001584                     
  3778                           ;MCAL_Layer/Interrupt/mcal_interrupt_manager.c: 97:         TMRO_ISR();
  3779   001584  ECB9  F00F         	call	i2_TMRO_ISR	;wreg free
  3780   001588                     i2l594:
  3781   001588  0012               	return		;funcret
  3782   00158A                     __end_ofi2_InterruptCheck:
  3783                           	callstack 0
  3784                           
  3785 ;; *************** function i2_TMRO_ISR *****************
  3786 ;; Defined at:
  3787 ;;		line 131 in file "MCAL_Layer/Timer/Timer0/hal_timer0.c"
  3788 ;; Parameters:    Size  Location     Type
  3789 ;;		None
  3790 ;; Auto vars:     Size  Location     Type
  3791 ;;		None
  3792 ;; Return value:  Size  Location     Type
  3793 ;;                  1    wreg      void 
  3794 ;; Registers used:
  3795 ;;		wreg, status,2
  3796 ;; Tracked objects:
  3797 ;;		On entry : 0/0
  3798 ;;		On exit  : 0/0
  3799 ;;		Unchanged: 0/0
  3800 ;; Data sizes:     COMRAM   BANK0   BANK1   BANK2   BANK3   BANK4   BANK5   BANK6   BANK7   BANK8   BANK9  BANK10  BANK1
      +1  BANK12  BANK13  BANK14  BANK15
  3801 ;;      Params:         0       0       0       0       0       0       0       0       0       0       0       0       
      +0       0       0       0       0
  3802 ;;      Locals:         0       0       0       0       0       0       0       0       0       0       0       0       
      +0       0       0       0       0
  3803 ;;      Temps:          0       0       0       0       0       0       0       0       0       0       0       0       
      +0       0       0       0       0
  3804 ;;      Totals:         0       0       0       0       0       0       0       0       0       0       0       0       
      +0       0       0       0       0
  3805 ;;Total ram usage:        0 bytes
  3806 ;; Hardware stack levels used: 1
  3807 ;; This function calls:
  3808 ;;		Nothing
  3809 ;; This function is called by:
  3810 ;;		i2_InterruptCheck
  3811 ;; This function uses a non-reentrant model
  3812 ;;
  3813                           
  3814                           	psect	text27
  3815   001F72                     __ptext27:
  3816                           	callstack 0
  3817   001F72                     i2_TMRO_ISR:
  3818                           	callstack 21
  3819   001F72                     
  3820                           ;MCAL_Layer/Timer/Timer0/hal_timer0.c: 132:     (INTCONbits.TMR0IF = 0);
  3821   001F72  94F2               	bcf	242,2,c	;volatile
  3822   001F74                     
  3823                           ;MCAL_Layer/Timer/Timer0/hal_timer0.c: 133:     TMR0H = timer0_preload >>8;
  3824   001F74  500C               	movf	(_timer0_preload+1)^0,w,c
  3825   001F76  6ED7               	movwf	215,c	;volatile
  3826   001F78                     
  3827                           ;MCAL_Layer/Timer/Timer0/hal_timer0.c: 134:     TMR0L = (uint8)timer0_preload;
  3828   001F78  C00B  FFD6         	movff	_timer0_preload,4054	;volatile
  3829   001F7C  0012               	return		;funcret
  3830   001F7E                     __end_ofi2_TMRO_ISR:
  3831                           	callstack 0
  3832                           
  3833 ;; *************** function i2_RB7_ISR *****************
  3834 ;; Defined at:
  3835 ;;		line 605 in file "mcal_external_interrupt.c"
  3836 ;; Parameters:    Size  Location     Type
  3837 ;;  RB7_Source      1    wreg     unsigned char 
  3838 ;; Auto vars:     Size  Location     Type
  3839 ;;  RB7_Source      1    0[COMRAM] unsigned char 
  3840 ;; Return value:  Size  Location     Type
  3841 ;;                  1    wreg      void 
  3842 ;; Registers used:
  3843 ;;		wreg, status,2, status,0
  3844 ;; Tracked objects:
  3845 ;;		On entry : 0/0
  3846 ;;		On exit  : 0/0
  3847 ;;		Unchanged: 0/0
  3848 ;; Data sizes:     COMRAM   BANK0   BANK1   BANK2   BANK3   BANK4   BANK5   BANK6   BANK7   BANK8   BANK9  BANK10  BANK1
      +1  BANK12  BANK13  BANK14  BANK15
  3849 ;;      Params:         0       0       0       0       0       0       0       0       0       0       0       0       
      +0       0       0       0       0
  3850 ;;      Locals:         1       0       0       0       0       0       0       0       0       0       0       0       
      +0       0       0       0       0
  3851 ;;      Temps:          0       0       0       0       0       0       0       0       0       0       0       0       
      +0       0       0       0       0
  3852 ;;      Totals:         1       0       0       0       0       0       0       0       0       0       0       0       
      +0       0       0       0       0
  3853 ;;Total ram usage:        1 bytes
  3854 ;; Hardware stack levels used: 1
  3855 ;; This function calls:
  3856 ;;		Nothing
  3857 ;; This function is called by:
  3858 ;;		i2_InterruptCheck
  3859 ;; This function uses a non-reentrant model
  3860 ;;
  3861                           
  3862                           	psect	text28
  3863   001EFE                     __ptext28:
  3864                           	callstack 0
  3865   001EFE                     i2_RB7_ISR:
  3866                           	callstack 21
  3867                           
  3868                           ;incstack = 0
  3869                           ;i2RB7_ISR@RB7_Source stored from wreg
  3870   001EFE  6E63               	movwf	i2RB7_ISR@RB7_Source^0,c
  3871   001F00                     
  3872                           ;mcal_external_interrupt.c: 607:     (INTCONbits.RBIF = 0);
  3873   001F00  90F2               	bcf	242,0,c	;volatile
  3874   001F02                     
  3875                           ;mcal_external_interrupt.c: 611:     if(0 == RB7_Source){
  3876   001F02  5063               	movf	i2RB7_ISR@RB7_Source^0,w,c
  3877   001F04  A4D8               	btfss	status,2,c
  3878   001F06  EF87  F00F         	goto	i2u286_41
  3879   001F0A  EF89  F00F         	goto	i2u286_40
  3880   001F0E                     i2u286_41:
  3881   001F0E  EF8B  F00F         	goto	i2l3898
  3882   001F12                     i2u286_40:
  3883   001F12  EF8B  F00F         	goto	i2l869
  3884   001F16                     i2l3898:
  3885   001F16                     i2l869:
  3886   001F16  0012               	return		;funcret
  3887   001F18                     __end_ofi2_RB7_ISR:
  3888                           	callstack 0
  3889                           
  3890 ;; *************** function i2_RB6_ISR *****************
  3891 ;; Defined at:
  3892 ;;		line 587 in file "mcal_external_interrupt.c"
  3893 ;; Parameters:    Size  Location     Type
  3894 ;;  RB6_Source      1    wreg     unsigned char 
  3895 ;; Auto vars:     Size  Location     Type
  3896 ;;  RB6_Source      1    0[COMRAM] unsigned char 
  3897 ;; Return value:  Size  Location     Type
  3898 ;;                  1    wreg      void 
  3899 ;; Registers used:
  3900 ;;		wreg, status,2, status,0
  3901 ;; Tracked objects:
  3902 ;;		On entry : 0/0
  3903 ;;		On exit  : 0/0
  3904 ;;		Unchanged: 0/0
  3905 ;; Data sizes:     COMRAM   BANK0   BANK1   BANK2   BANK3   BANK4   BANK5   BANK6   BANK7   BANK8   BANK9  BANK10  BANK1
      +1  BANK12  BANK13  BANK14  BANK15
  3906 ;;      Params:         0       0       0       0       0       0       0       0       0       0       0       0       
      +0       0       0       0       0
  3907 ;;      Locals:         1       0       0       0       0       0       0       0       0       0       0       0       
      +0       0       0       0       0
  3908 ;;      Temps:          0       0       0       0       0       0       0       0       0       0       0       0       
      +0       0       0       0       0
  3909 ;;      Totals:         1       0       0       0       0       0       0       0       0       0       0       0       
      +0       0       0       0       0
  3910 ;;Total ram usage:        1 bytes
  3911 ;; Hardware stack levels used: 1
  3912 ;; This function calls:
  3913 ;;		Nothing
  3914 ;; This function is called by:
  3915 ;;		i2_InterruptCheck
  3916 ;; This function uses a non-reentrant model
  3917 ;;
  3918                           
  3919                           	psect	text29
  3920   001F18                     __ptext29:
  3921                           	callstack 0
  3922   001F18                     i2_RB6_ISR:
  3923                           	callstack 21
  3924                           
  3925                           ;incstack = 0
  3926                           ;i2RB6_ISR@RB6_Source stored from wreg
  3927   001F18  6E63               	movwf	i2RB6_ISR@RB6_Source^0,c
  3928   001F1A                     
  3929                           ;mcal_external_interrupt.c: 589:     (INTCONbits.RBIF = 0);
  3930   001F1A  90F2               	bcf	242,0,c	;volatile
  3931   001F1C                     
  3932                           ;mcal_external_interrupt.c: 593:     if(0 == RB6_Source){
  3933   001F1C  5063               	movf	i2RB6_ISR@RB6_Source^0,w,c
  3934   001F1E  A4D8               	btfss	status,2,c
  3935   001F20  EF94  F00F         	goto	i2u285_41
  3936   001F24  EF96  F00F         	goto	i2u285_40
  3937   001F28                     i2u285_41:
  3938   001F28  EF98  F00F         	goto	i2l3884
  3939   001F2C                     i2u285_40:
  3940   001F2C  EF98  F00F         	goto	i2l858
  3941   001F30                     i2l3884:
  3942   001F30                     i2l858:
  3943   001F30  0012               	return		;funcret
  3944   001F32                     __end_ofi2_RB6_ISR:
  3945                           	callstack 0
  3946                           
  3947 ;; *************** function i2_RB5_ISR *****************
  3948 ;; Defined at:
  3949 ;;		line 569 in file "mcal_external_interrupt.c"
  3950 ;; Parameters:    Size  Location     Type
  3951 ;;  RB5_Source      1    wreg     unsigned char 
  3952 ;; Auto vars:     Size  Location     Type
  3953 ;;  RB5_Source      1    0[COMRAM] unsigned char 
  3954 ;; Return value:  Size  Location     Type
  3955 ;;                  1    wreg      void 
  3956 ;; Registers used:
  3957 ;;		wreg, status,2, status,0
  3958 ;; Tracked objects:
  3959 ;;		On entry : 0/0
  3960 ;;		On exit  : 0/0
  3961 ;;		Unchanged: 0/0
  3962 ;; Data sizes:     COMRAM   BANK0   BANK1   BANK2   BANK3   BANK4   BANK5   BANK6   BANK7   BANK8   BANK9  BANK10  BANK1
      +1  BANK12  BANK13  BANK14  BANK15
  3963 ;;      Params:         0       0       0       0       0       0       0       0       0       0       0       0       
      +0       0       0       0       0
  3964 ;;      Locals:         1       0       0       0       0       0       0       0       0       0       0       0       
      +0       0       0       0       0
  3965 ;;      Temps:          0       0       0       0       0       0       0       0       0       0       0       0       
      +0       0       0       0       0
  3966 ;;      Totals:         1       0       0       0       0       0       0       0       0       0       0       0       
      +0       0       0       0       0
  3967 ;;Total ram usage:        1 bytes
  3968 ;; Hardware stack levels used: 1
  3969 ;; This function calls:
  3970 ;;		Nothing
  3971 ;; This function is called by:
  3972 ;;		i2_InterruptCheck
  3973 ;; This function uses a non-reentrant model
  3974 ;;
  3975                           
  3976                           	psect	text30
  3977   001F32                     __ptext30:
  3978                           	callstack 0
  3979   001F32                     i2_RB5_ISR:
  3980                           	callstack 21
  3981                           
  3982                           ;incstack = 0
  3983                           ;i2RB5_ISR@RB5_Source stored from wreg
  3984   001F32  6E63               	movwf	i2RB5_ISR@RB5_Source^0,c
  3985   001F34                     
  3986                           ;mcal_external_interrupt.c: 571:     (INTCONbits.RBIF = 0);
  3987   001F34  90F2               	bcf	242,0,c	;volatile
  3988   001F36                     
  3989                           ;mcal_external_interrupt.c: 575:     if(0 == RB5_Source){
  3990   001F36  5063               	movf	i2RB5_ISR@RB5_Source^0,w,c
  3991   001F38  A4D8               	btfss	status,2,c
  3992   001F3A  EFA1  F00F         	goto	i2u284_41
  3993   001F3E  EFA3  F00F         	goto	i2u284_40
  3994   001F42                     i2u284_41:
  3995   001F42  EFA5  F00F         	goto	i2l3870
  3996   001F46                     i2u284_40:
  3997   001F46  EFA5  F00F         	goto	i2l847
  3998   001F4A                     i2l3870:
  3999   001F4A                     i2l847:
  4000   001F4A  0012               	return		;funcret
  4001   001F4C                     __end_ofi2_RB5_ISR:
  4002                           	callstack 0
  4003                           
  4004 ;; *************** function i2_RB4_ISR *****************
  4005 ;; Defined at:
  4006 ;;		line 551 in file "mcal_external_interrupt.c"
  4007 ;; Parameters:    Size  Location     Type
  4008 ;;  RB4_Source      1    wreg     unsigned char 
  4009 ;; Auto vars:     Size  Location     Type
  4010 ;;  RB4_Source      1    0[COMRAM] unsigned char 
  4011 ;; Return value:  Size  Location     Type
  4012 ;;                  1    wreg      void 
  4013 ;; Registers used:
  4014 ;;		wreg, status,2, status,0
  4015 ;; Tracked objects:
  4016 ;;		On entry : 0/0
  4017 ;;		On exit  : 0/0
  4018 ;;		Unchanged: 0/0
  4019 ;; Data sizes:     COMRAM   BANK0   BANK1   BANK2   BANK3   BANK4   BANK5   BANK6   BANK7   BANK8   BANK9  BANK10  BANK1
      +1  BANK12  BANK13  BANK14  BANK15
  4020 ;;      Params:         0       0       0       0       0       0       0       0       0       0       0       0       
      +0       0       0       0       0
  4021 ;;      Locals:         1       0       0       0       0       0       0       0       0       0       0       0       
      +0       0       0       0       0
  4022 ;;      Temps:          0       0       0       0       0       0       0       0       0       0       0       0       
      +0       0       0       0       0
  4023 ;;      Totals:         1       0       0       0       0       0       0       0       0       0       0       0       
      +0       0       0       0       0
  4024 ;;Total ram usage:        1 bytes
  4025 ;; Hardware stack levels used: 1
  4026 ;; This function calls:
  4027 ;;		Nothing
  4028 ;; This function is called by:
  4029 ;;		i2_InterruptCheck
  4030 ;; This function uses a non-reentrant model
  4031 ;;
  4032                           
  4033                           	psect	text31
  4034   001F4C                     __ptext31:
  4035                           	callstack 0
  4036   001F4C                     i2_RB4_ISR:
  4037                           	callstack 21
  4038                           
  4039                           ;incstack = 0
  4040                           ;i2RB4_ISR@RB4_Source stored from wreg
  4041   001F4C  6E63               	movwf	i2RB4_ISR@RB4_Source^0,c
  4042   001F4E                     
  4043                           ;mcal_external_interrupt.c: 553:     (INTCONbits.RBIF = 0);
  4044   001F4E  90F2               	bcf	242,0,c	;volatile
  4045   001F50                     
  4046                           ;mcal_external_interrupt.c: 557:     if(0 == RB4_Source){
  4047   001F50  5063               	movf	i2RB4_ISR@RB4_Source^0,w,c
  4048   001F52  A4D8               	btfss	status,2,c
  4049   001F54  EFAE  F00F         	goto	i2u283_41
  4050   001F58  EFB0  F00F         	goto	i2u283_40
  4051   001F5C                     i2u283_41:
  4052   001F5C  EFB2  F00F         	goto	i2l3856
  4053   001F60                     i2u283_40:
  4054   001F60  EFB2  F00F         	goto	i2l836
  4055   001F64                     i2l3856:
  4056   001F64                     i2l836:
  4057   001F64  0012               	return		;funcret
  4058   001F66                     __end_ofi2_RB4_ISR:
  4059                           	callstack 0
  4060                           
  4061 ;; *************** function i2_INT2_ISR *****************
  4062 ;; Defined at:
  4063 ;;		line 540 in file "mcal_external_interrupt.c"
  4064 ;; Parameters:    Size  Location     Type
  4065 ;;		None
  4066 ;; Auto vars:     Size  Location     Type
  4067 ;;		None
  4068 ;; Return value:  Size  Location     Type
  4069 ;;                  1    wreg      void 
  4070 ;; Registers used:
  4071 ;;		None
  4072 ;; Tracked objects:
  4073 ;;		On entry : 0/0
  4074 ;;		On exit  : 0/0
  4075 ;;		Unchanged: 0/0
  4076 ;; Data sizes:     COMRAM   BANK0   BANK1   BANK2   BANK3   BANK4   BANK5   BANK6   BANK7   BANK8   BANK9  BANK10  BANK1
      +1  BANK12  BANK13  BANK14  BANK15
  4077 ;;      Params:         0       0       0       0       0       0       0       0       0       0       0       0       
      +0       0       0       0       0
  4078 ;;      Locals:         0       0       0       0       0       0       0       0       0       0       0       0       
      +0       0       0       0       0
  4079 ;;      Temps:          0       0       0       0       0       0       0       0       0       0       0       0       
      +0       0       0       0       0
  4080 ;;      Totals:         0       0       0       0       0       0       0       0       0       0       0       0       
      +0       0       0       0       0
  4081 ;;Total ram usage:        0 bytes
  4082 ;; Hardware stack levels used: 1
  4083 ;; This function calls:
  4084 ;;		Nothing
  4085 ;; This function is called by:
  4086 ;;		i2_InterruptCheck
  4087 ;; This function uses a non-reentrant model
  4088 ;;
  4089                           
  4090                           	psect	text32
  4091   001FA2                     __ptext32:
  4092                           	callstack 0
  4093   001FA2                     i2_INT2_ISR:
  4094                           	callstack 21
  4095   001FA2                     
  4096                           ;mcal_external_interrupt.c: 542:     (INTCON3bits.INT2IF = 0);
  4097   001FA2  92F0               	bcf	240,1,c	;volatile
  4098   001FA4  0012               	return		;funcret
  4099   001FA6                     __end_ofi2_INT2_ISR:
  4100                           	callstack 0
  4101                           
  4102 ;; *************** function i2_INT1_ISR *****************
  4103 ;; Defined at:
  4104 ;;		line 530 in file "mcal_external_interrupt.c"
  4105 ;; Parameters:    Size  Location     Type
  4106 ;;		None
  4107 ;; Auto vars:     Size  Location     Type
  4108 ;;		None
  4109 ;; Return value:  Size  Location     Type
  4110 ;;                  1    wreg      void 
  4111 ;; Registers used:
  4112 ;;		None
  4113 ;; Tracked objects:
  4114 ;;		On entry : 0/0
  4115 ;;		On exit  : 0/0
  4116 ;;		Unchanged: 0/0
  4117 ;; Data sizes:     COMRAM   BANK0   BANK1   BANK2   BANK3   BANK4   BANK5   BANK6   BANK7   BANK8   BANK9  BANK10  BANK1
      +1  BANK12  BANK13  BANK14  BANK15
  4118 ;;      Params:         0       0       0       0       0       0       0       0       0       0       0       0       
      +0       0       0       0       0
  4119 ;;      Locals:         0       0       0       0       0       0       0       0       0       0       0       0       
      +0       0       0       0       0
  4120 ;;      Temps:          0       0       0       0       0       0       0       0       0       0       0       0       
      +0       0       0       0       0
  4121 ;;      Totals:         0       0       0       0       0       0       0       0       0       0       0       0       
      +0       0       0       0       0
  4122 ;;Total ram usage:        0 bytes
  4123 ;; Hardware stack levels used: 1
  4124 ;; This function calls:
  4125 ;;		Nothing
  4126 ;; This function is called by:
  4127 ;;		i2_InterruptCheck
  4128 ;; This function uses a non-reentrant model
  4129 ;;
  4130                           
  4131                           	psect	text33
  4132   001FA6                     __ptext33:
  4133                           	callstack 0
  4134   001FA6                     i2_INT1_ISR:
  4135                           	callstack 21
  4136   001FA6                     
  4137                           ;mcal_external_interrupt.c: 532:     (INTCON3bits.INT1IF = 0);
  4138   001FA6  90F0               	bcf	240,0,c	;volatile
  4139   001FA8  0012               	return		;funcret
  4140   001FAA                     __end_ofi2_INT1_ISR:
  4141                           	callstack 0
  4142                           
  4143 ;; *************** function i2_INT0_ISR *****************
  4144 ;; Defined at:
  4145 ;;		line 520 in file "mcal_external_interrupt.c"
  4146 ;; Parameters:    Size  Location     Type
  4147 ;;		None
  4148 ;; Auto vars:     Size  Location     Type
  4149 ;;		None
  4150 ;; Return value:  Size  Location     Type
  4151 ;;                  1    wreg      void 
  4152 ;; Registers used:
  4153 ;;		None
  4154 ;; Tracked objects:
  4155 ;;		On entry : 0/0
  4156 ;;		On exit  : 0/0
  4157 ;;		Unchanged: 0/0
  4158 ;; Data sizes:     COMRAM   BANK0   BANK1   BANK2   BANK3   BANK4   BANK5   BANK6   BANK7   BANK8   BANK9  BANK10  BANK1
      +1  BANK12  BANK13  BANK14  BANK15
  4159 ;;      Params:         0       0       0       0       0       0       0       0       0       0       0       0       
      +0       0       0       0       0
  4160 ;;      Locals:         0       0       0       0       0       0       0       0       0       0       0       0       
      +0       0       0       0       0
  4161 ;;      Temps:          0       0       0       0       0       0       0       0       0       0       0       0       
      +0       0       0       0       0
  4162 ;;      Totals:         0       0       0       0       0       0       0       0       0       0       0       0       
      +0       0       0       0       0
  4163 ;;Total ram usage:        0 bytes
  4164 ;; Hardware stack levels used: 1
  4165 ;; This function calls:
  4166 ;;		Nothing
  4167 ;; This function is called by:
  4168 ;;		i2_InterruptCheck
  4169 ;; This function uses a non-reentrant model
  4170 ;;
  4171                           
  4172                           	psect	text34
  4173   001FAA                     __ptext34:
  4174                           	callstack 0
  4175   001FAA                     i2_INT0_ISR:
  4176                           	callstack 21
  4177   001FAA                     
  4178                           ;mcal_external_interrupt.c: 522:     (INTCONbits.INT0IF = 0);
  4179   001FAA  92F2               	bcf	242,1,c	;volatile
  4180   001FAC  0012               	return		;funcret
  4181   001FAE                     __end_ofi2_INT0_ISR:
  4182                           	callstack 0
  4183                           
  4184 ;; *************** function i2_ADC_ISR *****************
  4185 ;; Defined at:
  4186 ;;		line 348 in file "MCAL_Layer/ADC/hal_adc.c"
  4187 ;; Parameters:    Size  Location     Type
  4188 ;;		None
  4189 ;; Auto vars:     Size  Location     Type
  4190 ;;		None
  4191 ;; Return value:  Size  Location     Type
  4192 ;;                  1    wreg      void 
  4193 ;; Registers used:
  4194 ;;		None
  4195 ;; Tracked objects:
  4196 ;;		On entry : 0/0
  4197 ;;		On exit  : 0/0
  4198 ;;		Unchanged: 0/0
  4199 ;; Data sizes:     COMRAM   BANK0   BANK1   BANK2   BANK3   BANK4   BANK5   BANK6   BANK7   BANK8   BANK9  BANK10  BANK1
      +1  BANK12  BANK13  BANK14  BANK15
  4200 ;;      Params:         0       0       0       0       0       0       0       0       0       0       0       0       
      +0       0       0       0       0
  4201 ;;      Locals:         0       0       0       0       0       0       0       0       0       0       0       0       
      +0       0       0       0       0
  4202 ;;      Temps:          0       0       0       0       0       0       0       0       0       0       0       0       
      +0       0       0       0       0
  4203 ;;      Totals:         0       0       0       0       0       0       0       0       0       0       0       0       
      +0       0       0       0       0
  4204 ;;Total ram usage:        0 bytes
  4205 ;; Hardware stack levels used: 1
  4206 ;; This function calls:
  4207 ;;		Nothing
  4208 ;; This function is called by:
  4209 ;;		i2_InterruptCheck
  4210 ;; This function uses a non-reentrant model
  4211 ;;
  4212                           
  4213                           	psect	text35
  4214   001FAE                     __ptext35:
  4215                           	callstack 0
  4216   001FAE                     i2_ADC_ISR:
  4217                           	callstack 21
  4218   001FAE                     
  4219                           ;MCAL_Layer/ADC/hal_adc.c: 349:     (PIR1bits.ADIF = 0);
  4220   001FAE  9C9E               	bcf	158,6,c	;volatile
  4221   001FB0  0012               	return		;funcret
  4222   001FB2                     __end_ofi2_ADC_ISR:
  4223                           	callstack 0
  4224                           
  4225                           	psect	rparam
  4226   000000                     
  4227                           	psect	temp
  4228   00007A                     btemp:
  4229                           	callstack 0
  4230   00007A                     	ds	1
  4231   000000                     int$flags	set	btemp
  4232   000000                     wtemp8	set	btemp+1
  4233   000000                     ttemp5	set	btemp+1
  4234   000000                     ttemp6	set	btemp+4
  4235   000000                     ttemp7	set	btemp+8
  4236                           
  4237                           	psect	idloc
  4238                           
  4239                           ;Config register IDLOC0 @ 0x200000
  4240                           ;	unspecified, using default values
  4241   200000                     	org	2097152
  4242   200000  FF                 	db	255
  4243                           
  4244                           ;Config register IDLOC1 @ 0x200001
  4245                           ;	unspecified, using default values
  4246   200001                     	org	2097153
  4247   200001  FF                 	db	255
  4248                           
  4249                           ;Config register IDLOC2 @ 0x200002
  4250                           ;	unspecified, using default values
  4251   200002                     	org	2097154
  4252   200002  FF                 	db	255
  4253                           
  4254                           ;Config register IDLOC3 @ 0x200003
  4255                           ;	unspecified, using default values
  4256   200003                     	org	2097155
  4257   200003  FF                 	db	255
  4258                           
  4259                           ;Config register IDLOC4 @ 0x200004
  4260                           ;	unspecified, using default values
  4261   200004                     	org	2097156
  4262   200004  FF                 	db	255
  4263                           
  4264                           ;Config register IDLOC5 @ 0x200005
  4265                           ;	unspecified, using default values
  4266   200005                     	org	2097157
  4267   200005  FF                 	db	255
  4268                           
  4269                           ;Config register IDLOC6 @ 0x200006
  4270                           ;	unspecified, using default values
  4271   200006                     	org	2097158
  4272   200006  FF                 	db	255
  4273                           
  4274                           ;Config register IDLOC7 @ 0x200007
  4275                           ;	unspecified, using default values
  4276   200007                     	org	2097159
  4277   200007  FF                 	db	255
  4278                           
  4279                           	psect	config
  4280                           
  4281                           ; Padding undefined space
  4282   300000                     	org	3145728
  4283   300000  FF                 	db	255
  4284                           
  4285                           ;Config register CONFIG1H @ 0x300001
  4286                           ;	Oscillator Selection bits
  4287                           ;	OSC = HS, HS oscillator
  4288                           ;	Fail-Safe Clock Monitor Enable bit
  4289                           ;	FCMEN = OFF, Fail-Safe Clock Monitor disabled
  4290                           ;	Internal/External Oscillator Switchover bit
  4291                           ;	IESO = OFF, Oscillator Switchover mode disabled
  4292   300001                     	org	3145729
  4293   300001  02                 	db	2
  4294                           
  4295                           ;Config register CONFIG2L @ 0x300002
  4296                           ;	Power-up Timer Enable bit
  4297                           ;	PWRT = OFF, PWRT disabled
  4298                           ;	Brown-out Reset Enable bits
  4299                           ;	BOREN = OFF, Brown-out Reset disabled in hardware and software
  4300                           ;	Brown Out Reset Voltage bits
  4301                           ;	BORV = 1, 
  4302   300002                     	org	3145730
  4303   300002  09                 	db	9
  4304                           
  4305                           ;Config register CONFIG2H @ 0x300003
  4306                           ;	Watchdog Timer Enable bit
  4307                           ;	WDT = OFF, WDT disabled (control is placed on the SWDTEN bit)
  4308                           ;	Watchdog Timer Postscale Select bits
  4309                           ;	WDTPS = 32768, 1:32768
  4310   300003                     	org	3145731
  4311   300003  1E                 	db	30
  4312                           
  4313                           ; Padding undefined space
  4314   300004                     	org	3145732
  4315   300004  FF                 	db	255
  4316                           
  4317                           ;Config register CONFIG3H @ 0x300005
  4318                           ;	CCP2 MUX bit
  4319                           ;	CCP2MX = PORTC, CCP2 input/output is multiplexed with RC1
  4320                           ;	PORTB A/D Enable bit
  4321                           ;	PBADEN = OFF, PORTB<4:0> pins are configured as digital I/O on Reset
  4322                           ;	Low-Power Timer1 Oscillator Enable bit
  4323                           ;	LPT1OSC = OFF, Timer1 configured for higher power operation
  4324                           ;	MCLR Pin Enable bit
  4325                           ;	MCLRE = ON, MCLR pin enabled; RE3 input pin disabled
  4326   300005                     	org	3145733
  4327   300005  81                 	db	129
  4328                           
  4329                           ;Config register CONFIG4L @ 0x300006
  4330                           ;	Stack Full/Underflow Reset Enable bit
  4331                           ;	STVREN = ON, Stack full/underflow will cause Reset
  4332                           ;	Single-Supply ICSP Enable bit
  4333                           ;	LVP = OFF, Single-Supply ICSP disabled
  4334                           ;	Extended Instruction Set Enable bit
  4335                           ;	XINST = OFF, Instruction set extension and Indexed Addressing mode disabled (Legacy mo
      +                          de)
  4336                           ;	Background Debugger Enable bit
  4337                           ;	DEBUG = 0x1, unprogrammed default
  4338   300006                     	org	3145734
  4339   300006  81                 	db	129
  4340                           
  4341                           ; Padding undefined space
  4342   300007                     	org	3145735
  4343   300007  FF                 	db	255
  4344                           
  4345                           ;Config register CONFIG5L @ 0x300008
  4346                           ;	Code Protection bit
  4347                           ;	CP0 = OFF, Block 0 (000800-003FFFh) not code-protected
  4348                           ;	Code Protection bit
  4349                           ;	CP1 = OFF, Block 1 (004000-007FFFh) not code-protected
  4350                           ;	Code Protection bit
  4351                           ;	CP2 = OFF, Block 2 (008000-00BFFFh) not code-protected
  4352                           ;	Code Protection bit
  4353                           ;	CP3 = OFF, Block 3 (00C000-00FFFFh) not code-protected
  4354   300008                     	org	3145736
  4355   300008  0F                 	db	15
  4356                           
  4357                           ;Config register CONFIG5H @ 0x300009
  4358                           ;	Boot Block Code Protection bit
  4359                           ;	CPB = OFF, Boot block (000000-0007FFh) not code-protected
  4360                           ;	Data EEPROM Code Protection bit
  4361                           ;	CPD = OFF, Data EEPROM not code-protected
  4362   300009                     	org	3145737
  4363   300009  C0                 	db	192
  4364                           
  4365                           ;Config register CONFIG6L @ 0x30000A
  4366                           ;	Write Protection bit
  4367                           ;	WRT0 = OFF, Block 0 (000800-003FFFh) not write-protected
  4368                           ;	Write Protection bit
  4369                           ;	WRT1 = OFF, Block 1 (004000-007FFFh) not write-protected
  4370                           ;	Write Protection bit
  4371                           ;	WRT2 = OFF, Block 2 (008000-00BFFFh) not write-protected
  4372                           ;	Write Protection bit
  4373                           ;	WRT3 = OFF, Block 3 (00C000-00FFFFh) not write-protected
  4374   30000A                     	org	3145738
  4375   30000A  0F                 	db	15
  4376                           
  4377                           ;Config register CONFIG6H @ 0x30000B
  4378                           ;	Configuration Register Write Protection bit
  4379                           ;	WRTC = OFF, Configuration registers (300000-3000FFh) not write-protected
  4380                           ;	Boot Block Write Protection bit
  4381                           ;	WRTB = OFF, Boot Block (000000-0007FFh) not write-protected
  4382                           ;	Data EEPROM Write Protection bit
  4383                           ;	WRTD = OFF, Data EEPROM not write-protected
  4384   30000B                     	org	3145739
  4385   30000B  E0                 	db	224
  4386                           
  4387                           ;Config register CONFIG7L @ 0x30000C
  4388                           ;	Table Read Protection bit
  4389                           ;	EBTR0 = OFF, Block 0 (000800-003FFFh) not protected from table reads executed in other
      +                           blocks
  4390                           ;	Table Read Protection bit
  4391                           ;	EBTR1 = OFF, Block 1 (004000-007FFFh) not protected from table reads executed in other
      +                           blocks
  4392                           ;	Table Read Protection bit
  4393                           ;	EBTR2 = OFF, Block 2 (008000-00BFFFh) not protected from table reads executed in other
      +                           blocks
  4394                           ;	Table Read Protection bit
  4395                           ;	EBTR3 = OFF, Block 3 (00C000-00FFFFh) not protected from table reads executed in other
      +                           blocks
  4396   30000C                     	org	3145740
  4397   30000C  0F                 	db	15
  4398                           
  4399                           ;Config register CONFIG7H @ 0x30000D
  4400                           ;	Boot Block Table Read Protection bit
  4401                           ;	EBTRB = OFF, Boot Block (000000-0007FFh) not protected from table reads executed in ot
      +                          her blocks
  4402   30000D                     	org	3145741
  4403   30000D  40                 	db	64
  4404                           tosu	equ	0xFFF
  4405                           tosh	equ	0xFFE
  4406                           tosl	equ	0xFFD
  4407                           stkptr	equ	0xFFC
  4408                           pclatu	equ	0xFFB
  4409                           pclath	equ	0xFFA
  4410                           pcl	equ	0xFF9
  4411                           tblptru	equ	0xFF8
  4412                           tblptrh	equ	0xFF7
  4413                           tblptrl	equ	0xFF6
  4414                           tablat	equ	0xFF5
  4415                           prodh	equ	0xFF4
  4416                           prodl	equ	0xFF3
  4417                           indf0	equ	0xFEF
  4418                           postinc0	equ	0xFEE
  4419                           postdec0	equ	0xFED
  4420                           preinc0	equ	0xFEC
  4421                           plusw0	equ	0xFEB
  4422                           fsr0h	equ	0xFEA
  4423                           fsr0l	equ	0xFE9
  4424                           wreg	equ	0xFE8
  4425                           indf1	equ	0xFE7
  4426                           postinc1	equ	0xFE6
  4427                           postdec1	equ	0xFE5
  4428                           preinc1	equ	0xFE4
  4429                           plusw1	equ	0xFE3
  4430                           fsr1h	equ	0xFE2
  4431                           fsr1l	equ	0xFE1
  4432                           bsr	equ	0xFE0
  4433                           indf2	equ	0xFDF
  4434                           postinc2	equ	0xFDE
  4435                           postdec2	equ	0xFDD
  4436                           preinc2	equ	0xFDC
  4437                           plusw2	equ	0xFDB
  4438                           fsr2h	equ	0xFDA
  4439                           fsr2l	equ	0xFD9
  4440                           status	equ	0xFD8

Data Sizes:
    Strings     3
    Constant    0
    Data        56
    BSS         63
    Persistent  0
    Stack       0

Auto Spaces:
    Space          Size  Autos    Used
    COMRAM          126     23     121
    BANK0           128      2      23
    BANK1           256      0       0
    BANK2           256      0       0
    BANK3           256      0       0
    BANK4           256      0       0
    BANK5           256      0       0
    BANK6           256      0       0
    BANK7           256      0       0
    BANK8           256      0       0
    BANK9           256      0       0
    BANK10          256      0       0
    BANK11          256      0       0
    BANK12          256      0       0
    BANK13          256      0       0
    BANK14          256      0       0
    BANK15          128      0       0

Pointer List with Targets:

    vfprintf$2	PTR PTR void  size(2) Largest target is 2
		 -> sprintf@ap(COMRAM[2]), 

    vfprintf$1	PTR const unsigned char  size(2) Largest target is 3
		 -> STR_3(CODE[3]), STR_2(CODE[3]), STR_1(CODE[3]), 

    vfprintf$0	PTR struct _IO_FILE size(2) Largest target is 12
		 -> sprintf@f(COMRAM[12]), 

    S2710$source	PTR const unsigned char  size(2) Largest target is 0

    f...source	PTR const unsigned char  size(2) Largest target is 0

    S2710$buffer	PTR unsigned char  size(2) Largest target is 0

    f...buffer	PTR unsigned char  size(2) Largest target is 0

    Timer0_Register_Size@_timer.TMR0_InterruptHandler	PTR FTN()void  size(2) Largest target is 0

    Timer0_Mode_Select@_timer.TMR0_InterruptHandler	PTR FTN()void  size(2) Largest target is 0

    Timer0_prescaler_config@_timer.TMR0_InterruptHandler	PTR FTN()void  size(2) Largest target is 0

    TMR0_InterruptHandler	PTR FTN()void  size(2) Largest target is 1
		 -> NULL(), 

    S2049$TMR0_InterruptHandler	PTR FTN()void  size(2) Largest target is 0

    Timer0_Init@_timer.TMR0_InterruptHandler	PTR FTN()void  size(2) Largest target is 0

    Interrupt_INTx_SetInterruptHandler@int_obj.InterruptHandler	PTR FTN()void  size(2) Largest target is 0

    INT2_InterruptHandler	PTR FTN()void  size(2) Largest target is 1
		 -> NULL(), 

    INT1_InterruptHandler	PTR FTN()void  size(2) Largest target is 1
		 -> NULL(), 

    INT0_InterruptHandler	PTR FTN()void  size(2) Largest target is 1
		 -> NULL(), 

    Interrupt_RBx_Pin_Init@int_obj.InterruptHandler_LOW	PTR FTN()void  size(2) Largest target is 0

    Interrupt_RBx_Pin_Init@int_obj.InterruptHandler_HIGH	PTR FTN()void  size(2) Largest target is 0

    Interrupt_RBx_Priority_Init@int_obj.InterruptHandler_LOW	PTR FTN()void  size(2) Largest target is 0

    Interrupt_RBx_Priority_Init@int_obj.InterruptHandler_HIGH	PTR FTN()void  size(2) Largest target is 0

    Interrupt_INTx_Clear_Flag@int_obj.InterruptHandler	PTR FTN()void  size(2) Largest target is 0

    Interrupt_INTx_Pin_Init@int_obj.InterruptHandler	PTR FTN()void  size(2) Largest target is 0

    Interrupt_INTx_Edge_Init@int_obj.InterruptHandler	PTR FTN()void  size(2) Largest target is 0

    Interrupt_INTx_Priority_Init@int_obj.InterruptHandler	PTR FTN()void  size(2) Largest target is 0

    Interrupt_INTx_Disable@int_obj.InterruptHandler	PTR FTN()void  size(2) Largest target is 0

    S1539$InterruptHandler	PTR FTN()void  size(2) Largest target is 0

    Interrupt_INTx_Enable@int_obj.InterruptHandler	PTR FTN()void  size(2) Largest target is 0

    RB7_InterruptHandler_LOW	PTR FTN()void  size(2) Largest target is 1
		 -> NULL(), 

    RB7_InterruptHandler_HIGH	PTR FTN()void  size(2) Largest target is 1
		 -> NULL(), 

    RB6_InterruptHandler_LOW	PTR FTN()void  size(2) Largest target is 1
		 -> NULL(), 

    RB6_InterruptHandler_HIGH	PTR FTN()void  size(2) Largest target is 1
		 -> NULL(), 

    RB5_InterruptHandler_LOW	PTR FTN()void  size(2) Largest target is 1
		 -> NULL(), 

    RB5_InterruptHandler_HIGH	PTR FTN()void  size(2) Largest target is 1
		 -> NULL(), 

    RB4_InterruptHandler_LOW	PTR FTN()void  size(2) Largest target is 1
		 -> NULL(), 

    RB4_InterruptHandler_HIGH	PTR FTN()void  size(2) Largest target is 1
		 -> NULL(), 

    S1582$InterruptHandler_LOW	PTR FTN()void  size(2) Largest target is 0

    Interrupt_RBx_Init@int_obj.InterruptHandler_LOW	PTR FTN()void  size(2) Largest target is 0

    S1582$InterruptHandler_HIGH	PTR FTN()void  size(2) Largest target is 0

    Interrupt_RBx_Init@int_obj.InterruptHandler_HIGH	PTR FTN()void  size(2) Largest target is 0

    gpio_pin_intialize@_pin_config	PTR const struct . size(2) Largest target is 1
		 -> led_initialize@pin_obj(COMRAM[1]), 

    gpio_pin_read_logic@logic	PTR enum E2968 size(2) Largest target is 1
		 -> button_read_state@pin_logic_status(COMRAM[1]), 

    gpio_pin_read_logic@_pin_config	PTR const struct . size(2) Largest target is 2
		 -> btn_low(COMRAM[2]), btn_high(COMRAM[2]), 

    gpio_pin_write_logic@_pin_config	PTR const struct . size(2) Largest target is 1
		 -> led_turn_off@pin_obj(COMRAM[1]), led_turn_on@pin_obj(COMRAM[1]), led_initialize@pin_obj(COMRAM[1]), 

    gpio_pin_direction_intialize@_pin_config	PTR const struct . size(2) Largest target is 2
		 -> btn_low(COMRAM[2]), btn_high(COMRAM[2]), led_initialize@pin_obj(COMRAM[1]), 

    port_registers	PTR volatile unsigned char [5] size(2) Largest target is 1
		 -> PORTE(BITBIGSFRlllll[1]), PORTD(BITBIGSFRlllll[1]), PORTC(BITBIGSFRlllll[1]), PORTB(BITBIGSFRlllll[1]), 
		 -> PORTA(BITBIGSFRlllll[1]), 

    lat_registers	PTR volatile unsigned char [5] size(2) Largest target is 1
		 -> LATE(BITBIGSFRllllh[1]), LATD(BITBIGSFRllllh[1]), LATC(BITBIGSFRllllh[1]), LATB(BITBIGSFRllllh[1]), 
		 -> LATA(BITBIGSFRlllll[1]), 

    tris_registers	PTR volatile unsigned char [5] size(2) Largest target is 1
		 -> TRISD(ABS[1]), TRISC(ABS[1]), TRISB(ABS[1]), TRISE(ABS[1]), 
		 -> TRISA(BITBIGSFRlllll[1]), 

    select_voltage_referance@_adc.ADC_InterruptHandler	PTR FTN()void  size(2) Largest target is 0

    select_result_format@_adc.ADC_InterruptHandler	PTR FTN()void  size(2) Largest target is 0

    ADC_GetConversionResult@_adc.ADC_InterruptHandler	PTR FTN()void  size(2) Largest target is 0

    ADC_InterruptHandler	PTR FTN()void  size(2) Largest target is 1
		 -> NULL(), 

    S565$ADC_InterruptHandler	PTR FTN()void  size(2) Largest target is 0

    ADC_Init@_adc.ADC_InterruptHandler	PTR FTN()void  size(2) Largest target is 0

    led_turn_off@led	PTR const struct . size(2) Largest target is 1
		 -> led1(COMRAM[1]), led2(COMRAM[1]), 

    led_turn_on@led	PTR const struct . size(2) Largest target is 1
		 -> led1(COMRAM[1]), led2(COMRAM[1]), 

    led_initialize@led	PTR const struct . size(2) Largest target is 1
		 -> led1(COMRAM[1]), led2(COMRAM[1]), 

    sp__memset	PTR void  size(2) Largest target is 0

    button_read_state@btn_state	PTR enum E3028 size(2) Largest target is 1
		 -> btn_low_status(COMRAM[1]), btn_high_status(COMRAM[1]), 

    button_read_state@btn	PTR const struct . size(2) Largest target is 2
		 -> btn_low(COMRAM[2]), btn_high(COMRAM[2]), 

    button_initialize@btn	PTR const struct . size(2) Largest target is 2
		 -> btn_low(COMRAM[2]), btn_high(COMRAM[2]), 


Critical Paths under _main in COMRAM

    _program_3->_led_turn_off
    _program_3->_led_turn_on
    _program_2->_led_turn_off
    _program_2->_led_turn_on
    _program_1->_led_turn_off
    _program_1->_led_turn_on
    _led_turn_on->_gpio_pin_write_logic
    _led_turn_off->_gpio_pin_write_logic
    _button_read_state->_gpio_pin_read_logic
    _app_intialize->_led_initialize
    _led_initialize->_gpio_pin_intialize
    _gpio_pin_intialize->_gpio_pin_write_logic
    _button_initialize->_gpio_pin_direction_intialize

Critical Paths under _InterruptManagerLow in COMRAM

    _InterruptCheck->_RB4_ISR
    _InterruptCheck->_RB5_ISR
    _InterruptCheck->_RB6_ISR
    _InterruptCheck->_RB7_ISR

Critical Paths under _InterruptManagerHigh in COMRAM

    i2_InterruptCheck->i2_RB4_ISR
    i2_InterruptCheck->i2_RB5_ISR
    i2_InterruptCheck->i2_RB6_ISR
    i2_InterruptCheck->i2_RB7_ISR

Critical Paths under _main in BANK0

    None.

Critical Paths under _InterruptManagerLow in BANK0

    None.

Critical Paths under _InterruptManagerHigh in BANK0

    None.

Critical Paths under _main in BANK1

    None.

Critical Paths under _InterruptManagerLow in BANK1

    None.

Critical Paths under _InterruptManagerHigh in BANK1

    None.

Critical Paths under _main in BANK2

    None.

Critical Paths under _InterruptManagerLow in BANK2

    None.

Critical Paths under _InterruptManagerHigh in BANK2

    None.

Critical Paths under _main in BANK3

    None.

Critical Paths under _InterruptManagerLow in BANK3

    None.

Critical Paths under _InterruptManagerHigh in BANK3

    None.

Critical Paths under _main in BANK4

    None.

Critical Paths under _InterruptManagerLow in BANK4

    None.

Critical Paths under _InterruptManagerHigh in BANK4

    None.

Critical Paths under _main in BANK5

    None.

Critical Paths under _InterruptManagerLow in BANK5

    None.

Critical Paths under _InterruptManagerHigh in BANK5

    None.

Critical Paths under _main in BANK6

    None.

Critical Paths under _InterruptManagerLow in BANK6

    None.

Critical Paths under _InterruptManagerHigh in BANK6

    None.

Critical Paths under _main in BANK7

    None.

Critical Paths under _InterruptManagerLow in BANK7

    None.

Critical Paths under _InterruptManagerHigh in BANK7

    None.

Critical Paths under _main in BANK8

    None.

Critical Paths under _InterruptManagerLow in BANK8

    None.

Critical Paths under _InterruptManagerHigh in BANK8

    None.

Critical Paths under _main in BANK9

    None.

Critical Paths under _InterruptManagerLow in BANK9

    None.

Critical Paths under _InterruptManagerHigh in BANK9

    None.

Critical Paths under _main in BANK10

    None.

Critical Paths under _InterruptManagerLow in BANK10

    None.

Critical Paths under _InterruptManagerHigh in BANK10

    None.

Critical Paths under _main in BANK11

    None.

Critical Paths under _InterruptManagerLow in BANK11

    None.

Critical Paths under _InterruptManagerHigh in BANK11

    None.

Critical Paths under _main in BANK12

    None.

Critical Paths under _InterruptManagerLow in BANK12

    None.

Critical Paths under _InterruptManagerHigh in BANK12

    None.

Critical Paths under _main in BANK13

    None.

Critical Paths under _InterruptManagerLow in BANK13

    None.

Critical Paths under _InterruptManagerHigh in BANK13

    None.

Critical Paths under _main in BANK14

    None.

Critical Paths under _InterruptManagerLow in BANK14

    None.

Critical Paths under _InterruptManagerHigh in BANK14

    None.

Critical Paths under _main in BANK15

    None.

Critical Paths under _InterruptManagerLow in BANK15

    None.

Critical Paths under _InterruptManagerHigh in BANK15

    None.

Call Graph Tables:

 ---------------------------------------------------------------------------------
 (Depth) Function   	        Calls       Base Space   Used Autos Params    Refs
 ---------------------------------------------------------------------------------
 (0) _main                                                 3     3      0   31624
                                              0 BANK0      2     2      0
                      _app_intialize
                  _button_read_state
                       _led_turn_off
                        _led_turn_on
                          _program_1
                          _program_2
                          _program_3
 ---------------------------------------------------------------------------------
 (1) _program_3                                            3     3      0    6437
                                             19 COMRAM     3     3      0
                       _led_turn_off
                        _led_turn_on
 ---------------------------------------------------------------------------------
 (1) _program_2                                            3     3      0    6437
                                             19 COMRAM     3     3      0
                       _led_turn_off
                        _led_turn_on
 ---------------------------------------------------------------------------------
 (1) _program_1                                            2     2      0    6390
                                             19 COMRAM     2     2      0
                       _led_turn_off
                        _led_turn_on
 ---------------------------------------------------------------------------------
 (2) _led_turn_on                                          5     3      2    3195
                                             15 COMRAM     4     2      2
               _gpio_pin_write_logic
 ---------------------------------------------------------------------------------
 (2) _led_turn_off                                         5     3      2    3195
                                             15 COMRAM     4     2      2
               _gpio_pin_write_logic
 ---------------------------------------------------------------------------------
 (1) _button_read_state                                    7     3      4     905
                                             15 COMRAM     7     3      4
                _gpio_pin_read_logic
 ---------------------------------------------------------------------------------
 (2) _gpio_pin_read_logic                                 10     6      4     308
                                              5 COMRAM    10     6      4
 ---------------------------------------------------------------------------------
 (1) _app_intialize                                        1     1      0    5056
                  _button_initialize
                     _led_initialize
 ---------------------------------------------------------------------------------
 (2) _led_initialize                                       5     3      2    4271
                                             18 COMRAM     5     3      2
                 _gpio_pin_intialize
 ---------------------------------------------------------------------------------
 (3) _gpio_pin_intialize                                   3     1      2    3968
                                             15 COMRAM     3     1      2
       _gpio_pin_direction_intialize
               _gpio_pin_write_logic
 ---------------------------------------------------------------------------------
 (3) _gpio_pin_write_logic                                10     7      3    2763
                                              5 COMRAM    10     7      3
 ---------------------------------------------------------------------------------
 (2) _button_initialize                                    3     1      2     780
                                             14 COMRAM     3     1      2
       _gpio_pin_direction_intialize
 ---------------------------------------------------------------------------------
 (4) _gpio_pin_direction_intialize                         9     7      2     559
                                              5 COMRAM     9     7      2
 ---------------------------------------------------------------------------------
 Estimated maximum stack depth 4
 ---------------------------------------------------------------------------------
 (Depth) Function   	        Calls       Base Space   Used Autos Params    Refs
 ---------------------------------------------------------------------------------
 (5) _InterruptManagerLow                                  3     3      0     120
                                              2 COMRAM     3     3      0
                     _InterruptCheck
 ---------------------------------------------------------------------------------
 (6) _InterruptCheck                                       0     0      0     120
                            _ADC_ISR
                           _INT0_ISR
                           _INT1_ISR
                           _INT2_ISR
                            _RB4_ISR
                            _RB5_ISR
                            _RB6_ISR
                            _RB7_ISR
                           _TMRO_ISR
 ---------------------------------------------------------------------------------
 (7) _TMRO_ISR                                             0     0      0       0
 ---------------------------------------------------------------------------------
 (7) _RB7_ISR                                              1     1      0      30
                                              1 COMRAM     1     1      0
 ---------------------------------------------------------------------------------
 (7) _RB6_ISR                                              1     1      0      30
                                              1 COMRAM     1     1      0
 ---------------------------------------------------------------------------------
 (7) _RB5_ISR                                              1     1      0      30
                                              1 COMRAM     1     1      0
 ---------------------------------------------------------------------------------
 (7) _RB4_ISR                                              1     1      0      30
                                              1 COMRAM     1     1      0
 ---------------------------------------------------------------------------------
 (7) _INT2_ISR                                             0     0      0       0
 ---------------------------------------------------------------------------------
 (7) _INT1_ISR                                             0     0      0       0
 ---------------------------------------------------------------------------------
 (7) _INT0_ISR                                             0     0      0       0
 ---------------------------------------------------------------------------------
 (7) _ADC_ISR                                              0     0      0       0
 ---------------------------------------------------------------------------------
 Estimated maximum stack depth 7
 ---------------------------------------------------------------------------------
 (Depth) Function   	        Calls       Base Space   Used Autos Params    Refs
 ---------------------------------------------------------------------------------
 (8) _InterruptManagerHigh                                 0     0      0     176
                   i2_InterruptCheck
 ---------------------------------------------------------------------------------
 (9) i2_InterruptCheck                                     0     0      0     176
                          i2_ADC_ISR
                         i2_INT0_ISR
                         i2_INT1_ISR
                         i2_INT2_ISR
                          i2_RB4_ISR
                          i2_RB5_ISR
                          i2_RB6_ISR
                          i2_RB7_ISR
                         i2_TMRO_ISR
 ---------------------------------------------------------------------------------
 (10) i2_TMRO_ISR                                          0     0      0       0
 ---------------------------------------------------------------------------------
 (10) i2_RB7_ISR                                           1     1      0      44
                                              0 COMRAM     1     1      0
 ---------------------------------------------------------------------------------
 (10) i2_RB6_ISR                                           1     1      0      44
                                              0 COMRAM     1     1      0
 ---------------------------------------------------------------------------------
 (10) i2_RB5_ISR                                           1     1      0      44
                                              0 COMRAM     1     1      0
 ---------------------------------------------------------------------------------
 (10) i2_RB4_ISR                                           1     1      0      44
                                              0 COMRAM     1     1      0
 ---------------------------------------------------------------------------------
 (10) i2_INT2_ISR                                          0     0      0       0
 ---------------------------------------------------------------------------------
 (10) i2_INT1_ISR                                          0     0      0       0
 ---------------------------------------------------------------------------------
 (10) i2_INT0_ISR                                          0     0      0       0
 ---------------------------------------------------------------------------------
 (10) i2_ADC_ISR                                           0     0      0       0
 ---------------------------------------------------------------------------------
 Estimated maximum stack depth 10
 ---------------------------------------------------------------------------------

 Call Graph Graphs:

 _main (ROOT)
   _app_intialize
     _button_initialize
       _gpio_pin_direction_intialize
     _led_initialize
       _gpio_pin_intialize
         _gpio_pin_direction_intialize
         _gpio_pin_write_logic
   _button_read_state
     _gpio_pin_read_logic
   _led_turn_off
     _gpio_pin_write_logic
   _led_turn_on
     _gpio_pin_write_logic
   _program_1
     _led_turn_off
     _led_turn_on
   _program_2
     _led_turn_off
     _led_turn_on
   _program_3
     _led_turn_off
     _led_turn_on

 _InterruptManagerLow (ROOT)
   _InterruptCheck
     _ADC_ISR
     _INT0_ISR
     _INT1_ISR
     _INT2_ISR
     _RB4_ISR
     _RB5_ISR
     _RB6_ISR
     _RB7_ISR
     _TMRO_ISR

 _InterruptManagerHigh (ROOT)
   i2_InterruptCheck
     i2_ADC_ISR
     i2_INT0_ISR
     i2_INT1_ISR
     i2_INT2_ISR
     i2_RB4_ISR
     i2_RB5_ISR
     i2_RB6_ISR
     i2_RB7_ISR
     i2_TMRO_ISR

 Address spaces:
Name               Size   Autos  Total    Cost      Usage
BIGRAM             F7F      0       0      46        0.0%
EEDATA             400      0       0       0        0.0%
BITBANK14          100      0       0      33        0.0%
BANK14             100      0       0      34        0.0%
BITBANK13          100      0       0      31        0.0%
BANK13             100      0       0      32        0.0%
BITBANK12          100      0       0      29        0.0%
BANK12             100      0       0      30        0.0%
BITBANK11          100      0       0      27        0.0%
BANK11             100      0       0      28        0.0%
BITBANK10          100      0       0      25        0.0%
BANK10             100      0       0      26        0.0%
BITBANK9           100      0       0      23        0.0%
BANK9              100      0       0      24        0.0%
BITBANK8           100      0       0      21        0.0%
BANK8              100      0       0      22        0.0%
BITBANK7           100      0       0      18        0.0%
BANK7              100      0       0      19        0.0%
BITBANK6           100      0       0      16        0.0%
BANK6              100      0       0      17        0.0%
BITBANK5           100      0       0      14        0.0%
BANK5              100      0       0      15        0.0%
BITBANK4           100      0       0      12        0.0%
BANK4              100      0       0      13        0.0%
BITBANK3           100      0       0      10        0.0%
BANK3              100      0       0      11        0.0%
BITBANK2           100      0       0       8        0.0%
BANK2              100      0       0       9        0.0%
BITBANK1           100      0       0       6        0.0%
BANK1              100      0       0       7        0.0%
BITBANK15           80      0       0      35        0.0%
BANK15              80      0       0      36        0.0%
BITBANK0            80      0       0       4        0.0%
BANK0               80      2      17       5       18.0%
BITCOMRAM           7E      0       0       0        0.0%
COMRAM              7E     17      79       1       96.0%
BITBIGSFRhhllhh     18      0       0      38        0.0%
BITBIGSFRllhh       15      0       0      41        0.0%
BITBIGSFRhhh         D      0       0      37        0.0%
BITBIGSFRhlh         B      0       0      40        0.0%
BITBIGSFRlllhh       6      0       0      43        0.0%
BITBIGSFRllhll       6      0       0      42        0.0%
BITBIGSFRllllh       4      0       0      44        0.0%
BITBIGSFRhhlll       4      0       0      39        0.0%
BITBIGSFRlllll       4      0       0      45        0.0%
BIGSFR               0      0       0     200        0.0%
BITSFR               0      0       0     200        0.0%
SFR                  0      0       0     200        0.0%
STACK                0      0       0       2        0.0%
NULL                 0      0       0       0        0.0%
ABS                  0      0      90      20        0.0%
DATA                 0      0      90       3        0.0%
CODE                 0      0       0       0        0.0%


Microchip Technology PIC18 Macro Assembler V2.41 build 20230208172133 
Symbol Table                                                                                   Mon May 22 19:53:00 2023

                                      l9 1E94                                       l15 1A34  
                                     l24 1A36                                       bsr 0FE0  
                  ??_InterruptManagerLow 0065                            _btn_low_valid 000F  
                                    l210 1B0E                                      l221 1BE0  
                                    l214 1B6A                                      l224 1BF8  
                                    l217 1B82                                      l228 1C56  
                                    l450 1844                                      l476 1AEE  
                                    l469 1970                                      l488 1DC2  
                                    l932 1682                                      l943 1E3A  
                                    l951 1D78                                      l946 1E08  
                                    l956 1D18                          ??_app_intialize 007A  
                 ??_InterruptManagerHigh 0064                _RB5_InterruptHandler_HIGH 001D  
                        __end_of_ADC_ISR 1FA2                      led_initialize@F3048 0032  
                                    prod 0FF3                                      wreg 0FE8  
                           ?_led_turn_on 0072                          __end_of_RB4_ISR 1EFE  
                        __end_of_RB5_ISR 1EE4                          __end_of_RB6_ISR 1ECA  
                        __end_of_RB7_ISR 1EB0                                     l4000 1E16  
                                   l4002 1E22                                     l4010 1DE6  
                                   l4004 1E2E                                     l4020 1D2E  
                                   l4012 1D1A                                     l4006 1DC4  
                                   l4022 1D44                                     l4008 1DD0  
                                   l4024 1D66                                     l4032 1CC2  
                                   l4018 1D22                                     l4034 1CCE  
                                   l4026 1CBA                                     l4036 1CE4  
                                   l4038 1D06                                     l3700 1E7C  
                                   l3702 1E84                                     l3710 1A3C  
                                   l3640 1718                                     l3704 1E92  
                                   l3800 1AF4                                     l3720 1AEC  
                                   l3712 1A4E                                     l3650 1800  
                                   l3642 173A                                     l3810 1B5C  
                                   l3802 1B06                                     l3714 1A60  
                                   l3644 1742                                     l3652 1842  
                                   l3636 1702                                     l3660 1846  
                                   l3804 1B12                                     l3812 1B68  
                                   l3716 1A82                                     l3708 1A38  
                                   l3820 1B7E                                     l3646 17A4  
                                   l3638 1706                                     l3670 18E8  
                                   l3662 184A                                     l3806 1B48  
                                   l3718 1A8A                                     l3910 199A  
                                   l3822 1B86                                     l3664 185C  
                                   l3808 1B4A                                     l3920 19F2  
                                   l3912 19A2                                     l3904 1972  
                                   l3840 1C32                                     l3832 1BE2  
                                   l3824 1BBC                                     l3816 1B6C  
                                   l4640 158E                                     l3674 1944  
                                   l3666 187E                                     l3690 1D94  
                                   l3930 1A30                                     l3922 1A00  
                                   l3914 19B6                                     l3906 1976  
                                   l3842 1C34                                     l3834 1BE2  
                                   l3826 1BBE                                     l3818 1B6C  
                                   l4650 15E0                                     l4642 15A2  
                                   l3668 1886                                     l3676 196E  
                                   l3692 1DC0                                     l3684 1D7A  
                                   l3924 1A1C                                     l3916 19D2  
                                   l3908 1988                                     l3844 1C46  
                                   l3836 1BF4                                     l3828 1BD0  
                                   l4660 161A                                     l4652 15E8  
                                   l4644 15B6                                     l4636 158A  
                                   l3686 1D7A                                     l3918 19E2  
                                   l3838 1BFC                                     l4670 1646  
                                   l4662 162C                                     l4654 15F4  
                                   l4646 15C6                                     l4638 158A  
                         _btn_low_status 0034                                     l3696 1E6A  
                                   l3688 1D8C                                     l4680 16A2  
                                   l4664 1630                                     l4656 1606  
                                   l4648 15CA                                     l3698 1E6A  
                                   l4690 16DA                                     l4682 16AE  
                                   l4762 1664                                     l4666 1636  
                                   l4674 164E                                     l4658 160A  
                                   l4764 1958                                     l4692 16DE  
                                   l4684 16B2                                     l4668 163E  
                                   l4676 1682                                     l4766 182C  
                                   l3798 1AF0                                     l4694 16EA  
                                   l4678 1692                                     l4686 16BA  
                                   l4688 16CA                                     l4696 16F2  
                                   l3996 1E0A                                     l3998 1E0A  
                                   STR_1 1001                                     u3000 1D18  
                                   u3001 1D14                                     _LATA 0F89  
                                   _LATB 0F8A                                     _LATC 0F8B  
                                   _LATD 0F8C                                     _LATE 0F8D  
                                   u4007 1DDA                                     u4017 1DFC  
                                   u2610 1818                                     u2611 1812  
                                   u2620 181A                                     u2604 17C4  
                                   u2700 1A60                                     u2605 17C0  
                                   u2701 1A5C                                     u2630 185C  
                                   u2710 1A82                                     u2631 1858  
                                   u2711 1A7E                                     u2640 187E  
                                   u2641 187A                                     u2570 1718  
                                   u2810 1BF4                                     u2571 1714  
                                   u2811 1BF0                                     u2580 173A  
                                   u2724 1AD8                                     u2900 19E2  
                                   u2581 1736                                     u2725 1AD4  
                                   u2901 19DE                                     u2805 1BCE  
                                   u2654 18A6                                     u2670 1D8C  
                                   u2910 1A1C                                     u2655 18A2  
                                   u2671 1D88                                     u2911 1A18  
                                   u2807 1BD0                                     u2680 1E7C  
                                   u2664 1908                                     u2920 1A2C  
                                   u2681 1E78                                     u2665 1904  
                                   u2921 1A28                                     u2825 1C44  
                                   u2594 1762                                     u2770 1B06  
                                   u2690 1A4E                                     u2595 175E  
                                   u2771 1B02                                     u2691 1A4A  
                                   u2827 1C46                                     u3900 161A  
                                   u3901 1616                                     u2870 1988  
                                   u2790 1B7E                                     u3910 162C  
                                   u2871 1984                                     u2791 1B7A  
                                   u3911 1628                                     u2880 199A  
                                   u3920 1692                                     u2785 1B5A  
                                   u2881 1996                                     u3921 168E  
                                   u2890 19D2                                     u3930 16A2  
                                   u2787 1B5C                                     u2891 19CE  
                                   u3931 169E                                     u3940 16CA  
                                   u3941 16C6                                     u2990 1D78  
                                   u3950 16DA                                     u3870 15C6  
                                   u2991 1D74                                     u3951 16D6  
                                   u3871 15C2                                     u3880 15E0  
                                   u3881 15DC                                     u3890 1606  
                                   u3891 1602                                     u3967 1CD8  
                                   u3977 1CFA                                     u3987 1D38  
                                   u3997 1D5A                 _RB4_InterruptHandler_LOW 001F  
                                   _led1 0062                                     _led2 0061  
         gpio_pin_read_logic@_pin_config 0068                              ?i2_INT0_ISR 0063  
                                   _main 158A                              ?i2_INT1_ISR 0063  
                            ?i2_INT2_ISR 0063                      i2RB7_ISR@RB7_Source 0063  
               _RB7_InterruptHandler_LOW 0013                                     fsr2h 0FDA  
                                   indf2 0FDF                                     fsr1l 0FE1  
                                   fsr2l 0FD9                                     btemp 007A  
                 __end_of_led_initialize 1B6C                                     prodl 0FF3  
                                   start 003A                            ?_led_turn_off 0072  
                           ___param_bank 0000                     _gpio_pin_write_logic 1846  
                       __end_of_INT0_ISR 1F9E                         __end_of_INT1_ISR 1F9A  
                       __end_of_INT2_ISR 1F96                              ?i2_TMRO_ISR 0063  
                                  ?_main 0063                                    _EEADR 0FA9  
                                  i1l377 1FA0                                    i1l571 1046  
                                  i1l820 1F98                                    i1l581 1176  
                                  i1l573 1066                                    i1l565 002A  
                                  i1l815 1F9C                                    i1l591 12A6  
                                  i1l583 11BA                                    i1l575 10AA  
                                  i1l825 1F94                                    i1l585 11FE  
                                  i1l577 10EE                                    i1l569 1026  
                                  i1l594 12C6                                    i1l587 1242  
                                  i1l579 1132                                    i1l836 1EFC  
                                  i1l589 1286                                    i1l847 1EE2  
                                  i2l560 1F8E                                    i2l377 1FB0  
                                  i1l858 1EC8                                    i2l571 1308  
                                  i2l820 1FA8                                    i2l581 1438  
                                  i2l573 1328                                    i1l869 1EAE  
                                  i2l815 1FAC                                    i2l591 1568  
                                  i2l583 147C                                    i2l575 136C  
                                  i2l825 1FA4                                    i2l585 14C0  
                                  i2l577 13B0                                    i2l569 12E8  
                                  i2l594 1588                                    i2l587 1504  
                                  i2l579 13F4                                    i2l836 1F64  
                                  i2l589 1548                                    i2l847 1F4A  
                                  i2l858 1F30                                    i2l869 1F16  
                                  _TMR0H 0FD7                                    _TMR0L 0FD6  
                                  _PORTA 0F80                                    _PORTB 0F81  
                                  _PORTC 0F82                                    _PORTD 0F83  
                                  _PORTE 0F84                                    _TRISA 0F92  
                                  _TRISB 0F93                                    _TRISC 0F94  
                                  _TRISD 0F95                                    _TRISE 0F96  
                                  _lcd_1 0053                                    _lcd_2 008B  
                       __end_of_TMRO_ISR 1F72                                    tablat 0FF5  
                                  ttemp5 007B                                    ttemp6 007E  
                                  ttemp7 0082                                    status 0FD8  
                                  wtemp8 007B                          ?_led_initialize 0075  
                         ??_led_turn_off 0074                          __initialization 1C58  
                           __end_of_main 1702                    ?_gpio_pin_write_logic 0068  
                              ??_ADC_ISR 0064                 gpio_pin_read_logic@logic 006A  
                          _lat_registers 003F                                   ??_main 0095  
                          __activetblptr 0003                         led_turn_on@F3053 0031  
                              ??_RB4_ISR 0064                                ??_RB5_ISR 0064  
                              ??_RB6_ISR 0064                                ??_RB7_ISR 0064  
                      __end_ofi2_ADC_ISR 1FB2                        _button_initialize 1E6A  
                      _button_read_state 1972                                   _ADRESH 0FC4  
                                 _EEADRH 0FAA                                   _ADRESL 0FC3  
                                 _EEDATA 0FA8                                   _EECON2 0FA7  
                     ?_button_initialize 0071                                   i1l1008 1F70  
                                 i1l2012 1EAE                                   i1l2004 1E98  
                                 i1l2020 1F68                                   i1l2006 1E9A  
                                 i1l2022 1F6C                                   i1l2018 1F66  
                                 i1l2300 112C                                   i1l2310 1170  
                                 i1l2302 1140                                   i1l2320 11B4  
                                 i1l2312 1184                                   i1l2304 114E  
                                 i1l2330 11F8                                   i1l2322 11C8  
                                 i1l2314 1192                                   i1l2306 115C  
                                 i1l2340 123C                                   i1l2332 120C  
                                 i1l2324 11D6                                   i1l2316 11A0  
                                 i1l2308 116C                                   i1l2260 1014  
                                 i1l2350 1280                                   i1l2342 1250  
                                 i1l2334 121A                                   i1l2326 11E4  
                                 i1l2318 11B0                                   i1l2270 1062  
                                 i1l2262 1022                                   i1l2352 1294  
                                 i1l2344 125E                                   i1l2336 1228  
                                 i1l2328 11F4                                   i1l2280 10A4  
                                 i1l2272 1074                                   i1l2264 1034  
                                 i1l3144 0026                                   i1l2354 12A2  
                                 i1l2346 126C                                   i1l2338 1238  
                                 i1l2290 10E8                                   i1l2282 10B8  
                                 i1l2274 1082                                   i1l2266 1042  
                                 i1l2258 1006                                   i1l2356 12B4  
                                 i1l2348 127C                                   i1l2292 10FC  
                                 i1l2284 10C6                                   i1l2276 1090  
                                 i1l2268 1054                                   i1l2358 12C2  
                                 i1l2294 110A                                   i1l2286 10D4  
                                 i1l2278 10A0                                   i2l1008 1F7C  
                                 i1l2296 1118                                   i1l2288 10E4  
                                 i1l2298 1128                                   i2l2110 1F78  
                                 i1l1950 1F96                                   i2l2032 1FAA  
                                 i1l1944 1F9A                                   i2l2026 1FAE  
                                 i2l2106 1F72                                   i1l1938 1F9E  
                                 i1l1970 1EFC                                   i1l1962 1EE6  
                                 i2l2044 1FA2                                   i2l2108 1F74  
                                 i1l1956 1F92                                   i1l1964 1EE8  
                                 i2l2038 1FA6                                   i1l1990 1EB2  
                                 i1l1984 1EE2                                   i1l1976 1ECC  
                                 i1l1992 1EB4                                   i1l1978 1ECE  
                                 i2l4100 1472                                   i2l4110 14B6  
                                 i2l4102 1476                                   i1l1998 1EC8  
                                 i2l4120 14FA                                   i2l4112 14BA  
                                 i2l4104 148A                                   i2l4040 12C8  
                                 i2l4130 153E                                   i2l4122 14FE  
                                 i2l4114 14CE                                   i2l4106 1498  
                                 i2l4050 1316                                   i2l4042 12D6  
                                 i2l4140 1584                                   i2l4132 1542  
                                 i2l4124 1512                                   i2l4116 14DC  
                                 i2l4108 14A6                                   i2l4060 1362  
                                 i2l4052 1324                                   i2l4044 12E4  
                                 i2l4134 1556                                   i2l4126 1520  
                                 i2l4118 14EA                                   i2l4070 13A6  
                                 i2l4062 1366                                   i2l4054 1336  
                                 i2l4046 12F6                        __end_ofi2_RB4_ISR 1F66  
                                 i2l4136 1564                                   i2l4128 152E  
                                 i2l4080 13EA                                   i2l4072 13AA  
                                 i2l4064 137A                                   i2l4056 1344  
                                 i2l4048 1304                                   i2l4138 1576  
                                 i2l4090 142E                                   i2l4082 13EE  
                                 i2l4074 13BE                                   i2l4066 1388  
                                 i2l4058 1352                                   i2l4092 1432  
                                 i2l4084 1402                                   i2l4076 13CC  
                                 i2l4068 1396                                   i2l4094 1446  
                                 i2l4086 1410                                   i2l4078 13DA  
                                 i2l4096 1454                                   i2l4088 141E  
                                 i2l4098 1462                        __end_ofi2_RB5_ISR 1F4C  
                                 i2l3850 1F50                                   i2l3870 1F4A  
                                 i2l3862 1F34                                   i2l4478 1F8A  
                                 i2l3856 1F64                                   i2l3848 1F4E  
                                 i2l3864 1F36                                   i2l3890 1F00  
                                 i2l3884 1F30                                   i2l3876 1F1A  
                                 i2l3892 1F02                                   i2l3878 1F1C  
                      __end_ofi2_RB6_ISR 1F32                                   i2l3898 1F16  
                      __end_ofi2_RB7_ISR 1F18                       ?_button_read_state 0072  
                    ??_button_initialize 0073                      ??_button_read_state 0076  
                                 clear_0 1C9E                                   clear_1 1CAA  
                  led_initialize@pin_obj 0079                                   isa$std 0001  
gpio_pin_direction_intialize@_pin_config 0068                             __pdataCOMRAM 0035  
              __end_of_button_initialize 1E96                             __mediumconst 0000  
              __end_of_button_read_state 1A38                                   tblptrh 0FF7  
                                 tblptrl 0FF6                                   tblptru 0FF8  
                             __accesstop 0080                  __end_of__initialization 1CB0  
                              ?_INT0_ISR 0063                                ?_INT1_ISR 0063  
                              ?_INT2_ISR 0063                            ___rparam_used 0001  
                      led_initialize@led 0075                        led_initialize@ret 0078  
                      RB5_ISR@RB5_Source 0064                   ??_gpio_pin_write_logic 006B  
                         __pcstackCOMRAM 0063                             __pidataBANK0 1F7E  
                   button_initialize@btn 0071                     button_initialize@ret 0073  
                              ?_TMRO_ISR 0063                     __end_of_led_turn_off 1C58  
                             __pbssBANK0 0080                             ??i2_INT0_ISR 0063  
                           ??i2_INT1_ISR 0063                    _INT0_InterruptHandler 0027  
                             ??_INT0_ISR 0064                             ??i2_INT2_ISR 0063  
                             ??_INT1_ISR 0064                               ??_INT2_ISR 0064  
                       program_2@counter 0078                         program_3@counter 0078  
            __end_of_InterruptManagerLow 003A                     button_read_state@btn 0072  
                   button_read_state@ret 0077                        led_turn_off@F3058 0030  
                                _ADC_ISR 1F9E                             ??i2_TMRO_ISR 0063  
                             ??_TMRO_ISR 0064                        RB7_ISR@RB7_Source 0064  
                       _Program_Selected 002B                                  _RB4_ISR 1EE4  
                                _RB5_ISR 1ECA                                  _RB6_ISR 1EB0  
                                _RB7_ISR 1E96                       __end_ofi2_INT0_ISR 1FAE  
                     __end_ofi2_INT1_ISR 1FAA                       __end_ofi2_INT2_ISR 1FA6  
              _RB6_InterruptHandler_HIGH 0019                    __end_of_app_intialize 1E3C  
                                i1u30_20 1EAA                                  i1u30_21 1EA6  
                   led_turn_toggle@F3063 002F                                  i1u27_20 1EF8  
                                i1u27_21 1EF4                                  i1u28_20 1EDE  
                                i1u60_20 1074                                  i1u28_21 1EDA  
                                i1u60_21 1070                                  i1u29_20 1EC4  
                                i1u61_20 1082                                  i1u29_21 1EC0  
                                i1u61_21 107E                                  i1u70_20 1118  
                                i1u62_20 1090                                  i1u54_20 1014  
                                i1u70_21 1114                                  i1u62_21 108C  
                                i1u54_21 1010                                  i1u71_20 1128  
                                i1u63_20 10A0                                  i1u55_20 1022  
                                i1u71_21 1124                                  i1u63_21 109C  
                                i1u55_21 101E                                  i1u80_20 11C8  
                                i1u72_20 1140                                  i1u64_20 10B8  
                                i1u56_20 1034                                  i1u80_21 11C4  
                                i1u72_21 113C                                  i1u64_21 10B4  
                                i1u56_21 1030                                  i1u81_20 11D6  
                                i1u73_20 114E                                  i1u65_20 10C6  
                                i1u57_20 1042                                  i1u81_21 11D2  
                                i1u73_21 114A                                  i1u65_21 10C2  
                                i1u57_21 103E                                  i1u90_20 126C  
                                i1u82_20 11E4                                  i1u74_20 115C  
                                i1u66_20 10D4                                  i1u58_20 1054  
                                i1u90_21 1268                                  i1u82_21 11E0  
                                i1u74_21 1158                                  i1u66_21 10D0  
                                i1u58_21 1050                                  i1u91_20 127C  
                                i1u83_20 11F4                                  i1u75_20 116C  
                                i1u67_20 10E4                                  i1u59_20 1062  
                                i1u91_21 1278                                  i1u83_21 11F0  
                                i1u75_21 1168                                  i1u67_21 10E0  
                                i1u59_21 105E                                  i1u92_20 1294  
                                i1u84_20 120C                                  i1u76_20 1184  
                                i1u68_20 10FC                                  i1u92_21 1290  
                                i1u84_21 1208                                  i1u76_21 1180  
                                i1u68_21 10F8                                  i1u93_20 12A2  
                                i1u85_20 121A                                  i1u77_20 1192  
                                i1u69_20 110A                                  i1u93_21 129E  
                                i1u85_21 1216                                  i1u77_21 118E  
                                i1u69_21 1106                                  i1u94_20 12B4  
                                i1u86_20 1228                                  i1u78_20 11A0  
                                i1u94_21 12B0                                  i1u86_21 1224  
                                i1u78_21 119C                                  i1u95_20 12C2  
                                i1u87_20 1238                                  i1u79_20 11B0  
                                i1u95_21 12BE                                  i1u87_21 1234  
                                i1u79_21 11AC                                  i1u88_20 1250  
                                i1u88_21 124C                                  i1u89_20 125E  
                                i1u89_21 125A                         ??_led_initialize 0077  
                         _tris_registers 0049                 _RB6_InterruptHandler_LOW 0017  
                     __end_ofi2_TMRO_ISR 1F7E                     _ADC_InterruptHandler 0029  
                                __Hparam 0000                                  __Lparam 0000  
                    _gpio_pin_read_logic 1A38                             __psmallconst 1000  
             __end_of_gpio_pin_intialize 1DC4                    _btn_high_valid_status 002E  
                                __pcinit 1C58                                  __ramtop 1000  
                                __ptext0 158A                                  __ptext1 1CBA  
                                __ptext2 1D1A                                  __ptext3 1DC4  
                                __ptext4 1B6C                                  __ptext5 1BE2  
                                __ptext6 1972                                  __ptext7 1A38  
                                __ptext8 1E0A                                  __ptext9 1AF0  
                              _T0CONbits 0FD5                                  _btn_low 005D  
                    i2RB4_ISR@RB4_Source 0063                     ?_gpio_pin_read_logic 0068  
                         __pintcode_body 1F88                     end_of_initialization 1CB0  
                              i2_ADC_ISR 1FAE                                  int_func 1F88  
                       i2_InterruptCheck 12C8                                i2_RB4_ISR 1F4C  
                              i2_RB5_ISR 1F32                                i2_RB6_ISR 1F18  
                              i2_RB7_ISR 1EFE                    gpio_pin_intialize@ret 0074  
                    led_turn_off@pin_obj 0075                        __end_of_program_1 1E0A  
                      __end_of_program_2 1D7A                        __end_of_program_3 1D1A  
                                postdec1 0FE5                                  postdec2 0FDD  
                                postinc0 0FEE                                  postinc2 0FDE  
             button_read_state@btn_state 0074                    _INT1_InterruptHandler 0025  
                              _PORTBbits 0F81            gpio_pin_intialize@_pin_config 0072  
   __end_of_gpio_pin_direction_intialize 1846             _gpio_pin_direction_intialize 1702  
                  ??_gpio_pin_read_logic 006C                      i2RB6_ISR@RB6_Source 0063  
                             ?i2_ADC_ISR 0063                               ?i2_RB4_ISR 0063  
                             ?i2_RB5_ISR 0063                               ?i2_RB6_ISR 0063  
                             ?i2_RB7_ISR 0063                             _led_turn_off 1BE2  
          convert_uint16_to_string@F3201 0001            convert_uint32_to_string@F3208 0080  
                          __pidataCOMRAM 1E3C                           _timer0_preload 000B  
                    start_initialization 1C58                            ??_led_turn_on 0074  
          ?_gpio_pin_direction_intialize 0068                          led_turn_off@led 0072  
                            __pdataBANK0 008B             convert_uint8_to_string@F3194 0007  
                               ?_ADC_ISR 0063                           _InterruptCheck 1006  
                               ?_RB4_ISR 0063                                 ?_RB5_ISR 0063  
                               ?_RB6_ISR 0063                                 ?_RB7_ISR 0063  
                            __pbssCOMRAM 0001                            __pcstackBANK0 0095  
                            ??i2_ADC_ISR 0063                      __end_of_led_turn_on 1BE2  
                  _INT2_InterruptHandler 0023               _btn_high_last_valid_status 002D  
        gpio_pin_direction_intialize@ret 0070                    _TMR0_InterruptHandler 000D  
                            ??i2_RB4_ISR 0063                              ??i2_RB5_ISR 0063  
                            ??i2_RB6_ISR 0063                              ??i2_RB7_ISR 0063  
           __end_of_InterruptManagerHigh 1F92                                __pintcode 0008  
        gpio_pin_write_logic@_pin_config 0068                   __end_of_InterruptCheck 12C8  
                            __pintcodelo 0018        button_read_state@pin_logic_status 0078  
              gpio_pin_write_logic@logic 006A                              __smallconst 1000  
              _RB4_InterruptHandler_HIGH 0021                 __end_ofi2_InterruptCheck 158A  
              _RB7_InterruptHandler_HIGH 0015                       _gpio_pin_intialize 1D7A  
         ??_gpio_pin_direction_intialize 006A                 _RB5_InterruptHandler_LOW 001B  
                               _INT0_ISR 1F9A                                 _INT1_ISR 1F96  
                               _INT2_ISR 1F92                                 _RB4_Flag 005C  
                               _RB5_Flag 005B                                 _RB6_Flag 005A  
                               _RB7_Flag 0059                        RB4_ISR@RB4_Source 0064  
                    ?_gpio_pin_intialize 0072                                 _IPR1bits 0F9F  
                               _PIE1bits 0F9D                                 i2u301_40 12D6  
                               i2u301_41 12D2                                 i2u310_40 1362  
                               i2u302_40 12E4                                 i2u310_41 135E  
                               i2u302_41 12E0                                 i2u311_40 137A  
                               i2u303_40 12F6                                 i2u311_41 1376  
                               i2u303_41 12F2                                 i2u320_40 1410  
                               i2u312_40 1388                                 i2u304_40 1304  
                               i2u320_41 140C                                 i2u312_41 1384  
                               i2u304_41 1300                                 i2u321_40 141E  
                               i2u313_40 1396                                 i2u305_40 1316  
                               i2u321_41 141A                                 i2u313_41 1392  
                               i2u305_41 1312                                 i2u330_40 14B6  
                               i2u322_40 142E                                 i2u314_40 13A6  
                               i2u306_40 1324                                 i2u330_41 14B2  
                               i2u322_41 142A                                 i2u314_41 13A2  
                               i2u306_41 1320                                 i2u331_40 14CE  
                               i2u323_40 1446                                 i2u315_40 13BE  
                               i2u307_40 1336                                 i2u331_41 14CA  
                               i2u323_41 1442                                 i2u315_41 13BA  
                               i2u307_41 1332                                 i2u340_40 1564  
                               i2u332_40 14DC                                 i2u324_40 1454  
                               i2u316_40 13CC                                 i2u308_40 1344  
                               i2u340_41 1560                                 i2u332_41 14D8  
                               i2u324_41 1450                                 i2u316_41 13C8  
                               i2u308_41 1340                                 i2u341_40 1576  
                               i2u333_40 14EA                                 i2u325_40 1462  
                               i2u317_40 13DA                                 i2u309_40 1352  
                               i2u341_41 1572                                 i2u333_41 14E6  
                               i2u325_41 145E                                 i2u317_41 13D6  
                               i2u309_41 134E                                 i2u342_40 1584  
                               i2u334_40 14FA                                 i2u326_40 1472  
                               i2u318_40 13EA                                 i2u342_41 1580  
                               i2u334_41 14F6                                 i2u326_41 146E  
                               i2u318_41 13E6                                 i2u335_40 1512  
                               i2u327_40 148A                                 i2u319_40 1402  
                               i2u335_41 150E                                 i2u327_41 1486  
                               i2u319_41 13FE                                 i2u336_40 1520  
                               i2u328_40 1498                                 i2u336_41 151C  
                               i2u328_41 1494                                 i2u337_40 152E  
                               i2u329_40 14A6                                 i2u337_41 152A  
                               i2u329_41 14A2                                 _PIR1bits 0F9E  
                               i2u338_40 153E                                 i2u338_41 153A  
                               i2u283_40 1F60                                 i2u339_40 1556  
                               i2u283_41 1F5C                                 i2u339_41 1552  
                               i2u284_40 1F46                                 i2u284_41 1F42  
                               i2u285_40 1F2C                                 i2u285_41 1F28  
                               i2u286_40 1F12                                 i2u286_41 1F0E  
                     led_turn_on@pin_obj 0075                                 _RCONbits 0FD0  
                        ?_InterruptCheck 0063                                _program_1 1DC4  
                              _program_2 1D1A                                _program_3 1CBA  
                               _TMRO_ISR 1F66                               _ADCON0bits 0FC2  
                             _ADCON1bits 0FC1                               _ADCON2bits 0FC0  
                   ??_gpio_pin_intialize 0074                              _led_turn_on 1B6C  
                gpio_pin_write_logic@ret 0071                              _INTCON2bits 0FF1  
                            _INTCON3bits 0FF0                                copy_data0 1C6C  
                              copy_data1 1C8C                   gpio_pin_read_logic@ret 0071  
                             _EECON1bits 0FA6                           led_turn_on@led 0072  
                               __Hrparam 0000                                 __Lrparam 0000  
                      RB6_ISR@RB6_Source 0064                               ?_program_1 0063  
                             ?_program_2 0063                               ?_program_3 0063  
            __end_of_gpio_pin_read_logic 1AF0                            _app_intialize 1E0A  
                   _InterruptManagerHigh 0008                                 __ptext10 1D7A  
                               __ptext11 1846                                 __ptext20 1EE4  
                               __ptext12 1E6A                                 __ptext21 1F92  
                               __ptext13 1702                                 __ptext30 1F32  
                               __ptext22 1F96                                 __ptext31 1F4C  
                               __ptext23 1F9A                                 __ptext15 1006  
                               __ptext32 1FA2                                 __ptext24 1F9E  
                               __ptext16 1F66                                 __ptext33 1FA6  
                               __ptext17 1E96                                 __ptext34 1FAA  
                               __ptext26 12C8                                 __ptext18 1EB0  
                               __ptext35 1FAE                                 __ptext27 1F72  
                               __ptext19 1ECA                                 __ptext28 1EFE  
                               __ptext29 1F18                                 _flag_low 002C  
                               _btn_high 005F                                 isa$xinst 0000  
                               int$flags 007A                               _INTCONbits 0FF2  
                         ?_app_intialize 0063                    ?_InterruptManagerHigh 0063  
                        _btn_high_status 0033             __end_of_gpio_pin_write_logic 1972  
                               intlevel1 0000                                 intlevel2 0000  
                    _InterruptManagerLow 0018                               i2_INT0_ISR 1FAA  
                             i2_INT1_ISR 1FA6                               i2_INT2_ISR 1FA2  
                            ??_program_1 0076                              ??_program_2 0076  
                            ??_program_3 0076                           _btn_high_valid 0011  
                             i2_TMRO_ISR 1F72                     ?_InterruptManagerLow 0063  
                         _port_registers 0035                        ?i2_InterruptCheck 0063  
                    i2RB5_ISR@RB5_Source 0063                       ??i2_InterruptCheck 0064  
                         _led_initialize 1AF0                         ??_InterruptCheck 0065  
