

Microchip MPLAB XC8 Assembler V2.41 build 20230208172133 
                                                                                               Sat Apr 22 17:57:09 2023

Microchip MPLAB XC8 C Compiler v2.41 (Free license) build 20230208172133 Og1 
     1                           	processor	18F4620
     2                           	fnconf	rparam,??,?,0
     3                           	pagewidth 120
     4                           	opt	flic
     5                           	psect	idataCOMRAM,global,class=CODE,delta=1,noexec
     6                           	psect	idataBANK0,global,class=CODE,delta=1,noexec
     7                           	psect	smallconst,global,reloc=2,class=SMALLCONST,delta=1,noexec
     8                           	psect	cinit,global,reloc=2,class=CODE,delta=1
     9                           	psect	bssCOMRAM,global,class=COMRAM,space=1,delta=1,lowdata,noexec
    10                           	psect	dataCOMRAM,global,class=COMRAM,space=1,delta=1,lowdata,noexec
    11                           	psect	dataBANK0,global,class=BANK0,space=1,delta=1,lowdata,noexec
    12                           	psect	cstackBANK0,global,class=BANK0,space=1,delta=1,lowdata,noexec
    13                           	psect	cstackCOMRAM,global,class=COMRAM,space=1,delta=1,lowdata,noexec
    14                           	psect	text0,global,reloc=2,class=CODE,delta=1
    15                           	psect	text1,global,reloc=2,class=CODE,delta=1
    16                           	psect	text2,global,reloc=2,class=CODE,delta=1
    17                           	psect	text3,global,reloc=2,class=CODE,delta=1
    18                           	psect	intcodelo,global,reloc=2,class=CODE,delta=1
    19                           	psect	text5,global,reloc=2,class=CODE,delta=1
    20                           	psect	text6,global,reloc=2,class=CODE,delta=1
    21                           	psect	text7,global,reloc=2,class=CODE,delta=1
    22                           	psect	text8,global,reloc=2,class=CODE,delta=1
    23                           	psect	text9,global,reloc=2,class=CODE,delta=1
    24                           	psect	text10,global,reloc=2,class=CODE,delta=1
    25                           	psect	text11,global,reloc=2,class=CODE,delta=1
    26                           	psect	text12,global,reloc=2,class=CODE,delta=1
    27                           	psect	text13,global,reloc=2,class=CODE,delta=1
    28                           	psect	text14,global,reloc=2,class=CODE,delta=1
    29                           	psect	text15,global,reloc=2,class=CODE,delta=1
    30                           	psect	text16,global,reloc=2,class=CODE,delta=1
    31                           	psect	text17,global,reloc=2,class=CODE,delta=1
    32                           	psect	text18,global,reloc=2,class=CODE,delta=1
    33                           	psect	text19,global,reloc=2,class=CODE,delta=1
    34                           	psect	text20,global,reloc=2,class=CODE,delta=1
    35                           	psect	text21,global,reloc=2,class=CODE,delta=1
    36                           	psect	text22,global,reloc=2,class=CODE,delta=1
    37                           	psect	text23,global,reloc=2,class=CODE,delta=1
    38                           	psect	text24,global,reloc=2,class=CODE,delta=1
    39                           	psect	text25,global,reloc=2,class=CODE,delta=1
    40                           	psect	intcode,global,reloc=2,class=CODE,delta=1
    41                           	psect	intcode_body,global,reloc=2,class=CODE,delta=1
    42                           	psect	text27,global,reloc=2,class=CODE,delta=1
    43                           	psect	text28,global,reloc=2,class=CODE,delta=1
    44                           	psect	text29,global,reloc=2,class=CODE,delta=1
    45                           	psect	text30,global,reloc=2,class=CODE,delta=1
    46                           	psect	text31,global,reloc=2,class=CODE,delta=1
    47                           	psect	text32,global,reloc=2,class=CODE,delta=1
    48                           	psect	text33,global,reloc=2,class=CODE,delta=1
    49                           	psect	text34,global,reloc=2,class=CODE,delta=1
    50                           	psect	text35,global,reloc=2,class=CODE,delta=1
    51                           	psect	text36,global,reloc=2,class=CODE,delta=1
    52                           	psect	text37,global,reloc=2,class=CODE,delta=1
    53                           	psect	text38,global,reloc=2,class=CODE,delta=1
    54                           	psect	text39,global,reloc=2,class=CODE,delta=1
    55                           	psect	text40,global,reloc=2,class=CODE,delta=1
    56                           	psect	text41,global,reloc=2,class=CODE,delta=1
    57                           	psect	text42,global,reloc=2,class=CODE,delta=1
    58                           	psect	text43,global,reloc=2,class=CODE,delta=1
    59                           	psect	text44,global,reloc=2,class=CODE,delta=1
    60                           	psect	text45,global,reloc=2,class=CODE,delta=1
    61                           	psect	text46,global,reloc=2,class=CODE,delta=1
    62                           	psect	text47,global,reloc=2,class=CODE,delta=1
    63                           	psect	intsave_regs,global,class=BIGRAM,space=1,delta=1,noexec
    64                           	psect	text48,global,reloc=2,class=CODE,delta=1
    65                           	psect	rparam,global,class=COMRAM,space=1,delta=1,noexec
    66                           	psect	temp,global,ovrld,common,class=COMRAM,space=1,delta=1
    67                           	psect	idloc,global,abs,ovrld,class=IDLOC,space=5,delta=1,noexec
    68                           	psect	config,global,abs,ovrld,class=CONFIG,space=4,delta=1,noexec
    69   000000                     
    70                           ; Version 2.40
    71                           ; Generated 17/11/2021 GMT
    72                           ; 
    73                           ; Copyright © 2021, Microchip Technology Inc. and its subsidiaries ("Microchip")
    74                           ; All rights reserved.
    75                           ; 
    76                           ; This software is developed by Microchip Technology Inc. and its subsidiaries ("Microch
      +                          ip").
    77                           ; 
    78                           ; Redistribution and use in source and binary forms, with or without modification, are
    79                           ; permitted provided that the following conditions are met:
    80                           ; 
    81                           ;     1. Redistributions of source code must retain the above copyright notice, this lis
      +                          t of
    82                           ;        conditions and the following disclaimer.
    83                           ; 
    84                           ;     2. Redistributions in binary form must reproduce the above copyright notice, this 
      +                          list
    85                           ;        of conditions and the following disclaimer in the documentation and/or other
    86                           ;        materials provided with the distribution. Publication is not required when
    87                           ;        this file is used in an embedded application.
    88                           ; 
    89                           ;     3. Microchip's name may not be used to endorse or promote products derived from th
      +                          is
    90                           ;        software without specific prior written permission.
    91                           ; 
    92                           ; THIS SOFTWARE IS PROVIDED BY MICROCHIP "AS IS" AND ANY EXPRESS OR IMPLIED WARRANTIES,
    93                           ; INCLUDING, BUT NOT LIMITED TO, THE IMPLIED WARRANTIES OF MERCHANTABILITY AND FITNESS F
      +                          OR
    94                           ; PURPOSE ARE DISCLAIMED.  IN NO EVENT SHALL MICROCHIP BE LIABLE FOR ANY DIRECT, INDIREC
      +                          T,
    95                           ; INCIDENTAL, SPECIAL, EXEMPLARY, OR CONSEQUENTIAL DAMAGES (INCLUDING BUT NOT LIMITED TO
    96                           ; PROCUREMENT OF SUBSTITUTE GOODS OR SERVICES; LOSS OF USE, DATA OR PROFITS; OR BUSINESS
    97                           ; INTERRUPTION) HOWSOEVER CAUSED AND ON ANY THEORY OF LIABILITY, WHETHER IN CONTRACT, ST
      +                          RICT
    98                           ; LIABILITY, OR TORT (INCLUDING NEGLIGENCE OR OTHERWISE) ARISING IN ANY WAY OUT OF THE U
      +                          SE OF
    99                           ; THIS SOFTWARE, EVEN IF ADVISED OF THE POSSIBILITY OF SUCH DAMAGE.
   100                           ; 
   101                           ; 
   102                           ; Code-generator required, PIC18F4620 Definitions
   103                           ; 
   104                           ; SFR Addresses
   105   000000                     
   106                           	psect	idataCOMRAM
   107   002056                     __pidataCOMRAM:
   108                           	callstack 0
   109                           
   110                           ;initializer for _lat_registers
   111   002056  89                 	db	137
   112   002057  0F                 	db	15
   113   002058  8A                 	db	138
   114   002059  0F                 	db	15
   115   00205A  8B                 	db	139
   116   00205B  0F                 	db	15
   117   00205C  8C                 	db	140
   118   00205D  0F                 	db	15
   119   00205E  8D                 	db	141
   120   00205F  0F                 	db	15
   121                           
   122                           ;initializer for _tris_registers
   123   002060  92                 	db	146
   124   002061  0F                 	db	15
   125   002062  93                 	db	147
   126   002063  0F                 	db	15
   127   002064  94                 	db	148
   128   002065  0F                 	db	15
   129   002066  95                 	db	149
   130   002067  0F                 	db	15
   131   002068  96                 	db	150
   132   002069  0F                 	db	15
   133                           
   134                           ;initializer for _RB7_Flag
   135   00206A  01                 	db	1
   136                           
   137                           ;initializer for _RB6_Flag
   138   00206B  01                 	db	1
   139                           
   140                           ;initializer for _RB5_Flag
   141   00206C  01                 	db	1
   142                           
   143                           ;initializer for _RB4_Flag
   144   00206D  01                 	db	1
   145                           
   146                           ;initializer for _rb6_int_obj
   147   00206E  FE                 	db	low _RB6_HIGH_Int_APP_ISR
   148   00206F  22                 	db	high _RB6_HIGH_Int_APP_ISR
   149   002070  8E                 	db	low _RB6_LOW_Int_APP_ISR
   150   002071  22                 	db	high _RB6_LOW_Int_APP_ISR
   151   002072  71                 	db	113
   152   002073  01                 	db	1
   153                           
   154                           ;initializer for _rb5_int_obj
   155   002074  1A                 	db	low _RB5_HIGH_Int_APP_ISR
   156   002075  23                 	db	high _RB5_HIGH_Int_APP_ISR
   157   002076  AA                 	db	low _RB5_LOW_Int_APP_ISR
   158   002077  22                 	db	high _RB5_LOW_Int_APP_ISR
   159   002078  69                 	db	105
   160   002079  01                 	db	1
   161                           
   162                           ;initializer for _rb4_int_obj
   163   00207A  36                 	db	low _RB4_HIGH_Int_APP_ISR
   164   00207B  23                 	db	high _RB4_HIGH_Int_APP_ISR
   165   00207C  C6                 	db	low _RB4_LOW_Int_APP_ISR
   166   00207D  22                 	db	high _RB4_LOW_Int_APP_ISR
   167   00207E  61                 	db	97
   168   00207F  01                 	db	1
   169                           
   170                           ;initializer for _led4
   171   002080  9A                 	db	154
   172                           
   173                           ;initializer for _led3
   174   002081  92                 	db	146
   175                           
   176                           ;initializer for _led2
   177   002082  8A                 	db	138
   178                           
   179                           ;initializer for _led1
   180   002083  82                 	db	130
   181                           
   182                           	psect	idataBANK0
   183   002024                     __pidataBANK0:
   184                           	callstack 0
   185                           
   186                           ;initializer for _port_registers
   187   002024  80                 	db	128
   188   002025  0F                 	db	15
   189   002026  81                 	db	129
   190   002027  0F                 	db	15
   191   002028  82                 	db	130
   192   002029  0F                 	db	15
   193   00202A  83                 	db	131
   194   00202B  0F                 	db	15
   195   00202C  84                 	db	132
   196   00202D  0F                 	db	15
   197                           
   198                           ;initializer for _int2_obj
   199   00202E  6A                 	db	low _Int2_App_ISR
   200   00202F  21                 	db	high _Int2_App_ISR
   201   002030  51                 	db	81
   202   002031  01                 	db	1
   203   002032  02                 	db	2
   204   002033  01                 	db	1
   205                           
   206                           ;initializer for _int1_obj
   207   002034  0E                 	db	low _Int1_App_ISR
   208   002035  21                 	db	high _Int1_App_ISR
   209   002036  49                 	db	73
   210   002037  00                 	db	0
   211   002038  01                 	db	1
   212   002039  00                 	db	0
   213                           
   214                           ;initializer for _int0_obj
   215   00203A  3C                 	db	low _Int0_App_ISR
   216   00203B  21                 	db	high _Int0_App_ISR
   217   00203C  41                 	db	65
   218   00203D  01                 	db	1
   219   00203E  00                 	db	0
   220   00203F  01                 	db	1
   221                           
   222                           ;initializer for _lcd_2
   223   002040  32                 	db	50
   224   002041  3A                 	db	58
   225   002042  03                 	db	3
   226   002043  0B                 	db	11
   227   002044  13                 	db	19
   228   002045  1B                 	db	27
   229   002046  23                 	db	35
   230   002047  2B                 	db	43
   231   002048  33                 	db	51
   232   002049  3B                 	db	59
   233                           
   234                           ;initializer for _lcd_1
   235   00204A  02                 	db	2
   236   00204B  0A                 	db	10
   237   00204C  12                 	db	18
   238   00204D  1A                 	db	26
   239   00204E  22                 	db	34
   240   00204F  2A                 	db	42
   241                           
   242                           ;initializer for _rb7_int_obj
   243   002050  52                 	db	low _RB7_HIGH_Int_APP_ISR
   244   002051  23                 	db	high _RB7_HIGH_Int_APP_ISR
   245   002052  E2                 	db	low _RB7_LOW_Int_APP_ISR
   246   002053  22                 	db	high _RB7_LOW_Int_APP_ISR
   247   002054  79                 	db	121
   248   002055  01                 	db	1
   249   000000                     _PORTBbits	set	3969
   250   000000                     _PORTE	set	3972
   251   000000                     _PORTD	set	3971
   252   000000                     _PORTC	set	3970
   253   000000                     _PORTB	set	3969
   254   000000                     _PORTA	set	3968
   255   000000                     _LATA	set	3977
   256   000000                     _TRISA	set	3986
   257   000000                     _RCONbits	set	4048
   258   000000                     _INTCONbits	set	4082
   259   000000                     _TRISE	set	3990
   260   000000                     _TRISD	set	3989
   261   000000                     _TRISC	set	3988
   262   000000                     _TRISB	set	3987
   263   000000                     _LATE	set	3981
   264   000000                     _LATD	set	3980
   265   000000                     _LATC	set	3979
   266   000000                     _LATB	set	3978
   267   000000                     _INTCON3bits	set	4080
   268   000000                     _INTCON2bits	set	4081
   269                           
   270                           	psect	smallconst
   271   001000                     __psmallconst:
   272                           	callstack 0
   273   001000  00                 	db	0
   274   001001                     STR_1:
   275   001001  25                 	db	37
   276   001002  69                 	db	105	;'i'
   277   001003  00                 	db	0
   278   001004  00                 	db	0	; dummy byte at the end
   279   000000                     
   280                           ; #config settings
   281                           
   282                           	psect	cinit
   283   001F94                     __pcinit:
   284                           	callstack 0
   285   001F94                     start_initialization:
   286                           	callstack 0
   287   001F94                     __initialization:
   288                           	callstack 0
   289                           
   290                           ; Initialize objects allocated to BANK0 (50 bytes)
   291                           ; load TBLPTR registers with __pidataBANK0
   292   001F94  0E24               	movlw	low __pidataBANK0
   293   001F96  6EF6               	movwf	tblptrl,c
   294   001F98  0E20               	movlw	high __pidataBANK0
   295   001F9A  6EF7               	movwf	tblptrh,c
   296   001F9C  0E00               	movlw	low (__pidataBANK0 shr (0+16))
   297   001F9E  6EF8               	movwf	tblptru,c
   298   001FA0  EE00  F080         	lfsr	0,__pdataBANK0
   299   001FA4  EE10 F032          	lfsr	1,50
   300   001FA8                     copy_data0:
   301   001FA8  0009               	tblrd		*+
   302   001FAA  CFF5 FFEE          	movff	tablat,postinc0
   303   001FAE  50E5               	movf	postdec1,w,c
   304   001FB0  50E1               	movf	fsr1l,w,c
   305   001FB2  E1FA               	bnz	copy_data0
   306                           
   307                           ; Initialize objects allocated to COMRAM (46 bytes)
   308                           ; load TBLPTR registers with __pidataCOMRAM
   309   001FB4  0E56               	movlw	low __pidataCOMRAM
   310   001FB6  6EF6               	movwf	tblptrl,c
   311   001FB8  0E20               	movlw	high __pidataCOMRAM
   312   001FBA  6EF7               	movwf	tblptrh,c
   313   001FBC  0E00               	movlw	low (__pidataCOMRAM shr (0+16))
   314   001FBE  6EF8               	movwf	tblptru,c
   315   001FC0  EE00  F001         	lfsr	0,__pdataCOMRAM
   316   001FC4  EE10 F02E          	lfsr	1,46
   317   001FC8                     copy_data1:
   318   001FC8  0009               	tblrd		*+
   319   001FCA  CFF5 FFEE          	movff	tablat,postinc0
   320   001FCE  50E5               	movf	postdec1,w,c
   321   001FD0  50E1               	movf	fsr1l,w,c
   322   001FD2  E1FA               	bnz	copy_data1
   323                           
   324                           ; Clear objects allocated to COMRAM (27 bytes)
   325   001FD4  EE00  F053         	lfsr	0,__pbssCOMRAM
   326   001FD8  0E1B               	movlw	27
   327   001FDA                     clear_0:
   328   001FDA  6AEE               	clrf	postinc0,c
   329   001FDC  06E8               	decf	wreg,f,c
   330   001FDE  E1FD               	bnz	clear_0
   331   001FE0                     end_of_initialization:
   332                           	callstack 0
   333   001FE0                     __end_of__initialization:
   334                           	callstack 0
   335   001FE0  906E               	bcf	int$flags,0,c	;clear compiler interrupt flag (level 1)
   336   001FE2  926E               	bcf	int$flags,1,c	;clear compiler interrupt flag (level 2)
   337   001FE4  0100               	movlb	0
   338   001FE6  EFFF  F011         	goto	_main	;jump to C main() function
   339                           
   340                           	psect	bssCOMRAM
   341   000053                     __pbssCOMRAM:
   342                           	callstack 0
   343   000053                     _num_arr:
   344                           	callstack 0
   345   000053                     	ds	4
   346   000057                     _RB7_InterruptHandler_LOW:
   347                           	callstack 0
   348   000057                     	ds	2
   349   000059                     _RB7_InterruptHandler_HIGH:
   350                           	callstack 0
   351   000059                     	ds	2
   352   00005B                     _RB6_InterruptHandler_LOW:
   353                           	callstack 0
   354   00005B                     	ds	2
   355   00005D                     _RB6_InterruptHandler_HIGH:
   356                           	callstack 0
   357   00005D                     	ds	2
   358   00005F                     _RB5_InterruptHandler_LOW:
   359                           	callstack 0
   360   00005F                     	ds	2
   361   000061                     _RB5_InterruptHandler_HIGH:
   362                           	callstack 0
   363   000061                     	ds	2
   364   000063                     _RB4_InterruptHandler_LOW:
   365                           	callstack 0
   366   000063                     	ds	2
   367   000065                     _RB4_InterruptHandler_HIGH:
   368                           	callstack 0
   369   000065                     	ds	2
   370   000067                     _INT2_InterruptHandler:
   371                           	callstack 0
   372   000067                     	ds	2
   373   000069                     _INT1_InterruptHandler:
   374                           	callstack 0
   375   000069                     	ds	2
   376   00006B                     _INT0_InterruptHandler:
   377                           	callstack 0
   378   00006B                     	ds	2
   379   00006D                     _counter:
   380                           	callstack 0
   381   00006D                     	ds	1
   382                           
   383                           	psect	dataCOMRAM
   384   000001                     __pdataCOMRAM:
   385                           	callstack 0
   386   000001                     _lat_registers:
   387                           	callstack 0
   388   000001                     	ds	10
   389   00000B                     _tris_registers:
   390                           	callstack 0
   391   00000B                     	ds	10
   392   000015                     _RB7_Flag:
   393                           	callstack 0
   394   000015                     	ds	1
   395   000016                     _RB6_Flag:
   396                           	callstack 0
   397   000016                     	ds	1
   398   000017                     _RB5_Flag:
   399                           	callstack 0
   400   000017                     	ds	1
   401   000018                     _RB4_Flag:
   402                           	callstack 0
   403   000018                     	ds	1
   404   000019                     _rb6_int_obj:
   405                           	callstack 0
   406   000019                     	ds	6
   407   00001F                     _rb5_int_obj:
   408                           	callstack 0
   409   00001F                     	ds	6
   410   000025                     _rb4_int_obj:
   411                           	callstack 0
   412   000025                     	ds	6
   413   00002B                     _led4:
   414                           	callstack 0
   415   00002B                     	ds	1
   416   00002C                     _led3:
   417                           	callstack 0
   418   00002C                     	ds	1
   419   00002D                     _led2:
   420                           	callstack 0
   421   00002D                     	ds	1
   422   00002E                     _led1:
   423                           	callstack 0
   424   00002E                     	ds	1
   425                           
   426                           	psect	dataBANK0
   427   000080                     __pdataBANK0:
   428                           	callstack 0
   429   000080                     _port_registers:
   430                           	callstack 0
   431   000080                     	ds	10
   432   00008A                     _int2_obj:
   433                           	callstack 0
   434   00008A                     	ds	6
   435   000090                     _int1_obj:
   436                           	callstack 0
   437   000090                     	ds	6
   438   000096                     _int0_obj:
   439                           	callstack 0
   440   000096                     	ds	6
   441   00009C                     _lcd_2:
   442                           	callstack 0
   443   00009C                     	ds	10
   444   0000A6                     _lcd_1:
   445                           	callstack 0
   446   0000A6                     	ds	6
   447   0000AC                     _rb7_int_obj:
   448                           	callstack 0
   449   0000AC                     	ds	6
   450                           
   451                           	psect	cstackBANK0
   452   0000B2                     __pcstackBANK0:
   453                           	callstack 0
   454   0000B2                     gpio_pin_direction_intialize@_pin_config:
   455                           	callstack 0
   456                           
   457                           ; 2 bytes @ 0x0
   458   0000B2                     	ds	2
   459   0000B4                     ??_gpio_pin_direction_intialize:
   460                           
   461                           ; 1 bytes @ 0x2
   462   0000B4                     	ds	6
   463   0000BA                     gpio_pin_direction_intialize@ret:
   464                           	callstack 0
   465                           
   466                           ; 1 bytes @ 0x8
   467   0000BA                     	ds	1
   468   0000BB                     Interrupt_RBx_Init@int_obj:
   469                           	callstack 0
   470                           
   471                           ; 2 bytes @ 0x9
   472   0000BB                     	ds	2
   473   0000BD                     ??_Interrupt_RBx_Init:
   474                           
   475                           ; 1 bytes @ 0xB
   476   0000BD                     	ds	2
   477   0000BF                     
   478                           ; 1 bytes @ 0xD
   479                           
   480                           	psect	cstackCOMRAM
   481   00002F                     __pcstackCOMRAM:
   482                           	callstack 0
   483   00002F                     i2gpio_pin_write_logic@_pin_config:
   484                           	callstack 0
   485   00002F                     i2gpio_pin_toggle_logic@_pin_config:
   486                           	callstack 0
   487                           
   488                           ; 2 bytes @ 0x0
   489   00002F                     	ds	2
   490   000031                     ??i2_gpio_pin_toggle_logic:
   491   000031                     i2gpio_pin_write_logic@logic:
   492                           	callstack 0
   493                           
   494                           ; 1 bytes @ 0x2
   495   000031                     	ds	1
   496   000032                     ??i2_gpio_pin_write_logic:
   497                           
   498                           ; 1 bytes @ 0x3
   499   000032                     	ds	4
   500   000036                     ??i2_Int0_App_ISR:
   501   000036                     ??i2_Int1_App_ISR:
   502   000036                     ??i2_Int2_App_ISR:
   503                           
   504                           ; 1 bytes @ 0x7
   505   000036                     	ds	2
   506   000038                     i2RB4_ISR@RB4_Source:
   507                           	callstack 0
   508   000038                     i2RB5_ISR@RB5_Source:
   509                           	callstack 0
   510   000038                     i2RB6_ISR@RB6_Source:
   511                           	callstack 0
   512   000038                     i2RB7_ISR@RB7_Source:
   513                           	callstack 0
   514                           
   515                           ; 1 bytes @ 0x9
   516   000038                     	ds	1
   517   000039                     ??_InterruptManagerHigh:
   518   000039                     
   519                           ; 1 bytes @ 0xA
   520   000039                     	ds	6
   521   00003F                     gpio_pin_write_logic@_pin_config:
   522                           	callstack 0
   523   00003F                     gpio_pin_toggle_logic@_pin_config:
   524                           	callstack 0
   525                           
   526                           ; 2 bytes @ 0x10
   527   00003F                     	ds	2
   528   000041                     ??_gpio_pin_toggle_logic:
   529   000041                     gpio_pin_write_logic@logic:
   530                           	callstack 0
   531                           
   532                           ; 1 bytes @ 0x12
   533   000041                     	ds	1
   534   000042                     ??_gpio_pin_write_logic:
   535                           
   536                           ; 1 bytes @ 0x13
   537   000042                     	ds	4
   538   000046                     ??_Int0_App_ISR:
   539   000046                     ??_Int1_App_ISR:
   540   000046                     ??_Int2_App_ISR:
   541                           
   542                           ; 1 bytes @ 0x17
   543   000046                     	ds	2
   544   000048                     gpio_pin_write_logic@ret:
   545                           	callstack 0
   546                           
   547                           ; 1 bytes @ 0x19
   548   000048                     	ds	1
   549   000049                     RB4_ISR@RB4_Source:
   550                           	callstack 0
   551   000049                     RB5_ISR@RB5_Source:
   552                           	callstack 0
   553   000049                     RB6_ISR@RB6_Source:
   554                           	callstack 0
   555   000049                     RB7_ISR@RB7_Source:
   556                           	callstack 0
   557                           
   558                           ; 1 bytes @ 0x1A
   559   000049                     	ds	1
   560   00004A                     ??_InterruptManagerLow:
   561                           
   562                           ; 1 bytes @ 0x1B
   563   00004A                     	ds	9
   564                           
   565 ;;
   566 ;;Main: autosize = 0, tempsize = 0, incstack = 0, save=0
   567 ;;
   568 ;; *************** function _main *****************
   569 ;; Defined at:
   570 ;;		line 175 in file "application.c"
   571 ;; Parameters:    Size  Location     Type
   572 ;;		None
   573 ;; Auto vars:     Size  Location     Type
   574 ;;  ret             1    0        unsigned char 
   575 ;; Return value:  Size  Location     Type
   576 ;;                  2  352[None  ] int 
   577 ;; Registers used:
   578 ;;		wreg, fsr2l, fsr2h, status,2, status,0, prodl, prodh, cstack
   579 ;; Tracked objects:
   580 ;;		On entry : 0/0
   581 ;;		On exit  : 0/0
   582 ;;		Unchanged: 0/0
   583 ;; Data sizes:     COMRAM   BANK0   BANK1   BANK2   BANK3   BANK4   BANK5   BANK6   BANK7   BANK8   BANK9  BANK10  BANK1
      +1  BANK12  BANK13  BANK14  BANK15
   584 ;;      Params:         0       0       0       0       0       0       0       0       0       0       0       0       
      +0       0       0       0       0
   585 ;;      Locals:         0       0       0       0       0       0       0       0       0       0       0       0       
      +0       0       0       0       0
   586 ;;      Temps:          0       0       0       0       0       0       0       0       0       0       0       0       
      +0       0       0       0       0
   587 ;;      Totals:         0       0       0       0       0       0       0       0       0       0       0       0       
      +0       0       0       0       0
   588 ;;Total ram usage:        0 bytes
   589 ;; Hardware stack levels required when called: 13
   590 ;; This function calls:
   591 ;;		_app_initialize
   592 ;; This function is called by:
   593 ;;		Startup code after reset
   594 ;; This function uses a non-reentrant model
   595 ;;
   596                           
   597                           	psect	text0
   598   0023FE                     __ptext0:
   599                           	callstack 0
   600   0023FE                     _main:
   601                           	callstack 18
   602   0023FE                     
   603                           ;application.c: 177:     app_initialize();
   604   0023FE  EC91  F00F         	call	_app_initialize	;wreg free
   605   002402                     l353:
   606   002402  EF01  F012         	goto	l353
   607   002406  EF35  F000         	goto	start
   608   00240A                     __end_of_main:
   609                           	callstack 0
   610                           
   611 ;; *************** function _app_initialize *****************
   612 ;; Defined at:
   613 ;;		line 240 in file "application.c"
   614 ;; Parameters:    Size  Location     Type
   615 ;;		None
   616 ;; Auto vars:     Size  Location     Type
   617 ;;		None
   618 ;; Return value:  Size  Location     Type
   619 ;;                  1    wreg      void 
   620 ;; Registers used:
   621 ;;		wreg, fsr2l, fsr2h, status,2, status,0, prodl, prodh, cstack
   622 ;; Tracked objects:
   623 ;;		On entry : 0/0
   624 ;;		On exit  : 0/0
   625 ;;		Unchanged: 0/0
   626 ;; Data sizes:     COMRAM   BANK0   BANK1   BANK2   BANK3   BANK4   BANK5   BANK6   BANK7   BANK8   BANK9  BANK10  BANK1
      +1  BANK12  BANK13  BANK14  BANK15
   627 ;;      Params:         0       0       0       0       0       0       0       0       0       0       0       0       
      +0       0       0       0       0
   628 ;;      Locals:         0       0       0       0       0       0       0       0       0       0       0       0       
      +0       0       0       0       0
   629 ;;      Temps:          0       0       0       0       0       0       0       0       0       0       0       0       
      +0       0       0       0       0
   630 ;;      Totals:         0       0       0       0       0       0       0       0       0       0       0       0       
      +0       0       0       0       0
   631 ;;Total ram usage:        0 bytes
   632 ;; Hardware stack levels used: 1
   633 ;; Hardware stack levels required when called: 12
   634 ;; This function calls:
   635 ;;		_Interrupt_RBx_Init
   636 ;;		_gpio_pin_direction_intialize
   637 ;; This function is called by:
   638 ;;		_main
   639 ;; This function uses a non-reentrant model
   640 ;;
   641                           
   642                           	psect	text1
   643   001F22                     __ptext1:
   644                           	callstack 0
   645   001F22                     _app_initialize:
   646                           	callstack 18
   647   001F22                     
   648                           ;application.c: 242:     gpio_pin_direction_intialize(&led1);
   649   001F22  0E2E               	movlw	low _led1
   650   001F24  0100               	movlb	0	; () banked
   651   001F26  6FB2               	movwf	gpio_pin_direction_intialize@_pin_config& (0+255),b
   652   001F28  0E00               	movlw	high _led1
   653   001F2A  6FB3               	movwf	(gpio_pin_direction_intialize@_pin_config+1)& (0+255),b
   654   001F2C  EC3B  F00B         	call	_gpio_pin_direction_intialize	;wreg free
   655                           
   656                           ;application.c: 243:     gpio_pin_direction_intialize(&led2);
   657   001F30  0E2D               	movlw	low _led2
   658   001F32  0100               	movlb	0	; () banked
   659   001F34  6FB2               	movwf	gpio_pin_direction_intialize@_pin_config& (0+255),b
   660   001F36  0E00               	movlw	high _led2
   661   001F38  6FB3               	movwf	(gpio_pin_direction_intialize@_pin_config+1)& (0+255),b
   662   001F3A  EC3B  F00B         	call	_gpio_pin_direction_intialize	;wreg free
   663                           
   664                           ;application.c: 244:     gpio_pin_direction_intialize(&led3);
   665   001F3E  0E2C               	movlw	low _led3
   666   001F40  0100               	movlb	0	; () banked
   667   001F42  6FB2               	movwf	gpio_pin_direction_intialize@_pin_config& (0+255),b
   668   001F44  0E00               	movlw	high _led3
   669   001F46  6FB3               	movwf	(gpio_pin_direction_intialize@_pin_config+1)& (0+255),b
   670   001F48  EC3B  F00B         	call	_gpio_pin_direction_intialize	;wreg free
   671                           
   672                           ;application.c: 245:     gpio_pin_direction_intialize(&led4);
   673   001F4C  0E2B               	movlw	low _led4
   674   001F4E  0100               	movlb	0	; () banked
   675   001F50  6FB2               	movwf	gpio_pin_direction_intialize@_pin_config& (0+255),b
   676   001F52  0E00               	movlw	high _led4
   677   001F54  6FB3               	movwf	(gpio_pin_direction_intialize@_pin_config+1)& (0+255),b
   678   001F56  EC3B  F00B         	call	_gpio_pin_direction_intialize	;wreg free
   679                           
   680                           ;application.c: 251:     Interrupt_RBx_Init(&rb4_int_obj);
   681   001F5A  0E25               	movlw	low _rb4_int_obj
   682   001F5C  0100               	movlb	0	; () banked
   683   001F5E  6FBB               	movwf	Interrupt_RBx_Init@int_obj& (0+255),b
   684   001F60  0E00               	movlw	high _rb4_int_obj
   685   001F62  6FBC               	movwf	(Interrupt_RBx_Init@int_obj+1)& (0+255),b
   686   001F64  EC85  F00A         	call	_Interrupt_RBx_Init	;wreg free
   687                           
   688                           ;application.c: 252:     Interrupt_RBx_Init(&rb5_int_obj);
   689   001F68  0E1F               	movlw	low _rb5_int_obj
   690   001F6A  0100               	movlb	0	; () banked
   691   001F6C  6FBB               	movwf	Interrupt_RBx_Init@int_obj& (0+255),b
   692   001F6E  0E00               	movlw	high _rb5_int_obj
   693   001F70  6FBC               	movwf	(Interrupt_RBx_Init@int_obj+1)& (0+255),b
   694   001F72  EC85  F00A         	call	_Interrupt_RBx_Init	;wreg free
   695                           
   696                           ;application.c: 253:     Interrupt_RBx_Init(&rb6_int_obj);
   697   001F76  0E19               	movlw	low _rb6_int_obj
   698   001F78  0100               	movlb	0	; () banked
   699   001F7A  6FBB               	movwf	Interrupt_RBx_Init@int_obj& (0+255),b
   700   001F7C  0E00               	movlw	high _rb6_int_obj
   701   001F7E  6FBC               	movwf	(Interrupt_RBx_Init@int_obj+1)& (0+255),b
   702   001F80  EC85  F00A         	call	_Interrupt_RBx_Init	;wreg free
   703                           
   704                           ;application.c: 254:     Interrupt_RBx_Init(&rb7_int_obj);
   705   001F84  0EAC               	movlw	low _rb7_int_obj
   706   001F86  0100               	movlb	0	; () banked
   707   001F88  6FBB               	movwf	Interrupt_RBx_Init@int_obj& (0+255),b
   708   001F8A  0E00               	movlw	high _rb7_int_obj
   709   001F8C  6FBC               	movwf	(Interrupt_RBx_Init@int_obj+1)& (0+255),b
   710   001F8E  EC85  F00A         	call	_Interrupt_RBx_Init	;wreg free
   711   001F92  0012               	return		;funcret
   712   001F94                     __end_of_app_initialize:
   713                           	callstack 0
   714                           
   715 ;; *************** function _Interrupt_RBx_Init *****************
   716 ;; Defined at:
   717 ;;		line 93 in file "mcal_external_interrupt.c"
   718 ;; Parameters:    Size  Location     Type
   719 ;;  int_obj         2    9[BANK0 ] PTR const struct .
   720 ;;		 -> rb7_int_obj(6), rb6_int_obj(6), rb5_int_obj(6), rb4_int_obj(6), 
   721 ;; Auto vars:     Size  Location     Type
   722 ;;  ret             1    0        unsigned char 
   723 ;; Return value:  Size  Location     Type
   724 ;;                  1    wreg      unsigned char 
   725 ;; Registers used:
   726 ;;		wreg, fsr2l, fsr2h, status,2, status,0, prodl, prodh, cstack
   727 ;; Tracked objects:
   728 ;;		On entry : 0/0
   729 ;;		On exit  : 0/0
   730 ;;		Unchanged: 0/0
   731 ;; Data sizes:     COMRAM   BANK0   BANK1   BANK2   BANK3   BANK4   BANK5   BANK6   BANK7   BANK8   BANK9  BANK10  BANK1
      +1  BANK12  BANK13  BANK14  BANK15
   732 ;;      Params:         0       2       0       0       0       0       0       0       0       0       0       0       
      +0       0       0       0       0
   733 ;;      Locals:         0       0       0       0       0       0       0       0       0       0       0       0       
      +0       0       0       0       0
   734 ;;      Temps:          0       2       0       0       0       0       0       0       0       0       0       0       
      +0       0       0       0       0
   735 ;;      Totals:         0       4       0       0       0       0       0       0       0       0       0       0       
      +0       0       0       0       0
   736 ;;Total ram usage:        4 bytes
   737 ;; Hardware stack levels used: 1
   738 ;; Hardware stack levels required when called: 11
   739 ;; This function calls:
   740 ;;		_gpio_pin_direction_intialize
   741 ;; This function is called by:
   742 ;;		_app_initialize
   743 ;; This function uses a non-reentrant model
   744 ;;
   745                           
   746                           	psect	text2
   747   00150A                     __ptext2:
   748                           	callstack 0
   749   00150A                     _Interrupt_RBx_Init:
   750                           	callstack 18
   751   00150A                     
   752                           ;mcal_external_interrupt.c: 95:     if(((void*)0) == int_obj){
   753   00150A  0100               	movlb	0	; () banked
   754   00150C  51BB               	movf	Interrupt_RBx_Init@int_obj& (0+255),w,b
   755   00150E  11BC               	iorwf	(Interrupt_RBx_Init@int_obj+1)& (0+255),w,b
   756   001510  A4D8               	btfss	status,2,c
   757   001512  EF8D  F00A         	goto	u4361
   758   001516  EF8F  F00A         	goto	u4360
   759   00151A                     u4361:
   760   00151A  EF91  F00A         	goto	l429
   761   00151E                     u4360:
   762   00151E                     
   763                           ; BSR set to: 0
   764                           ;mcal_external_interrupt.c: 97:     }
   765   00151E  EF3A  F00B         	goto	l442
   766   001522                     l429:
   767                           
   768                           ; BSR set to: 0
   769                           ;mcal_external_interrupt.c: 99:     {;mcal_external_interrupt.c: 101:         (INTCONbit
      +                          s.RBIE = 0);
   770   001522  96F2               	bcf	242,3,c	;volatile
   771                           
   772                           ;mcal_external_interrupt.c: 103:         (INTCONbits.RBIF = 0);
   773   001524  90F2               	bcf	242,0,c	;volatile
   774                           
   775                           ;mcal_external_interrupt.c: 105:         (RCONbits.IPEN = 1);
   776   001526  8ED0               	bsf	208,7,c	;volatile
   777   001528                     
   778                           ; BSR set to: 0
   779                           ;mcal_external_interrupt.c: 106:         if(INTERRUPT_LOW_PRIORITY == int_obj->priority)
      +                          {
   780   001528  EE20 F005          	lfsr	2,5
   781   00152C  51BB               	movf	Interrupt_RBx_Init@int_obj& (0+255),w,b
   782   00152E  26D9               	addwf	fsr2l,f,c
   783   001530  51BC               	movf	(Interrupt_RBx_Init@int_obj+1)& (0+255),w,b
   784   001532  22DA               	addwfc	fsr2h,f,c
   785   001534  50DF               	movf	indf2,w,c
   786   001536  A4D8               	btfss	status,2,c
   787   001538  EFA0  F00A         	goto	u4371
   788   00153C  EFA2  F00A         	goto	u4370
   789   001540                     u4371:
   790   001540  EFA6  F00A         	goto	l3797
   791   001544                     u4370:
   792   001544                     
   793                           ; BSR set to: 0
   794                           ;mcal_external_interrupt.c: 107:             (INTCONbits.GIEL = 1);
   795   001544  8CF2               	bsf	242,6,c	;volatile
   796                           
   797                           ;mcal_external_interrupt.c: 108:             (INTCON2bits.RBIP = 0);
   798   001546  90F1               	bcf	241,0,c	;volatile
   799                           
   800                           ;mcal_external_interrupt.c: 109:         }
   801   001548  EFB6  F00A         	goto	l3801
   802   00154C                     l3797:
   803                           
   804                           ; BSR set to: 0
   805   00154C  EE20 F005          	lfsr	2,5
   806   001550  51BB               	movf	Interrupt_RBx_Init@int_obj& (0+255),w,b
   807   001552  26D9               	addwf	fsr2l,f,c
   808   001554  51BC               	movf	(Interrupt_RBx_Init@int_obj+1)& (0+255),w,b
   809   001556  22DA               	addwfc	fsr2h,f,c
   810   001558  04DE               	decf	postinc2,w,c
   811   00155A  A4D8               	btfss	status,2,c
   812   00155C  EFB2  F00A         	goto	u4381
   813   001560  EFB4  F00A         	goto	u4380
   814   001564                     u4381:
   815   001564  EFB6  F00A         	goto	l3801
   816   001568                     u4380:
   817   001568                     
   818                           ; BSR set to: 0
   819                           ;mcal_external_interrupt.c: 111:             (INTCONbits.GIEH = 1);
   820   001568  8EF2               	bsf	242,7,c	;volatile
   821                           
   822                           ;mcal_external_interrupt.c: 112:             (INTCON2bits.RBIP = 1);
   823   00156A  80F1               	bsf	241,0,c	;volatile
   824   00156C                     l3801:
   825                           
   826                           ; BSR set to: 0
   827   00156C  0E04               	movlw	4
   828   00156E  25BB               	addwf	Interrupt_RBx_Init@int_obj& (0+255),w,b
   829   001570  6FB2               	movwf	gpio_pin_direction_intialize@_pin_config& (0+255),b
   830   001572  0E00               	movlw	0
   831   001574  21BC               	addwfc	(Interrupt_RBx_Init@int_obj+1)& (0+255),w,b
   832   001576  6FB3               	movwf	(gpio_pin_direction_intialize@_pin_config+1)& (0+255),b
   833   001578  EC3B  F00B         	call	_gpio_pin_direction_intialize	;wreg free
   834                           
   835                           ;mcal_external_interrupt.c: 122:         switch(int_obj->mcu_pin.pin){
   836   00157C  EF12  F00B         	goto	l3821
   837   001580                     l3803:
   838                           
   839                           ; BSR set to: 0
   840                           ;mcal_external_interrupt.c: 124:                 RB4_InterruptHandler_HIGH = int_obj->In
      +                          terruptHandler_HIGH ;
   841   001580  C0BB  FFD9         	movff	Interrupt_RBx_Init@int_obj,fsr2l
   842   001584  C0BC  FFDA         	movff	Interrupt_RBx_Init@int_obj+1,fsr2h
   843   001588  CFDE F065          	movff	postinc2,_RB4_InterruptHandler_HIGH
   844   00158C  CFDD F066          	movff	postdec2,_RB4_InterruptHandler_HIGH+1
   845   001590                     
   846                           ; BSR set to: 0
   847                           ;mcal_external_interrupt.c: 125:                 RB4_InterruptHandler_LOW = int_obj->Int
      +                          erruptHandler_LOW ;
   848   001590  EE20 F002          	lfsr	2,2
   849   001594  51BB               	movf	Interrupt_RBx_Init@int_obj& (0+255),w,b
   850   001596  26D9               	addwf	fsr2l,f,c
   851   001598  51BC               	movf	(Interrupt_RBx_Init@int_obj+1)& (0+255),w,b
   852   00159A  22DA               	addwfc	fsr2h,f,c
   853   00159C  CFDE F063          	movff	postinc2,_RB4_InterruptHandler_LOW
   854   0015A0  CFDD F064          	movff	postdec2,_RB4_InterruptHandler_LOW+1
   855                           
   856                           ;mcal_external_interrupt.c: 126:                 break;
   857   0015A4  EF39  F00B         	goto	l437
   858   0015A8                     l3807:
   859                           
   860                           ; BSR set to: 0
   861                           ;mcal_external_interrupt.c: 128:                 RB5_InterruptHandler_HIGH = int_obj->In
      +                          terruptHandler_HIGH ;
   862   0015A8  C0BB  FFD9         	movff	Interrupt_RBx_Init@int_obj,fsr2l
   863   0015AC  C0BC  FFDA         	movff	Interrupt_RBx_Init@int_obj+1,fsr2h
   864   0015B0  CFDE F061          	movff	postinc2,_RB5_InterruptHandler_HIGH
   865   0015B4  CFDD F062          	movff	postdec2,_RB5_InterruptHandler_HIGH+1
   866   0015B8                     
   867                           ; BSR set to: 0
   868                           ;mcal_external_interrupt.c: 129:                 RB5_InterruptHandler_LOW = int_obj->Int
      +                          erruptHandler_LOW ;
   869   0015B8  EE20 F002          	lfsr	2,2
   870   0015BC  51BB               	movf	Interrupt_RBx_Init@int_obj& (0+255),w,b
   871   0015BE  26D9               	addwf	fsr2l,f,c
   872   0015C0  51BC               	movf	(Interrupt_RBx_Init@int_obj+1)& (0+255),w,b
   873   0015C2  22DA               	addwfc	fsr2h,f,c
   874   0015C4  CFDE F05F          	movff	postinc2,_RB5_InterruptHandler_LOW
   875   0015C8  CFDD F060          	movff	postdec2,_RB5_InterruptHandler_LOW+1
   876                           
   877                           ;mcal_external_interrupt.c: 130:                 break;
   878   0015CC  EF39  F00B         	goto	l437
   879   0015D0                     l3811:
   880                           
   881                           ; BSR set to: 0
   882                           ;mcal_external_interrupt.c: 132:                 RB6_InterruptHandler_HIGH = int_obj->In
      +                          terruptHandler_HIGH ;
   883   0015D0  C0BB  FFD9         	movff	Interrupt_RBx_Init@int_obj,fsr2l
   884   0015D4  C0BC  FFDA         	movff	Interrupt_RBx_Init@int_obj+1,fsr2h
   885   0015D8  CFDE F05D          	movff	postinc2,_RB6_InterruptHandler_HIGH
   886   0015DC  CFDD F05E          	movff	postdec2,_RB6_InterruptHandler_HIGH+1
   887   0015E0                     
   888                           ; BSR set to: 0
   889                           ;mcal_external_interrupt.c: 133:                 RB6_InterruptHandler_LOW = int_obj->Int
      +                          erruptHandler_LOW ;
   890   0015E0  EE20 F002          	lfsr	2,2
   891   0015E4  51BB               	movf	Interrupt_RBx_Init@int_obj& (0+255),w,b
   892   0015E6  26D9               	addwf	fsr2l,f,c
   893   0015E8  51BC               	movf	(Interrupt_RBx_Init@int_obj+1)& (0+255),w,b
   894   0015EA  22DA               	addwfc	fsr2h,f,c
   895   0015EC  CFDE F05B          	movff	postinc2,_RB6_InterruptHandler_LOW
   896   0015F0  CFDD F05C          	movff	postdec2,_RB6_InterruptHandler_LOW+1
   897                           
   898                           ;mcal_external_interrupt.c: 134:                 break;
   899   0015F4  EF39  F00B         	goto	l437
   900   0015F8                     l3815:
   901                           
   902                           ; BSR set to: 0
   903                           ;mcal_external_interrupt.c: 136:                 RB7_InterruptHandler_HIGH = int_obj->In
      +                          terruptHandler_HIGH ;
   904   0015F8  C0BB  FFD9         	movff	Interrupt_RBx_Init@int_obj,fsr2l
   905   0015FC  C0BC  FFDA         	movff	Interrupt_RBx_Init@int_obj+1,fsr2h
   906   001600  CFDE F059          	movff	postinc2,_RB7_InterruptHandler_HIGH
   907   001604  CFDD F05A          	movff	postdec2,_RB7_InterruptHandler_HIGH+1
   908   001608                     
   909                           ; BSR set to: 0
   910                           ;mcal_external_interrupt.c: 137:                 RB7_InterruptHandler_LOW = int_obj->Int
      +                          erruptHandler_LOW ;
   911   001608  EE20 F002          	lfsr	2,2
   912   00160C  51BB               	movf	Interrupt_RBx_Init@int_obj& (0+255),w,b
   913   00160E  26D9               	addwf	fsr2l,f,c
   914   001610  51BC               	movf	(Interrupt_RBx_Init@int_obj+1)& (0+255),w,b
   915   001612  22DA               	addwfc	fsr2h,f,c
   916   001614  CFDE F057          	movff	postinc2,_RB7_InterruptHandler_LOW
   917   001618  CFDD F058          	movff	postdec2,_RB7_InterruptHandler_LOW+1
   918                           
   919                           ;mcal_external_interrupt.c: 138:                 break;
   920   00161C  EF39  F00B         	goto	l437
   921   001620                     l3819:
   922                           
   923                           ; BSR set to: 0
   924                           ;mcal_external_interrupt.c: 140:         }
   925   001620  EF39  F00B         	goto	l437
   926   001624                     l3821:
   927   001624  0100               	movlb	0	; () banked
   928   001626  EE20 F004          	lfsr	2,4
   929   00162A  51BB               	movf	Interrupt_RBx_Init@int_obj& (0+255),w,b
   930   00162C  26D9               	addwf	fsr2l,f,c
   931   00162E  51BC               	movf	(Interrupt_RBx_Init@int_obj+1)& (0+255),w,b
   932   001630  22DA               	addwfc	fsr2h,f,c
   933   001632  30DF               	rrcf	223,w,c
   934   001634  32E8               	rrcf	wreg,f,c
   935   001636  32E8               	rrcf	wreg,f,c
   936   001638  0B07               	andlw	7
   937   00163A  6FBD               	movwf	??_Interrupt_RBx_Init& (0+255),b
   938   00163C  6BBE               	clrf	(??_Interrupt_RBx_Init+1)& (0+255),b
   939                           
   940                           ; Switch on 2 bytes has been partitioned into a top level switch of size 1, and 1 sub-sw
      +                          itches
   941                           ; Switch size 1, requested type "simple"
   942                           ; Number of cases is 1, Range of values is 0 to 0
   943                           ; switch strategies available:
   944                           ; Name         Instructions Cycles
   945                           ; simple_byte            4     3 (average)
   946                           ;	Chosen strategy is simple_byte
   947   00163E  51BE               	movf	(??_Interrupt_RBx_Init+1)& (0+255),w,b
   948   001640  0A00               	xorlw	0	; case 0
   949   001642  B4D8               	btfsc	status,2,c
   950   001644  EF26  F00B         	goto	l4059
   951   001648  EF10  F00B         	goto	l3819
   952   00164C                     l4059:
   953                           
   954                           ; BSR set to: 0
   955                           ; Switch size 1, requested type "simple"
   956                           ; Number of cases is 4, Range of values is 4 to 7
   957                           ; switch strategies available:
   958                           ; Name         Instructions Cycles
   959                           ; simple_byte           13     7 (average)
   960                           ;	Chosen strategy is simple_byte
   961   00164C  51BD               	movf	??_Interrupt_RBx_Init& (0+255),w,b
   962   00164E  0A04               	xorlw	4	; case 4
   963   001650  B4D8               	btfsc	status,2,c
   964   001652  EFC0  F00A         	goto	l3803
   965   001656  0A01               	xorlw	1	; case 5
   966   001658  B4D8               	btfsc	status,2,c
   967   00165A  EFD4  F00A         	goto	l3807
   968   00165E  0A03               	xorlw	3	; case 6
   969   001660  B4D8               	btfsc	status,2,c
   970   001662  EFE8  F00A         	goto	l3811
   971   001666  0A01               	xorlw	1	; case 7
   972   001668  B4D8               	btfsc	status,2,c
   973   00166A  EFFC  F00A         	goto	l3815
   974   00166E  EF10  F00B         	goto	l3819
   975   001672                     l437:
   976                           
   977                           ; BSR set to: 0
   978                           ;mcal_external_interrupt.c: 141:         (INTCONbits.RBIE = 1);
   979   001672  86F2               	bsf	242,3,c	;volatile
   980   001674                     l442:
   981                           
   982                           ; BSR set to: 0
   983   001674  0012               	return		;funcret
   984   001676                     __end_of_Interrupt_RBx_Init:
   985                           	callstack 0
   986                           
   987 ;; *************** function _gpio_pin_direction_intialize *****************
   988 ;; Defined at:
   989 ;;		line 22 in file "MCAL_Layer/GPIO/hal_gpio.c"
   990 ;; Parameters:    Size  Location     Type
   991 ;;  _pin_config     2    0[BANK0 ] PTR const struct .
   992 ;;		 -> lcd_2.lcd_data(8), lcd_2(10), lcd_1.lcd_data(4), lcd_1(6), 
   993 ;;		 -> rb7_int_obj(6), rb6_int_obj(6), rb5_int_obj(6), rb4_int_obj(6), 
   994 ;;		 -> led4(1), led3(1), led2(1), led1(1), 
   995 ;; Auto vars:     Size  Location     Type
   996 ;;  ret             1    8[BANK0 ] unsigned char 
   997 ;; Return value:  Size  Location     Type
   998 ;;                  1    wreg      unsigned char 
   999 ;; Registers used:
  1000 ;;		wreg, fsr2l, fsr2h, status,2, status,0, prodl, prodh
  1001 ;; Tracked objects:
  1002 ;;		On entry : 0/0
  1003 ;;		On exit  : 0/0
  1004 ;;		Unchanged: 0/0
  1005 ;; Data sizes:     COMRAM   BANK0   BANK1   BANK2   BANK3   BANK4   BANK5   BANK6   BANK7   BANK8   BANK9  BANK10  BANK1
      +1  BANK12  BANK13  BANK14  BANK15
  1006 ;;      Params:         0       2       0       0       0       0       0       0       0       0       0       0       
      +0       0       0       0       0
  1007 ;;      Locals:         0       1       0       0       0       0       0       0       0       0       0       0       
      +0       0       0       0       0
  1008 ;;      Temps:          0       6       0       0       0       0       0       0       0       0       0       0       
      +0       0       0       0       0
  1009 ;;      Totals:         0       9       0       0       0       0       0       0       0       0       0       0       
      +0       0       0       0       0
  1010 ;;Total ram usage:        9 bytes
  1011 ;; Hardware stack levels used: 1
  1012 ;; Hardware stack levels required when called: 10
  1013 ;; This function calls:
  1014 ;;		Nothing
  1015 ;; This function is called by:
  1016 ;;		_app_initialize
  1017 ;;		_Interrupt_RBx_Init
  1018 ;;		_gpio_pin_intialize
  1019 ;;		_Interrupt_INTx_Pin_Init
  1020 ;;		_Interrupt_RBx_Pin_Init
  1021 ;; This function uses a non-reentrant model
  1022 ;;
  1023                           
  1024                           	psect	text3
  1025   001676                     __ptext3:
  1026                           	callstack 0
  1027   001676                     _gpio_pin_direction_intialize:
  1028                           	callstack 19
  1029   001676                     
  1030                           ;MCAL_Layer/GPIO/hal_gpio.c: 23:     Std_ReturnType ret = (Std_ReturnType)0x01;
  1031   001676  0E01               	movlw	1
  1032   001678  0100               	movlb	0	; () banked
  1033   00167A  6FBA               	movwf	gpio_pin_direction_intialize@ret& (0+255),b
  1034   00167C                     
  1035                           ; BSR set to: 0
  1036                           ;MCAL_Layer/GPIO/hal_gpio.c: 24:     if(((void*)0) == _pin_config || _pin_config->pin > 
      +                          8 -1)
  1037   00167C  51B2               	movf	gpio_pin_direction_intialize@_pin_config& (0+255),w,b
  1038   00167E  11B3               	iorwf	(gpio_pin_direction_intialize@_pin_config+1)& (0+255),w,b
  1039   001680  B4D8               	btfsc	status,2,c
  1040   001682  EF45  F00B         	goto	u4291
  1041   001686  EF47  F00B         	goto	u4290
  1042   00168A                     u4291:
  1043   00168A  EF58  F00B         	goto	l3757
  1044   00168E                     u4290:
  1045   00168E                     
  1046                           ; BSR set to: 0
  1047   00168E  C0B2  FFD9         	movff	gpio_pin_direction_intialize@_pin_config,fsr2l
  1048   001692  C0B3  FFDA         	movff	gpio_pin_direction_intialize@_pin_config+1,fsr2h
  1049   001696  30DF               	rrcf	223,w,c
  1050   001698  32E8               	rrcf	wreg,f,c
  1051   00169A  32E8               	rrcf	wreg,f,c
  1052   00169C  0B07               	andlw	7
  1053   00169E  6FB4               	movwf	??_gpio_pin_direction_intialize& (0+255),b
  1054   0016A0  0E07               	movlw	7
  1055   0016A2  65B4               	cpfsgt	??_gpio_pin_direction_intialize& (0+255),b
  1056   0016A4  EF56  F00B         	goto	u4301
  1057   0016A8  EF58  F00B         	goto	u4300
  1058   0016AC                     u4301:
  1059   0016AC  EFBD  F00B         	goto	l3765
  1060   0016B0                     u4300:
  1061   0016B0                     l3757:
  1062                           
  1063                           ; BSR set to: 0
  1064                           ;MCAL_Layer/GPIO/hal_gpio.c: 25:     {;MCAL_Layer/GPIO/hal_gpio.c: 26:         ret = (St
      +                          d_ReturnType)0x00;
  1065   0016B0  0E00               	movlw	0
  1066   0016B2  6FBA               	movwf	gpio_pin_direction_intialize@ret& (0+255),b
  1067                           
  1068                           ;MCAL_Layer/GPIO/hal_gpio.c: 27:     }
  1069   0016B4  EFDE  F00B         	goto	l3767
  1070   0016B8                     l3759:
  1071                           
  1072                           ; BSR set to: 0
  1073                           ;MCAL_Layer/GPIO/hal_gpio.c: 32:             (*tris_registers[_pin_config->port] &= ~((u
      +                          int8)1 << _pin_config->pin));
  1074   0016B8  C0B2  FFD9         	movff	gpio_pin_direction_intialize@_pin_config,fsr2l
  1075   0016BC  C0B3  FFDA         	movff	gpio_pin_direction_intialize@_pin_config+1,fsr2h
  1076   0016C0  30DF               	rrcf	223,w,c
  1077   0016C2  32E8               	rrcf	wreg,f,c
  1078   0016C4  32E8               	rrcf	wreg,f,c
  1079   0016C6  0B07               	andlw	7
  1080   0016C8  6FB4               	movwf	??_gpio_pin_direction_intialize& (0+255),b
  1081   0016CA  0E01               	movlw	1
  1082   0016CC  6FB5               	movwf	(??_gpio_pin_direction_intialize+1)& (0+255),b
  1083   0016CE  2BB4               	incf	??_gpio_pin_direction_intialize& (0+255),f,b
  1084   0016D0  EF6C  F00B         	goto	u4314
  1085   0016D4                     u4315:
  1086   0016D4  90D8               	bcf	status,0,c
  1087   0016D6  37B5               	rlcf	(??_gpio_pin_direction_intialize+1)& (0+255),f,b
  1088   0016D8                     u4314:
  1089   0016D8  2FB4               	decfsz	??_gpio_pin_direction_intialize& (0+255),f,b
  1090   0016DA  EF6A  F00B         	goto	u4315
  1091   0016DE  0100               	movlb	0	; () banked
  1092   0016E0  51B5               	movf	(??_gpio_pin_direction_intialize+1)& (0+255),w,b
  1093   0016E2  0AFF               	xorlw	255
  1094   0016E4  6FB6               	movwf	(??_gpio_pin_direction_intialize+2)& (0+255),b
  1095   0016E6  C0B2  FFD9         	movff	gpio_pin_direction_intialize@_pin_config,fsr2l
  1096   0016EA  C0B3  FFDA         	movff	gpio_pin_direction_intialize@_pin_config+1,fsr2h
  1097   0016EE  50DF               	movf	223,w,c
  1098   0016F0  0B07               	andlw	7
  1099   0016F2  6FB7               	movwf	(??_gpio_pin_direction_intialize+3)& (0+255),b
  1100   0016F4  51B7               	movf	(??_gpio_pin_direction_intialize+3)& (0+255),w,b
  1101   0016F6  0D02               	mullw	2
  1102   0016F8  0E0B               	movlw	low _tris_registers
  1103   0016FA  24F3               	addwf	243,w,c
  1104   0016FC  6ED9               	movwf	fsr2l,c
  1105   0016FE  0E00               	movlw	high _tris_registers
  1106   001700  20F4               	addwfc	prodh,w,c
  1107   001702  6EDA               	movwf	fsr2h,c
  1108   001704  CFDE F0B8          	movff	postinc2,??_gpio_pin_direction_intialize+4
  1109   001708  CFDD F0B9          	movff	postdec2,??_gpio_pin_direction_intialize+5
  1110   00170C  C0B8  FFD9         	movff	??_gpio_pin_direction_intialize+4,fsr2l
  1111   001710  C0B9  FFDA         	movff	??_gpio_pin_direction_intialize+5,fsr2h
  1112   001714  51B6               	movf	(??_gpio_pin_direction_intialize+2)& (0+255),w,b
  1113   001716  16DF               	andwf	indf2,f,c
  1114                           
  1115                           ;MCAL_Layer/GPIO/hal_gpio.c: 33:             break;
  1116   001718  EFDE  F00B         	goto	l3767
  1117   00171C                     l3761:
  1118                           
  1119                           ; BSR set to: 0
  1120                           ;MCAL_Layer/GPIO/hal_gpio.c: 35:             (*tris_registers[_pin_config->port] |= ((ui
      +                          nt8)1 << _pin_config->pin));
  1121   00171C  C0B2  FFD9         	movff	gpio_pin_direction_intialize@_pin_config,fsr2l
  1122   001720  C0B3  FFDA         	movff	gpio_pin_direction_intialize@_pin_config+1,fsr2h
  1123   001724  30DF               	rrcf	223,w,c
  1124   001726  32E8               	rrcf	wreg,f,c
  1125   001728  32E8               	rrcf	wreg,f,c
  1126   00172A  0B07               	andlw	7
  1127   00172C  6FB4               	movwf	??_gpio_pin_direction_intialize& (0+255),b
  1128   00172E  0E01               	movlw	1
  1129   001730  6FB5               	movwf	(??_gpio_pin_direction_intialize+1)& (0+255),b
  1130   001732  2BB4               	incf	??_gpio_pin_direction_intialize& (0+255),f,b
  1131   001734  EF9E  F00B         	goto	u4324
  1132   001738                     u4325:
  1133   001738  90D8               	bcf	status,0,c
  1134   00173A  37B5               	rlcf	(??_gpio_pin_direction_intialize+1)& (0+255),f,b
  1135   00173C                     u4324:
  1136   00173C  2FB4               	decfsz	??_gpio_pin_direction_intialize& (0+255),f,b
  1137   00173E  EF9C  F00B         	goto	u4325
  1138   001742  C0B2  FFD9         	movff	gpio_pin_direction_intialize@_pin_config,fsr2l
  1139   001746  C0B3  FFDA         	movff	gpio_pin_direction_intialize@_pin_config+1,fsr2h
  1140   00174A  50DF               	movf	223,w,c
  1141   00174C  0B07               	andlw	7
  1142   00174E  0100               	movlb	0	; () banked
  1143   001750  6FB6               	movwf	(??_gpio_pin_direction_intialize+2)& (0+255),b
  1144   001752  51B6               	movf	(??_gpio_pin_direction_intialize+2)& (0+255),w,b
  1145   001754  0D02               	mullw	2
  1146   001756  0E0B               	movlw	low _tris_registers
  1147   001758  24F3               	addwf	243,w,c
  1148   00175A  6ED9               	movwf	fsr2l,c
  1149   00175C  0E00               	movlw	high _tris_registers
  1150   00175E  20F4               	addwfc	prodh,w,c
  1151   001760  6EDA               	movwf	fsr2h,c
  1152   001762  CFDE F0B7          	movff	postinc2,??_gpio_pin_direction_intialize+3
  1153   001766  CFDD F0B8          	movff	postdec2,??_gpio_pin_direction_intialize+4
  1154   00176A  C0B7  FFD9         	movff	??_gpio_pin_direction_intialize+3,fsr2l
  1155   00176E  C0B8  FFDA         	movff	??_gpio_pin_direction_intialize+4,fsr2h
  1156   001772  51B5               	movf	(??_gpio_pin_direction_intialize+1)& (0+255),w,b
  1157   001774  12DF               	iorwf	indf2,f,c
  1158                           
  1159                           ;MCAL_Layer/GPIO/hal_gpio.c: 36:             break;
  1160   001776  EFDE  F00B         	goto	l3767
  1161   00177A                     l3765:
  1162                           
  1163                           ; BSR set to: 0
  1164   00177A  C0B2  FFD9         	movff	gpio_pin_direction_intialize@_pin_config,fsr2l
  1165   00177E  C0B3  FFDA         	movff	gpio_pin_direction_intialize@_pin_config+1,fsr2h
  1166   001782  BCDF               	btfsc	indf2,6,c
  1167   001784  EFC6  F00B         	goto	u4331
  1168   001788  EFC9  F00B         	goto	u4330
  1169   00178C                     u4331:
  1170   00178C  0E01               	movlw	1
  1171   00178E  EFCA  F00B         	goto	u4340
  1172   001792                     u4330:
  1173   001792  0E00               	movlw	0
  1174   001794                     u4340:
  1175   001794  6FB4               	movwf	??_gpio_pin_direction_intialize& (0+255),b
  1176   001796  6BB5               	clrf	(??_gpio_pin_direction_intialize+1)& (0+255),b
  1177                           
  1178                           ; Switch on 2 bytes has been partitioned into a top level switch of size 1, and 1 sub-sw
      +                          itches
  1179                           ; Switch size 1, requested type "simple"
  1180                           ; Number of cases is 1, Range of values is 0 to 0
  1181                           ; switch strategies available:
  1182                           ; Name         Instructions Cycles
  1183                           ; simple_byte            4     3 (average)
  1184                           ;	Chosen strategy is simple_byte
  1185   001798  51B5               	movf	(??_gpio_pin_direction_intialize+1)& (0+255),w,b
  1186   00179A  0A00               	xorlw	0	; case 0
  1187   00179C  B4D8               	btfsc	status,2,c
  1188   00179E  EFD3  F00B         	goto	l4061
  1189   0017A2  EF58  F00B         	goto	l3757
  1190   0017A6                     l4061:
  1191                           
  1192                           ; BSR set to: 0
  1193                           ; Switch size 1, requested type "simple"
  1194                           ; Number of cases is 2, Range of values is 0 to 1
  1195                           ; switch strategies available:
  1196                           ; Name         Instructions Cycles
  1197                           ; simple_byte            7     4 (average)
  1198                           ;	Chosen strategy is simple_byte
  1199   0017A6  51B4               	movf	??_gpio_pin_direction_intialize& (0+255),w,b
  1200   0017A8  0A00               	xorlw	0	; case 0
  1201   0017AA  B4D8               	btfsc	status,2,c
  1202   0017AC  EF5C  F00B         	goto	l3759
  1203   0017B0  0A01               	xorlw	1	; case 1
  1204   0017B2  B4D8               	btfsc	status,2,c
  1205   0017B4  EF8E  F00B         	goto	l3761
  1206   0017B8  EF58  F00B         	goto	l3757
  1207   0017BC                     l3767:
  1208                           
  1209                           ; BSR set to: 0
  1210                           ;MCAL_Layer/GPIO/hal_gpio.c: 43:     return ret;
  1211   0017BC  51BA               	movf	gpio_pin_direction_intialize@ret& (0+255),w,b
  1212   0017BE                     
  1213                           ; BSR set to: 0
  1214   0017BE  0012               	return		;funcret
  1215   0017C0                     __end_of_gpio_pin_direction_intialize:
  1216                           	callstack 0
  1217                           
  1218 ;; *************** function _InterruptManagerLow *****************
  1219 ;; Defined at:
  1220 ;;		line 20 in file "MCAL_Layer/Interrupt/mcal_interrupt_manager.c"
  1221 ;; Parameters:    Size  Location     Type
  1222 ;;		None
  1223 ;; Auto vars:     Size  Location     Type
  1224 ;;		None
  1225 ;; Return value:  Size  Location     Type
  1226 ;;                  1    wreg      void 
  1227 ;; Registers used:
  1228 ;;		wreg, fsr2l, fsr2h, status,2, status,0, pcl, pclath, pclatu, tosl, prodl, prodh, cstack
  1229 ;; Tracked objects:
  1230 ;;		On entry : 0/0
  1231 ;;		On exit  : 0/0
  1232 ;;		Unchanged: 0/0
  1233 ;; Data sizes:     COMRAM   BANK0   BANK1   BANK2   BANK3   BANK4   BANK5   BANK6   BANK7   BANK8   BANK9  BANK10  BANK1
      +1  BANK12  BANK13  BANK14  BANK15
  1234 ;;      Params:         0       0       0       0       0       0       0       0       0       0       0       0       
      +0       0       0       0       0
  1235 ;;      Locals:         0       0       0       0       0       0       0       0       0       0       0       0       
      +0       0       0       0       0
  1236 ;;      Temps:          9       0       0       0       0       0       0       0       0       0       0       0       
      +0       0       0       0       0
  1237 ;;      Totals:         9       0       0       0       0       0       0       0       0       0       0       0       
      +0       0       0       0       0
  1238 ;;Total ram usage:        9 bytes
  1239 ;; Hardware stack levels used: 1
  1240 ;; Hardware stack levels required when called: 9
  1241 ;; This function calls:
  1242 ;;		_InterruptCheck
  1243 ;; This function is called by:
  1244 ;;		Interrupt level 1
  1245 ;; This function uses a non-reentrant model
  1246 ;;
  1247                           
  1248                           	psect	intcodelo
  1249   000018                     __pintcodelo:
  1250                           	callstack 0
  1251   000018                     _InterruptManagerLow:
  1252                           	callstack 18
  1253                           
  1254                           ; BSR set to: 0
  1255                           ;incstack = 0
  1256   000018  806E               	bsf	int$flags,0,c	;set compiler interrupt flag (level 1)
  1257   00001A  CFD8 F04A          	movff	status,??_InterruptManagerLow
  1258   00001E  CFE8 F04B          	movff	wreg,??_InterruptManagerLow+1
  1259   000022  CFE0 F04C          	movff	bsr,??_InterruptManagerLow+2
  1260   000026  CFFA F04D          	movff	pclath,??_InterruptManagerLow+3
  1261   00002A  CFFB F04E          	movff	pclatu,??_InterruptManagerLow+4
  1262   00002E  CFD9 F04F          	movff	fsr2l,??_InterruptManagerLow+5
  1263   000032  CFDA F050          	movff	fsr2h,??_InterruptManagerLow+6
  1264   000036  CFF3 F051          	movff	prodl,??_InterruptManagerLow+7
  1265   00003A  CFF4 F052          	movff	prodh,??_InterruptManagerLow+8
  1266   00003E                     
  1267                           ;MCAL_Layer/Interrupt/mcal_interrupt_manager.c: 21:     InterruptCheck();
  1268   00003E  EC03  F008         	call	_InterruptCheck	;wreg free
  1269   000042  C052  FFF4         	movff	??_InterruptManagerLow+8,prodh
  1270   000046  C051  FFF3         	movff	??_InterruptManagerLow+7,prodl
  1271   00004A  C050  FFDA         	movff	??_InterruptManagerLow+6,fsr2h
  1272   00004E  C04F  FFD9         	movff	??_InterruptManagerLow+5,fsr2l
  1273   000052  C04E  FFFB         	movff	??_InterruptManagerLow+4,pclatu
  1274   000056  C04D  FFFA         	movff	??_InterruptManagerLow+3,pclath
  1275   00005A  C04C  FFE0         	movff	??_InterruptManagerLow+2,bsr
  1276   00005E  C04B  FFE8         	movff	??_InterruptManagerLow+1,wreg
  1277   000062  C04A  FFD8         	movff	??_InterruptManagerLow,status
  1278   000066  906E               	bcf	int$flags,0,c	;clear compiler interrupt flag (level 1)
  1279   000068  0010               	retfie	
  1280   00006A                     __end_of_InterruptManagerLow:
  1281                           	callstack 0
  1282                           
  1283 ;; *************** function _InterruptCheck *****************
  1284 ;; Defined at:
  1285 ;;		line 31 in file "MCAL_Layer/Interrupt/mcal_interrupt_manager.c"
  1286 ;; Parameters:    Size  Location     Type
  1287 ;;		None
  1288 ;; Auto vars:     Size  Location     Type
  1289 ;;		None
  1290 ;; Return value:  Size  Location     Type
  1291 ;;                  1    wreg      void 
  1292 ;; Registers used:
  1293 ;;		wreg, fsr2l, fsr2h, status,2, status,0, pcl, pclath, pclatu, tosl, prodl, prodh, cstack
  1294 ;; Tracked objects:
  1295 ;;		On entry : 0/0
  1296 ;;		On exit  : 0/0
  1297 ;;		Unchanged: 0/0
  1298 ;; Data sizes:     COMRAM   BANK0   BANK1   BANK2   BANK3   BANK4   BANK5   BANK6   BANK7   BANK8   BANK9  BANK10  BANK1
      +1  BANK12  BANK13  BANK14  BANK15
  1299 ;;      Params:         0       0       0       0       0       0       0       0       0       0       0       0       
      +0       0       0       0       0
  1300 ;;      Locals:         0       0       0       0       0       0       0       0       0       0       0       0       
      +0       0       0       0       0
  1301 ;;      Temps:          0       0       0       0       0       0       0       0       0       0       0       0       
      +0       0       0       0       0
  1302 ;;      Totals:         0       0       0       0       0       0       0       0       0       0       0       0       
      +0       0       0       0       0
  1303 ;;Total ram usage:        0 bytes
  1304 ;; Hardware stack levels used: 1
  1305 ;; Hardware stack levels required when called: 8
  1306 ;; This function calls:
  1307 ;;		_INT0_ISR
  1308 ;;		_INT1_ISR
  1309 ;;		_INT2_ISR
  1310 ;;		_RB4_ISR
  1311 ;;		_RB5_ISR
  1312 ;;		_RB6_ISR
  1313 ;;		_RB7_ISR
  1314 ;; This function is called by:
  1315 ;;		_InterruptManagerLow
  1316 ;; This function uses a non-reentrant model
  1317 ;;
  1318                           
  1319                           	psect	text5
  1320   001006                     __ptext5:
  1321                           	callstack 0
  1322   001006                     _InterruptCheck:
  1323                           	callstack 18
  1324   001006                     
  1325                           ;MCAL_Layer/Interrupt/mcal_interrupt_manager.c: 32:     if((1 == INTCONbits.INT0IE)&&(1 
      +                          == INTCONbits.INT0IF)){
  1326   001006  A8F2               	btfss	242,4,c	;volatile
  1327   001008  EF08  F008         	goto	i1u334_21
  1328   00100C  EF0A  F008         	goto	i1u334_20
  1329   001010                     i1u334_21:
  1330   001010  EF13  F008         	goto	i1l689
  1331   001014                     i1u334_20:
  1332   001014  A2F2               	btfss	242,1,c	;volatile
  1333   001016  EF0F  F008         	goto	i1u335_21
  1334   00101A  EF11  F008         	goto	i1u335_20
  1335   00101E                     i1u335_21:
  1336   00101E  EF13  F008         	goto	i1l689
  1337   001022                     i1u335_20:
  1338   001022                     
  1339                           ;MCAL_Layer/Interrupt/mcal_interrupt_manager.c: 33:         INT0_ISR();
  1340   001022  EC70  F010         	call	_INT0_ISR	;wreg free
  1341   001026                     i1l689:
  1342                           
  1343                           ;MCAL_Layer/Interrupt/mcal_interrupt_manager.c: 37:     if((1 == INTCON3bits.INT1IE)&&(1
      +                           == INTCON3bits.INT1IF)){
  1344   001026  A6F0               	btfss	240,3,c	;volatile
  1345   001028  EF18  F008         	goto	i1u336_21
  1346   00102C  EF1A  F008         	goto	i1u336_20
  1347   001030                     i1u336_21:
  1348   001030  EF23  F008         	goto	i1l691
  1349   001034                     i1u336_20:
  1350   001034  A0F0               	btfss	240,0,c	;volatile
  1351   001036  EF1F  F008         	goto	i1u337_21
  1352   00103A  EF21  F008         	goto	i1u337_20
  1353   00103E                     i1u337_21:
  1354   00103E  EF23  F008         	goto	i1l691
  1355   001042                     i1u337_20:
  1356   001042                     
  1357                           ;MCAL_Layer/Interrupt/mcal_interrupt_manager.c: 38:         INT1_ISR();
  1358   001042  EC59  F010         	call	_INT1_ISR	;wreg free
  1359   001046                     i1l691:
  1360                           
  1361                           ;MCAL_Layer/Interrupt/mcal_interrupt_manager.c: 42:     if((1 == INTCON3bits.INT2IE)&&(1
      +                           == INTCON3bits.INT2IF)){
  1362   001046  A8F0               	btfss	240,4,c	;volatile
  1363   001048  EF28  F008         	goto	i1u338_21
  1364   00104C  EF2A  F008         	goto	i1u338_20
  1365   001050                     i1u338_21:
  1366   001050  EF33  F008         	goto	i1l693
  1367   001054                     i1u338_20:
  1368   001054  A2F0               	btfss	240,1,c	;volatile
  1369   001056  EF2F  F008         	goto	i1u339_21
  1370   00105A  EF31  F008         	goto	i1u339_20
  1371   00105E                     i1u339_21:
  1372   00105E  EF33  F008         	goto	i1l693
  1373   001062                     i1u339_20:
  1374   001062                     
  1375                           ;MCAL_Layer/Interrupt/mcal_interrupt_manager.c: 43:         INT2_ISR();
  1376   001062  EC42  F010         	call	_INT2_ISR	;wreg free
  1377   001066                     i1l693:
  1378                           
  1379                           ;MCAL_Layer/Interrupt/mcal_interrupt_manager.c: 47:     if((1 == INTCONbits.RBIE)&&(1 ==
      +                           INTCONbits.RBIF)&&(PORTBbits.RB4 == GPIO_HIGH) && (RB4_Flag ==1)){
  1380   001066  A6F2               	btfss	242,3,c	;volatile
  1381   001068  EF38  F008         	goto	i1u340_21
  1382   00106C  EF3A  F008         	goto	i1u340_20
  1383   001070                     i1u340_21:
  1384   001070  EF55  F008         	goto	i1l695
  1385   001074                     i1u340_20:
  1386   001074  A0F2               	btfss	242,0,c	;volatile
  1387   001076  EF3F  F008         	goto	i1u341_21
  1388   00107A  EF41  F008         	goto	i1u341_20
  1389   00107E                     i1u341_21:
  1390   00107E  EF55  F008         	goto	i1l695
  1391   001082                     i1u341_20:
  1392   001082  A881               	btfss	129,4,c	;volatile
  1393   001084  EF46  F008         	goto	i1u342_21
  1394   001088  EF48  F008         	goto	i1u342_20
  1395   00108C                     i1u342_21:
  1396   00108C  EF55  F008         	goto	i1l695
  1397   001090                     i1u342_20:
  1398   001090  0418               	decf	_RB4_Flag^0,w,c	;volatile
  1399   001092  A4D8               	btfss	status,2,c
  1400   001094  EF4E  F008         	goto	i1u343_21
  1401   001098  EF50  F008         	goto	i1u343_20
  1402   00109C                     i1u343_21:
  1403   00109C  EF55  F008         	goto	i1l695
  1404   0010A0                     i1u343_20:
  1405   0010A0                     
  1406                           ;MCAL_Layer/Interrupt/mcal_interrupt_manager.c: 48:         RB4_Flag = 0;
  1407   0010A0  0E00               	movlw	0
  1408   0010A2  6E18               	movwf	_RB4_Flag^0,c	;volatile
  1409   0010A4                     
  1410                           ;MCAL_Layer/Interrupt/mcal_interrupt_manager.c: 49:         RB4_ISR(1);
  1411   0010A4  0E01               	movlw	1
  1412   0010A6  EC56  F00E         	call	_RB4_ISR
  1413   0010AA                     i1l695:
  1414                           
  1415                           ;MCAL_Layer/Interrupt/mcal_interrupt_manager.c: 52:     if((1 == INTCONbits.RBIE)&&(1 ==
      +                           INTCONbits.RBIF)&&(PORTBbits.RB4 == GPIO_LOW)&& (RB4_Flag ==0)){
  1416   0010AA  A6F2               	btfss	242,3,c	;volatile
  1417   0010AC  EF5A  F008         	goto	i1u344_21
  1418   0010B0  EF5C  F008         	goto	i1u344_20
  1419   0010B4                     i1u344_21:
  1420   0010B4  EF77  F008         	goto	i1l697
  1421   0010B8                     i1u344_20:
  1422   0010B8  A0F2               	btfss	242,0,c	;volatile
  1423   0010BA  EF61  F008         	goto	i1u345_21
  1424   0010BE  EF63  F008         	goto	i1u345_20
  1425   0010C2                     i1u345_21:
  1426   0010C2  EF77  F008         	goto	i1l697
  1427   0010C6                     i1u345_20:
  1428   0010C6  B881               	btfsc	129,4,c	;volatile
  1429   0010C8  EF68  F008         	goto	i1u346_21
  1430   0010CC  EF6A  F008         	goto	i1u346_20
  1431   0010D0                     i1u346_21:
  1432   0010D0  EF77  F008         	goto	i1l697
  1433   0010D4                     i1u346_20:
  1434   0010D4  5018               	movf	_RB4_Flag^0,w,c	;volatile
  1435   0010D6  A4D8               	btfss	status,2,c
  1436   0010D8  EF70  F008         	goto	i1u347_21
  1437   0010DC  EF72  F008         	goto	i1u347_20
  1438   0010E0                     i1u347_21:
  1439   0010E0  EF77  F008         	goto	i1l697
  1440   0010E4                     i1u347_20:
  1441   0010E4                     
  1442                           ;MCAL_Layer/Interrupt/mcal_interrupt_manager.c: 53:         RB4_Flag = 1;
  1443   0010E4  0E01               	movlw	1
  1444   0010E6  6E18               	movwf	_RB4_Flag^0,c	;volatile
  1445   0010E8                     
  1446                           ;MCAL_Layer/Interrupt/mcal_interrupt_manager.c: 54:         RB4_ISR(0);
  1447   0010E8  0E00               	movlw	0
  1448   0010EA  EC56  F00E         	call	_RB4_ISR
  1449   0010EE                     i1l697:
  1450                           
  1451                           ;MCAL_Layer/Interrupt/mcal_interrupt_manager.c: 58:     if((1 == INTCONbits.RBIE)&&(1 ==
      +                           INTCONbits.RBIF)&&(PORTBbits.RB5 == GPIO_HIGH) && (RB5_Flag ==1)){
  1452   0010EE  A6F2               	btfss	242,3,c	;volatile
  1453   0010F0  EF7C  F008         	goto	i1u348_21
  1454   0010F4  EF7E  F008         	goto	i1u348_20
  1455   0010F8                     i1u348_21:
  1456   0010F8  EF99  F008         	goto	i1l699
  1457   0010FC                     i1u348_20:
  1458   0010FC  A0F2               	btfss	242,0,c	;volatile
  1459   0010FE  EF83  F008         	goto	i1u349_21
  1460   001102  EF85  F008         	goto	i1u349_20
  1461   001106                     i1u349_21:
  1462   001106  EF99  F008         	goto	i1l699
  1463   00110A                     i1u349_20:
  1464   00110A  AA81               	btfss	129,5,c	;volatile
  1465   00110C  EF8A  F008         	goto	i1u350_21
  1466   001110  EF8C  F008         	goto	i1u350_20
  1467   001114                     i1u350_21:
  1468   001114  EF99  F008         	goto	i1l699
  1469   001118                     i1u350_20:
  1470   001118  0417               	decf	_RB5_Flag^0,w,c	;volatile
  1471   00111A  A4D8               	btfss	status,2,c
  1472   00111C  EF92  F008         	goto	i1u351_21
  1473   001120  EF94  F008         	goto	i1u351_20
  1474   001124                     i1u351_21:
  1475   001124  EF99  F008         	goto	i1l699
  1476   001128                     i1u351_20:
  1477   001128                     
  1478                           ;MCAL_Layer/Interrupt/mcal_interrupt_manager.c: 59:         RB5_Flag = 0;
  1479   001128  0E00               	movlw	0
  1480   00112A  6E17               	movwf	_RB5_Flag^0,c	;volatile
  1481   00112C                     
  1482                           ;MCAL_Layer/Interrupt/mcal_interrupt_manager.c: 60:         RB5_ISR(1);
  1483   00112C  0E01               	movlw	1
  1484   00112E  EC17  F00E         	call	_RB5_ISR
  1485   001132                     i1l699:
  1486                           
  1487                           ;MCAL_Layer/Interrupt/mcal_interrupt_manager.c: 63:     if((1 == INTCONbits.RBIE)&&(1 ==
      +                           INTCONbits.RBIF)&&(PORTBbits.RB5 == GPIO_LOW)&& (RB5_Flag ==0)){
  1488   001132  A6F2               	btfss	242,3,c	;volatile
  1489   001134  EF9E  F008         	goto	i1u352_21
  1490   001138  EFA0  F008         	goto	i1u352_20
  1491   00113C                     i1u352_21:
  1492   00113C  EFBB  F008         	goto	i1l701
  1493   001140                     i1u352_20:
  1494   001140  A0F2               	btfss	242,0,c	;volatile
  1495   001142  EFA5  F008         	goto	i1u353_21
  1496   001146  EFA7  F008         	goto	i1u353_20
  1497   00114A                     i1u353_21:
  1498   00114A  EFBB  F008         	goto	i1l701
  1499   00114E                     i1u353_20:
  1500   00114E  BA81               	btfsc	129,5,c	;volatile
  1501   001150  EFAC  F008         	goto	i1u354_21
  1502   001154  EFAE  F008         	goto	i1u354_20
  1503   001158                     i1u354_21:
  1504   001158  EFBB  F008         	goto	i1l701
  1505   00115C                     i1u354_20:
  1506   00115C  5017               	movf	_RB5_Flag^0,w,c	;volatile
  1507   00115E  A4D8               	btfss	status,2,c
  1508   001160  EFB4  F008         	goto	i1u355_21
  1509   001164  EFB6  F008         	goto	i1u355_20
  1510   001168                     i1u355_21:
  1511   001168  EFBB  F008         	goto	i1l701
  1512   00116C                     i1u355_20:
  1513   00116C                     
  1514                           ;MCAL_Layer/Interrupt/mcal_interrupt_manager.c: 64:         RB5_Flag = 1;
  1515   00116C  0E01               	movlw	1
  1516   00116E  6E17               	movwf	_RB5_Flag^0,c	;volatile
  1517   001170                     
  1518                           ;MCAL_Layer/Interrupt/mcal_interrupt_manager.c: 65:         RB5_ISR(0);
  1519   001170  0E00               	movlw	0
  1520   001172  EC17  F00E         	call	_RB5_ISR
  1521   001176                     i1l701:
  1522                           
  1523                           ;MCAL_Layer/Interrupt/mcal_interrupt_manager.c: 69:     if((1 == INTCONbits.RBIE)&&(1 ==
      +                           INTCONbits.RBIF)&&(PORTBbits.RB6 == GPIO_HIGH) && (RB6_Flag ==1)){
  1524   001176  A6F2               	btfss	242,3,c	;volatile
  1525   001178  EFC0  F008         	goto	i1u356_21
  1526   00117C  EFC2  F008         	goto	i1u356_20
  1527   001180                     i1u356_21:
  1528   001180  EFDD  F008         	goto	i1l703
  1529   001184                     i1u356_20:
  1530   001184  A0F2               	btfss	242,0,c	;volatile
  1531   001186  EFC7  F008         	goto	i1u357_21
  1532   00118A  EFC9  F008         	goto	i1u357_20
  1533   00118E                     i1u357_21:
  1534   00118E  EFDD  F008         	goto	i1l703
  1535   001192                     i1u357_20:
  1536   001192  AC81               	btfss	129,6,c	;volatile
  1537   001194  EFCE  F008         	goto	i1u358_21
  1538   001198  EFD0  F008         	goto	i1u358_20
  1539   00119C                     i1u358_21:
  1540   00119C  EFDD  F008         	goto	i1l703
  1541   0011A0                     i1u358_20:
  1542   0011A0  0416               	decf	_RB6_Flag^0,w,c	;volatile
  1543   0011A2  A4D8               	btfss	status,2,c
  1544   0011A4  EFD6  F008         	goto	i1u359_21
  1545   0011A8  EFD8  F008         	goto	i1u359_20
  1546   0011AC                     i1u359_21:
  1547   0011AC  EFDD  F008         	goto	i1l703
  1548   0011B0                     i1u359_20:
  1549   0011B0                     
  1550                           ;MCAL_Layer/Interrupt/mcal_interrupt_manager.c: 70:         RB6_Flag = 0;
  1551   0011B0  0E00               	movlw	0
  1552   0011B2  6E16               	movwf	_RB6_Flag^0,c	;volatile
  1553   0011B4                     
  1554                           ;MCAL_Layer/Interrupt/mcal_interrupt_manager.c: 71:         RB6_ISR(1);
  1555   0011B4  0E01               	movlw	1
  1556   0011B6  ECD8  F00D         	call	_RB6_ISR
  1557   0011BA                     i1l703:
  1558                           
  1559                           ;MCAL_Layer/Interrupt/mcal_interrupt_manager.c: 74:     if((1 == INTCONbits.RBIE)&&(1 ==
      +                           INTCONbits.RBIF)&&(PORTBbits.RB6 == GPIO_LOW)&& (RB6_Flag ==0)){
  1560   0011BA  A6F2               	btfss	242,3,c	;volatile
  1561   0011BC  EFE2  F008         	goto	i1u360_21
  1562   0011C0  EFE4  F008         	goto	i1u360_20
  1563   0011C4                     i1u360_21:
  1564   0011C4  EFFF  F008         	goto	i1l705
  1565   0011C8                     i1u360_20:
  1566   0011C8  A0F2               	btfss	242,0,c	;volatile
  1567   0011CA  EFE9  F008         	goto	i1u361_21
  1568   0011CE  EFEB  F008         	goto	i1u361_20
  1569   0011D2                     i1u361_21:
  1570   0011D2  EFFF  F008         	goto	i1l705
  1571   0011D6                     i1u361_20:
  1572   0011D6  BC81               	btfsc	129,6,c	;volatile
  1573   0011D8  EFF0  F008         	goto	i1u362_21
  1574   0011DC  EFF2  F008         	goto	i1u362_20
  1575   0011E0                     i1u362_21:
  1576   0011E0  EFFF  F008         	goto	i1l705
  1577   0011E4                     i1u362_20:
  1578   0011E4  5016               	movf	_RB6_Flag^0,w,c	;volatile
  1579   0011E6  A4D8               	btfss	status,2,c
  1580   0011E8  EFF8  F008         	goto	i1u363_21
  1581   0011EC  EFFA  F008         	goto	i1u363_20
  1582   0011F0                     i1u363_21:
  1583   0011F0  EFFF  F008         	goto	i1l705
  1584   0011F4                     i1u363_20:
  1585   0011F4                     
  1586                           ;MCAL_Layer/Interrupt/mcal_interrupt_manager.c: 75:         RB6_Flag = 1;
  1587   0011F4  0E01               	movlw	1
  1588   0011F6  6E16               	movwf	_RB6_Flag^0,c	;volatile
  1589   0011F8                     
  1590                           ;MCAL_Layer/Interrupt/mcal_interrupt_manager.c: 76:         RB6_ISR(0);
  1591   0011F8  0E00               	movlw	0
  1592   0011FA  ECD8  F00D         	call	_RB6_ISR
  1593   0011FE                     i1l705:
  1594                           
  1595                           ;MCAL_Layer/Interrupt/mcal_interrupt_manager.c: 80:     if((1 == INTCONbits.RBIE)&&(1 ==
      +                           INTCONbits.RBIF)&&(PORTBbits.RB7 == GPIO_HIGH) && (RB7_Flag ==1)){
  1596   0011FE  A6F2               	btfss	242,3,c	;volatile
  1597   001200  EF04  F009         	goto	i1u364_21
  1598   001204  EF06  F009         	goto	i1u364_20
  1599   001208                     i1u364_21:
  1600   001208  EF21  F009         	goto	i1l707
  1601   00120C                     i1u364_20:
  1602   00120C  A0F2               	btfss	242,0,c	;volatile
  1603   00120E  EF0B  F009         	goto	i1u365_21
  1604   001212  EF0D  F009         	goto	i1u365_20
  1605   001216                     i1u365_21:
  1606   001216  EF21  F009         	goto	i1l707
  1607   00121A                     i1u365_20:
  1608   00121A  AE81               	btfss	129,7,c	;volatile
  1609   00121C  EF12  F009         	goto	i1u366_21
  1610   001220  EF14  F009         	goto	i1u366_20
  1611   001224                     i1u366_21:
  1612   001224  EF21  F009         	goto	i1l707
  1613   001228                     i1u366_20:
  1614   001228  0415               	decf	_RB7_Flag^0,w,c	;volatile
  1615   00122A  A4D8               	btfss	status,2,c
  1616   00122C  EF1A  F009         	goto	i1u367_21
  1617   001230  EF1C  F009         	goto	i1u367_20
  1618   001234                     i1u367_21:
  1619   001234  EF21  F009         	goto	i1l707
  1620   001238                     i1u367_20:
  1621   001238                     
  1622                           ;MCAL_Layer/Interrupt/mcal_interrupt_manager.c: 81:         RB7_Flag = 0;
  1623   001238  0E00               	movlw	0
  1624   00123A  6E15               	movwf	_RB7_Flag^0,c	;volatile
  1625   00123C                     
  1626                           ;MCAL_Layer/Interrupt/mcal_interrupt_manager.c: 82:         RB7_ISR(1);
  1627   00123C  0E01               	movlw	1
  1628   00123E  EC99  F00D         	call	_RB7_ISR
  1629   001242                     i1l707:
  1630                           
  1631                           ;MCAL_Layer/Interrupt/mcal_interrupt_manager.c: 85:     if((1 == INTCONbits.RBIE)&&(1 ==
      +                           INTCONbits.RBIF)&&(PORTBbits.RB7 == GPIO_LOW)&& (RB7_Flag ==0)){
  1632   001242  A6F2               	btfss	242,3,c	;volatile
  1633   001244  EF26  F009         	goto	i1u368_21
  1634   001248  EF28  F009         	goto	i1u368_20
  1635   00124C                     i1u368_21:
  1636   00124C  EF43  F009         	goto	i1l710
  1637   001250                     i1u368_20:
  1638   001250  A0F2               	btfss	242,0,c	;volatile
  1639   001252  EF2D  F009         	goto	i1u369_21
  1640   001256  EF2F  F009         	goto	i1u369_20
  1641   00125A                     i1u369_21:
  1642   00125A  EF43  F009         	goto	i1l710
  1643   00125E                     i1u369_20:
  1644   00125E  BE81               	btfsc	129,7,c	;volatile
  1645   001260  EF34  F009         	goto	i1u370_21
  1646   001264  EF36  F009         	goto	i1u370_20
  1647   001268                     i1u370_21:
  1648   001268  EF43  F009         	goto	i1l710
  1649   00126C                     i1u370_20:
  1650   00126C  5015               	movf	_RB7_Flag^0,w,c	;volatile
  1651   00126E  A4D8               	btfss	status,2,c
  1652   001270  EF3C  F009         	goto	i1u371_21
  1653   001274  EF3E  F009         	goto	i1u371_20
  1654   001278                     i1u371_21:
  1655   001278  EF43  F009         	goto	i1l710
  1656   00127C                     i1u371_20:
  1657   00127C                     
  1658                           ;MCAL_Layer/Interrupt/mcal_interrupt_manager.c: 86:         RB7_Flag = 1;
  1659   00127C  0E01               	movlw	1
  1660   00127E  6E15               	movwf	_RB7_Flag^0,c	;volatile
  1661   001280                     
  1662                           ;MCAL_Layer/Interrupt/mcal_interrupt_manager.c: 87:         RB7_ISR(0);
  1663   001280  0E00               	movlw	0
  1664   001282  EC99  F00D         	call	_RB7_ISR
  1665   001286                     i1l710:
  1666   001286  0012               	return		;funcret
  1667   001288                     __end_of_InterruptCheck:
  1668                           	callstack 0
  1669                           
  1670 ;; *************** function _RB7_ISR *****************
  1671 ;; Defined at:
  1672 ;;		line 605 in file "mcal_external_interrupt.c"
  1673 ;; Parameters:    Size  Location     Type
  1674 ;;  RB7_Source      1    wreg     unsigned char 
  1675 ;; Auto vars:     Size  Location     Type
  1676 ;;  RB7_Source      1   26[COMRAM] unsigned char 
  1677 ;; Return value:  Size  Location     Type
  1678 ;;                  1    wreg      void 
  1679 ;; Registers used:
  1680 ;;		wreg, fsr2l, fsr2h, status,2, status,0, pcl, pclath, pclatu, tosl, prodl, prodh, cstack
  1681 ;; Tracked objects:
  1682 ;;		On entry : 0/0
  1683 ;;		On exit  : 0/0
  1684 ;;		Unchanged: 0/0
  1685 ;; Data sizes:     COMRAM   BANK0   BANK1   BANK2   BANK3   BANK4   BANK5   BANK6   BANK7   BANK8   BANK9  BANK10  BANK1
      +1  BANK12  BANK13  BANK14  BANK15
  1686 ;;      Params:         0       0       0       0       0       0       0       0       0       0       0       0       
      +0       0       0       0       0
  1687 ;;      Locals:         1       0       0       0       0       0       0       0       0       0       0       0       
      +0       0       0       0       0
  1688 ;;      Temps:          0       0       0       0       0       0       0       0       0       0       0       0       
      +0       0       0       0       0
  1689 ;;      Totals:         1       0       0       0       0       0       0       0       0       0       0       0       
      +0       0       0       0       0
  1690 ;;Total ram usage:        1 bytes
  1691 ;; Hardware stack levels used: 1
  1692 ;; Hardware stack levels required when called: 7
  1693 ;; This function calls:
  1694 ;;		NULL
  1695 ;;		_RB4_HIGH_Int_APP_ISR
  1696 ;;		_RB4_LOW_Int_APP_ISR
  1697 ;;		_RB5_HIGH_Int_APP_ISR
  1698 ;;		_RB5_LOW_Int_APP_ISR
  1699 ;;		_RB6_HIGH_Int_APP_ISR
  1700 ;;		_RB6_LOW_Int_APP_ISR
  1701 ;;		_RB7_HIGH_Int_APP_ISR
  1702 ;;		_RB7_LOW_Int_APP_ISR
  1703 ;; This function is called by:
  1704 ;;		_InterruptCheck
  1705 ;; This function uses a non-reentrant model
  1706 ;;
  1707                           
  1708                           	psect	text6
  1709   001B32                     __ptext6:
  1710                           	callstack 0
  1711   001B32                     _RB7_ISR:
  1712                           	callstack 18
  1713                           
  1714                           ;incstack = 0
  1715                           ;RB7_ISR@RB7_Source stored from wreg
  1716   001B32  6E49               	movwf	RB7_ISR@RB7_Source^0,c
  1717   001B34                     
  1718                           ;mcal_external_interrupt.c: 607:     (INTCONbits.RBIF = 0);
  1719   001B34  90F2               	bcf	242,0,c	;volatile
  1720   001B36                     
  1721                           ;mcal_external_interrupt.c: 611:     if(0 == RB7_Source){
  1722   001B36  5049               	movf	RB7_ISR@RB7_Source^0,w,c
  1723   001B38  A4D8               	btfss	status,2,c
  1724   001B3A  EFA1  F00D         	goto	i1u292_21
  1725   001B3E  EFA3  F00D         	goto	i1u292_20
  1726   001B42                     i1u292_21:
  1727   001B42  EFBA  F00D         	goto	i1l3141
  1728   001B46                     i1u292_20:
  1729   001B46                     
  1730                           ;mcal_external_interrupt.c: 612:         if(RB7_InterruptHandler_LOW){RB7_InterruptHandl
      +                          er_LOW();}
  1731   001B46  5057               	movf	_RB7_InterruptHandler_LOW^0,w,c
  1732   001B48  1058               	iorwf	(_RB7_InterruptHandler_LOW+1)^0,w,c
  1733   001B4A  B4D8               	btfsc	status,2,c
  1734   001B4C  EFAA  F00D         	goto	i1u293_21
  1735   001B50  EFAC  F00D         	goto	i1u293_20
  1736   001B54                     i1u293_21:
  1737   001B54  EFD7  F00D         	goto	i1l645
  1738   001B58                     i1u293_20:
  1739   001B58  D802               	call	i1u294_28
  1740   001B5A  EFB8  F00D         	goto	i1u294_29
  1741   001B5E                     i1u294_28:
  1742   001B5E  0005               	push	
  1743   001B60  6EFA               	movwf	pclath,c
  1744   001B62  5057               	movf	_RB7_InterruptHandler_LOW^0,w,c
  1745   001B64  6EFD               	movwf	tosl,c
  1746   001B66  5058               	movf	(_RB7_InterruptHandler_LOW+1)^0,w,c
  1747   001B68  6EFE               	movwf	tosh,c
  1748   001B6A  6AFF               	clrf	tosu,c
  1749   001B6C  50FA               	movf	pclath,w,c
  1750   001B6E  0012               	return		;indir
  1751   001B70                     i1u294_29:
  1752   001B70  EFD7  F00D         	goto	i1l645
  1753   001B74                     i1l3141:
  1754   001B74  0449               	decf	RB7_ISR@RB7_Source^0,w,c
  1755   001B76  A4D8               	btfss	status,2,c
  1756   001B78  EFC0  F00D         	goto	i1u295_21
  1757   001B7C  EFC2  F00D         	goto	i1u295_20
  1758   001B80                     i1u295_21:
  1759   001B80  EFD7  F00D         	goto	i1l645
  1760   001B84                     i1u295_20:
  1761   001B84                     
  1762                           ;mcal_external_interrupt.c: 616:         if(RB7_InterruptHandler_HIGH){RB7_InterruptHand
      +                          ler_HIGH();}
  1763   001B84  5059               	movf	_RB7_InterruptHandler_HIGH^0,w,c
  1764   001B86  105A               	iorwf	(_RB7_InterruptHandler_HIGH+1)^0,w,c
  1765   001B88  B4D8               	btfsc	status,2,c
  1766   001B8A  EFC9  F00D         	goto	i1u296_21
  1767   001B8E  EFCB  F00D         	goto	i1u296_20
  1768   001B92                     i1u296_21:
  1769   001B92  EFD7  F00D         	goto	i1l645
  1770   001B96                     i1u296_20:
  1771   001B96  D802               	call	i1u297_28
  1772   001B98  EFD7  F00D         	goto	i1u297_29
  1773   001B9C                     i1u297_28:
  1774   001B9C  0005               	push	
  1775   001B9E  6EFA               	movwf	pclath,c
  1776   001BA0  5059               	movf	_RB7_InterruptHandler_HIGH^0,w,c
  1777   001BA2  6EFD               	movwf	tosl,c
  1778   001BA4  505A               	movf	(_RB7_InterruptHandler_HIGH+1)^0,w,c
  1779   001BA6  6EFE               	movwf	tosh,c
  1780   001BA8  6AFF               	clrf	tosu,c
  1781   001BAA  50FA               	movf	pclath,w,c
  1782   001BAC  0012               	return		;indir
  1783   001BAE                     i1u297_29:
  1784   001BAE                     i1l645:
  1785   001BAE  0012               	return		;funcret
  1786   001BB0                     __end_of_RB7_ISR:
  1787                           	callstack 0
  1788                           
  1789 ;; *************** function _RB6_ISR *****************
  1790 ;; Defined at:
  1791 ;;		line 587 in file "mcal_external_interrupt.c"
  1792 ;; Parameters:    Size  Location     Type
  1793 ;;  RB6_Source      1    wreg     unsigned char 
  1794 ;; Auto vars:     Size  Location     Type
  1795 ;;  RB6_Source      1   26[COMRAM] unsigned char 
  1796 ;; Return value:  Size  Location     Type
  1797 ;;                  1    wreg      void 
  1798 ;; Registers used:
  1799 ;;		wreg, fsr2l, fsr2h, status,2, status,0, pcl, pclath, pclatu, tosl, prodl, prodh, cstack
  1800 ;; Tracked objects:
  1801 ;;		On entry : 0/0
  1802 ;;		On exit  : 0/0
  1803 ;;		Unchanged: 0/0
  1804 ;; Data sizes:     COMRAM   BANK0   BANK1   BANK2   BANK3   BANK4   BANK5   BANK6   BANK7   BANK8   BANK9  BANK10  BANK1
      +1  BANK12  BANK13  BANK14  BANK15
  1805 ;;      Params:         0       0       0       0       0       0       0       0       0       0       0       0       
      +0       0       0       0       0
  1806 ;;      Locals:         1       0       0       0       0       0       0       0       0       0       0       0       
      +0       0       0       0       0
  1807 ;;      Temps:          0       0       0       0       0       0       0       0       0       0       0       0       
      +0       0       0       0       0
  1808 ;;      Totals:         1       0       0       0       0       0       0       0       0       0       0       0       
      +0       0       0       0       0
  1809 ;;Total ram usage:        1 bytes
  1810 ;; Hardware stack levels used: 1
  1811 ;; Hardware stack levels required when called: 7
  1812 ;; This function calls:
  1813 ;;		NULL
  1814 ;;		_RB4_HIGH_Int_APP_ISR
  1815 ;;		_RB4_LOW_Int_APP_ISR
  1816 ;;		_RB5_HIGH_Int_APP_ISR
  1817 ;;		_RB5_LOW_Int_APP_ISR
  1818 ;;		_RB6_HIGH_Int_APP_ISR
  1819 ;;		_RB6_LOW_Int_APP_ISR
  1820 ;;		_RB7_HIGH_Int_APP_ISR
  1821 ;;		_RB7_LOW_Int_APP_ISR
  1822 ;; This function is called by:
  1823 ;;		_InterruptCheck
  1824 ;; This function uses a non-reentrant model
  1825 ;;
  1826                           
  1827                           	psect	text7
  1828   001BB0                     __ptext7:
  1829                           	callstack 0
  1830   001BB0                     _RB6_ISR:
  1831                           	callstack 18
  1832                           
  1833                           ;incstack = 0
  1834                           ;RB6_ISR@RB6_Source stored from wreg
  1835   001BB0  6E49               	movwf	RB6_ISR@RB6_Source^0,c
  1836   001BB2                     
  1837                           ;mcal_external_interrupt.c: 589:     (INTCONbits.RBIF = 0);
  1838   001BB2  90F2               	bcf	242,0,c	;volatile
  1839   001BB4                     
  1840                           ;mcal_external_interrupt.c: 593:     if(0 == RB6_Source){
  1841   001BB4  5049               	movf	RB6_ISR@RB6_Source^0,w,c
  1842   001BB6  A4D8               	btfss	status,2,c
  1843   001BB8  EFE0  F00D         	goto	i1u286_21
  1844   001BBC  EFE2  F00D         	goto	i1u286_20
  1845   001BC0                     i1u286_21:
  1846   001BC0  EFF9  F00D         	goto	i1l3127
  1847   001BC4                     i1u286_20:
  1848   001BC4                     
  1849                           ;mcal_external_interrupt.c: 594:         if(RB6_InterruptHandler_LOW){RB6_InterruptHandl
      +                          er_LOW();}
  1850   001BC4  505B               	movf	_RB6_InterruptHandler_LOW^0,w,c
  1851   001BC6  105C               	iorwf	(_RB6_InterruptHandler_LOW+1)^0,w,c
  1852   001BC8  B4D8               	btfsc	status,2,c
  1853   001BCA  EFE9  F00D         	goto	i1u287_21
  1854   001BCE  EFEB  F00D         	goto	i1u287_20
  1855   001BD2                     i1u287_21:
  1856   001BD2  EF16  F00E         	goto	i1l634
  1857   001BD6                     i1u287_20:
  1858   001BD6  D802               	call	i1u288_28
  1859   001BD8  EFF7  F00D         	goto	i1u288_29
  1860   001BDC                     i1u288_28:
  1861   001BDC  0005               	push	
  1862   001BDE  6EFA               	movwf	pclath,c
  1863   001BE0  505B               	movf	_RB6_InterruptHandler_LOW^0,w,c
  1864   001BE2  6EFD               	movwf	tosl,c
  1865   001BE4  505C               	movf	(_RB6_InterruptHandler_LOW+1)^0,w,c
  1866   001BE6  6EFE               	movwf	tosh,c
  1867   001BE8  6AFF               	clrf	tosu,c
  1868   001BEA  50FA               	movf	pclath,w,c
  1869   001BEC  0012               	return		;indir
  1870   001BEE                     i1u288_29:
  1871   001BEE  EF16  F00E         	goto	i1l634
  1872   001BF2                     i1l3127:
  1873   001BF2  0449               	decf	RB6_ISR@RB6_Source^0,w,c
  1874   001BF4  A4D8               	btfss	status,2,c
  1875   001BF6  EFFF  F00D         	goto	i1u289_21
  1876   001BFA  EF01  F00E         	goto	i1u289_20
  1877   001BFE                     i1u289_21:
  1878   001BFE  EF16  F00E         	goto	i1l634
  1879   001C02                     i1u289_20:
  1880   001C02                     
  1881                           ;mcal_external_interrupt.c: 598:         if(RB6_InterruptHandler_HIGH){RB6_InterruptHand
      +                          ler_HIGH();}
  1882   001C02  505D               	movf	_RB6_InterruptHandler_HIGH^0,w,c
  1883   001C04  105E               	iorwf	(_RB6_InterruptHandler_HIGH+1)^0,w,c
  1884   001C06  B4D8               	btfsc	status,2,c
  1885   001C08  EF08  F00E         	goto	i1u290_21
  1886   001C0C  EF0A  F00E         	goto	i1u290_20
  1887   001C10                     i1u290_21:
  1888   001C10  EF16  F00E         	goto	i1l634
  1889   001C14                     i1u290_20:
  1890   001C14  D802               	call	i1u291_28
  1891   001C16  EF16  F00E         	goto	i1u291_29
  1892   001C1A                     i1u291_28:
  1893   001C1A  0005               	push	
  1894   001C1C  6EFA               	movwf	pclath,c
  1895   001C1E  505D               	movf	_RB6_InterruptHandler_HIGH^0,w,c
  1896   001C20  6EFD               	movwf	tosl,c
  1897   001C22  505E               	movf	(_RB6_InterruptHandler_HIGH+1)^0,w,c
  1898   001C24  6EFE               	movwf	tosh,c
  1899   001C26  6AFF               	clrf	tosu,c
  1900   001C28  50FA               	movf	pclath,w,c
  1901   001C2A  0012               	return		;indir
  1902   001C2C                     i1u291_29:
  1903   001C2C                     i1l634:
  1904   001C2C  0012               	return		;funcret
  1905   001C2E                     __end_of_RB6_ISR:
  1906                           	callstack 0
  1907                           
  1908 ;; *************** function _RB5_ISR *****************
  1909 ;; Defined at:
  1910 ;;		line 569 in file "mcal_external_interrupt.c"
  1911 ;; Parameters:    Size  Location     Type
  1912 ;;  RB5_Source      1    wreg     unsigned char 
  1913 ;; Auto vars:     Size  Location     Type
  1914 ;;  RB5_Source      1   26[COMRAM] unsigned char 
  1915 ;; Return value:  Size  Location     Type
  1916 ;;                  1    wreg      void 
  1917 ;; Registers used:
  1918 ;;		wreg, fsr2l, fsr2h, status,2, status,0, pcl, pclath, pclatu, tosl, prodl, prodh, cstack
  1919 ;; Tracked objects:
  1920 ;;		On entry : 0/0
  1921 ;;		On exit  : 0/0
  1922 ;;		Unchanged: 0/0
  1923 ;; Data sizes:     COMRAM   BANK0   BANK1   BANK2   BANK3   BANK4   BANK5   BANK6   BANK7   BANK8   BANK9  BANK10  BANK1
      +1  BANK12  BANK13  BANK14  BANK15
  1924 ;;      Params:         0       0       0       0       0       0       0       0       0       0       0       0       
      +0       0       0       0       0
  1925 ;;      Locals:         1       0       0       0       0       0       0       0       0       0       0       0       
      +0       0       0       0       0
  1926 ;;      Temps:          0       0       0       0       0       0       0       0       0       0       0       0       
      +0       0       0       0       0
  1927 ;;      Totals:         1       0       0       0       0       0       0       0       0       0       0       0       
      +0       0       0       0       0
  1928 ;;Total ram usage:        1 bytes
  1929 ;; Hardware stack levels used: 1
  1930 ;; Hardware stack levels required when called: 7
  1931 ;; This function calls:
  1932 ;;		NULL
  1933 ;;		_RB4_HIGH_Int_APP_ISR
  1934 ;;		_RB4_LOW_Int_APP_ISR
  1935 ;;		_RB5_HIGH_Int_APP_ISR
  1936 ;;		_RB5_LOW_Int_APP_ISR
  1937 ;;		_RB6_HIGH_Int_APP_ISR
  1938 ;;		_RB6_LOW_Int_APP_ISR
  1939 ;;		_RB7_HIGH_Int_APP_ISR
  1940 ;;		_RB7_LOW_Int_APP_ISR
  1941 ;; This function is called by:
  1942 ;;		_InterruptCheck
  1943 ;; This function uses a non-reentrant model
  1944 ;;
  1945                           
  1946                           	psect	text8
  1947   001C2E                     __ptext8:
  1948                           	callstack 0
  1949   001C2E                     _RB5_ISR:
  1950                           	callstack 18
  1951                           
  1952                           ;incstack = 0
  1953                           ;RB5_ISR@RB5_Source stored from wreg
  1954   001C2E  6E49               	movwf	RB5_ISR@RB5_Source^0,c
  1955   001C30                     
  1956                           ;mcal_external_interrupt.c: 571:     (INTCONbits.RBIF = 0);
  1957   001C30  90F2               	bcf	242,0,c	;volatile
  1958   001C32                     
  1959                           ;mcal_external_interrupt.c: 575:     if(0 == RB5_Source){
  1960   001C32  5049               	movf	RB5_ISR@RB5_Source^0,w,c
  1961   001C34  A4D8               	btfss	status,2,c
  1962   001C36  EF1F  F00E         	goto	i1u280_21
  1963   001C3A  EF21  F00E         	goto	i1u280_20
  1964   001C3E                     i1u280_21:
  1965   001C3E  EF38  F00E         	goto	i1l3113
  1966   001C42                     i1u280_20:
  1967   001C42                     
  1968                           ;mcal_external_interrupt.c: 576:         if(RB5_InterruptHandler_LOW){RB5_InterruptHandl
      +                          er_LOW();}
  1969   001C42  505F               	movf	_RB5_InterruptHandler_LOW^0,w,c
  1970   001C44  1060               	iorwf	(_RB5_InterruptHandler_LOW+1)^0,w,c
  1971   001C46  B4D8               	btfsc	status,2,c
  1972   001C48  EF28  F00E         	goto	i1u281_21
  1973   001C4C  EF2A  F00E         	goto	i1u281_20
  1974   001C50                     i1u281_21:
  1975   001C50  EF55  F00E         	goto	i1l623
  1976   001C54                     i1u281_20:
  1977   001C54  D802               	call	i1u282_28
  1978   001C56  EF36  F00E         	goto	i1u282_29
  1979   001C5A                     i1u282_28:
  1980   001C5A  0005               	push	
  1981   001C5C  6EFA               	movwf	pclath,c
  1982   001C5E  505F               	movf	_RB5_InterruptHandler_LOW^0,w,c
  1983   001C60  6EFD               	movwf	tosl,c
  1984   001C62  5060               	movf	(_RB5_InterruptHandler_LOW+1)^0,w,c
  1985   001C64  6EFE               	movwf	tosh,c
  1986   001C66  6AFF               	clrf	tosu,c
  1987   001C68  50FA               	movf	pclath,w,c
  1988   001C6A  0012               	return		;indir
  1989   001C6C                     i1u282_29:
  1990   001C6C  EF55  F00E         	goto	i1l623
  1991   001C70                     i1l3113:
  1992   001C70  0449               	decf	RB5_ISR@RB5_Source^0,w,c
  1993   001C72  A4D8               	btfss	status,2,c
  1994   001C74  EF3E  F00E         	goto	i1u283_21
  1995   001C78  EF40  F00E         	goto	i1u283_20
  1996   001C7C                     i1u283_21:
  1997   001C7C  EF55  F00E         	goto	i1l623
  1998   001C80                     i1u283_20:
  1999   001C80                     
  2000                           ;mcal_external_interrupt.c: 580:         if(RB5_InterruptHandler_HIGH){RB5_InterruptHand
      +                          ler_HIGH();}
  2001   001C80  5061               	movf	_RB5_InterruptHandler_HIGH^0,w,c
  2002   001C82  1062               	iorwf	(_RB5_InterruptHandler_HIGH+1)^0,w,c
  2003   001C84  B4D8               	btfsc	status,2,c
  2004   001C86  EF47  F00E         	goto	i1u284_21
  2005   001C8A  EF49  F00E         	goto	i1u284_20
  2006   001C8E                     i1u284_21:
  2007   001C8E  EF55  F00E         	goto	i1l623
  2008   001C92                     i1u284_20:
  2009   001C92  D802               	call	i1u285_28
  2010   001C94  EF55  F00E         	goto	i1u285_29
  2011   001C98                     i1u285_28:
  2012   001C98  0005               	push	
  2013   001C9A  6EFA               	movwf	pclath,c
  2014   001C9C  5061               	movf	_RB5_InterruptHandler_HIGH^0,w,c
  2015   001C9E  6EFD               	movwf	tosl,c
  2016   001CA0  5062               	movf	(_RB5_InterruptHandler_HIGH+1)^0,w,c
  2017   001CA2  6EFE               	movwf	tosh,c
  2018   001CA4  6AFF               	clrf	tosu,c
  2019   001CA6  50FA               	movf	pclath,w,c
  2020   001CA8  0012               	return		;indir
  2021   001CAA                     i1u285_29:
  2022   001CAA                     i1l623:
  2023   001CAA  0012               	return		;funcret
  2024   001CAC                     __end_of_RB5_ISR:
  2025                           	callstack 0
  2026                           
  2027 ;; *************** function _RB4_ISR *****************
  2028 ;; Defined at:
  2029 ;;		line 551 in file "mcal_external_interrupt.c"
  2030 ;; Parameters:    Size  Location     Type
  2031 ;;  RB4_Source      1    wreg     unsigned char 
  2032 ;; Auto vars:     Size  Location     Type
  2033 ;;  RB4_Source      1   26[COMRAM] unsigned char 
  2034 ;; Return value:  Size  Location     Type
  2035 ;;                  1    wreg      void 
  2036 ;; Registers used:
  2037 ;;		wreg, fsr2l, fsr2h, status,2, status,0, pcl, pclath, pclatu, tosl, prodl, prodh, cstack
  2038 ;; Tracked objects:
  2039 ;;		On entry : 0/0
  2040 ;;		On exit  : 0/0
  2041 ;;		Unchanged: 0/0
  2042 ;; Data sizes:     COMRAM   BANK0   BANK1   BANK2   BANK3   BANK4   BANK5   BANK6   BANK7   BANK8   BANK9  BANK10  BANK1
      +1  BANK12  BANK13  BANK14  BANK15
  2043 ;;      Params:         0       0       0       0       0       0       0       0       0       0       0       0       
      +0       0       0       0       0
  2044 ;;      Locals:         1       0       0       0       0       0       0       0       0       0       0       0       
      +0       0       0       0       0
  2045 ;;      Temps:          0       0       0       0       0       0       0       0       0       0       0       0       
      +0       0       0       0       0
  2046 ;;      Totals:         1       0       0       0       0       0       0       0       0       0       0       0       
      +0       0       0       0       0
  2047 ;;Total ram usage:        1 bytes
  2048 ;; Hardware stack levels used: 1
  2049 ;; Hardware stack levels required when called: 7
  2050 ;; This function calls:
  2051 ;;		NULL
  2052 ;;		_RB4_HIGH_Int_APP_ISR
  2053 ;;		_RB4_LOW_Int_APP_ISR
  2054 ;;		_RB5_HIGH_Int_APP_ISR
  2055 ;;		_RB5_LOW_Int_APP_ISR
  2056 ;;		_RB6_HIGH_Int_APP_ISR
  2057 ;;		_RB6_LOW_Int_APP_ISR
  2058 ;;		_RB7_HIGH_Int_APP_ISR
  2059 ;;		_RB7_LOW_Int_APP_ISR
  2060 ;; This function is called by:
  2061 ;;		_InterruptCheck
  2062 ;; This function uses a non-reentrant model
  2063 ;;
  2064                           
  2065                           	psect	text9
  2066   001CAC                     __ptext9:
  2067                           	callstack 0
  2068   001CAC                     _RB4_ISR:
  2069                           	callstack 18
  2070                           
  2071                           ;incstack = 0
  2072                           ;RB4_ISR@RB4_Source stored from wreg
  2073   001CAC  6E49               	movwf	RB4_ISR@RB4_Source^0,c
  2074   001CAE                     
  2075                           ;mcal_external_interrupt.c: 553:     (INTCONbits.RBIF = 0);
  2076   001CAE  90F2               	bcf	242,0,c	;volatile
  2077   001CB0                     
  2078                           ;mcal_external_interrupt.c: 557:     if(0 == RB4_Source){
  2079   001CB0  5049               	movf	RB4_ISR@RB4_Source^0,w,c
  2080   001CB2  A4D8               	btfss	status,2,c
  2081   001CB4  EF5E  F00E         	goto	i1u274_21
  2082   001CB8  EF60  F00E         	goto	i1u274_20
  2083   001CBC                     i1u274_21:
  2084   001CBC  EF77  F00E         	goto	i1l3099
  2085   001CC0                     i1u274_20:
  2086   001CC0                     
  2087                           ;mcal_external_interrupt.c: 558:         if(RB4_InterruptHandler_LOW){RB4_InterruptHandl
      +                          er_LOW();}
  2088   001CC0  5063               	movf	_RB4_InterruptHandler_LOW^0,w,c
  2089   001CC2  1064               	iorwf	(_RB4_InterruptHandler_LOW+1)^0,w,c
  2090   001CC4  B4D8               	btfsc	status,2,c
  2091   001CC6  EF67  F00E         	goto	i1u275_21
  2092   001CCA  EF69  F00E         	goto	i1u275_20
  2093   001CCE                     i1u275_21:
  2094   001CCE  EF94  F00E         	goto	i1l612
  2095   001CD2                     i1u275_20:
  2096   001CD2  D802               	call	i1u276_28
  2097   001CD4  EF75  F00E         	goto	i1u276_29
  2098   001CD8                     i1u276_28:
  2099   001CD8  0005               	push	
  2100   001CDA  6EFA               	movwf	pclath,c
  2101   001CDC  5063               	movf	_RB4_InterruptHandler_LOW^0,w,c
  2102   001CDE  6EFD               	movwf	tosl,c
  2103   001CE0  5064               	movf	(_RB4_InterruptHandler_LOW+1)^0,w,c
  2104   001CE2  6EFE               	movwf	tosh,c
  2105   001CE4  6AFF               	clrf	tosu,c
  2106   001CE6  50FA               	movf	pclath,w,c
  2107   001CE8  0012               	return		;indir
  2108   001CEA                     i1u276_29:
  2109   001CEA  EF94  F00E         	goto	i1l612
  2110   001CEE                     i1l3099:
  2111   001CEE  0449               	decf	RB4_ISR@RB4_Source^0,w,c
  2112   001CF0  A4D8               	btfss	status,2,c
  2113   001CF2  EF7D  F00E         	goto	i1u277_21
  2114   001CF6  EF7F  F00E         	goto	i1u277_20
  2115   001CFA                     i1u277_21:
  2116   001CFA  EF94  F00E         	goto	i1l612
  2117   001CFE                     i1u277_20:
  2118   001CFE                     
  2119                           ;mcal_external_interrupt.c: 562:         if(RB4_InterruptHandler_HIGH){RB4_InterruptHand
      +                          ler_HIGH();}
  2120   001CFE  5065               	movf	_RB4_InterruptHandler_HIGH^0,w,c
  2121   001D00  1066               	iorwf	(_RB4_InterruptHandler_HIGH+1)^0,w,c
  2122   001D02  B4D8               	btfsc	status,2,c
  2123   001D04  EF86  F00E         	goto	i1u278_21
  2124   001D08  EF88  F00E         	goto	i1u278_20
  2125   001D0C                     i1u278_21:
  2126   001D0C  EF94  F00E         	goto	i1l612
  2127   001D10                     i1u278_20:
  2128   001D10  D802               	call	i1u279_28
  2129   001D12  EF94  F00E         	goto	i1u279_29
  2130   001D16                     i1u279_28:
  2131   001D16  0005               	push	
  2132   001D18  6EFA               	movwf	pclath,c
  2133   001D1A  5065               	movf	_RB4_InterruptHandler_HIGH^0,w,c
  2134   001D1C  6EFD               	movwf	tosl,c
  2135   001D1E  5066               	movf	(_RB4_InterruptHandler_HIGH+1)^0,w,c
  2136   001D20  6EFE               	movwf	tosh,c
  2137   001D22  6AFF               	clrf	tosu,c
  2138   001D24  50FA               	movf	pclath,w,c
  2139   001D26  0012               	return		;indir
  2140   001D28                     i1u279_29:
  2141   001D28                     i1l612:
  2142   001D28  0012               	return		;funcret
  2143   001D2A                     __end_of_RB4_ISR:
  2144                           	callstack 0
  2145                           
  2146 ;; *************** function _RB6_LOW_Int_APP_ISR *****************
  2147 ;; Defined at:
  2148 ;;		line 41 in file "application.c"
  2149 ;; Parameters:    Size  Location     Type
  2150 ;;		None
  2151 ;; Auto vars:     Size  Location     Type
  2152 ;;		None
  2153 ;; Return value:  Size  Location     Type
  2154 ;;                  1    wreg      void 
  2155 ;; Registers used:
  2156 ;;		wreg, fsr2l, fsr2h, status,2, status,0, prodl, prodh, cstack
  2157 ;; Tracked objects:
  2158 ;;		On entry : 0/0
  2159 ;;		On exit  : 0/0
  2160 ;;		Unchanged: 0/0
  2161 ;; Data sizes:     COMRAM   BANK0   BANK1   BANK2   BANK3   BANK4   BANK5   BANK6   BANK7   BANK8   BANK9  BANK10  BANK1
      +1  BANK12  BANK13  BANK14  BANK15
  2162 ;;      Params:         0       0       0       0       0       0       0       0       0       0       0       0       
      +0       0       0       0       0
  2163 ;;      Locals:         0       0       0       0       0       0       0       0       0       0       0       0       
      +0       0       0       0       0
  2164 ;;      Temps:          0       0       0       0       0       0       0       0       0       0       0       0       
      +0       0       0       0       0
  2165 ;;      Totals:         0       0       0       0       0       0       0       0       0       0       0       0       
      +0       0       0       0       0
  2166 ;;Total ram usage:        0 bytes
  2167 ;; Hardware stack levels used: 1
  2168 ;; Hardware stack levels required when called: 6
  2169 ;; This function calls:
  2170 ;;		_gpio_pin_write_logic
  2171 ;; This function is called by:
  2172 ;;		_RB4_ISR
  2173 ;;		_RB5_ISR
  2174 ;;		_RB6_ISR
  2175 ;;		_RB7_ISR
  2176 ;;		i2_RB4_ISR
  2177 ;;		i2_RB5_ISR
  2178 ;;		i2_RB6_ISR
  2179 ;;		i2_RB7_ISR
  2180 ;; This function uses a non-reentrant model
  2181 ;;
  2182                           
  2183                           	psect	text10
  2184   00228E                     __ptext10:
  2185                           	callstack 0
  2186   00228E                     _RB6_LOW_Int_APP_ISR:
  2187                           	callstack 0
  2188                           
  2189                           ;Skip over the trampoline to the duplicate function for level 2
  2190   00228E  A26E               	btfss	int$flags,1,c
  2191   002290  EF4C  F011         	goto	_RB6_LOW_Int_APP_ISR$intlevel1
  2192   002294  EFB7  F011         	goto	i2_RB6_LOW_Int_APP_ISR
  2193   002298                     _RB6_LOW_Int_APP_ISR$intlevel1:
  2194                           	callstack 18
  2195   002298                     
  2196                           ;application.c: 42:     gpio_pin_write_logic(&led3,GPIO_LOW);
  2197   002298  0E2C               	movlw	low _led3
  2198   00229A  6E3F               	movwf	gpio_pin_write_logic@_pin_config^0,c
  2199   00229C  0E00               	movlw	high _led3
  2200   00229E  6E40               	movwf	(gpio_pin_write_logic@_pin_config+1)^0,c
  2201   0022A0  0E00               	movlw	0
  2202   0022A2  6E41               	movwf	gpio_pin_write_logic@logic^0,c
  2203   0022A4  ECE0  F00B         	call	_gpio_pin_write_logic	;wreg free
  2204   0022A8  0012               	return		;funcret
  2205   0022AA                     __end_of_RB6_LOW_Int_APP_ISR:
  2206                           	callstack 0
  2207                           
  2208 ;; *************** function _RB5_LOW_Int_APP_ISR *****************
  2209 ;; Defined at:
  2210 ;;		line 33 in file "application.c"
  2211 ;; Parameters:    Size  Location     Type
  2212 ;;		None
  2213 ;; Auto vars:     Size  Location     Type
  2214 ;;		None
  2215 ;; Return value:  Size  Location     Type
  2216 ;;                  1    wreg      void 
  2217 ;; Registers used:
  2218 ;;		wreg, fsr2l, fsr2h, status,2, status,0, prodl, prodh, cstack
  2219 ;; Tracked objects:
  2220 ;;		On entry : 0/0
  2221 ;;		On exit  : 0/0
  2222 ;;		Unchanged: 0/0
  2223 ;; Data sizes:     COMRAM   BANK0   BANK1   BANK2   BANK3   BANK4   BANK5   BANK6   BANK7   BANK8   BANK9  BANK10  BANK1
      +1  BANK12  BANK13  BANK14  BANK15
  2224 ;;      Params:         0       0       0       0       0       0       0       0       0       0       0       0       
      +0       0       0       0       0
  2225 ;;      Locals:         0       0       0       0       0       0       0       0       0       0       0       0       
      +0       0       0       0       0
  2226 ;;      Temps:          0       0       0       0       0       0       0       0       0       0       0       0       
      +0       0       0       0       0
  2227 ;;      Totals:         0       0       0       0       0       0       0       0       0       0       0       0       
      +0       0       0       0       0
  2228 ;;Total ram usage:        0 bytes
  2229 ;; Hardware stack levels used: 1
  2230 ;; Hardware stack levels required when called: 6
  2231 ;; This function calls:
  2232 ;;		_gpio_pin_write_logic
  2233 ;; This function is called by:
  2234 ;;		_RB4_ISR
  2235 ;;		_RB5_ISR
  2236 ;;		_RB6_ISR
  2237 ;;		_RB7_ISR
  2238 ;;		i2_RB4_ISR
  2239 ;;		i2_RB5_ISR
  2240 ;;		i2_RB6_ISR
  2241 ;;		i2_RB7_ISR
  2242 ;; This function uses a non-reentrant model
  2243 ;;
  2244                           
  2245                           	psect	text11
  2246   0022AA                     __ptext11:
  2247                           	callstack 0
  2248   0022AA                     _RB5_LOW_Int_APP_ISR:
  2249                           	callstack 0
  2250                           
  2251                           ;Skip over the trampoline to the duplicate function for level 2
  2252   0022AA  A26E               	btfss	int$flags,1,c
  2253   0022AC  EF5A  F011         	goto	_RB5_LOW_Int_APP_ISR$intlevel1
  2254   0022B0  EFC0  F011         	goto	i2_RB5_LOW_Int_APP_ISR
  2255   0022B4                     _RB5_LOW_Int_APP_ISR$intlevel1:
  2256                           	callstack 18
  2257   0022B4                     
  2258                           ;application.c: 34:     gpio_pin_write_logic(&led2,GPIO_LOW);
  2259   0022B4  0E2D               	movlw	low _led2
  2260   0022B6  6E3F               	movwf	gpio_pin_write_logic@_pin_config^0,c
  2261   0022B8  0E00               	movlw	high _led2
  2262   0022BA  6E40               	movwf	(gpio_pin_write_logic@_pin_config+1)^0,c
  2263   0022BC  0E00               	movlw	0
  2264   0022BE  6E41               	movwf	gpio_pin_write_logic@logic^0,c
  2265   0022C0  ECE0  F00B         	call	_gpio_pin_write_logic	;wreg free
  2266   0022C4  0012               	return		;funcret
  2267   0022C6                     __end_of_RB5_LOW_Int_APP_ISR:
  2268                           	callstack 0
  2269                           
  2270 ;; *************** function _RB4_LOW_Int_APP_ISR *****************
  2271 ;; Defined at:
  2272 ;;		line 25 in file "application.c"
  2273 ;; Parameters:    Size  Location     Type
  2274 ;;		None
  2275 ;; Auto vars:     Size  Location     Type
  2276 ;;		None
  2277 ;; Return value:  Size  Location     Type
  2278 ;;                  1    wreg      void 
  2279 ;; Registers used:
  2280 ;;		wreg, fsr2l, fsr2h, status,2, status,0, prodl, prodh, cstack
  2281 ;; Tracked objects:
  2282 ;;		On entry : 0/0
  2283 ;;		On exit  : 0/0
  2284 ;;		Unchanged: 0/0
  2285 ;; Data sizes:     COMRAM   BANK0   BANK1   BANK2   BANK3   BANK4   BANK5   BANK6   BANK7   BANK8   BANK9  BANK10  BANK1
      +1  BANK12  BANK13  BANK14  BANK15
  2286 ;;      Params:         0       0       0       0       0       0       0       0       0       0       0       0       
      +0       0       0       0       0
  2287 ;;      Locals:         0       0       0       0       0       0       0       0       0       0       0       0       
      +0       0       0       0       0
  2288 ;;      Temps:          0       0       0       0       0       0       0       0       0       0       0       0       
      +0       0       0       0       0
  2289 ;;      Totals:         0       0       0       0       0       0       0       0       0       0       0       0       
      +0       0       0       0       0
  2290 ;;Total ram usage:        0 bytes
  2291 ;; Hardware stack levels used: 1
  2292 ;; Hardware stack levels required when called: 6
  2293 ;; This function calls:
  2294 ;;		_gpio_pin_write_logic
  2295 ;; This function is called by:
  2296 ;;		_RB4_ISR
  2297 ;;		_RB5_ISR
  2298 ;;		_RB6_ISR
  2299 ;;		_RB7_ISR
  2300 ;;		i2_RB4_ISR
  2301 ;;		i2_RB5_ISR
  2302 ;;		i2_RB6_ISR
  2303 ;;		i2_RB7_ISR
  2304 ;; This function uses a non-reentrant model
  2305 ;;
  2306                           
  2307                           	psect	text12
  2308   0022C6                     __ptext12:
  2309                           	callstack 0
  2310   0022C6                     _RB4_LOW_Int_APP_ISR:
  2311                           	callstack 0
  2312                           
  2313                           ;Skip over the trampoline to the duplicate function for level 2
  2314   0022C6  A26E               	btfss	int$flags,1,c
  2315   0022C8  EF68  F011         	goto	_RB4_LOW_Int_APP_ISR$intlevel1
  2316   0022CC  EFC9  F011         	goto	i2_RB4_LOW_Int_APP_ISR
  2317   0022D0                     _RB4_LOW_Int_APP_ISR$intlevel1:
  2318                           	callstack 18
  2319   0022D0                     
  2320                           ;application.c: 26:     gpio_pin_write_logic(&led1,GPIO_LOW);
  2321   0022D0  0E2E               	movlw	low _led1
  2322   0022D2  6E3F               	movwf	gpio_pin_write_logic@_pin_config^0,c
  2323   0022D4  0E00               	movlw	high _led1
  2324   0022D6  6E40               	movwf	(gpio_pin_write_logic@_pin_config+1)^0,c
  2325   0022D8  0E00               	movlw	0
  2326   0022DA  6E41               	movwf	gpio_pin_write_logic@logic^0,c
  2327   0022DC  ECE0  F00B         	call	_gpio_pin_write_logic	;wreg free
  2328   0022E0  0012               	return		;funcret
  2329   0022E2                     __end_of_RB4_LOW_Int_APP_ISR:
  2330                           	callstack 0
  2331                           
  2332 ;; *************** function _RB7_LOW_Int_APP_ISR *****************
  2333 ;; Defined at:
  2334 ;;		line 49 in file "application.c"
  2335 ;; Parameters:    Size  Location     Type
  2336 ;;		None
  2337 ;; Auto vars:     Size  Location     Type
  2338 ;;		None
  2339 ;; Return value:  Size  Location     Type
  2340 ;;                  1    wreg      void 
  2341 ;; Registers used:
  2342 ;;		wreg, fsr2l, fsr2h, status,2, status,0, prodl, prodh, cstack
  2343 ;; Tracked objects:
  2344 ;;		On entry : 0/0
  2345 ;;		On exit  : 0/0
  2346 ;;		Unchanged: 0/0
  2347 ;; Data sizes:     COMRAM   BANK0   BANK1   BANK2   BANK3   BANK4   BANK5   BANK6   BANK7   BANK8   BANK9  BANK10  BANK1
      +1  BANK12  BANK13  BANK14  BANK15
  2348 ;;      Params:         0       0       0       0       0       0       0       0       0       0       0       0       
      +0       0       0       0       0
  2349 ;;      Locals:         0       0       0       0       0       0       0       0       0       0       0       0       
      +0       0       0       0       0
  2350 ;;      Temps:          0       0       0       0       0       0       0       0       0       0       0       0       
      +0       0       0       0       0
  2351 ;;      Totals:         0       0       0       0       0       0       0       0       0       0       0       0       
      +0       0       0       0       0
  2352 ;;Total ram usage:        0 bytes
  2353 ;; Hardware stack levels used: 1
  2354 ;; Hardware stack levels required when called: 6
  2355 ;; This function calls:
  2356 ;;		_gpio_pin_write_logic
  2357 ;; This function is called by:
  2358 ;;		_RB4_ISR
  2359 ;;		_RB5_ISR
  2360 ;;		_RB6_ISR
  2361 ;;		_RB7_ISR
  2362 ;;		i2_RB4_ISR
  2363 ;;		i2_RB5_ISR
  2364 ;;		i2_RB6_ISR
  2365 ;;		i2_RB7_ISR
  2366 ;; This function uses a non-reentrant model
  2367 ;;
  2368                           
  2369                           	psect	text13
  2370   0022E2                     __ptext13:
  2371                           	callstack 0
  2372   0022E2                     _RB7_LOW_Int_APP_ISR:
  2373                           	callstack 0
  2374                           
  2375                           ;Skip over the trampoline to the duplicate function for level 2
  2376   0022E2  A26E               	btfss	int$flags,1,c
  2377   0022E4  EF76  F011         	goto	_RB7_LOW_Int_APP_ISR$intlevel1
  2378   0022E8  EFD2  F011         	goto	i2_RB7_LOW_Int_APP_ISR
  2379   0022EC                     _RB7_LOW_Int_APP_ISR$intlevel1:
  2380                           	callstack 18
  2381   0022EC                     
  2382                           ;application.c: 50:     gpio_pin_write_logic(&led4,GPIO_LOW);
  2383   0022EC  0E2B               	movlw	low _led4
  2384   0022EE  6E3F               	movwf	gpio_pin_write_logic@_pin_config^0,c
  2385   0022F0  0E00               	movlw	high _led4
  2386   0022F2  6E40               	movwf	(gpio_pin_write_logic@_pin_config+1)^0,c
  2387   0022F4  0E00               	movlw	0
  2388   0022F6  6E41               	movwf	gpio_pin_write_logic@logic^0,c
  2389   0022F8  ECE0  F00B         	call	_gpio_pin_write_logic	;wreg free
  2390   0022FC  0012               	return		;funcret
  2391   0022FE                     __end_of_RB7_LOW_Int_APP_ISR:
  2392                           	callstack 0
  2393                           
  2394 ;; *************** function _RB6_HIGH_Int_APP_ISR *****************
  2395 ;; Defined at:
  2396 ;;		line 37 in file "application.c"
  2397 ;; Parameters:    Size  Location     Type
  2398 ;;		None
  2399 ;; Auto vars:     Size  Location     Type
  2400 ;;		None
  2401 ;; Return value:  Size  Location     Type
  2402 ;;                  1    wreg      void 
  2403 ;; Registers used:
  2404 ;;		wreg, fsr2l, fsr2h, status,2, status,0, prodl, prodh, cstack
  2405 ;; Tracked objects:
  2406 ;;		On entry : 0/0
  2407 ;;		On exit  : 0/0
  2408 ;;		Unchanged: 0/0
  2409 ;; Data sizes:     COMRAM   BANK0   BANK1   BANK2   BANK3   BANK4   BANK5   BANK6   BANK7   BANK8   BANK9  BANK10  BANK1
      +1  BANK12  BANK13  BANK14  BANK15
  2410 ;;      Params:         0       0       0       0       0       0       0       0       0       0       0       0       
      +0       0       0       0       0
  2411 ;;      Locals:         0       0       0       0       0       0       0       0       0       0       0       0       
      +0       0       0       0       0
  2412 ;;      Temps:          0       0       0       0       0       0       0       0       0       0       0       0       
      +0       0       0       0       0
  2413 ;;      Totals:         0       0       0       0       0       0       0       0       0       0       0       0       
      +0       0       0       0       0
  2414 ;;Total ram usage:        0 bytes
  2415 ;; Hardware stack levels used: 1
  2416 ;; Hardware stack levels required when called: 6
  2417 ;; This function calls:
  2418 ;;		_gpio_pin_write_logic
  2419 ;; This function is called by:
  2420 ;;		_RB4_ISR
  2421 ;;		_RB5_ISR
  2422 ;;		_RB6_ISR
  2423 ;;		_RB7_ISR
  2424 ;;		i2_RB4_ISR
  2425 ;;		i2_RB5_ISR
  2426 ;;		i2_RB6_ISR
  2427 ;;		i2_RB7_ISR
  2428 ;; This function uses a non-reentrant model
  2429 ;;
  2430                           
  2431                           	psect	text14
  2432   0022FE                     __ptext14:
  2433                           	callstack 0
  2434   0022FE                     _RB6_HIGH_Int_APP_ISR:
  2435                           	callstack 0
  2436                           
  2437                           ;Skip over the trampoline to the duplicate function for level 2
  2438   0022FE  A26E               	btfss	int$flags,1,c
  2439   002300  EF84  F011         	goto	_RB6_HIGH_Int_APP_ISR$intlevel1
  2440   002304  EFDB  F011         	goto	i2_RB6_HIGH_Int_APP_ISR
  2441   002308                     _RB6_HIGH_Int_APP_ISR$intlevel1:
  2442                           	callstack 18
  2443   002308                     
  2444                           ;application.c: 38:     gpio_pin_write_logic(&led3,GPIO_HIGH);
  2445   002308  0E2C               	movlw	low _led3
  2446   00230A  6E3F               	movwf	gpio_pin_write_logic@_pin_config^0,c
  2447   00230C  0E00               	movlw	high _led3
  2448   00230E  6E40               	movwf	(gpio_pin_write_logic@_pin_config+1)^0,c
  2449   002310  0E01               	movlw	1
  2450   002312  6E41               	movwf	gpio_pin_write_logic@logic^0,c
  2451   002314  ECE0  F00B         	call	_gpio_pin_write_logic	;wreg free
  2452   002318  0012               	return		;funcret
  2453   00231A                     __end_of_RB6_HIGH_Int_APP_ISR:
  2454                           	callstack 0
  2455                           
  2456 ;; *************** function _RB5_HIGH_Int_APP_ISR *****************
  2457 ;; Defined at:
  2458 ;;		line 29 in file "application.c"
  2459 ;; Parameters:    Size  Location     Type
  2460 ;;		None
  2461 ;; Auto vars:     Size  Location     Type
  2462 ;;		None
  2463 ;; Return value:  Size  Location     Type
  2464 ;;                  1    wreg      void 
  2465 ;; Registers used:
  2466 ;;		wreg, fsr2l, fsr2h, status,2, status,0, prodl, prodh, cstack
  2467 ;; Tracked objects:
  2468 ;;		On entry : 0/0
  2469 ;;		On exit  : 0/0
  2470 ;;		Unchanged: 0/0
  2471 ;; Data sizes:     COMRAM   BANK0   BANK1   BANK2   BANK3   BANK4   BANK5   BANK6   BANK7   BANK8   BANK9  BANK10  BANK1
      +1  BANK12  BANK13  BANK14  BANK15
  2472 ;;      Params:         0       0       0       0       0       0       0       0       0       0       0       0       
      +0       0       0       0       0
  2473 ;;      Locals:         0       0       0       0       0       0       0       0       0       0       0       0       
      +0       0       0       0       0
  2474 ;;      Temps:          0       0       0       0       0       0       0       0       0       0       0       0       
      +0       0       0       0       0
  2475 ;;      Totals:         0       0       0       0       0       0       0       0       0       0       0       0       
      +0       0       0       0       0
  2476 ;;Total ram usage:        0 bytes
  2477 ;; Hardware stack levels used: 1
  2478 ;; Hardware stack levels required when called: 6
  2479 ;; This function calls:
  2480 ;;		_gpio_pin_write_logic
  2481 ;; This function is called by:
  2482 ;;		_RB4_ISR
  2483 ;;		_RB5_ISR
  2484 ;;		_RB6_ISR
  2485 ;;		_RB7_ISR
  2486 ;;		i2_RB4_ISR
  2487 ;;		i2_RB5_ISR
  2488 ;;		i2_RB6_ISR
  2489 ;;		i2_RB7_ISR
  2490 ;; This function uses a non-reentrant model
  2491 ;;
  2492                           
  2493                           	psect	text15
  2494   00231A                     __ptext15:
  2495                           	callstack 0
  2496   00231A                     _RB5_HIGH_Int_APP_ISR:
  2497                           	callstack 0
  2498                           
  2499                           ;Skip over the trampoline to the duplicate function for level 2
  2500   00231A  A26E               	btfss	int$flags,1,c
  2501   00231C  EF92  F011         	goto	_RB5_HIGH_Int_APP_ISR$intlevel1
  2502   002320  EFE4  F011         	goto	i2_RB5_HIGH_Int_APP_ISR
  2503   002324                     _RB5_HIGH_Int_APP_ISR$intlevel1:
  2504                           	callstack 18
  2505   002324                     
  2506                           ;application.c: 30:     gpio_pin_write_logic(&led2,GPIO_HIGH);
  2507   002324  0E2D               	movlw	low _led2
  2508   002326  6E3F               	movwf	gpio_pin_write_logic@_pin_config^0,c
  2509   002328  0E00               	movlw	high _led2
  2510   00232A  6E40               	movwf	(gpio_pin_write_logic@_pin_config+1)^0,c
  2511   00232C  0E01               	movlw	1
  2512   00232E  6E41               	movwf	gpio_pin_write_logic@logic^0,c
  2513   002330  ECE0  F00B         	call	_gpio_pin_write_logic	;wreg free
  2514   002334  0012               	return		;funcret
  2515   002336                     __end_of_RB5_HIGH_Int_APP_ISR:
  2516                           	callstack 0
  2517                           
  2518 ;; *************** function _RB4_HIGH_Int_APP_ISR *****************
  2519 ;; Defined at:
  2520 ;;		line 21 in file "application.c"
  2521 ;; Parameters:    Size  Location     Type
  2522 ;;		None
  2523 ;; Auto vars:     Size  Location     Type
  2524 ;;		None
  2525 ;; Return value:  Size  Location     Type
  2526 ;;                  1    wreg      void 
  2527 ;; Registers used:
  2528 ;;		wreg, fsr2l, fsr2h, status,2, status,0, prodl, prodh, cstack
  2529 ;; Tracked objects:
  2530 ;;		On entry : 0/0
  2531 ;;		On exit  : 0/0
  2532 ;;		Unchanged: 0/0
  2533 ;; Data sizes:     COMRAM   BANK0   BANK1   BANK2   BANK3   BANK4   BANK5   BANK6   BANK7   BANK8   BANK9  BANK10  BANK1
      +1  BANK12  BANK13  BANK14  BANK15
  2534 ;;      Params:         0       0       0       0       0       0       0       0       0       0       0       0       
      +0       0       0       0       0
  2535 ;;      Locals:         0       0       0       0       0       0       0       0       0       0       0       0       
      +0       0       0       0       0
  2536 ;;      Temps:          0       0       0       0       0       0       0       0       0       0       0       0       
      +0       0       0       0       0
  2537 ;;      Totals:         0       0       0       0       0       0       0       0       0       0       0       0       
      +0       0       0       0       0
  2538 ;;Total ram usage:        0 bytes
  2539 ;; Hardware stack levels used: 1
  2540 ;; Hardware stack levels required when called: 6
  2541 ;; This function calls:
  2542 ;;		_gpio_pin_write_logic
  2543 ;; This function is called by:
  2544 ;;		_RB4_ISR
  2545 ;;		_RB5_ISR
  2546 ;;		_RB6_ISR
  2547 ;;		_RB7_ISR
  2548 ;;		i2_RB4_ISR
  2549 ;;		i2_RB5_ISR
  2550 ;;		i2_RB6_ISR
  2551 ;;		i2_RB7_ISR
  2552 ;; This function uses a non-reentrant model
  2553 ;;
  2554                           
  2555                           	psect	text16
  2556   002336                     __ptext16:
  2557                           	callstack 0
  2558   002336                     _RB4_HIGH_Int_APP_ISR:
  2559                           	callstack 0
  2560                           
  2561                           ;Skip over the trampoline to the duplicate function for level 2
  2562   002336  A26E               	btfss	int$flags,1,c
  2563   002338  EFA0  F011         	goto	_RB4_HIGH_Int_APP_ISR$intlevel1
  2564   00233C  EFED  F011         	goto	i2_RB4_HIGH_Int_APP_ISR
  2565   002340                     _RB4_HIGH_Int_APP_ISR$intlevel1:
  2566                           	callstack 18
  2567   002340                     
  2568                           ;application.c: 22:     gpio_pin_write_logic(&led1,GPIO_HIGH);
  2569   002340  0E2E               	movlw	low _led1
  2570   002342  6E3F               	movwf	gpio_pin_write_logic@_pin_config^0,c
  2571   002344  0E00               	movlw	high _led1
  2572   002346  6E40               	movwf	(gpio_pin_write_logic@_pin_config+1)^0,c
  2573   002348  0E01               	movlw	1
  2574   00234A  6E41               	movwf	gpio_pin_write_logic@logic^0,c
  2575   00234C  ECE0  F00B         	call	_gpio_pin_write_logic	;wreg free
  2576   002350  0012               	return		;funcret
  2577   002352                     __end_of_RB4_HIGH_Int_APP_ISR:
  2578                           	callstack 0
  2579                           
  2580 ;; *************** function _RB7_HIGH_Int_APP_ISR *****************
  2581 ;; Defined at:
  2582 ;;		line 45 in file "application.c"
  2583 ;; Parameters:    Size  Location     Type
  2584 ;;		None
  2585 ;; Auto vars:     Size  Location     Type
  2586 ;;		None
  2587 ;; Return value:  Size  Location     Type
  2588 ;;                  1    wreg      void 
  2589 ;; Registers used:
  2590 ;;		wreg, fsr2l, fsr2h, status,2, status,0, prodl, prodh, cstack
  2591 ;; Tracked objects:
  2592 ;;		On entry : 0/0
  2593 ;;		On exit  : 0/0
  2594 ;;		Unchanged: 0/0
  2595 ;; Data sizes:     COMRAM   BANK0   BANK1   BANK2   BANK3   BANK4   BANK5   BANK6   BANK7   BANK8   BANK9  BANK10  BANK1
      +1  BANK12  BANK13  BANK14  BANK15
  2596 ;;      Params:         0       0       0       0       0       0       0       0       0       0       0       0       
      +0       0       0       0       0
  2597 ;;      Locals:         0       0       0       0       0       0       0       0       0       0       0       0       
      +0       0       0       0       0
  2598 ;;      Temps:          0       0       0       0       0       0       0       0       0       0       0       0       
      +0       0       0       0       0
  2599 ;;      Totals:         0       0       0       0       0       0       0       0       0       0       0       0       
      +0       0       0       0       0
  2600 ;;Total ram usage:        0 bytes
  2601 ;; Hardware stack levels used: 1
  2602 ;; Hardware stack levels required when called: 6
  2603 ;; This function calls:
  2604 ;;		_gpio_pin_write_logic
  2605 ;; This function is called by:
  2606 ;;		_RB4_ISR
  2607 ;;		_RB5_ISR
  2608 ;;		_RB6_ISR
  2609 ;;		_RB7_ISR
  2610 ;;		i2_RB4_ISR
  2611 ;;		i2_RB5_ISR
  2612 ;;		i2_RB6_ISR
  2613 ;;		i2_RB7_ISR
  2614 ;; This function uses a non-reentrant model
  2615 ;;
  2616                           
  2617                           	psect	text17
  2618   002352                     __ptext17:
  2619                           	callstack 0
  2620   002352                     _RB7_HIGH_Int_APP_ISR:
  2621                           	callstack 0
  2622                           
  2623                           ;Skip over the trampoline to the duplicate function for level 2
  2624   002352  A26E               	btfss	int$flags,1,c
  2625   002354  EFAE  F011         	goto	_RB7_HIGH_Int_APP_ISR$intlevel1
  2626   002358  EFF6  F011         	goto	i2_RB7_HIGH_Int_APP_ISR
  2627   00235C                     _RB7_HIGH_Int_APP_ISR$intlevel1:
  2628                           	callstack 18
  2629   00235C                     
  2630                           ;application.c: 46:     gpio_pin_write_logic(&led4,GPIO_HIGH);
  2631   00235C  0E2B               	movlw	low _led4
  2632   00235E  6E3F               	movwf	gpio_pin_write_logic@_pin_config^0,c
  2633   002360  0E00               	movlw	high _led4
  2634   002362  6E40               	movwf	(gpio_pin_write_logic@_pin_config+1)^0,c
  2635   002364  0E01               	movlw	1
  2636   002366  6E41               	movwf	gpio_pin_write_logic@logic^0,c
  2637   002368  ECE0  F00B         	call	_gpio_pin_write_logic	;wreg free
  2638   00236C  0012               	return		;funcret
  2639   00236E                     __end_of_RB7_HIGH_Int_APP_ISR:
  2640                           	callstack 0
  2641                           
  2642 ;; *************** function _gpio_pin_write_logic *****************
  2643 ;; Defined at:
  2644 ;;		line 80 in file "MCAL_Layer/GPIO/hal_gpio.c"
  2645 ;; Parameters:    Size  Location     Type
  2646 ;;  _pin_config     2   16[COMRAM] PTR const struct .
  2647 ;;		 -> lcd_2.lcd_data(8), lcd_2(10), lcd_1.lcd_data(4), lcd_1(6), 
  2648 ;;		 -> led4(1), led3(1), led2(1), led1(1), 
  2649 ;;  logic           1   18[COMRAM] enum E2968
  2650 ;; Auto vars:     Size  Location     Type
  2651 ;;  ret             1   25[COMRAM] unsigned char 
  2652 ;; Return value:  Size  Location     Type
  2653 ;;                  1    wreg      unsigned char 
  2654 ;; Registers used:
  2655 ;;		wreg, fsr2l, fsr2h, status,2, status,0, prodl, prodh
  2656 ;; Tracked objects:
  2657 ;;		On entry : 0/0
  2658 ;;		On exit  : 0/0
  2659 ;;		Unchanged: 0/0
  2660 ;; Data sizes:     COMRAM   BANK0   BANK1   BANK2   BANK3   BANK4   BANK5   BANK6   BANK7   BANK8   BANK9  BANK10  BANK1
      +1  BANK12  BANK13  BANK14  BANK15
  2661 ;;      Params:         3       0       0       0       0       0       0       0       0       0       0       0       
      +0       0       0       0       0
  2662 ;;      Locals:         1       0       0       0       0       0       0       0       0       0       0       0       
      +0       0       0       0       0
  2663 ;;      Temps:          6       0       0       0       0       0       0       0       0       0       0       0       
      +0       0       0       0       0
  2664 ;;      Totals:        10       0       0       0       0       0       0       0       0       0       0       0       
      +0       0       0       0       0
  2665 ;;Total ram usage:       10 bytes
  2666 ;; Hardware stack levels used: 1
  2667 ;; Hardware stack levels required when called: 5
  2668 ;; This function calls:
  2669 ;;		Nothing
  2670 ;; This function is called by:
  2671 ;;		_RB4_HIGH_Int_APP_ISR
  2672 ;;		_RB4_LOW_Int_APP_ISR
  2673 ;;		_RB5_HIGH_Int_APP_ISR
  2674 ;;		_RB5_LOW_Int_APP_ISR
  2675 ;;		_RB6_HIGH_Int_APP_ISR
  2676 ;;		_RB6_LOW_Int_APP_ISR
  2677 ;;		_RB7_HIGH_Int_APP_ISR
  2678 ;;		_RB7_LOW_Int_APP_ISR
  2679 ;;		_lcd_4bit_send_command
  2680 ;;		_lcd_4bit_send_char_data
  2681 ;;		_lcd_8bit_send_command
  2682 ;;		_lcd_8bit_send_char_data
  2683 ;;		_lcd_send_4bits
  2684 ;;		_lcd_4bit_send_enable_signal
  2685 ;;		_lcd_8bit_send_enable_signal
  2686 ;;		_gpio_pin_intialize
  2687 ;; This function uses a non-reentrant model
  2688 ;;
  2689                           
  2690                           	psect	text18
  2691   0017C0                     __ptext18:
  2692                           	callstack 0
  2693   0017C0                     _gpio_pin_write_logic:
  2694                           	callstack 18
  2695   0017C0                     
  2696                           ;MCAL_Layer/GPIO/hal_gpio.c: 81:     Std_ReturnType ret = (Std_ReturnType)0x01;
  2697   0017C0  0E01               	movlw	1
  2698   0017C2  6E48               	movwf	gpio_pin_write_logic@ret^0,c
  2699   0017C4                     
  2700                           ;MCAL_Layer/GPIO/hal_gpio.c: 82:     if(((void*)0) == _pin_config || _pin_config->pin > 
      +                          8 -1)
  2701   0017C4  503F               	movf	gpio_pin_write_logic@_pin_config^0,w,c
  2702   0017C6  1040               	iorwf	(gpio_pin_write_logic@_pin_config+1)^0,w,c
  2703   0017C8  B4D8               	btfsc	status,2,c
  2704   0017CA  EFE9  F00B         	goto	i1u236_21
  2705   0017CE  EFEB  F00B         	goto	i1u236_20
  2706   0017D2                     i1u236_21:
  2707   0017D2  EFFC  F00B         	goto	i1l2767
  2708   0017D6                     i1u236_20:
  2709   0017D6  C03F  FFD9         	movff	gpio_pin_write_logic@_pin_config,fsr2l
  2710   0017DA  C040  FFDA         	movff	gpio_pin_write_logic@_pin_config+1,fsr2h
  2711   0017DE  30DF               	rrcf	223,w,c
  2712   0017E0  32E8               	rrcf	wreg,f,c
  2713   0017E2  32E8               	rrcf	wreg,f,c
  2714   0017E4  0B07               	andlw	7
  2715   0017E6  6E42               	movwf	??_gpio_pin_write_logic^0,c
  2716   0017E8  0E07               	movlw	7
  2717   0017EA  6442               	cpfsgt	??_gpio_pin_write_logic^0,c
  2718   0017EC  EFFA  F00B         	goto	i1u237_21
  2719   0017F0  EFFC  F00B         	goto	i1u237_20
  2720   0017F4                     i1u237_21:
  2721   0017F4  EF5F  F00C         	goto	i1l2775
  2722   0017F8                     i1u237_20:
  2723   0017F8                     i1l2767:
  2724                           
  2725                           ;MCAL_Layer/GPIO/hal_gpio.c: 83:     {;MCAL_Layer/GPIO/hal_gpio.c: 84:         ret = (St
      +                          d_ReturnType)0x00;
  2726   0017F8  0E00               	movlw	0
  2727   0017FA  6E48               	movwf	gpio_pin_write_logic@ret^0,c
  2728                           
  2729                           ;MCAL_Layer/GPIO/hal_gpio.c: 85:     }
  2730   0017FC  EF74  F00C         	goto	i1l2777
  2731   001800                     i1l2769:
  2732                           
  2733                           ;MCAL_Layer/GPIO/hal_gpio.c: 90:             (*lat_registers[_pin_config->port] &= ~((ui
      +                          nt8)1 << _pin_config->pin));
  2734   001800  C03F  FFD9         	movff	gpio_pin_write_logic@_pin_config,fsr2l
  2735   001804  C040  FFDA         	movff	gpio_pin_write_logic@_pin_config+1,fsr2h
  2736   001808  30DF               	rrcf	223,w,c
  2737   00180A  32E8               	rrcf	wreg,f,c
  2738   00180C  32E8               	rrcf	wreg,f,c
  2739   00180E  0B07               	andlw	7
  2740   001810  6E42               	movwf	??_gpio_pin_write_logic^0,c
  2741   001812  0E01               	movlw	1
  2742   001814  6E43               	movwf	(??_gpio_pin_write_logic+1)^0,c
  2743   001816  2A42               	incf	??_gpio_pin_write_logic^0,f,c
  2744   001818  EF10  F00C         	goto	i1u238_24
  2745   00181C                     i1u238_25:
  2746   00181C  90D8               	bcf	status,0,c
  2747   00181E  3643               	rlcf	(??_gpio_pin_write_logic+1)^0,f,c
  2748   001820                     i1u238_24:
  2749   001820  2E42               	decfsz	??_gpio_pin_write_logic^0,f,c
  2750   001822  EF0E  F00C         	goto	i1u238_25
  2751   001826  5043               	movf	(??_gpio_pin_write_logic+1)^0,w,c
  2752   001828  0AFF               	xorlw	255
  2753   00182A  6E44               	movwf	(??_gpio_pin_write_logic+2)^0,c
  2754   00182C  C03F  FFD9         	movff	gpio_pin_write_logic@_pin_config,fsr2l
  2755   001830  C040  FFDA         	movff	gpio_pin_write_logic@_pin_config+1,fsr2h
  2756   001834  50DF               	movf	223,w,c
  2757   001836  0B07               	andlw	7
  2758   001838  6E45               	movwf	(??_gpio_pin_write_logic+3)^0,c
  2759   00183A  5045               	movf	(??_gpio_pin_write_logic+3)^0,w,c
  2760   00183C  0D02               	mullw	2
  2761   00183E  0E01               	movlw	low _lat_registers
  2762   001840  24F3               	addwf	243,w,c
  2763   001842  6ED9               	movwf	fsr2l,c
  2764   001844  0E00               	movlw	high _lat_registers
  2765   001846  20F4               	addwfc	prodh,w,c
  2766   001848  6EDA               	movwf	fsr2h,c
  2767   00184A  CFDE F046          	movff	postinc2,??_gpio_pin_write_logic+4
  2768   00184E  CFDD F047          	movff	postdec2,??_gpio_pin_write_logic+5
  2769   001852  C046  FFD9         	movff	??_gpio_pin_write_logic+4,fsr2l
  2770   001856  C047  FFDA         	movff	??_gpio_pin_write_logic+5,fsr2h
  2771   00185A  5044               	movf	(??_gpio_pin_write_logic+2)^0,w,c
  2772   00185C  16DF               	andwf	indf2,f,c
  2773                           
  2774                           ;MCAL_Layer/GPIO/hal_gpio.c: 91:             break;
  2775   00185E  EF74  F00C         	goto	i1l2777
  2776   001862                     i1l2771:
  2777                           
  2778                           ;MCAL_Layer/GPIO/hal_gpio.c: 93:             (*lat_registers[_pin_config->port] |= ((uin
      +                          t8)1 << _pin_config->pin));
  2779   001862  C03F  FFD9         	movff	gpio_pin_write_logic@_pin_config,fsr2l
  2780   001866  C040  FFDA         	movff	gpio_pin_write_logic@_pin_config+1,fsr2h
  2781   00186A  30DF               	rrcf	223,w,c
  2782   00186C  32E8               	rrcf	wreg,f,c
  2783   00186E  32E8               	rrcf	wreg,f,c
  2784   001870  0B07               	andlw	7
  2785   001872  6E42               	movwf	??_gpio_pin_write_logic^0,c
  2786   001874  0E01               	movlw	1
  2787   001876  6E43               	movwf	(??_gpio_pin_write_logic+1)^0,c
  2788   001878  2A42               	incf	??_gpio_pin_write_logic^0,f,c
  2789   00187A  EF41  F00C         	goto	i1u239_24
  2790   00187E                     i1u239_25:
  2791   00187E  90D8               	bcf	status,0,c
  2792   001880  3643               	rlcf	(??_gpio_pin_write_logic+1)^0,f,c
  2793   001882                     i1u239_24:
  2794   001882  2E42               	decfsz	??_gpio_pin_write_logic^0,f,c
  2795   001884  EF3F  F00C         	goto	i1u239_25
  2796   001888  C03F  FFD9         	movff	gpio_pin_write_logic@_pin_config,fsr2l
  2797   00188C  C040  FFDA         	movff	gpio_pin_write_logic@_pin_config+1,fsr2h
  2798   001890  50DF               	movf	223,w,c
  2799   001892  0B07               	andlw	7
  2800   001894  6E44               	movwf	(??_gpio_pin_write_logic+2)^0,c
  2801   001896  5044               	movf	(??_gpio_pin_write_logic+2)^0,w,c
  2802   001898  0D02               	mullw	2
  2803   00189A  0E01               	movlw	low _lat_registers
  2804   00189C  24F3               	addwf	243,w,c
  2805   00189E  6ED9               	movwf	fsr2l,c
  2806   0018A0  0E00               	movlw	high _lat_registers
  2807   0018A2  20F4               	addwfc	prodh,w,c
  2808   0018A4  6EDA               	movwf	fsr2h,c
  2809   0018A6  CFDE F045          	movff	postinc2,??_gpio_pin_write_logic+3
  2810   0018AA  CFDD F046          	movff	postdec2,??_gpio_pin_write_logic+4
  2811   0018AE  C045  FFD9         	movff	??_gpio_pin_write_logic+3,fsr2l
  2812   0018B2  C046  FFDA         	movff	??_gpio_pin_write_logic+4,fsr2h
  2813   0018B6  5043               	movf	(??_gpio_pin_write_logic+1)^0,w,c
  2814   0018B8  12DF               	iorwf	indf2,f,c
  2815                           
  2816                           ;MCAL_Layer/GPIO/hal_gpio.c: 94:             break;
  2817   0018BA  EF74  F00C         	goto	i1l2777
  2818   0018BE                     i1l2775:
  2819   0018BE  5041               	movf	gpio_pin_write_logic@logic^0,w,c
  2820   0018C0  6E42               	movwf	??_gpio_pin_write_logic^0,c
  2821   0018C2  6A43               	clrf	(??_gpio_pin_write_logic+1)^0,c
  2822                           
  2823                           ; Switch on 2 bytes has been partitioned into a top level switch of size 1, and 1 sub-sw
      +                          itches
  2824                           ; Switch size 1, requested type "simple"
  2825                           ; Number of cases is 1, Range of values is 0 to 0
  2826                           ; switch strategies available:
  2827                           ; Name         Instructions Cycles
  2828                           ; simple_byte            4     3 (average)
  2829                           ;	Chosen strategy is simple_byte
  2830   0018C4  5043               	movf	(??_gpio_pin_write_logic+1)^0,w,c
  2831   0018C6  0A00               	xorlw	0	; case 0
  2832   0018C8  B4D8               	btfsc	status,2,c
  2833   0018CA  EF69  F00C         	goto	i1l4063
  2834   0018CE  EFFC  F00B         	goto	i1l2767
  2835   0018D2                     i1l4063:
  2836                           
  2837                           ; Switch size 1, requested type "simple"
  2838                           ; Number of cases is 2, Range of values is 0 to 1
  2839                           ; switch strategies available:
  2840                           ; Name         Instructions Cycles
  2841                           ; simple_byte            7     4 (average)
  2842                           ;	Chosen strategy is simple_byte
  2843   0018D2  5042               	movf	??_gpio_pin_write_logic^0,w,c
  2844   0018D4  0A00               	xorlw	0	; case 0
  2845   0018D6  B4D8               	btfsc	status,2,c
  2846   0018D8  EF00  F00C         	goto	i1l2769
  2847   0018DC  0A01               	xorlw	1	; case 1
  2848   0018DE  B4D8               	btfsc	status,2,c
  2849   0018E0  EF31  F00C         	goto	i1l2771
  2850   0018E4  EFFC  F00B         	goto	i1l2767
  2851   0018E8                     i1l2777:
  2852                           
  2853                           ;MCAL_Layer/GPIO/hal_gpio.c: 100:     return ret;
  2854   0018E8  5048               	movf	gpio_pin_write_logic@ret^0,w,c
  2855   0018EA  0012               	return		;funcret
  2856   0018EC                     __end_of_gpio_pin_write_logic:
  2857                           	callstack 0
  2858                           
  2859 ;; *************** function _INT2_ISR *****************
  2860 ;; Defined at:
  2861 ;;		line 540 in file "mcal_external_interrupt.c"
  2862 ;; Parameters:    Size  Location     Type
  2863 ;;		None
  2864 ;; Auto vars:     Size  Location     Type
  2865 ;;		None
  2866 ;; Return value:  Size  Location     Type
  2867 ;;                  1    wreg      void 
  2868 ;; Registers used:
  2869 ;;		wreg, fsr2l, fsr2h, status,2, status,0, pcl, pclath, pclatu, tosl, prodl, prodh, cstack
  2870 ;; Tracked objects:
  2871 ;;		On entry : 0/0
  2872 ;;		On exit  : 0/0
  2873 ;;		Unchanged: 0/0
  2874 ;; Data sizes:     COMRAM   BANK0   BANK1   BANK2   BANK3   BANK4   BANK5   BANK6   BANK7   BANK8   BANK9  BANK10  BANK1
      +1  BANK12  BANK13  BANK14  BANK15
  2875 ;;      Params:         0       0       0       0       0       0       0       0       0       0       0       0       
      +0       0       0       0       0
  2876 ;;      Locals:         0       0       0       0       0       0       0       0       0       0       0       0       
      +0       0       0       0       0
  2877 ;;      Temps:          0       0       0       0       0       0       0       0       0       0       0       0       
      +0       0       0       0       0
  2878 ;;      Totals:         0       0       0       0       0       0       0       0       0       0       0       0       
      +0       0       0       0       0
  2879 ;;Total ram usage:        0 bytes
  2880 ;; Hardware stack levels used: 1
  2881 ;; Hardware stack levels required when called: 7
  2882 ;; This function calls:
  2883 ;;		NULL
  2884 ;;		_Int0_App_ISR
  2885 ;;		_Int1_App_ISR
  2886 ;;		_Int2_App_ISR
  2887 ;; This function is called by:
  2888 ;;		_InterruptCheck
  2889 ;; This function uses a non-reentrant model
  2890 ;;
  2891                           
  2892                           	psect	text19
  2893   002084                     __ptext19:
  2894                           	callstack 0
  2895   002084                     _INT2_ISR:
  2896                           	callstack 18
  2897   002084                     
  2898                           ;mcal_external_interrupt.c: 542:     (INTCON3bits.INT2IF = 0);
  2899   002084  92F0               	bcf	240,1,c	;volatile
  2900   002086                     
  2901                           ;mcal_external_interrupt.c: 546:     if(INT2_InterruptHandler){INT2_InterruptHandler();}
  2902   002086  5067               	movf	_INT2_InterruptHandler^0,w,c
  2903   002088  1068               	iorwf	(_INT2_InterruptHandler+1)^0,w,c
  2904   00208A  B4D8               	btfsc	status,2,c
  2905   00208C  EF4A  F010         	goto	i1u272_21
  2906   002090  EF4C  F010         	goto	i1u272_20
  2907   002094                     i1u272_21:
  2908   002094  EF58  F010         	goto	i1l601
  2909   002098                     i1u272_20:
  2910   002098  D802               	call	i1u273_28
  2911   00209A  EF58  F010         	goto	i1u273_29
  2912   00209E                     i1u273_28:
  2913   00209E  0005               	push	
  2914   0020A0  6EFA               	movwf	pclath,c
  2915   0020A2  5067               	movf	_INT2_InterruptHandler^0,w,c
  2916   0020A4  6EFD               	movwf	tosl,c
  2917   0020A6  5068               	movf	(_INT2_InterruptHandler+1)^0,w,c
  2918   0020A8  6EFE               	movwf	tosh,c
  2919   0020AA  6AFF               	clrf	tosu,c
  2920   0020AC  50FA               	movf	pclath,w,c
  2921   0020AE  0012               	return		;indir
  2922   0020B0                     i1u273_29:
  2923   0020B0                     i1l601:
  2924   0020B0  0012               	return		;funcret
  2925   0020B2                     __end_of_INT2_ISR:
  2926                           	callstack 0
  2927                           
  2928 ;; *************** function _INT1_ISR *****************
  2929 ;; Defined at:
  2930 ;;		line 530 in file "mcal_external_interrupt.c"
  2931 ;; Parameters:    Size  Location     Type
  2932 ;;		None
  2933 ;; Auto vars:     Size  Location     Type
  2934 ;;		None
  2935 ;; Return value:  Size  Location     Type
  2936 ;;                  1    wreg      void 
  2937 ;; Registers used:
  2938 ;;		wreg, fsr2l, fsr2h, status,2, status,0, pcl, pclath, pclatu, tosl, prodl, prodh, cstack
  2939 ;; Tracked objects:
  2940 ;;		On entry : 0/0
  2941 ;;		On exit  : 0/0
  2942 ;;		Unchanged: 0/0
  2943 ;; Data sizes:     COMRAM   BANK0   BANK1   BANK2   BANK3   BANK4   BANK5   BANK6   BANK7   BANK8   BANK9  BANK10  BANK1
      +1  BANK12  BANK13  BANK14  BANK15
  2944 ;;      Params:         0       0       0       0       0       0       0       0       0       0       0       0       
      +0       0       0       0       0
  2945 ;;      Locals:         0       0       0       0       0       0       0       0       0       0       0       0       
      +0       0       0       0       0
  2946 ;;      Temps:          0       0       0       0       0       0       0       0       0       0       0       0       
      +0       0       0       0       0
  2947 ;;      Totals:         0       0       0       0       0       0       0       0       0       0       0       0       
      +0       0       0       0       0
  2948 ;;Total ram usage:        0 bytes
  2949 ;; Hardware stack levels used: 1
  2950 ;; Hardware stack levels required when called: 7
  2951 ;; This function calls:
  2952 ;;		NULL
  2953 ;;		_Int0_App_ISR
  2954 ;;		_Int1_App_ISR
  2955 ;;		_Int2_App_ISR
  2956 ;; This function is called by:
  2957 ;;		_InterruptCheck
  2958 ;; This function uses a non-reentrant model
  2959 ;;
  2960                           
  2961                           	psect	text20
  2962   0020B2                     __ptext20:
  2963                           	callstack 0
  2964   0020B2                     _INT1_ISR:
  2965                           	callstack 18
  2966   0020B2                     
  2967                           ;mcal_external_interrupt.c: 532:     (INTCON3bits.INT1IF = 0);
  2968   0020B2  90F0               	bcf	240,0,c	;volatile
  2969   0020B4                     
  2970                           ;mcal_external_interrupt.c: 536:     if(INT1_InterruptHandler){INT1_InterruptHandler();}
  2971   0020B4  5069               	movf	_INT1_InterruptHandler^0,w,c
  2972   0020B6  106A               	iorwf	(_INT1_InterruptHandler+1)^0,w,c
  2973   0020B8  B4D8               	btfsc	status,2,c
  2974   0020BA  EF61  F010         	goto	i1u270_21
  2975   0020BE  EF63  F010         	goto	i1u270_20
  2976   0020C2                     i1u270_21:
  2977   0020C2  EF6F  F010         	goto	i1l596
  2978   0020C6                     i1u270_20:
  2979   0020C6  D802               	call	i1u271_28
  2980   0020C8  EF6F  F010         	goto	i1u271_29
  2981   0020CC                     i1u271_28:
  2982   0020CC  0005               	push	
  2983   0020CE  6EFA               	movwf	pclath,c
  2984   0020D0  5069               	movf	_INT1_InterruptHandler^0,w,c
  2985   0020D2  6EFD               	movwf	tosl,c
  2986   0020D4  506A               	movf	(_INT1_InterruptHandler+1)^0,w,c
  2987   0020D6  6EFE               	movwf	tosh,c
  2988   0020D8  6AFF               	clrf	tosu,c
  2989   0020DA  50FA               	movf	pclath,w,c
  2990   0020DC  0012               	return		;indir
  2991   0020DE                     i1u271_29:
  2992   0020DE                     i1l596:
  2993   0020DE  0012               	return		;funcret
  2994   0020E0                     __end_of_INT1_ISR:
  2995                           	callstack 0
  2996                           
  2997 ;; *************** function _INT0_ISR *****************
  2998 ;; Defined at:
  2999 ;;		line 520 in file "mcal_external_interrupt.c"
  3000 ;; Parameters:    Size  Location     Type
  3001 ;;		None
  3002 ;; Auto vars:     Size  Location     Type
  3003 ;;		None
  3004 ;; Return value:  Size  Location     Type
  3005 ;;                  1    wreg      void 
  3006 ;; Registers used:
  3007 ;;		wreg, fsr2l, fsr2h, status,2, status,0, pcl, pclath, pclatu, tosl, prodl, prodh, cstack
  3008 ;; Tracked objects:
  3009 ;;		On entry : 0/0
  3010 ;;		On exit  : 0/0
  3011 ;;		Unchanged: 0/0
  3012 ;; Data sizes:     COMRAM   BANK0   BANK1   BANK2   BANK3   BANK4   BANK5   BANK6   BANK7   BANK8   BANK9  BANK10  BANK1
      +1  BANK12  BANK13  BANK14  BANK15
  3013 ;;      Params:         0       0       0       0       0       0       0       0       0       0       0       0       
      +0       0       0       0       0
  3014 ;;      Locals:         0       0       0       0       0       0       0       0       0       0       0       0       
      +0       0       0       0       0
  3015 ;;      Temps:          0       0       0       0       0       0       0       0       0       0       0       0       
      +0       0       0       0       0
  3016 ;;      Totals:         0       0       0       0       0       0       0       0       0       0       0       0       
      +0       0       0       0       0
  3017 ;;Total ram usage:        0 bytes
  3018 ;; Hardware stack levels used: 1
  3019 ;; Hardware stack levels required when called: 7
  3020 ;; This function calls:
  3021 ;;		NULL
  3022 ;;		_Int0_App_ISR
  3023 ;;		_Int1_App_ISR
  3024 ;;		_Int2_App_ISR
  3025 ;; This function is called by:
  3026 ;;		_InterruptCheck
  3027 ;; This function uses a non-reentrant model
  3028 ;;
  3029                           
  3030                           	psect	text21
  3031   0020E0                     __ptext21:
  3032                           	callstack 0
  3033   0020E0                     _INT0_ISR:
  3034                           	callstack 18
  3035   0020E0                     
  3036                           ;mcal_external_interrupt.c: 522:     (INTCONbits.INT0IF = 0);
  3037   0020E0  92F2               	bcf	242,1,c	;volatile
  3038   0020E2                     
  3039                           ;mcal_external_interrupt.c: 526:     if(INT0_InterruptHandler){INT0_InterruptHandler();}
  3040   0020E2  506B               	movf	_INT0_InterruptHandler^0,w,c
  3041   0020E4  106C               	iorwf	(_INT0_InterruptHandler+1)^0,w,c
  3042   0020E6  B4D8               	btfsc	status,2,c
  3043   0020E8  EF78  F010         	goto	i1u268_21
  3044   0020EC  EF7A  F010         	goto	i1u268_20
  3045   0020F0                     i1u268_21:
  3046   0020F0  EF86  F010         	goto	i1l591
  3047   0020F4                     i1u268_20:
  3048   0020F4  D802               	call	i1u269_28
  3049   0020F6  EF86  F010         	goto	i1u269_29
  3050   0020FA                     i1u269_28:
  3051   0020FA  0005               	push	
  3052   0020FC  6EFA               	movwf	pclath,c
  3053   0020FE  506B               	movf	_INT0_InterruptHandler^0,w,c
  3054   002100  6EFD               	movwf	tosl,c
  3055   002102  506C               	movf	(_INT0_InterruptHandler+1)^0,w,c
  3056   002104  6EFE               	movwf	tosh,c
  3057   002106  6AFF               	clrf	tosu,c
  3058   002108  50FA               	movf	pclath,w,c
  3059   00210A  0012               	return		;indir
  3060   00210C                     i1u269_29:
  3061   00210C                     i1l591:
  3062   00210C  0012               	return		;funcret
  3063   00210E                     __end_of_INT0_ISR:
  3064                           	callstack 0
  3065                           
  3066 ;; *************** function _Int1_App_ISR *****************
  3067 ;; Defined at:
  3068 ;;		line 94 in file "application.c"
  3069 ;; Parameters:    Size  Location     Type
  3070 ;;		None
  3071 ;; Auto vars:     Size  Location     Type
  3072 ;;		None
  3073 ;; Return value:  Size  Location     Type
  3074 ;;                  1    wreg      void 
  3075 ;; Registers used:
  3076 ;;		wreg, fsr2l, fsr2h, status,2, status,0, prodl, prodh, cstack
  3077 ;; Tracked objects:
  3078 ;;		On entry : 0/0
  3079 ;;		On exit  : 0/0
  3080 ;;		Unchanged: 0/0
  3081 ;; Data sizes:     COMRAM   BANK0   BANK1   BANK2   BANK3   BANK4   BANK5   BANK6   BANK7   BANK8   BANK9  BANK10  BANK1
      +1  BANK12  BANK13  BANK14  BANK15
  3082 ;;      Params:         0       0       0       0       0       0       0       0       0       0       0       0       
      +0       0       0       0       0
  3083 ;;      Locals:         0       0       0       0       0       0       0       0       0       0       0       0       
      +0       0       0       0       0
  3084 ;;      Temps:          2       0       0       0       0       0       0       0       0       0       0       0       
      +0       0       0       0       0
  3085 ;;      Totals:         2       0       0       0       0       0       0       0       0       0       0       0       
      +0       0       0       0       0
  3086 ;;Total ram usage:        2 bytes
  3087 ;; Hardware stack levels used: 1
  3088 ;; Hardware stack levels required when called: 6
  3089 ;; This function calls:
  3090 ;;		_gpio_pin_toggle_logic
  3091 ;; This function is called by:
  3092 ;;		_INT0_ISR
  3093 ;;		_INT1_ISR
  3094 ;;		_INT2_ISR
  3095 ;;		i2_INT0_ISR
  3096 ;;		i2_INT1_ISR
  3097 ;;		i2_INT2_ISR
  3098 ;; This function uses a non-reentrant model
  3099 ;;
  3100                           
  3101                           	psect	text22
  3102   00210E                     __ptext22:
  3103                           	callstack 0
  3104   00210E                     _Int1_App_ISR:
  3105                           	callstack 0
  3106                           
  3107                           ;Skip over the trampoline to the duplicate function for level 2
  3108   00210E  A26E               	btfss	int$flags,1,c
  3109   002110  EF8C  F010         	goto	_Int1_App_ISR$intlevel1
  3110   002114  EF11  F011         	goto	i2_Int1_App_ISR
  3111   002118                     _Int1_App_ISR$intlevel1:
  3112                           	callstack 18
  3113   002118                     
  3114                           ;application.c: 95:     gpio_pin_toggle_logic(&led2);
  3115   002118  0E2D               	movlw	low _led2
  3116   00211A  6E3F               	movwf	gpio_pin_toggle_logic@_pin_config^0,c
  3117   00211C  0E00               	movlw	high _led2
  3118   00211E  6E40               	movwf	(gpio_pin_toggle_logic@_pin_config+1)^0,c
  3119   002120  EC07  F00D         	call	_gpio_pin_toggle_logic	;wreg free
  3120   002124                     
  3121                           ;application.c: 96:     _delay((unsigned long)((500)*(8000000UL/4000.0)));
  3122   002124  0E06               	movlw	6
  3123   002126  6E47               	movwf	(??_Int1_App_ISR+1)^0,c
  3124   002128  0E13               	movlw	19
  3125   00212A  6E46               	movwf	??_Int1_App_ISR^0,c
  3126   00212C  0EAE               	movlw	174
  3127   00212E                     i1u446_27:
  3128   00212E  2EE8               	decfsz	wreg,f,c
  3129   002130  D7FE               	bra	i1u446_27
  3130   002132  2E46               	decfsz	??_Int1_App_ISR^0,f,c
  3131   002134  D7FC               	bra	i1u446_27
  3132   002136  2E47               	decfsz	(??_Int1_App_ISR+1)^0,f,c
  3133   002138  D7FA               	bra	i1u446_27
  3134   00213A  0012               	return		;funcret
  3135   00213C                     __end_of_Int1_App_ISR:
  3136                           	callstack 0
  3137                           
  3138 ;; *************** function _Int0_App_ISR *****************
  3139 ;; Defined at:
  3140 ;;		line 90 in file "application.c"
  3141 ;; Parameters:    Size  Location     Type
  3142 ;;		None
  3143 ;; Auto vars:     Size  Location     Type
  3144 ;;		None
  3145 ;; Return value:  Size  Location     Type
  3146 ;;                  1    wreg      void 
  3147 ;; Registers used:
  3148 ;;		wreg, fsr2l, fsr2h, status,2, status,0, prodl, prodh, cstack
  3149 ;; Tracked objects:
  3150 ;;		On entry : 0/0
  3151 ;;		On exit  : 0/0
  3152 ;;		Unchanged: 0/0
  3153 ;; Data sizes:     COMRAM   BANK0   BANK1   BANK2   BANK3   BANK4   BANK5   BANK6   BANK7   BANK8   BANK9  BANK10  BANK1
      +1  BANK12  BANK13  BANK14  BANK15
  3154 ;;      Params:         0       0       0       0       0       0       0       0       0       0       0       0       
      +0       0       0       0       0
  3155 ;;      Locals:         0       0       0       0       0       0       0       0       0       0       0       0       
      +0       0       0       0       0
  3156 ;;      Temps:          2       0       0       0       0       0       0       0       0       0       0       0       
      +0       0       0       0       0
  3157 ;;      Totals:         2       0       0       0       0       0       0       0       0       0       0       0       
      +0       0       0       0       0
  3158 ;;Total ram usage:        2 bytes
  3159 ;; Hardware stack levels used: 1
  3160 ;; Hardware stack levels required when called: 6
  3161 ;; This function calls:
  3162 ;;		_gpio_pin_toggle_logic
  3163 ;; This function is called by:
  3164 ;;		_INT0_ISR
  3165 ;;		_INT1_ISR
  3166 ;;		_INT2_ISR
  3167 ;;		i2_INT0_ISR
  3168 ;;		i2_INT1_ISR
  3169 ;;		i2_INT2_ISR
  3170 ;; This function uses a non-reentrant model
  3171 ;;
  3172                           
  3173                           	psect	text23
  3174   00213C                     __ptext23:
  3175                           	callstack 0
  3176   00213C                     _Int0_App_ISR:
  3177                           	callstack 0
  3178                           
  3179                           ;Skip over the trampoline to the duplicate function for level 2
  3180   00213C  A26E               	btfss	int$flags,1,c
  3181   00213E  EFA3  F010         	goto	_Int0_App_ISR$intlevel1
  3182   002142  EF23  F011         	goto	i2_Int0_App_ISR
  3183   002146                     _Int0_App_ISR$intlevel1:
  3184                           	callstack 18
  3185   002146                     
  3186                           ;application.c: 91:     gpio_pin_toggle_logic(&led1);
  3187   002146  0E2E               	movlw	low _led1
  3188   002148  6E3F               	movwf	gpio_pin_toggle_logic@_pin_config^0,c
  3189   00214A  0E00               	movlw	high _led1
  3190   00214C  6E40               	movwf	(gpio_pin_toggle_logic@_pin_config+1)^0,c
  3191   00214E  EC07  F00D         	call	_gpio_pin_toggle_logic	;wreg free
  3192   002152                     
  3193                           ;application.c: 92:     _delay((unsigned long)((500)*(8000000UL/4000.0)));
  3194   002152  0E06               	movlw	6
  3195   002154  6E47               	movwf	(??_Int0_App_ISR+1)^0,c
  3196   002156  0E13               	movlw	19
  3197   002158  6E46               	movwf	??_Int0_App_ISR^0,c
  3198   00215A  0EAE               	movlw	174
  3199   00215C                     i1u447_27:
  3200   00215C  2EE8               	decfsz	wreg,f,c
  3201   00215E  D7FE               	bra	i1u447_27
  3202   002160  2E46               	decfsz	??_Int0_App_ISR^0,f,c
  3203   002162  D7FC               	bra	i1u447_27
  3204   002164  2E47               	decfsz	(??_Int0_App_ISR+1)^0,f,c
  3205   002166  D7FA               	bra	i1u447_27
  3206   002168  0012               	return		;funcret
  3207   00216A                     __end_of_Int0_App_ISR:
  3208                           	callstack 0
  3209                           
  3210 ;; *************** function _Int2_App_ISR *****************
  3211 ;; Defined at:
  3212 ;;		line 98 in file "application.c"
  3213 ;; Parameters:    Size  Location     Type
  3214 ;;		None
  3215 ;; Auto vars:     Size  Location     Type
  3216 ;;		None
  3217 ;; Return value:  Size  Location     Type
  3218 ;;                  1    wreg      void 
  3219 ;; Registers used:
  3220 ;;		wreg, fsr2l, fsr2h, status,2, status,0, prodl, prodh, cstack
  3221 ;; Tracked objects:
  3222 ;;		On entry : 0/0
  3223 ;;		On exit  : 0/0
  3224 ;;		Unchanged: 0/0
  3225 ;; Data sizes:     COMRAM   BANK0   BANK1   BANK2   BANK3   BANK4   BANK5   BANK6   BANK7   BANK8   BANK9  BANK10  BANK1
      +1  BANK12  BANK13  BANK14  BANK15
  3226 ;;      Params:         0       0       0       0       0       0       0       0       0       0       0       0       
      +0       0       0       0       0
  3227 ;;      Locals:         0       0       0       0       0       0       0       0       0       0       0       0       
      +0       0       0       0       0
  3228 ;;      Temps:          2       0       0       0       0       0       0       0       0       0       0       0       
      +0       0       0       0       0
  3229 ;;      Totals:         2       0       0       0       0       0       0       0       0       0       0       0       
      +0       0       0       0       0
  3230 ;;Total ram usage:        2 bytes
  3231 ;; Hardware stack levels used: 1
  3232 ;; Hardware stack levels required when called: 6
  3233 ;; This function calls:
  3234 ;;		_gpio_pin_toggle_logic
  3235 ;; This function is called by:
  3236 ;;		_INT0_ISR
  3237 ;;		_INT1_ISR
  3238 ;;		_INT2_ISR
  3239 ;;		i2_INT0_ISR
  3240 ;;		i2_INT1_ISR
  3241 ;;		i2_INT2_ISR
  3242 ;; This function uses a non-reentrant model
  3243 ;;
  3244                           
  3245                           	psect	text24
  3246   00216A                     __ptext24:
  3247                           	callstack 0
  3248   00216A                     _Int2_App_ISR:
  3249                           	callstack 0
  3250                           
  3251                           ;Skip over the trampoline to the duplicate function for level 2
  3252   00216A  A26E               	btfss	int$flags,1,c
  3253   00216C  EFBA  F010         	goto	_Int2_App_ISR$intlevel1
  3254   002170  EF35  F011         	goto	i2_Int2_App_ISR
  3255   002174                     _Int2_App_ISR$intlevel1:
  3256                           	callstack 18
  3257   002174                     
  3258                           ;application.c: 99:     gpio_pin_toggle_logic(&led3);
  3259   002174  0E2C               	movlw	low _led3
  3260   002176  6E3F               	movwf	gpio_pin_toggle_logic@_pin_config^0,c
  3261   002178  0E00               	movlw	high _led3
  3262   00217A  6E40               	movwf	(gpio_pin_toggle_logic@_pin_config+1)^0,c
  3263   00217C  EC07  F00D         	call	_gpio_pin_toggle_logic	;wreg free
  3264   002180                     
  3265                           ;application.c: 100:     _delay((unsigned long)((500)*(8000000UL/4000.0)));
  3266   002180  0E06               	movlw	6
  3267   002182  6E47               	movwf	(??_Int2_App_ISR+1)^0,c
  3268   002184  0E13               	movlw	19
  3269   002186  6E46               	movwf	??_Int2_App_ISR^0,c
  3270   002188  0EAE               	movlw	174
  3271   00218A                     i1u448_27:
  3272   00218A  2EE8               	decfsz	wreg,f,c
  3273   00218C  D7FE               	bra	i1u448_27
  3274   00218E  2E46               	decfsz	??_Int2_App_ISR^0,f,c
  3275   002190  D7FC               	bra	i1u448_27
  3276   002192  2E47               	decfsz	(??_Int2_App_ISR+1)^0,f,c
  3277   002194  D7FA               	bra	i1u448_27
  3278   002196  0012               	return		;funcret
  3279   002198                     __end_of_Int2_App_ISR:
  3280                           	callstack 0
  3281                           
  3282 ;; *************** function _gpio_pin_toggle_logic *****************
  3283 ;; Defined at:
  3284 ;;		line 136 in file "MCAL_Layer/GPIO/hal_gpio.c"
  3285 ;; Parameters:    Size  Location     Type
  3286 ;;  _pin_config     2   16[COMRAM] PTR const struct .
  3287 ;;		 -> led3(1), led2(1), led1(1), 
  3288 ;; Auto vars:     Size  Location     Type
  3289 ;;  ret             1    0        unsigned char 
  3290 ;; Return value:  Size  Location     Type
  3291 ;;                  1    wreg      unsigned char 
  3292 ;; Registers used:
  3293 ;;		wreg, fsr2l, fsr2h, status,2, status,0, prodl, prodh
  3294 ;; Tracked objects:
  3295 ;;		On entry : 0/0
  3296 ;;		On exit  : 0/0
  3297 ;;		Unchanged: 0/0
  3298 ;; Data sizes:     COMRAM   BANK0   BANK1   BANK2   BANK3   BANK4   BANK5   BANK6   BANK7   BANK8   BANK9  BANK10  BANK1
      +1  BANK12  BANK13  BANK14  BANK15
  3299 ;;      Params:         2       0       0       0       0       0       0       0       0       0       0       0       
      +0       0       0       0       0
  3300 ;;      Locals:         0       0       0       0       0       0       0       0       0       0       0       0       
      +0       0       0       0       0
  3301 ;;      Temps:          5       0       0       0       0       0       0       0       0       0       0       0       
      +0       0       0       0       0
  3302 ;;      Totals:         7       0       0       0       0       0       0       0       0       0       0       0       
      +0       0       0       0       0
  3303 ;;Total ram usage:        7 bytes
  3304 ;; Hardware stack levels used: 1
  3305 ;; Hardware stack levels required when called: 5
  3306 ;; This function calls:
  3307 ;;		Nothing
  3308 ;; This function is called by:
  3309 ;;		_Int0_App_ISR
  3310 ;;		_Int1_App_ISR
  3311 ;;		_Int2_App_ISR
  3312 ;; This function uses a non-reentrant model
  3313 ;;
  3314                           
  3315                           	psect	text25
  3316   001A0E                     __ptext25:
  3317                           	callstack 0
  3318   001A0E                     _gpio_pin_toggle_logic:
  3319                           	callstack 18
  3320   001A0E                     
  3321                           ;MCAL_Layer/GPIO/hal_gpio.c: 138:     if(((void*)0) == _pin_config || _pin_config->pin >
      +                           8 -1)
  3322   001A0E  503F               	movf	gpio_pin_toggle_logic@_pin_config^0,w,c
  3323   001A10  1040               	iorwf	(gpio_pin_toggle_logic@_pin_config+1)^0,w,c
  3324   001A12  B4D8               	btfsc	status,2,c
  3325   001A14  EF0E  F00D         	goto	i1u240_21
  3326   001A18  EF10  F00D         	goto	i1u240_20
  3327   001A1C                     i1u240_21:
  3328   001A1C  EF21  F00D         	goto	i1l2791
  3329   001A20                     i1u240_20:
  3330   001A20  C03F  FFD9         	movff	gpio_pin_toggle_logic@_pin_config,fsr2l
  3331   001A24  C040  FFDA         	movff	gpio_pin_toggle_logic@_pin_config+1,fsr2h
  3332   001A28  30DF               	rrcf	223,w,c
  3333   001A2A  32E8               	rrcf	wreg,f,c
  3334   001A2C  32E8               	rrcf	wreg,f,c
  3335   001A2E  0B07               	andlw	7
  3336   001A30  6E41               	movwf	??_gpio_pin_toggle_logic^0,c
  3337   001A32  0E07               	movlw	7
  3338   001A34  6441               	cpfsgt	??_gpio_pin_toggle_logic^0,c
  3339   001A36  EF1F  F00D         	goto	i1u241_21
  3340   001A3A  EF21  F00D         	goto	i1u241_20
  3341   001A3E                     i1u241_21:
  3342   001A3E  EF23  F00D         	goto	i1l2793
  3343   001A42                     i1u241_20:
  3344   001A42                     i1l2791:
  3345                           
  3346                           ;MCAL_Layer/GPIO/hal_gpio.c: 141:     }
  3347   001A42  EF4F  F00D         	goto	i1l243
  3348   001A46                     i1l2793:
  3349                           
  3350                           ;MCAL_Layer/GPIO/hal_gpio.c: 143:     {;MCAL_Layer/GPIO/hal_gpio.c: 144:         (*lat_r
      +                          egisters[_pin_config->port] ^= ((uint8)1 << _pin_config->pin));
  3351   001A46  C03F  FFD9         	movff	gpio_pin_toggle_logic@_pin_config,fsr2l
  3352   001A4A  C040  FFDA         	movff	gpio_pin_toggle_logic@_pin_config+1,fsr2h
  3353   001A4E  30DF               	rrcf	223,w,c
  3354   001A50  32E8               	rrcf	wreg,f,c
  3355   001A52  32E8               	rrcf	wreg,f,c
  3356   001A54  0B07               	andlw	7
  3357   001A56  6E41               	movwf	??_gpio_pin_toggle_logic^0,c
  3358   001A58  0E01               	movlw	1
  3359   001A5A  6E42               	movwf	(??_gpio_pin_toggle_logic+1)^0,c
  3360   001A5C  2A41               	incf	??_gpio_pin_toggle_logic^0,f,c
  3361   001A5E  EF33  F00D         	goto	i1u242_24
  3362   001A62                     i1u242_25:
  3363   001A62  90D8               	bcf	status,0,c
  3364   001A64  3642               	rlcf	(??_gpio_pin_toggle_logic+1)^0,f,c
  3365   001A66                     i1u242_24:
  3366   001A66  2E41               	decfsz	??_gpio_pin_toggle_logic^0,f,c
  3367   001A68  EF31  F00D         	goto	i1u242_25
  3368   001A6C  C03F  FFD9         	movff	gpio_pin_toggle_logic@_pin_config,fsr2l
  3369   001A70  C040  FFDA         	movff	gpio_pin_toggle_logic@_pin_config+1,fsr2h
  3370   001A74  50DF               	movf	223,w,c
  3371   001A76  0B07               	andlw	7
  3372   001A78  6E43               	movwf	(??_gpio_pin_toggle_logic+2)^0,c
  3373   001A7A  5043               	movf	(??_gpio_pin_toggle_logic+2)^0,w,c
  3374   001A7C  0D02               	mullw	2
  3375   001A7E  0E01               	movlw	low _lat_registers
  3376   001A80  24F3               	addwf	243,w,c
  3377   001A82  6ED9               	movwf	fsr2l,c
  3378   001A84  0E00               	movlw	high _lat_registers
  3379   001A86  20F4               	addwfc	prodh,w,c
  3380   001A88  6EDA               	movwf	fsr2h,c
  3381   001A8A  CFDE F044          	movff	postinc2,??_gpio_pin_toggle_logic+3
  3382   001A8E  CFDD F045          	movff	postdec2,??_gpio_pin_toggle_logic+4
  3383   001A92  C044  FFD9         	movff	??_gpio_pin_toggle_logic+3,fsr2l
  3384   001A96  C045  FFDA         	movff	??_gpio_pin_toggle_logic+4,fsr2h
  3385   001A9A  5042               	movf	(??_gpio_pin_toggle_logic+1)^0,w,c
  3386   001A9C  1ADF               	xorwf	indf2,f,c
  3387   001A9E                     i1l243:
  3388   001A9E  0012               	return		;funcret
  3389   001AA0                     __end_of_gpio_pin_toggle_logic:
  3390                           	callstack 0
  3391                           
  3392 ;; *************** function _InterruptManagerHigh *****************
  3393 ;; Defined at:
  3394 ;;		line 16 in file "MCAL_Layer/Interrupt/mcal_interrupt_manager.c"
  3395 ;; Parameters:    Size  Location     Type
  3396 ;;		None
  3397 ;; Auto vars:     Size  Location     Type
  3398 ;;		None
  3399 ;; Return value:  Size  Location     Type
  3400 ;;                  1    wreg      void 
  3401 ;; Registers used:
  3402 ;;		wreg, fsr2l, fsr2h, status,2, status,0, pcl, pclath, pclatu, tosl, prodl, prodh, cstack
  3403 ;; Tracked objects:
  3404 ;;		On entry : 0/0
  3405 ;;		On exit  : 0/0
  3406 ;;		Unchanged: 0/0
  3407 ;; Data sizes:     COMRAM   BANK0   BANK1   BANK2   BANK3   BANK4   BANK5   BANK6   BANK7   BANK8   BANK9  BANK10  BANK1
      +1  BANK12  BANK13  BANK14  BANK15
  3408 ;;      Params:         0       0       0       0       0       0       0       0       0       0       0       0       
      +0       0       0       0       0
  3409 ;;      Locals:         0       0       0       0       0       0       0       0       0       0       0       0       
      +0       0       0       0       0
  3410 ;;      Temps:          6       0       0       0       0       0       0       0       0       0       0       0       
      +0       0       0       0       0
  3411 ;;      Totals:         6       0       0       0       0       0       0       0       0       0       0       0       
      +0       0       0       0       0
  3412 ;;Total ram usage:        6 bytes
  3413 ;; Hardware stack levels used: 1
  3414 ;; Hardware stack levels required when called: 4
  3415 ;; This function calls:
  3416 ;;		i2_InterruptCheck
  3417 ;; This function is called by:
  3418 ;;		Interrupt level 2
  3419 ;; This function uses a non-reentrant model
  3420 ;;
  3421                           
  3422                           	psect	intcode
  3423   000008                     __pintcode:
  3424                           	callstack 0
  3425   000008                     _InterruptManagerHigh:
  3426                           	callstack 18
  3427                           
  3428                           ;incstack = 0
  3429   000008  826E               	bsf	int$flags,1,c	;set compiler interrupt flag (level 2)
  3430   00000A  EDF5  F00F         	call	int_func,f	;refresh shadow registers
  3431                           
  3432                           	psect	intcode_body
  3433   001FEA                     __pintcode_body:
  3434                           	callstack 18
  3435   001FEA                     int_func:
  3436                           	callstack 18
  3437   001FEA  0006               	pop		; remove dummy address from shadow register refresh
  3438   001FEC  CFFA F039          	movff	pclath,??_InterruptManagerHigh
  3439   001FF0  CFFB F03A          	movff	pclatu,??_InterruptManagerHigh+1
  3440   001FF4  CFD9 F03B          	movff	fsr2l,??_InterruptManagerHigh+2
  3441   001FF8  CFDA F03C          	movff	fsr2h,??_InterruptManagerHigh+3
  3442   001FFC  CFF3 F03D          	movff	prodl,??_InterruptManagerHigh+4
  3443   002000  CFF4 F03E          	movff	prodh,??_InterruptManagerHigh+5
  3444   002004                     
  3445                           ;MCAL_Layer/Interrupt/mcal_interrupt_manager.c: 17:     InterruptCheck();
  3446   002004  EC44  F009         	call	i2_InterruptCheck	;wreg free
  3447   002008  C03E  FFF4         	movff	??_InterruptManagerHigh+5,prodh
  3448   00200C  C03D  FFF3         	movff	??_InterruptManagerHigh+4,prodl
  3449   002010  C03C  FFDA         	movff	??_InterruptManagerHigh+3,fsr2h
  3450   002014  C03B  FFD9         	movff	??_InterruptManagerHigh+2,fsr2l
  3451   002018  C03A  FFFB         	movff	??_InterruptManagerHigh+1,pclatu
  3452   00201C  C039  FFFA         	movff	??_InterruptManagerHigh,pclath
  3453   002020  926E               	bcf	int$flags,1,c	;clear compiler interrupt flag (level 2)
  3454   002022  0011               	retfie		f
  3455   002024                     __end_of_InterruptManagerHigh:
  3456                           	callstack 0
  3457                           
  3458 ;; *************** function i2_InterruptCheck *****************
  3459 ;; Defined at:
  3460 ;;		line 31 in file "MCAL_Layer/Interrupt/mcal_interrupt_manager.c"
  3461 ;; Parameters:    Size  Location     Type
  3462 ;;		None
  3463 ;; Auto vars:     Size  Location     Type
  3464 ;;		None
  3465 ;; Return value:  Size  Location     Type
  3466 ;;                  1    wreg      void 
  3467 ;; Registers used:
  3468 ;;		wreg, fsr2l, fsr2h, status,2, status,0, pcl, pclath, pclatu, tosl, prodl, prodh, cstack
  3469 ;; Tracked objects:
  3470 ;;		On entry : 0/0
  3471 ;;		On exit  : 0/0
  3472 ;;		Unchanged: 0/0
  3473 ;; Data sizes:     COMRAM   BANK0   BANK1   BANK2   BANK3   BANK4   BANK5   BANK6   BANK7   BANK8   BANK9  BANK10  BANK1
      +1  BANK12  BANK13  BANK14  BANK15
  3474 ;;      Params:         0       0       0       0       0       0       0       0       0       0       0       0       
      +0       0       0       0       0
  3475 ;;      Locals:         0       0       0       0       0       0       0       0       0       0       0       0       
      +0       0       0       0       0
  3476 ;;      Temps:          0       0       0       0       0       0       0       0       0       0       0       0       
      +0       0       0       0       0
  3477 ;;      Totals:         0       0       0       0       0       0       0       0       0       0       0       0       
      +0       0       0       0       0
  3478 ;;Total ram usage:        0 bytes
  3479 ;; Hardware stack levels used: 1
  3480 ;; Hardware stack levels required when called: 3
  3481 ;; This function calls:
  3482 ;;		i2_INT0_ISR
  3483 ;;		i2_INT1_ISR
  3484 ;;		i2_INT2_ISR
  3485 ;;		i2_RB4_ISR
  3486 ;;		i2_RB5_ISR
  3487 ;;		i2_RB6_ISR
  3488 ;;		i2_RB7_ISR
  3489 ;; This function is called by:
  3490 ;;		_InterruptManagerHigh
  3491 ;; This function uses a non-reentrant model
  3492 ;;
  3493                           
  3494                           	psect	text27
  3495   001288                     __ptext27:
  3496                           	callstack 0
  3497   001288                     i2_InterruptCheck:
  3498                           	callstack 18
  3499   001288                     
  3500                           ;MCAL_Layer/Interrupt/mcal_interrupt_manager.c: 32:     if((1 == INTCONbits.INT0IE)&&(1 
      +                          == INTCONbits.INT0IF)){
  3501   001288  A8F2               	btfss	242,4,c	;volatile
  3502   00128A  EF49  F009         	goto	i2u372_41
  3503   00128E  EF4B  F009         	goto	i2u372_40
  3504   001292                     i2u372_41:
  3505   001292  EF54  F009         	goto	i2l689
  3506   001296                     i2u372_40:
  3507   001296  A2F2               	btfss	242,1,c	;volatile
  3508   001298  EF50  F009         	goto	i2u373_41
  3509   00129C  EF52  F009         	goto	i2u373_40
  3510   0012A0                     i2u373_41:
  3511   0012A0  EF54  F009         	goto	i2l689
  3512   0012A4                     i2u373_40:
  3513   0012A4                     
  3514                           ;MCAL_Layer/Interrupt/mcal_interrupt_manager.c: 33:         INT0_ISR();
  3515   0012A4  ECFA  F010         	call	i2_INT0_ISR	;wreg free
  3516   0012A8                     i2l689:
  3517                           
  3518                           ;MCAL_Layer/Interrupt/mcal_interrupt_manager.c: 37:     if((1 == INTCON3bits.INT1IE)&&(1
      +                           == INTCON3bits.INT1IF)){
  3519   0012A8  A6F0               	btfss	240,3,c	;volatile
  3520   0012AA  EF59  F009         	goto	i2u374_41
  3521   0012AE  EF5B  F009         	goto	i2u374_40
  3522   0012B2                     i2u374_41:
  3523   0012B2  EF64  F009         	goto	i2l691
  3524   0012B6                     i2u374_40:
  3525   0012B6  A0F0               	btfss	240,0,c	;volatile
  3526   0012B8  EF60  F009         	goto	i2u375_41
  3527   0012BC  EF62  F009         	goto	i2u375_40
  3528   0012C0                     i2u375_41:
  3529   0012C0  EF64  F009         	goto	i2l691
  3530   0012C4                     i2u375_40:
  3531   0012C4                     
  3532                           ;MCAL_Layer/Interrupt/mcal_interrupt_manager.c: 38:         INT1_ISR();
  3533   0012C4  ECE3  F010         	call	i2_INT1_ISR	;wreg free
  3534   0012C8                     i2l691:
  3535                           
  3536                           ;MCAL_Layer/Interrupt/mcal_interrupt_manager.c: 42:     if((1 == INTCON3bits.INT2IE)&&(1
      +                           == INTCON3bits.INT2IF)){
  3537   0012C8  A8F0               	btfss	240,4,c	;volatile
  3538   0012CA  EF69  F009         	goto	i2u376_41
  3539   0012CE  EF6B  F009         	goto	i2u376_40
  3540   0012D2                     i2u376_41:
  3541   0012D2  EF74  F009         	goto	i2l693
  3542   0012D6                     i2u376_40:
  3543   0012D6  A2F0               	btfss	240,1,c	;volatile
  3544   0012D8  EF70  F009         	goto	i2u377_41
  3545   0012DC  EF72  F009         	goto	i2u377_40
  3546   0012E0                     i2u377_41:
  3547   0012E0  EF74  F009         	goto	i2l693
  3548   0012E4                     i2u377_40:
  3549   0012E4                     
  3550                           ;MCAL_Layer/Interrupt/mcal_interrupt_manager.c: 43:         INT2_ISR();
  3551   0012E4  ECCC  F010         	call	i2_INT2_ISR	;wreg free
  3552   0012E8                     i2l693:
  3553                           
  3554                           ;MCAL_Layer/Interrupt/mcal_interrupt_manager.c: 47:     if((1 == INTCONbits.RBIE)&&(1 ==
      +                           INTCONbits.RBIF)&&(PORTBbits.RB4 == GPIO_HIGH) && (RB4_Flag ==1)){
  3555   0012E8  A6F2               	btfss	242,3,c	;volatile
  3556   0012EA  EF79  F009         	goto	i2u378_41
  3557   0012EE  EF7B  F009         	goto	i2u378_40
  3558   0012F2                     i2u378_41:
  3559   0012F2  EF96  F009         	goto	i2l695
  3560   0012F6                     i2u378_40:
  3561   0012F6  A0F2               	btfss	242,0,c	;volatile
  3562   0012F8  EF80  F009         	goto	i2u379_41
  3563   0012FC  EF82  F009         	goto	i2u379_40
  3564   001300                     i2u379_41:
  3565   001300  EF96  F009         	goto	i2l695
  3566   001304                     i2u379_40:
  3567   001304  A881               	btfss	129,4,c	;volatile
  3568   001306  EF87  F009         	goto	i2u380_41
  3569   00130A  EF89  F009         	goto	i2u380_40
  3570   00130E                     i2u380_41:
  3571   00130E  EF96  F009         	goto	i2l695
  3572   001312                     i2u380_40:
  3573   001312  0418               	decf	_RB4_Flag^0,w,c	;volatile
  3574   001314  A4D8               	btfss	status,2,c
  3575   001316  EF8F  F009         	goto	i2u381_41
  3576   00131A  EF91  F009         	goto	i2u381_40
  3577   00131E                     i2u381_41:
  3578   00131E  EF96  F009         	goto	i2l695
  3579   001322                     i2u381_40:
  3580   001322                     
  3581                           ;MCAL_Layer/Interrupt/mcal_interrupt_manager.c: 48:         RB4_Flag = 0;
  3582   001322  0E00               	movlw	0
  3583   001324  6E18               	movwf	_RB4_Flag^0,c	;volatile
  3584   001326                     
  3585                           ;MCAL_Layer/Interrupt/mcal_interrupt_manager.c: 49:         RB4_ISR(1);
  3586   001326  0E01               	movlw	1
  3587   001328  EC52  F00F         	call	i2_RB4_ISR
  3588   00132C                     i2l695:
  3589                           
  3590                           ;MCAL_Layer/Interrupt/mcal_interrupt_manager.c: 52:     if((1 == INTCONbits.RBIE)&&(1 ==
      +                           INTCONbits.RBIF)&&(PORTBbits.RB4 == GPIO_LOW)&& (RB4_Flag ==0)){
  3591   00132C  A6F2               	btfss	242,3,c	;volatile
  3592   00132E  EF9B  F009         	goto	i2u382_41
  3593   001332  EF9D  F009         	goto	i2u382_40
  3594   001336                     i2u382_41:
  3595   001336  EFB8  F009         	goto	i2l697
  3596   00133A                     i2u382_40:
  3597   00133A  A0F2               	btfss	242,0,c	;volatile
  3598   00133C  EFA2  F009         	goto	i2u383_41
  3599   001340  EFA4  F009         	goto	i2u383_40
  3600   001344                     i2u383_41:
  3601   001344  EFB8  F009         	goto	i2l697
  3602   001348                     i2u383_40:
  3603   001348  B881               	btfsc	129,4,c	;volatile
  3604   00134A  EFA9  F009         	goto	i2u384_41
  3605   00134E  EFAB  F009         	goto	i2u384_40
  3606   001352                     i2u384_41:
  3607   001352  EFB8  F009         	goto	i2l697
  3608   001356                     i2u384_40:
  3609   001356  5018               	movf	_RB4_Flag^0,w,c	;volatile
  3610   001358  A4D8               	btfss	status,2,c
  3611   00135A  EFB1  F009         	goto	i2u385_41
  3612   00135E  EFB3  F009         	goto	i2u385_40
  3613   001362                     i2u385_41:
  3614   001362  EFB8  F009         	goto	i2l697
  3615   001366                     i2u385_40:
  3616   001366                     
  3617                           ;MCAL_Layer/Interrupt/mcal_interrupt_manager.c: 53:         RB4_Flag = 1;
  3618   001366  0E01               	movlw	1
  3619   001368  6E18               	movwf	_RB4_Flag^0,c	;volatile
  3620   00136A                     
  3621                           ;MCAL_Layer/Interrupt/mcal_interrupt_manager.c: 54:         RB4_ISR(0);
  3622   00136A  0E00               	movlw	0
  3623   00136C  EC52  F00F         	call	i2_RB4_ISR
  3624   001370                     i2l697:
  3625                           
  3626                           ;MCAL_Layer/Interrupt/mcal_interrupt_manager.c: 58:     if((1 == INTCONbits.RBIE)&&(1 ==
      +                           INTCONbits.RBIF)&&(PORTBbits.RB5 == GPIO_HIGH) && (RB5_Flag ==1)){
  3627   001370  A6F2               	btfss	242,3,c	;volatile
  3628   001372  EFBD  F009         	goto	i2u386_41
  3629   001376  EFBF  F009         	goto	i2u386_40
  3630   00137A                     i2u386_41:
  3631   00137A  EFDA  F009         	goto	i2l699
  3632   00137E                     i2u386_40:
  3633   00137E  A0F2               	btfss	242,0,c	;volatile
  3634   001380  EFC4  F009         	goto	i2u387_41
  3635   001384  EFC6  F009         	goto	i2u387_40
  3636   001388                     i2u387_41:
  3637   001388  EFDA  F009         	goto	i2l699
  3638   00138C                     i2u387_40:
  3639   00138C  AA81               	btfss	129,5,c	;volatile
  3640   00138E  EFCB  F009         	goto	i2u388_41
  3641   001392  EFCD  F009         	goto	i2u388_40
  3642   001396                     i2u388_41:
  3643   001396  EFDA  F009         	goto	i2l699
  3644   00139A                     i2u388_40:
  3645   00139A  0417               	decf	_RB5_Flag^0,w,c	;volatile
  3646   00139C  A4D8               	btfss	status,2,c
  3647   00139E  EFD3  F009         	goto	i2u389_41
  3648   0013A2  EFD5  F009         	goto	i2u389_40
  3649   0013A6                     i2u389_41:
  3650   0013A6  EFDA  F009         	goto	i2l699
  3651   0013AA                     i2u389_40:
  3652   0013AA                     
  3653                           ;MCAL_Layer/Interrupt/mcal_interrupt_manager.c: 59:         RB5_Flag = 0;
  3654   0013AA  0E00               	movlw	0
  3655   0013AC  6E17               	movwf	_RB5_Flag^0,c	;volatile
  3656   0013AE                     
  3657                           ;MCAL_Layer/Interrupt/mcal_interrupt_manager.c: 60:         RB5_ISR(1);
  3658   0013AE  0E01               	movlw	1
  3659   0013B0  EC13  F00F         	call	i2_RB5_ISR
  3660   0013B4                     i2l699:
  3661                           
  3662                           ;MCAL_Layer/Interrupt/mcal_interrupt_manager.c: 63:     if((1 == INTCONbits.RBIE)&&(1 ==
      +                           INTCONbits.RBIF)&&(PORTBbits.RB5 == GPIO_LOW)&& (RB5_Flag ==0)){
  3663   0013B4  A6F2               	btfss	242,3,c	;volatile
  3664   0013B6  EFDF  F009         	goto	i2u390_41
  3665   0013BA  EFE1  F009         	goto	i2u390_40
  3666   0013BE                     i2u390_41:
  3667   0013BE  EFFC  F009         	goto	i2l701
  3668   0013C2                     i2u390_40:
  3669   0013C2  A0F2               	btfss	242,0,c	;volatile
  3670   0013C4  EFE6  F009         	goto	i2u391_41
  3671   0013C8  EFE8  F009         	goto	i2u391_40
  3672   0013CC                     i2u391_41:
  3673   0013CC  EFFC  F009         	goto	i2l701
  3674   0013D0                     i2u391_40:
  3675   0013D0  BA81               	btfsc	129,5,c	;volatile
  3676   0013D2  EFED  F009         	goto	i2u392_41
  3677   0013D6  EFEF  F009         	goto	i2u392_40
  3678   0013DA                     i2u392_41:
  3679   0013DA  EFFC  F009         	goto	i2l701
  3680   0013DE                     i2u392_40:
  3681   0013DE  5017               	movf	_RB5_Flag^0,w,c	;volatile
  3682   0013E0  A4D8               	btfss	status,2,c
  3683   0013E2  EFF5  F009         	goto	i2u393_41
  3684   0013E6  EFF7  F009         	goto	i2u393_40
  3685   0013EA                     i2u393_41:
  3686   0013EA  EFFC  F009         	goto	i2l701
  3687   0013EE                     i2u393_40:
  3688   0013EE                     
  3689                           ;MCAL_Layer/Interrupt/mcal_interrupt_manager.c: 64:         RB5_Flag = 1;
  3690   0013EE  0E01               	movlw	1
  3691   0013F0  6E17               	movwf	_RB5_Flag^0,c	;volatile
  3692   0013F2                     
  3693                           ;MCAL_Layer/Interrupt/mcal_interrupt_manager.c: 65:         RB5_ISR(0);
  3694   0013F2  0E00               	movlw	0
  3695   0013F4  EC13  F00F         	call	i2_RB5_ISR
  3696   0013F8                     i2l701:
  3697                           
  3698                           ;MCAL_Layer/Interrupt/mcal_interrupt_manager.c: 69:     if((1 == INTCONbits.RBIE)&&(1 ==
      +                           INTCONbits.RBIF)&&(PORTBbits.RB6 == GPIO_HIGH) && (RB6_Flag ==1)){
  3699   0013F8  A6F2               	btfss	242,3,c	;volatile
  3700   0013FA  EF01  F00A         	goto	i2u394_41
  3701   0013FE  EF03  F00A         	goto	i2u394_40
  3702   001402                     i2u394_41:
  3703   001402  EF1E  F00A         	goto	i2l703
  3704   001406                     i2u394_40:
  3705   001406  A0F2               	btfss	242,0,c	;volatile
  3706   001408  EF08  F00A         	goto	i2u395_41
  3707   00140C  EF0A  F00A         	goto	i2u395_40
  3708   001410                     i2u395_41:
  3709   001410  EF1E  F00A         	goto	i2l703
  3710   001414                     i2u395_40:
  3711   001414  AC81               	btfss	129,6,c	;volatile
  3712   001416  EF0F  F00A         	goto	i2u396_41
  3713   00141A  EF11  F00A         	goto	i2u396_40
  3714   00141E                     i2u396_41:
  3715   00141E  EF1E  F00A         	goto	i2l703
  3716   001422                     i2u396_40:
  3717   001422  0416               	decf	_RB6_Flag^0,w,c	;volatile
  3718   001424  A4D8               	btfss	status,2,c
  3719   001426  EF17  F00A         	goto	i2u397_41
  3720   00142A  EF19  F00A         	goto	i2u397_40
  3721   00142E                     i2u397_41:
  3722   00142E  EF1E  F00A         	goto	i2l703
  3723   001432                     i2u397_40:
  3724   001432                     
  3725                           ;MCAL_Layer/Interrupt/mcal_interrupt_manager.c: 70:         RB6_Flag = 0;
  3726   001432  0E00               	movlw	0
  3727   001434  6E16               	movwf	_RB6_Flag^0,c	;volatile
  3728   001436                     
  3729                           ;MCAL_Layer/Interrupt/mcal_interrupt_manager.c: 71:         RB6_ISR(1);
  3730   001436  0E01               	movlw	1
  3731   001438  ECD4  F00E         	call	i2_RB6_ISR
  3732   00143C                     i2l703:
  3733                           
  3734                           ;MCAL_Layer/Interrupt/mcal_interrupt_manager.c: 74:     if((1 == INTCONbits.RBIE)&&(1 ==
      +                           INTCONbits.RBIF)&&(PORTBbits.RB6 == GPIO_LOW)&& (RB6_Flag ==0)){
  3735   00143C  A6F2               	btfss	242,3,c	;volatile
  3736   00143E  EF23  F00A         	goto	i2u398_41
  3737   001442  EF25  F00A         	goto	i2u398_40
  3738   001446                     i2u398_41:
  3739   001446  EF40  F00A         	goto	i2l705
  3740   00144A                     i2u398_40:
  3741   00144A  A0F2               	btfss	242,0,c	;volatile
  3742   00144C  EF2A  F00A         	goto	i2u399_41
  3743   001450  EF2C  F00A         	goto	i2u399_40
  3744   001454                     i2u399_41:
  3745   001454  EF40  F00A         	goto	i2l705
  3746   001458                     i2u399_40:
  3747   001458  BC81               	btfsc	129,6,c	;volatile
  3748   00145A  EF31  F00A         	goto	i2u400_41
  3749   00145E  EF33  F00A         	goto	i2u400_40
  3750   001462                     i2u400_41:
  3751   001462  EF40  F00A         	goto	i2l705
  3752   001466                     i2u400_40:
  3753   001466  5016               	movf	_RB6_Flag^0,w,c	;volatile
  3754   001468  A4D8               	btfss	status,2,c
  3755   00146A  EF39  F00A         	goto	i2u401_41
  3756   00146E  EF3B  F00A         	goto	i2u401_40
  3757   001472                     i2u401_41:
  3758   001472  EF40  F00A         	goto	i2l705
  3759   001476                     i2u401_40:
  3760   001476                     
  3761                           ;MCAL_Layer/Interrupt/mcal_interrupt_manager.c: 75:         RB6_Flag = 1;
  3762   001476  0E01               	movlw	1
  3763   001478  6E16               	movwf	_RB6_Flag^0,c	;volatile
  3764   00147A                     
  3765                           ;MCAL_Layer/Interrupt/mcal_interrupt_manager.c: 76:         RB6_ISR(0);
  3766   00147A  0E00               	movlw	0
  3767   00147C  ECD4  F00E         	call	i2_RB6_ISR
  3768   001480                     i2l705:
  3769                           
  3770                           ;MCAL_Layer/Interrupt/mcal_interrupt_manager.c: 80:     if((1 == INTCONbits.RBIE)&&(1 ==
      +                           INTCONbits.RBIF)&&(PORTBbits.RB7 == GPIO_HIGH) && (RB7_Flag ==1)){
  3771   001480  A6F2               	btfss	242,3,c	;volatile
  3772   001482  EF45  F00A         	goto	i2u402_41
  3773   001486  EF47  F00A         	goto	i2u402_40
  3774   00148A                     i2u402_41:
  3775   00148A  EF62  F00A         	goto	i2l707
  3776   00148E                     i2u402_40:
  3777   00148E  A0F2               	btfss	242,0,c	;volatile
  3778   001490  EF4C  F00A         	goto	i2u403_41
  3779   001494  EF4E  F00A         	goto	i2u403_40
  3780   001498                     i2u403_41:
  3781   001498  EF62  F00A         	goto	i2l707
  3782   00149C                     i2u403_40:
  3783   00149C  AE81               	btfss	129,7,c	;volatile
  3784   00149E  EF53  F00A         	goto	i2u404_41
  3785   0014A2  EF55  F00A         	goto	i2u404_40
  3786   0014A6                     i2u404_41:
  3787   0014A6  EF62  F00A         	goto	i2l707
  3788   0014AA                     i2u404_40:
  3789   0014AA  0415               	decf	_RB7_Flag^0,w,c	;volatile
  3790   0014AC  A4D8               	btfss	status,2,c
  3791   0014AE  EF5B  F00A         	goto	i2u405_41
  3792   0014B2  EF5D  F00A         	goto	i2u405_40
  3793   0014B6                     i2u405_41:
  3794   0014B6  EF62  F00A         	goto	i2l707
  3795   0014BA                     i2u405_40:
  3796   0014BA                     
  3797                           ;MCAL_Layer/Interrupt/mcal_interrupt_manager.c: 81:         RB7_Flag = 0;
  3798   0014BA  0E00               	movlw	0
  3799   0014BC  6E15               	movwf	_RB7_Flag^0,c	;volatile
  3800   0014BE                     
  3801                           ;MCAL_Layer/Interrupt/mcal_interrupt_manager.c: 82:         RB7_ISR(1);
  3802   0014BE  0E01               	movlw	1
  3803   0014C0  EC95  F00E         	call	i2_RB7_ISR
  3804   0014C4                     i2l707:
  3805                           
  3806                           ;MCAL_Layer/Interrupt/mcal_interrupt_manager.c: 85:     if((1 == INTCONbits.RBIE)&&(1 ==
      +                           INTCONbits.RBIF)&&(PORTBbits.RB7 == GPIO_LOW)&& (RB7_Flag ==0)){
  3807   0014C4  A6F2               	btfss	242,3,c	;volatile
  3808   0014C6  EF67  F00A         	goto	i2u406_41
  3809   0014CA  EF69  F00A         	goto	i2u406_40
  3810   0014CE                     i2u406_41:
  3811   0014CE  EF84  F00A         	goto	i2l710
  3812   0014D2                     i2u406_40:
  3813   0014D2  A0F2               	btfss	242,0,c	;volatile
  3814   0014D4  EF6E  F00A         	goto	i2u407_41
  3815   0014D8  EF70  F00A         	goto	i2u407_40
  3816   0014DC                     i2u407_41:
  3817   0014DC  EF84  F00A         	goto	i2l710
  3818   0014E0                     i2u407_40:
  3819   0014E0  BE81               	btfsc	129,7,c	;volatile
  3820   0014E2  EF75  F00A         	goto	i2u408_41
  3821   0014E6  EF77  F00A         	goto	i2u408_40
  3822   0014EA                     i2u408_41:
  3823   0014EA  EF84  F00A         	goto	i2l710
  3824   0014EE                     i2u408_40:
  3825   0014EE  5015               	movf	_RB7_Flag^0,w,c	;volatile
  3826   0014F0  A4D8               	btfss	status,2,c
  3827   0014F2  EF7D  F00A         	goto	i2u409_41
  3828   0014F6  EF7F  F00A         	goto	i2u409_40
  3829   0014FA                     i2u409_41:
  3830   0014FA  EF84  F00A         	goto	i2l710
  3831   0014FE                     i2u409_40:
  3832   0014FE                     
  3833                           ;MCAL_Layer/Interrupt/mcal_interrupt_manager.c: 86:         RB7_Flag = 1;
  3834   0014FE  0E01               	movlw	1
  3835   001500  6E15               	movwf	_RB7_Flag^0,c	;volatile
  3836   001502                     
  3837                           ;MCAL_Layer/Interrupt/mcal_interrupt_manager.c: 87:         RB7_ISR(0);
  3838   001502  0E00               	movlw	0
  3839   001504  EC95  F00E         	call	i2_RB7_ISR
  3840   001508                     i2l710:
  3841   001508  0012               	return		;funcret
  3842   00150A                     __end_ofi2_InterruptCheck:
  3843                           	callstack 0
  3844                           
  3845 ;; *************** function i2_RB7_ISR *****************
  3846 ;; Defined at:
  3847 ;;		line 605 in file "mcal_external_interrupt.c"
  3848 ;; Parameters:    Size  Location     Type
  3849 ;;  RB7_Source      1    wreg     unsigned char 
  3850 ;; Auto vars:     Size  Location     Type
  3851 ;;  RB7_Source      1    9[COMRAM] unsigned char 
  3852 ;; Return value:  Size  Location     Type
  3853 ;;                  1    wreg      void 
  3854 ;; Registers used:
  3855 ;;		wreg, fsr2l, fsr2h, status,2, status,0, pcl, pclath, pclatu, tosl, prodl, prodh, cstack
  3856 ;; Tracked objects:
  3857 ;;		On entry : 0/0
  3858 ;;		On exit  : 0/0
  3859 ;;		Unchanged: 0/0
  3860 ;; Data sizes:     COMRAM   BANK0   BANK1   BANK2   BANK3   BANK4   BANK5   BANK6   BANK7   BANK8   BANK9  BANK10  BANK1
      +1  BANK12  BANK13  BANK14  BANK15
  3861 ;;      Params:         0       0       0       0       0       0       0       0       0       0       0       0       
      +0       0       0       0       0
  3862 ;;      Locals:         1       0       0       0       0       0       0       0       0       0       0       0       
      +0       0       0       0       0
  3863 ;;      Temps:          0       0       0       0       0       0       0       0       0       0       0       0       
      +0       0       0       0       0
  3864 ;;      Totals:         1       0       0       0       0       0       0       0       0       0       0       0       
      +0       0       0       0       0
  3865 ;;Total ram usage:        1 bytes
  3866 ;; Hardware stack levels used: 1
  3867 ;; Hardware stack levels required when called: 2
  3868 ;; This function calls:
  3869 ;;		NULL
  3870 ;;		i2_RB4_HIGH_Int_APP_ISR
  3871 ;;		i2_RB4_LOW_Int_APP_ISR
  3872 ;;		i2_RB5_HIGH_Int_APP_ISR
  3873 ;;		i2_RB5_LOW_Int_APP_ISR
  3874 ;;		i2_RB6_HIGH_Int_APP_ISR
  3875 ;;		i2_RB6_LOW_Int_APP_ISR
  3876 ;;		i2_RB7_HIGH_Int_APP_ISR
  3877 ;;		i2_RB7_LOW_Int_APP_ISR
  3878 ;; This function is called by:
  3879 ;;		i2_InterruptCheck
  3880 ;; This function uses a non-reentrant model
  3881 ;;
  3882                           
  3883                           	psect	text28
  3884   001D2A                     __ptext28:
  3885                           	callstack 0
  3886   001D2A                     i2_RB7_ISR:
  3887                           	callstack 18
  3888                           
  3889                           ;incstack = 0
  3890                           ;i2RB7_ISR@RB7_Source stored from wreg
  3891   001D2A  6E38               	movwf	i2RB7_ISR@RB7_Source^0,c
  3892   001D2C                     
  3893                           ;mcal_external_interrupt.c: 607:     (INTCONbits.RBIF = 0);
  3894   001D2C  90F2               	bcf	242,0,c	;volatile
  3895   001D2E                     
  3896                           ;mcal_external_interrupt.c: 611:     if(0 == RB7_Source){
  3897   001D2E  5038               	movf	i2RB7_ISR@RB7_Source^0,w,c
  3898   001D30  A4D8               	btfss	status,2,c
  3899   001D32  EF9D  F00E         	goto	i2u322_41
  3900   001D36  EF9F  F00E         	goto	i2u322_40
  3901   001D3A                     i2u322_41:
  3902   001D3A  EFB6  F00E         	goto	i2l3215
  3903   001D3E                     i2u322_40:
  3904   001D3E                     
  3905                           ;mcal_external_interrupt.c: 612:         if(RB7_InterruptHandler_LOW){RB7_InterruptHandl
      +                          er_LOW();}
  3906   001D3E  5057               	movf	_RB7_InterruptHandler_LOW^0,w,c
  3907   001D40  1058               	iorwf	(_RB7_InterruptHandler_LOW+1)^0,w,c
  3908   001D42  B4D8               	btfsc	status,2,c
  3909   001D44  EFA6  F00E         	goto	i2u323_41
  3910   001D48  EFA8  F00E         	goto	i2u323_40
  3911   001D4C                     i2u323_41:
  3912   001D4C  EFD3  F00E         	goto	i2l645
  3913   001D50                     i2u323_40:
  3914   001D50  D802               	call	i2u324_48
  3915   001D52  EFB4  F00E         	goto	i2u324_49
  3916   001D56                     i2u324_48:
  3917   001D56  0005               	push	
  3918   001D58  6EFA               	movwf	pclath,c
  3919   001D5A  5057               	movf	_RB7_InterruptHandler_LOW^0,w,c
  3920   001D5C  6EFD               	movwf	tosl,c
  3921   001D5E  5058               	movf	(_RB7_InterruptHandler_LOW+1)^0,w,c
  3922   001D60  6EFE               	movwf	tosh,c
  3923   001D62  6AFF               	clrf	tosu,c
  3924   001D64  50FA               	movf	pclath,w,c
  3925   001D66  0012               	return		;indir
  3926   001D68                     i2u324_49:
  3927   001D68  EFD3  F00E         	goto	i2l645
  3928   001D6C                     i2l3215:
  3929   001D6C  0438               	decf	i2RB7_ISR@RB7_Source^0,w,c
  3930   001D6E  A4D8               	btfss	status,2,c
  3931   001D70  EFBC  F00E         	goto	i2u325_41
  3932   001D74  EFBE  F00E         	goto	i2u325_40
  3933   001D78                     i2u325_41:
  3934   001D78  EFD3  F00E         	goto	i2l645
  3935   001D7C                     i2u325_40:
  3936   001D7C                     
  3937                           ;mcal_external_interrupt.c: 616:         if(RB7_InterruptHandler_HIGH){RB7_InterruptHand
      +                          ler_HIGH();}
  3938   001D7C  5059               	movf	_RB7_InterruptHandler_HIGH^0,w,c
  3939   001D7E  105A               	iorwf	(_RB7_InterruptHandler_HIGH+1)^0,w,c
  3940   001D80  B4D8               	btfsc	status,2,c
  3941   001D82  EFC5  F00E         	goto	i2u326_41
  3942   001D86  EFC7  F00E         	goto	i2u326_40
  3943   001D8A                     i2u326_41:
  3944   001D8A  EFD3  F00E         	goto	i2l645
  3945   001D8E                     i2u326_40:
  3946   001D8E  D802               	call	i2u327_48
  3947   001D90  EFD3  F00E         	goto	i2u327_49
  3948   001D94                     i2u327_48:
  3949   001D94  0005               	push	
  3950   001D96  6EFA               	movwf	pclath,c
  3951   001D98  5059               	movf	_RB7_InterruptHandler_HIGH^0,w,c
  3952   001D9A  6EFD               	movwf	tosl,c
  3953   001D9C  505A               	movf	(_RB7_InterruptHandler_HIGH+1)^0,w,c
  3954   001D9E  6EFE               	movwf	tosh,c
  3955   001DA0  6AFF               	clrf	tosu,c
  3956   001DA2  50FA               	movf	pclath,w,c
  3957   001DA4  0012               	return		;indir
  3958   001DA6                     i2u327_49:
  3959   001DA6                     i2l645:
  3960   001DA6  0012               	return		;funcret
  3961   001DA8                     __end_ofi2_RB7_ISR:
  3962                           	callstack 0
  3963                           
  3964 ;; *************** function i2_RB6_ISR *****************
  3965 ;; Defined at:
  3966 ;;		line 587 in file "mcal_external_interrupt.c"
  3967 ;; Parameters:    Size  Location     Type
  3968 ;;  RB6_Source      1    wreg     unsigned char 
  3969 ;; Auto vars:     Size  Location     Type
  3970 ;;  RB6_Source      1    9[COMRAM] unsigned char 
  3971 ;; Return value:  Size  Location     Type
  3972 ;;                  1    wreg      void 
  3973 ;; Registers used:
  3974 ;;		wreg, fsr2l, fsr2h, status,2, status,0, pcl, pclath, pclatu, tosl, prodl, prodh, cstack
  3975 ;; Tracked objects:
  3976 ;;		On entry : 0/0
  3977 ;;		On exit  : 0/0
  3978 ;;		Unchanged: 0/0
  3979 ;; Data sizes:     COMRAM   BANK0   BANK1   BANK2   BANK3   BANK4   BANK5   BANK6   BANK7   BANK8   BANK9  BANK10  BANK1
      +1  BANK12  BANK13  BANK14  BANK15
  3980 ;;      Params:         0       0       0       0       0       0       0       0       0       0       0       0       
      +0       0       0       0       0
  3981 ;;      Locals:         1       0       0       0       0       0       0       0       0       0       0       0       
      +0       0       0       0       0
  3982 ;;      Temps:          0       0       0       0       0       0       0       0       0       0       0       0       
      +0       0       0       0       0
  3983 ;;      Totals:         1       0       0       0       0       0       0       0       0       0       0       0       
      +0       0       0       0       0
  3984 ;;Total ram usage:        1 bytes
  3985 ;; Hardware stack levels used: 1
  3986 ;; Hardware stack levels required when called: 2
  3987 ;; This function calls:
  3988 ;;		NULL
  3989 ;;		i2_RB4_HIGH_Int_APP_ISR
  3990 ;;		i2_RB4_LOW_Int_APP_ISR
  3991 ;;		i2_RB5_HIGH_Int_APP_ISR
  3992 ;;		i2_RB5_LOW_Int_APP_ISR
  3993 ;;		i2_RB6_HIGH_Int_APP_ISR
  3994 ;;		i2_RB6_LOW_Int_APP_ISR
  3995 ;;		i2_RB7_HIGH_Int_APP_ISR
  3996 ;;		i2_RB7_LOW_Int_APP_ISR
  3997 ;; This function is called by:
  3998 ;;		i2_InterruptCheck
  3999 ;; This function uses a non-reentrant model
  4000 ;;
  4001                           
  4002                           	psect	text29
  4003   001DA8                     __ptext29:
  4004                           	callstack 0
  4005   001DA8                     i2_RB6_ISR:
  4006                           	callstack 18
  4007                           
  4008                           ;incstack = 0
  4009                           ;i2RB6_ISR@RB6_Source stored from wreg
  4010   001DA8  6E38               	movwf	i2RB6_ISR@RB6_Source^0,c
  4011   001DAA                     
  4012                           ;mcal_external_interrupt.c: 589:     (INTCONbits.RBIF = 0);
  4013   001DAA  90F2               	bcf	242,0,c	;volatile
  4014   001DAC                     
  4015                           ;mcal_external_interrupt.c: 593:     if(0 == RB6_Source){
  4016   001DAC  5038               	movf	i2RB6_ISR@RB6_Source^0,w,c
  4017   001DAE  A4D8               	btfss	status,2,c
  4018   001DB0  EFDC  F00E         	goto	i2u316_41
  4019   001DB4  EFDE  F00E         	goto	i2u316_40
  4020   001DB8                     i2u316_41:
  4021   001DB8  EFF5  F00E         	goto	i2l3201
  4022   001DBC                     i2u316_40:
  4023   001DBC                     
  4024                           ;mcal_external_interrupt.c: 594:         if(RB6_InterruptHandler_LOW){RB6_InterruptHandl
      +                          er_LOW();}
  4025   001DBC  505B               	movf	_RB6_InterruptHandler_LOW^0,w,c
  4026   001DBE  105C               	iorwf	(_RB6_InterruptHandler_LOW+1)^0,w,c
  4027   001DC0  B4D8               	btfsc	status,2,c
  4028   001DC2  EFE5  F00E         	goto	i2u317_41
  4029   001DC6  EFE7  F00E         	goto	i2u317_40
  4030   001DCA                     i2u317_41:
  4031   001DCA  EF12  F00F         	goto	i2l634
  4032   001DCE                     i2u317_40:
  4033   001DCE  D802               	call	i2u318_48
  4034   001DD0  EFF3  F00E         	goto	i2u318_49
  4035   001DD4                     i2u318_48:
  4036   001DD4  0005               	push	
  4037   001DD6  6EFA               	movwf	pclath,c
  4038   001DD8  505B               	movf	_RB6_InterruptHandler_LOW^0,w,c
  4039   001DDA  6EFD               	movwf	tosl,c
  4040   001DDC  505C               	movf	(_RB6_InterruptHandler_LOW+1)^0,w,c
  4041   001DDE  6EFE               	movwf	tosh,c
  4042   001DE0  6AFF               	clrf	tosu,c
  4043   001DE2  50FA               	movf	pclath,w,c
  4044   001DE4  0012               	return		;indir
  4045   001DE6                     i2u318_49:
  4046   001DE6  EF12  F00F         	goto	i2l634
  4047   001DEA                     i2l3201:
  4048   001DEA  0438               	decf	i2RB6_ISR@RB6_Source^0,w,c
  4049   001DEC  A4D8               	btfss	status,2,c
  4050   001DEE  EFFB  F00E         	goto	i2u319_41
  4051   001DF2  EFFD  F00E         	goto	i2u319_40
  4052   001DF6                     i2u319_41:
  4053   001DF6  EF12  F00F         	goto	i2l634
  4054   001DFA                     i2u319_40:
  4055   001DFA                     
  4056                           ;mcal_external_interrupt.c: 598:         if(RB6_InterruptHandler_HIGH){RB6_InterruptHand
      +                          ler_HIGH();}
  4057   001DFA  505D               	movf	_RB6_InterruptHandler_HIGH^0,w,c
  4058   001DFC  105E               	iorwf	(_RB6_InterruptHandler_HIGH+1)^0,w,c
  4059   001DFE  B4D8               	btfsc	status,2,c
  4060   001E00  EF04  F00F         	goto	i2u320_41
  4061   001E04  EF06  F00F         	goto	i2u320_40
  4062   001E08                     i2u320_41:
  4063   001E08  EF12  F00F         	goto	i2l634
  4064   001E0C                     i2u320_40:
  4065   001E0C  D802               	call	i2u321_48
  4066   001E0E  EF12  F00F         	goto	i2u321_49
  4067   001E12                     i2u321_48:
  4068   001E12  0005               	push	
  4069   001E14  6EFA               	movwf	pclath,c
  4070   001E16  505D               	movf	_RB6_InterruptHandler_HIGH^0,w,c
  4071   001E18  6EFD               	movwf	tosl,c
  4072   001E1A  505E               	movf	(_RB6_InterruptHandler_HIGH+1)^0,w,c
  4073   001E1C  6EFE               	movwf	tosh,c
  4074   001E1E  6AFF               	clrf	tosu,c
  4075   001E20  50FA               	movf	pclath,w,c
  4076   001E22  0012               	return		;indir
  4077   001E24                     i2u321_49:
  4078   001E24                     i2l634:
  4079   001E24  0012               	return		;funcret
  4080   001E26                     __end_ofi2_RB6_ISR:
  4081                           	callstack 0
  4082                           
  4083 ;; *************** function i2_RB5_ISR *****************
  4084 ;; Defined at:
  4085 ;;		line 569 in file "mcal_external_interrupt.c"
  4086 ;; Parameters:    Size  Location     Type
  4087 ;;  RB5_Source      1    wreg     unsigned char 
  4088 ;; Auto vars:     Size  Location     Type
  4089 ;;  RB5_Source      1    9[COMRAM] unsigned char 
  4090 ;; Return value:  Size  Location     Type
  4091 ;;                  1    wreg      void 
  4092 ;; Registers used:
  4093 ;;		wreg, fsr2l, fsr2h, status,2, status,0, pcl, pclath, pclatu, tosl, prodl, prodh, cstack
  4094 ;; Tracked objects:
  4095 ;;		On entry : 0/0
  4096 ;;		On exit  : 0/0
  4097 ;;		Unchanged: 0/0
  4098 ;; Data sizes:     COMRAM   BANK0   BANK1   BANK2   BANK3   BANK4   BANK5   BANK6   BANK7   BANK8   BANK9  BANK10  BANK1
      +1  BANK12  BANK13  BANK14  BANK15
  4099 ;;      Params:         0       0       0       0       0       0       0       0       0       0       0       0       
      +0       0       0       0       0
  4100 ;;      Locals:         1       0       0       0       0       0       0       0       0       0       0       0       
      +0       0       0       0       0
  4101 ;;      Temps:          0       0       0       0       0       0       0       0       0       0       0       0       
      +0       0       0       0       0
  4102 ;;      Totals:         1       0       0       0       0       0       0       0       0       0       0       0       
      +0       0       0       0       0
  4103 ;;Total ram usage:        1 bytes
  4104 ;; Hardware stack levels used: 1
  4105 ;; Hardware stack levels required when called: 2
  4106 ;; This function calls:
  4107 ;;		NULL
  4108 ;;		i2_RB4_HIGH_Int_APP_ISR
  4109 ;;		i2_RB4_LOW_Int_APP_ISR
  4110 ;;		i2_RB5_HIGH_Int_APP_ISR
  4111 ;;		i2_RB5_LOW_Int_APP_ISR
  4112 ;;		i2_RB6_HIGH_Int_APP_ISR
  4113 ;;		i2_RB6_LOW_Int_APP_ISR
  4114 ;;		i2_RB7_HIGH_Int_APP_ISR
  4115 ;;		i2_RB7_LOW_Int_APP_ISR
  4116 ;; This function is called by:
  4117 ;;		i2_InterruptCheck
  4118 ;; This function uses a non-reentrant model
  4119 ;;
  4120                           
  4121                           	psect	text30
  4122   001E26                     __ptext30:
  4123                           	callstack 0
  4124   001E26                     i2_RB5_ISR:
  4125                           	callstack 18
  4126                           
  4127                           ;incstack = 0
  4128                           ;i2RB5_ISR@RB5_Source stored from wreg
  4129   001E26  6E38               	movwf	i2RB5_ISR@RB5_Source^0,c
  4130   001E28                     
  4131                           ;mcal_external_interrupt.c: 571:     (INTCONbits.RBIF = 0);
  4132   001E28  90F2               	bcf	242,0,c	;volatile
  4133   001E2A                     
  4134                           ;mcal_external_interrupt.c: 575:     if(0 == RB5_Source){
  4135   001E2A  5038               	movf	i2RB5_ISR@RB5_Source^0,w,c
  4136   001E2C  A4D8               	btfss	status,2,c
  4137   001E2E  EF1B  F00F         	goto	i2u310_41
  4138   001E32  EF1D  F00F         	goto	i2u310_40
  4139   001E36                     i2u310_41:
  4140   001E36  EF34  F00F         	goto	i2l3187
  4141   001E3A                     i2u310_40:
  4142   001E3A                     
  4143                           ;mcal_external_interrupt.c: 576:         if(RB5_InterruptHandler_LOW){RB5_InterruptHandl
      +                          er_LOW();}
  4144   001E3A  505F               	movf	_RB5_InterruptHandler_LOW^0,w,c
  4145   001E3C  1060               	iorwf	(_RB5_InterruptHandler_LOW+1)^0,w,c
  4146   001E3E  B4D8               	btfsc	status,2,c
  4147   001E40  EF24  F00F         	goto	i2u311_41
  4148   001E44  EF26  F00F         	goto	i2u311_40
  4149   001E48                     i2u311_41:
  4150   001E48  EF51  F00F         	goto	i2l623
  4151   001E4C                     i2u311_40:
  4152   001E4C  D802               	call	i2u312_48
  4153   001E4E  EF32  F00F         	goto	i2u312_49
  4154   001E52                     i2u312_48:
  4155   001E52  0005               	push	
  4156   001E54  6EFA               	movwf	pclath,c
  4157   001E56  505F               	movf	_RB5_InterruptHandler_LOW^0,w,c
  4158   001E58  6EFD               	movwf	tosl,c
  4159   001E5A  5060               	movf	(_RB5_InterruptHandler_LOW+1)^0,w,c
  4160   001E5C  6EFE               	movwf	tosh,c
  4161   001E5E  6AFF               	clrf	tosu,c
  4162   001E60  50FA               	movf	pclath,w,c
  4163   001E62  0012               	return		;indir
  4164   001E64                     i2u312_49:
  4165   001E64  EF51  F00F         	goto	i2l623
  4166   001E68                     i2l3187:
  4167   001E68  0438               	decf	i2RB5_ISR@RB5_Source^0,w,c
  4168   001E6A  A4D8               	btfss	status,2,c
  4169   001E6C  EF3A  F00F         	goto	i2u313_41
  4170   001E70  EF3C  F00F         	goto	i2u313_40
  4171   001E74                     i2u313_41:
  4172   001E74  EF51  F00F         	goto	i2l623
  4173   001E78                     i2u313_40:
  4174   001E78                     
  4175                           ;mcal_external_interrupt.c: 580:         if(RB5_InterruptHandler_HIGH){RB5_InterruptHand
      +                          ler_HIGH();}
  4176   001E78  5061               	movf	_RB5_InterruptHandler_HIGH^0,w,c
  4177   001E7A  1062               	iorwf	(_RB5_InterruptHandler_HIGH+1)^0,w,c
  4178   001E7C  B4D8               	btfsc	status,2,c
  4179   001E7E  EF43  F00F         	goto	i2u314_41
  4180   001E82  EF45  F00F         	goto	i2u314_40
  4181   001E86                     i2u314_41:
  4182   001E86  EF51  F00F         	goto	i2l623
  4183   001E8A                     i2u314_40:
  4184   001E8A  D802               	call	i2u315_48
  4185   001E8C  EF51  F00F         	goto	i2u315_49
  4186   001E90                     i2u315_48:
  4187   001E90  0005               	push	
  4188   001E92  6EFA               	movwf	pclath,c
  4189   001E94  5061               	movf	_RB5_InterruptHandler_HIGH^0,w,c
  4190   001E96  6EFD               	movwf	tosl,c
  4191   001E98  5062               	movf	(_RB5_InterruptHandler_HIGH+1)^0,w,c
  4192   001E9A  6EFE               	movwf	tosh,c
  4193   001E9C  6AFF               	clrf	tosu,c
  4194   001E9E  50FA               	movf	pclath,w,c
  4195   001EA0  0012               	return		;indir
  4196   001EA2                     i2u315_49:
  4197   001EA2                     i2l623:
  4198   001EA2  0012               	return		;funcret
  4199   001EA4                     __end_ofi2_RB5_ISR:
  4200                           	callstack 0
  4201                           
  4202 ;; *************** function i2_RB4_ISR *****************
  4203 ;; Defined at:
  4204 ;;		line 551 in file "mcal_external_interrupt.c"
  4205 ;; Parameters:    Size  Location     Type
  4206 ;;  RB4_Source      1    wreg     unsigned char 
  4207 ;; Auto vars:     Size  Location     Type
  4208 ;;  RB4_Source      1    9[COMRAM] unsigned char 
  4209 ;; Return value:  Size  Location     Type
  4210 ;;                  1    wreg      void 
  4211 ;; Registers used:
  4212 ;;		wreg, fsr2l, fsr2h, status,2, status,0, pcl, pclath, pclatu, tosl, prodl, prodh, cstack
  4213 ;; Tracked objects:
  4214 ;;		On entry : 0/0
  4215 ;;		On exit  : 0/0
  4216 ;;		Unchanged: 0/0
  4217 ;; Data sizes:     COMRAM   BANK0   BANK1   BANK2   BANK3   BANK4   BANK5   BANK6   BANK7   BANK8   BANK9  BANK10  BANK1
      +1  BANK12  BANK13  BANK14  BANK15
  4218 ;;      Params:         0       0       0       0       0       0       0       0       0       0       0       0       
      +0       0       0       0       0
  4219 ;;      Locals:         1       0       0       0       0       0       0       0       0       0       0       0       
      +0       0       0       0       0
  4220 ;;      Temps:          0       0       0       0       0       0       0       0       0       0       0       0       
      +0       0       0       0       0
  4221 ;;      Totals:         1       0       0       0       0       0       0       0       0       0       0       0       
      +0       0       0       0       0
  4222 ;;Total ram usage:        1 bytes
  4223 ;; Hardware stack levels used: 1
  4224 ;; Hardware stack levels required when called: 2
  4225 ;; This function calls:
  4226 ;;		NULL
  4227 ;;		i2_RB4_HIGH_Int_APP_ISR
  4228 ;;		i2_RB4_LOW_Int_APP_ISR
  4229 ;;		i2_RB5_HIGH_Int_APP_ISR
  4230 ;;		i2_RB5_LOW_Int_APP_ISR
  4231 ;;		i2_RB6_HIGH_Int_APP_ISR
  4232 ;;		i2_RB6_LOW_Int_APP_ISR
  4233 ;;		i2_RB7_HIGH_Int_APP_ISR
  4234 ;;		i2_RB7_LOW_Int_APP_ISR
  4235 ;; This function is called by:
  4236 ;;		i2_InterruptCheck
  4237 ;; This function uses a non-reentrant model
  4238 ;;
  4239                           
  4240                           	psect	text31
  4241   001EA4                     __ptext31:
  4242                           	callstack 0
  4243   001EA4                     i2_RB4_ISR:
  4244                           	callstack 18
  4245                           
  4246                           ;incstack = 0
  4247                           ;i2RB4_ISR@RB4_Source stored from wreg
  4248   001EA4  6E38               	movwf	i2RB4_ISR@RB4_Source^0,c
  4249   001EA6                     
  4250                           ;mcal_external_interrupt.c: 553:     (INTCONbits.RBIF = 0);
  4251   001EA6  90F2               	bcf	242,0,c	;volatile
  4252   001EA8                     
  4253                           ;mcal_external_interrupt.c: 557:     if(0 == RB4_Source){
  4254   001EA8  5038               	movf	i2RB4_ISR@RB4_Source^0,w,c
  4255   001EAA  A4D8               	btfss	status,2,c
  4256   001EAC  EF5A  F00F         	goto	i2u304_41
  4257   001EB0  EF5C  F00F         	goto	i2u304_40
  4258   001EB4                     i2u304_41:
  4259   001EB4  EF73  F00F         	goto	i2l3173
  4260   001EB8                     i2u304_40:
  4261   001EB8                     
  4262                           ;mcal_external_interrupt.c: 558:         if(RB4_InterruptHandler_LOW){RB4_InterruptHandl
      +                          er_LOW();}
  4263   001EB8  5063               	movf	_RB4_InterruptHandler_LOW^0,w,c
  4264   001EBA  1064               	iorwf	(_RB4_InterruptHandler_LOW+1)^0,w,c
  4265   001EBC  B4D8               	btfsc	status,2,c
  4266   001EBE  EF63  F00F         	goto	i2u305_41
  4267   001EC2  EF65  F00F         	goto	i2u305_40
  4268   001EC6                     i2u305_41:
  4269   001EC6  EF90  F00F         	goto	i2l612
  4270   001ECA                     i2u305_40:
  4271   001ECA  D802               	call	i2u306_48
  4272   001ECC  EF71  F00F         	goto	i2u306_49
  4273   001ED0                     i2u306_48:
  4274   001ED0  0005               	push	
  4275   001ED2  6EFA               	movwf	pclath,c
  4276   001ED4  5063               	movf	_RB4_InterruptHandler_LOW^0,w,c
  4277   001ED6  6EFD               	movwf	tosl,c
  4278   001ED8  5064               	movf	(_RB4_InterruptHandler_LOW+1)^0,w,c
  4279   001EDA  6EFE               	movwf	tosh,c
  4280   001EDC  6AFF               	clrf	tosu,c
  4281   001EDE  50FA               	movf	pclath,w,c
  4282   001EE0  0012               	return		;indir
  4283   001EE2                     i2u306_49:
  4284   001EE2  EF90  F00F         	goto	i2l612
  4285   001EE6                     i2l3173:
  4286   001EE6  0438               	decf	i2RB4_ISR@RB4_Source^0,w,c
  4287   001EE8  A4D8               	btfss	status,2,c
  4288   001EEA  EF79  F00F         	goto	i2u307_41
  4289   001EEE  EF7B  F00F         	goto	i2u307_40
  4290   001EF2                     i2u307_41:
  4291   001EF2  EF90  F00F         	goto	i2l612
  4292   001EF6                     i2u307_40:
  4293   001EF6                     
  4294                           ;mcal_external_interrupt.c: 562:         if(RB4_InterruptHandler_HIGH){RB4_InterruptHand
      +                          ler_HIGH();}
  4295   001EF6  5065               	movf	_RB4_InterruptHandler_HIGH^0,w,c
  4296   001EF8  1066               	iorwf	(_RB4_InterruptHandler_HIGH+1)^0,w,c
  4297   001EFA  B4D8               	btfsc	status,2,c
  4298   001EFC  EF82  F00F         	goto	i2u308_41
  4299   001F00  EF84  F00F         	goto	i2u308_40
  4300   001F04                     i2u308_41:
  4301   001F04  EF90  F00F         	goto	i2l612
  4302   001F08                     i2u308_40:
  4303   001F08  D802               	call	i2u309_48
  4304   001F0A  EF90  F00F         	goto	i2u309_49
  4305   001F0E                     i2u309_48:
  4306   001F0E  0005               	push	
  4307   001F10  6EFA               	movwf	pclath,c
  4308   001F12  5065               	movf	_RB4_InterruptHandler_HIGH^0,w,c
  4309   001F14  6EFD               	movwf	tosl,c
  4310   001F16  5066               	movf	(_RB4_InterruptHandler_HIGH+1)^0,w,c
  4311   001F18  6EFE               	movwf	tosh,c
  4312   001F1A  6AFF               	clrf	tosu,c
  4313   001F1C  50FA               	movf	pclath,w,c
  4314   001F1E  0012               	return		;indir
  4315   001F20                     i2u309_49:
  4316   001F20                     i2l612:
  4317   001F20  0012               	return		;funcret
  4318   001F22                     __end_ofi2_RB4_ISR:
  4319                           	callstack 0
  4320                           
  4321 ;; *************** function i2_RB6_LOW_Int_APP_ISR *****************
  4322 ;; Defined at:
  4323 ;;		line 41 in file "application.c"
  4324 ;; Parameters:    Size  Location     Type
  4325 ;;		None
  4326 ;; Auto vars:     Size  Location     Type
  4327 ;;		None
  4328 ;; Return value:  Size  Location     Type
  4329 ;;                  1    wreg      void 
  4330 ;; Registers used:
  4331 ;;		wreg, fsr2l, fsr2h, status,2, status,0, prodl, prodh, cstack
  4332 ;; Tracked objects:
  4333 ;;		On entry : 0/0
  4334 ;;		On exit  : 0/0
  4335 ;;		Unchanged: 0/0
  4336 ;; Data sizes:     COMRAM   BANK0   BANK1   BANK2   BANK3   BANK4   BANK5   BANK6   BANK7   BANK8   BANK9  BANK10  BANK1
      +1  BANK12  BANK13  BANK14  BANK15
  4337 ;;      Params:         0       0       0       0       0       0       0       0       0       0       0       0       
      +0       0       0       0       0
  4338 ;;      Locals:         0       0       0       0       0       0       0       0       0       0       0       0       
      +0       0       0       0       0
  4339 ;;      Temps:          0       0       0       0       0       0       0       0       0       0       0       0       
      +0       0       0       0       0
  4340 ;;      Totals:         0       0       0       0       0       0       0       0       0       0       0       0       
      +0       0       0       0       0
  4341 ;;Total ram usage:        0 bytes
  4342 ;; Hardware stack levels used: 1
  4343 ;; Hardware stack levels required when called: 1
  4344 ;; This function calls:
  4345 ;;		i2_gpio_pin_write_logic
  4346 ;; This function is called by:
  4347 ;;		_RB4_ISR
  4348 ;;		_RB5_ISR
  4349 ;;		_RB6_ISR
  4350 ;;		_RB7_ISR
  4351 ;;		i2_RB4_ISR
  4352 ;;		i2_RB5_ISR
  4353 ;;		i2_RB6_ISR
  4354 ;;		i2_RB7_ISR
  4355 ;; This function uses a non-reentrant model
  4356 ;;
  4357                           
  4358                           	psect	text32
  4359   00236E                     __ptext32:
  4360                           	callstack 0
  4361   00236E                     i2_RB6_LOW_Int_APP_ISR:
  4362                           	callstack 18
  4363   00236E                     
  4364                           ;application.c: 42:     gpio_pin_write_logic(&led3,GPIO_LOW);
  4365   00236E  0E2C               	movlw	low _led3
  4366   002370  6E2F               	movwf	i2gpio_pin_write_logic@_pin_config^0,c
  4367   002372  0E00               	movlw	high _led3
  4368   002374  6E30               	movwf	(i2gpio_pin_write_logic@_pin_config+1)^0,c
  4369   002376  0E00               	movlw	0
  4370   002378  6E31               	movwf	i2gpio_pin_write_logic@logic^0,c
  4371   00237A  EC76  F00C         	call	i2_gpio_pin_write_logic	;wreg free
  4372   00237E  0012               	return		;funcret
  4373   002380                     __end_ofi2_RB6_LOW_Int_APP_ISR:
  4374                           	callstack 0
  4375                           
  4376 ;; *************** function i2_RB5_LOW_Int_APP_ISR *****************
  4377 ;; Defined at:
  4378 ;;		line 33 in file "application.c"
  4379 ;; Parameters:    Size  Location     Type
  4380 ;;		None
  4381 ;; Auto vars:     Size  Location     Type
  4382 ;;		None
  4383 ;; Return value:  Size  Location     Type
  4384 ;;                  1    wreg      void 
  4385 ;; Registers used:
  4386 ;;		wreg, fsr2l, fsr2h, status,2, status,0, prodl, prodh, cstack
  4387 ;; Tracked objects:
  4388 ;;		On entry : 0/0
  4389 ;;		On exit  : 0/0
  4390 ;;		Unchanged: 0/0
  4391 ;; Data sizes:     COMRAM   BANK0   BANK1   BANK2   BANK3   BANK4   BANK5   BANK6   BANK7   BANK8   BANK9  BANK10  BANK1
      +1  BANK12  BANK13  BANK14  BANK15
  4392 ;;      Params:         0       0       0       0       0       0       0       0       0       0       0       0       
      +0       0       0       0       0
  4393 ;;      Locals:         0       0       0       0       0       0       0       0       0       0       0       0       
      +0       0       0       0       0
  4394 ;;      Temps:          0       0       0       0       0       0       0       0       0       0       0       0       
      +0       0       0       0       0
  4395 ;;      Totals:         0       0       0       0       0       0       0       0       0       0       0       0       
      +0       0       0       0       0
  4396 ;;Total ram usage:        0 bytes
  4397 ;; Hardware stack levels used: 1
  4398 ;; Hardware stack levels required when called: 1
  4399 ;; This function calls:
  4400 ;;		i2_gpio_pin_write_logic
  4401 ;; This function is called by:
  4402 ;;		_RB4_ISR
  4403 ;;		_RB5_ISR
  4404 ;;		_RB6_ISR
  4405 ;;		_RB7_ISR
  4406 ;;		i2_RB4_ISR
  4407 ;;		i2_RB5_ISR
  4408 ;;		i2_RB6_ISR
  4409 ;;		i2_RB7_ISR
  4410 ;; This function uses a non-reentrant model
  4411 ;;
  4412                           
  4413                           	psect	text33
  4414   002380                     __ptext33:
  4415                           	callstack 0
  4416   002380                     i2_RB5_LOW_Int_APP_ISR:
  4417                           	callstack 18
  4418   002380                     
  4419                           ;application.c: 34:     gpio_pin_write_logic(&led2,GPIO_LOW);
  4420   002380  0E2D               	movlw	low _led2
  4421   002382  6E2F               	movwf	i2gpio_pin_write_logic@_pin_config^0,c
  4422   002384  0E00               	movlw	high _led2
  4423   002386  6E30               	movwf	(i2gpio_pin_write_logic@_pin_config+1)^0,c
  4424   002388  0E00               	movlw	0
  4425   00238A  6E31               	movwf	i2gpio_pin_write_logic@logic^0,c
  4426   00238C  EC76  F00C         	call	i2_gpio_pin_write_logic	;wreg free
  4427   002390  0012               	return		;funcret
  4428   002392                     __end_ofi2_RB5_LOW_Int_APP_ISR:
  4429                           	callstack 0
  4430                           
  4431 ;; *************** function i2_RB4_LOW_Int_APP_ISR *****************
  4432 ;; Defined at:
  4433 ;;		line 25 in file "application.c"
  4434 ;; Parameters:    Size  Location     Type
  4435 ;;		None
  4436 ;; Auto vars:     Size  Location     Type
  4437 ;;		None
  4438 ;; Return value:  Size  Location     Type
  4439 ;;                  1    wreg      void 
  4440 ;; Registers used:
  4441 ;;		wreg, fsr2l, fsr2h, status,2, status,0, prodl, prodh, cstack
  4442 ;; Tracked objects:
  4443 ;;		On entry : 0/0
  4444 ;;		On exit  : 0/0
  4445 ;;		Unchanged: 0/0
  4446 ;; Data sizes:     COMRAM   BANK0   BANK1   BANK2   BANK3   BANK4   BANK5   BANK6   BANK7   BANK8   BANK9  BANK10  BANK1
      +1  BANK12  BANK13  BANK14  BANK15
  4447 ;;      Params:         0       0       0       0       0       0       0       0       0       0       0       0       
      +0       0       0       0       0
  4448 ;;      Locals:         0       0       0       0       0       0       0       0       0       0       0       0       
      +0       0       0       0       0
  4449 ;;      Temps:          0       0       0       0       0       0       0       0       0       0       0       0       
      +0       0       0       0       0
  4450 ;;      Totals:         0       0       0       0       0       0       0       0       0       0       0       0       
      +0       0       0       0       0
  4451 ;;Total ram usage:        0 bytes
  4452 ;; Hardware stack levels used: 1
  4453 ;; Hardware stack levels required when called: 1
  4454 ;; This function calls:
  4455 ;;		i2_gpio_pin_write_logic
  4456 ;; This function is called by:
  4457 ;;		_RB4_ISR
  4458 ;;		_RB5_ISR
  4459 ;;		_RB6_ISR
  4460 ;;		_RB7_ISR
  4461 ;;		i2_RB4_ISR
  4462 ;;		i2_RB5_ISR
  4463 ;;		i2_RB6_ISR
  4464 ;;		i2_RB7_ISR
  4465 ;; This function uses a non-reentrant model
  4466 ;;
  4467                           
  4468                           	psect	text34
  4469   002392                     __ptext34:
  4470                           	callstack 0
  4471   002392                     i2_RB4_LOW_Int_APP_ISR:
  4472                           	callstack 18
  4473   002392                     
  4474                           ;application.c: 26:     gpio_pin_write_logic(&led1,GPIO_LOW);
  4475   002392  0E2E               	movlw	low _led1
  4476   002394  6E2F               	movwf	i2gpio_pin_write_logic@_pin_config^0,c
  4477   002396  0E00               	movlw	high _led1
  4478   002398  6E30               	movwf	(i2gpio_pin_write_logic@_pin_config+1)^0,c
  4479   00239A  0E00               	movlw	0
  4480   00239C  6E31               	movwf	i2gpio_pin_write_logic@logic^0,c
  4481   00239E  EC76  F00C         	call	i2_gpio_pin_write_logic	;wreg free
  4482   0023A2  0012               	return		;funcret
  4483   0023A4                     __end_ofi2_RB4_LOW_Int_APP_ISR:
  4484                           	callstack 0
  4485                           
  4486 ;; *************** function i2_RB7_LOW_Int_APP_ISR *****************
  4487 ;; Defined at:
  4488 ;;		line 49 in file "application.c"
  4489 ;; Parameters:    Size  Location     Type
  4490 ;;		None
  4491 ;; Auto vars:     Size  Location     Type
  4492 ;;		None
  4493 ;; Return value:  Size  Location     Type
  4494 ;;                  1    wreg      void 
  4495 ;; Registers used:
  4496 ;;		wreg, fsr2l, fsr2h, status,2, status,0, prodl, prodh, cstack
  4497 ;; Tracked objects:
  4498 ;;		On entry : 0/0
  4499 ;;		On exit  : 0/0
  4500 ;;		Unchanged: 0/0
  4501 ;; Data sizes:     COMRAM   BANK0   BANK1   BANK2   BANK3   BANK4   BANK5   BANK6   BANK7   BANK8   BANK9  BANK10  BANK1
      +1  BANK12  BANK13  BANK14  BANK15
  4502 ;;      Params:         0       0       0       0       0       0       0       0       0       0       0       0       
      +0       0       0       0       0
  4503 ;;      Locals:         0       0       0       0       0       0       0       0       0       0       0       0       
      +0       0       0       0       0
  4504 ;;      Temps:          0       0       0       0       0       0       0       0       0       0       0       0       
      +0       0       0       0       0
  4505 ;;      Totals:         0       0       0       0       0       0       0       0       0       0       0       0       
      +0       0       0       0       0
  4506 ;;Total ram usage:        0 bytes
  4507 ;; Hardware stack levels used: 1
  4508 ;; Hardware stack levels required when called: 1
  4509 ;; This function calls:
  4510 ;;		i2_gpio_pin_write_logic
  4511 ;; This function is called by:
  4512 ;;		_RB4_ISR
  4513 ;;		_RB5_ISR
  4514 ;;		_RB6_ISR
  4515 ;;		_RB7_ISR
  4516 ;;		i2_RB4_ISR
  4517 ;;		i2_RB5_ISR
  4518 ;;		i2_RB6_ISR
  4519 ;;		i2_RB7_ISR
  4520 ;; This function uses a non-reentrant model
  4521 ;;
  4522                           
  4523                           	psect	text35
  4524   0023A4                     __ptext35:
  4525                           	callstack 0
  4526   0023A4                     i2_RB7_LOW_Int_APP_ISR:
  4527                           	callstack 18
  4528   0023A4                     
  4529                           ;application.c: 50:     gpio_pin_write_logic(&led4,GPIO_LOW);
  4530   0023A4  0E2B               	movlw	low _led4
  4531   0023A6  6E2F               	movwf	i2gpio_pin_write_logic@_pin_config^0,c
  4532   0023A8  0E00               	movlw	high _led4
  4533   0023AA  6E30               	movwf	(i2gpio_pin_write_logic@_pin_config+1)^0,c
  4534   0023AC  0E00               	movlw	0
  4535   0023AE  6E31               	movwf	i2gpio_pin_write_logic@logic^0,c
  4536   0023B0  EC76  F00C         	call	i2_gpio_pin_write_logic	;wreg free
  4537   0023B4  0012               	return		;funcret
  4538   0023B6                     __end_ofi2_RB7_LOW_Int_APP_ISR:
  4539                           	callstack 0
  4540                           
  4541 ;; *************** function i2_RB6_HIGH_Int_APP_ISR *****************
  4542 ;; Defined at:
  4543 ;;		line 37 in file "application.c"
  4544 ;; Parameters:    Size  Location     Type
  4545 ;;		None
  4546 ;; Auto vars:     Size  Location     Type
  4547 ;;		None
  4548 ;; Return value:  Size  Location     Type
  4549 ;;                  1    wreg      void 
  4550 ;; Registers used:
  4551 ;;		wreg, fsr2l, fsr2h, status,2, status,0, prodl, prodh, cstack
  4552 ;; Tracked objects:
  4553 ;;		On entry : 0/0
  4554 ;;		On exit  : 0/0
  4555 ;;		Unchanged: 0/0
  4556 ;; Data sizes:     COMRAM   BANK0   BANK1   BANK2   BANK3   BANK4   BANK5   BANK6   BANK7   BANK8   BANK9  BANK10  BANK1
      +1  BANK12  BANK13  BANK14  BANK15
  4557 ;;      Params:         0       0       0       0       0       0       0       0       0       0       0       0       
      +0       0       0       0       0
  4558 ;;      Locals:         0       0       0       0       0       0       0       0       0       0       0       0       
      +0       0       0       0       0
  4559 ;;      Temps:          0       0       0       0       0       0       0       0       0       0       0       0       
      +0       0       0       0       0
  4560 ;;      Totals:         0       0       0       0       0       0       0       0       0       0       0       0       
      +0       0       0       0       0
  4561 ;;Total ram usage:        0 bytes
  4562 ;; Hardware stack levels used: 1
  4563 ;; Hardware stack levels required when called: 1
  4564 ;; This function calls:
  4565 ;;		i2_gpio_pin_write_logic
  4566 ;; This function is called by:
  4567 ;;		_RB4_ISR
  4568 ;;		_RB5_ISR
  4569 ;;		_RB6_ISR
  4570 ;;		_RB7_ISR
  4571 ;;		i2_RB4_ISR
  4572 ;;		i2_RB5_ISR
  4573 ;;		i2_RB6_ISR
  4574 ;;		i2_RB7_ISR
  4575 ;; This function uses a non-reentrant model
  4576 ;;
  4577                           
  4578                           	psect	text36
  4579   0023B6                     __ptext36:
  4580                           	callstack 0
  4581   0023B6                     i2_RB6_HIGH_Int_APP_ISR:
  4582                           	callstack 18
  4583   0023B6                     
  4584                           ;application.c: 38:     gpio_pin_write_logic(&led3,GPIO_HIGH);
  4585   0023B6  0E2C               	movlw	low _led3
  4586   0023B8  6E2F               	movwf	i2gpio_pin_write_logic@_pin_config^0,c
  4587   0023BA  0E00               	movlw	high _led3
  4588   0023BC  6E30               	movwf	(i2gpio_pin_write_logic@_pin_config+1)^0,c
  4589   0023BE  0E01               	movlw	1
  4590   0023C0  6E31               	movwf	i2gpio_pin_write_logic@logic^0,c
  4591   0023C2  EC76  F00C         	call	i2_gpio_pin_write_logic	;wreg free
  4592   0023C6  0012               	return		;funcret
  4593   0023C8                     __end_ofi2_RB6_HIGH_Int_APP_ISR:
  4594                           	callstack 0
  4595                           
  4596 ;; *************** function i2_RB5_HIGH_Int_APP_ISR *****************
  4597 ;; Defined at:
  4598 ;;		line 29 in file "application.c"
  4599 ;; Parameters:    Size  Location     Type
  4600 ;;		None
  4601 ;; Auto vars:     Size  Location     Type
  4602 ;;		None
  4603 ;; Return value:  Size  Location     Type
  4604 ;;                  1    wreg      void 
  4605 ;; Registers used:
  4606 ;;		wreg, fsr2l, fsr2h, status,2, status,0, prodl, prodh, cstack
  4607 ;; Tracked objects:
  4608 ;;		On entry : 0/0
  4609 ;;		On exit  : 0/0
  4610 ;;		Unchanged: 0/0
  4611 ;; Data sizes:     COMRAM   BANK0   BANK1   BANK2   BANK3   BANK4   BANK5   BANK6   BANK7   BANK8   BANK9  BANK10  BANK1
      +1  BANK12  BANK13  BANK14  BANK15
  4612 ;;      Params:         0       0       0       0       0       0       0       0       0       0       0       0       
      +0       0       0       0       0
  4613 ;;      Locals:         0       0       0       0       0       0       0       0       0       0       0       0       
      +0       0       0       0       0
  4614 ;;      Temps:          0       0       0       0       0       0       0       0       0       0       0       0       
      +0       0       0       0       0
  4615 ;;      Totals:         0       0       0       0       0       0       0       0       0       0       0       0       
      +0       0       0       0       0
  4616 ;;Total ram usage:        0 bytes
  4617 ;; Hardware stack levels used: 1
  4618 ;; Hardware stack levels required when called: 1
  4619 ;; This function calls:
  4620 ;;		i2_gpio_pin_write_logic
  4621 ;; This function is called by:
  4622 ;;		_RB4_ISR
  4623 ;;		_RB5_ISR
  4624 ;;		_RB6_ISR
  4625 ;;		_RB7_ISR
  4626 ;;		i2_RB4_ISR
  4627 ;;		i2_RB5_ISR
  4628 ;;		i2_RB6_ISR
  4629 ;;		i2_RB7_ISR
  4630 ;; This function uses a non-reentrant model
  4631 ;;
  4632                           
  4633                           	psect	text37
  4634   0023C8                     __ptext37:
  4635                           	callstack 0
  4636   0023C8                     i2_RB5_HIGH_Int_APP_ISR:
  4637                           	callstack 18
  4638   0023C8                     
  4639                           ;application.c: 30:     gpio_pin_write_logic(&led2,GPIO_HIGH);
  4640   0023C8  0E2D               	movlw	low _led2
  4641   0023CA  6E2F               	movwf	i2gpio_pin_write_logic@_pin_config^0,c
  4642   0023CC  0E00               	movlw	high _led2
  4643   0023CE  6E30               	movwf	(i2gpio_pin_write_logic@_pin_config+1)^0,c
  4644   0023D0  0E01               	movlw	1
  4645   0023D2  6E31               	movwf	i2gpio_pin_write_logic@logic^0,c
  4646   0023D4  EC76  F00C         	call	i2_gpio_pin_write_logic	;wreg free
  4647   0023D8  0012               	return		;funcret
  4648   0023DA                     __end_ofi2_RB5_HIGH_Int_APP_ISR:
  4649                           	callstack 0
  4650                           
  4651 ;; *************** function i2_RB4_HIGH_Int_APP_ISR *****************
  4652 ;; Defined at:
  4653 ;;		line 21 in file "application.c"
  4654 ;; Parameters:    Size  Location     Type
  4655 ;;		None
  4656 ;; Auto vars:     Size  Location     Type
  4657 ;;		None
  4658 ;; Return value:  Size  Location     Type
  4659 ;;                  1    wreg      void 
  4660 ;; Registers used:
  4661 ;;		wreg, fsr2l, fsr2h, status,2, status,0, prodl, prodh, cstack
  4662 ;; Tracked objects:
  4663 ;;		On entry : 0/0
  4664 ;;		On exit  : 0/0
  4665 ;;		Unchanged: 0/0
  4666 ;; Data sizes:     COMRAM   BANK0   BANK1   BANK2   BANK3   BANK4   BANK5   BANK6   BANK7   BANK8   BANK9  BANK10  BANK1
      +1  BANK12  BANK13  BANK14  BANK15
  4667 ;;      Params:         0       0       0       0       0       0       0       0       0       0       0       0       
      +0       0       0       0       0
  4668 ;;      Locals:         0       0       0       0       0       0       0       0       0       0       0       0       
      +0       0       0       0       0
  4669 ;;      Temps:          0       0       0       0       0       0       0       0       0       0       0       0       
      +0       0       0       0       0
  4670 ;;      Totals:         0       0       0       0       0       0       0       0       0       0       0       0       
      +0       0       0       0       0
  4671 ;;Total ram usage:        0 bytes
  4672 ;; Hardware stack levels used: 1
  4673 ;; Hardware stack levels required when called: 1
  4674 ;; This function calls:
  4675 ;;		i2_gpio_pin_write_logic
  4676 ;; This function is called by:
  4677 ;;		_RB4_ISR
  4678 ;;		_RB5_ISR
  4679 ;;		_RB6_ISR
  4680 ;;		_RB7_ISR
  4681 ;;		i2_RB4_ISR
  4682 ;;		i2_RB5_ISR
  4683 ;;		i2_RB6_ISR
  4684 ;;		i2_RB7_ISR
  4685 ;; This function uses a non-reentrant model
  4686 ;;
  4687                           
  4688                           	psect	text38
  4689   0023DA                     __ptext38:
  4690                           	callstack 0
  4691   0023DA                     i2_RB4_HIGH_Int_APP_ISR:
  4692                           	callstack 18
  4693   0023DA                     
  4694                           ;application.c: 22:     gpio_pin_write_logic(&led1,GPIO_HIGH);
  4695   0023DA  0E2E               	movlw	low _led1
  4696   0023DC  6E2F               	movwf	i2gpio_pin_write_logic@_pin_config^0,c
  4697   0023DE  0E00               	movlw	high _led1
  4698   0023E0  6E30               	movwf	(i2gpio_pin_write_logic@_pin_config+1)^0,c
  4699   0023E2  0E01               	movlw	1
  4700   0023E4  6E31               	movwf	i2gpio_pin_write_logic@logic^0,c
  4701   0023E6  EC76  F00C         	call	i2_gpio_pin_write_logic	;wreg free
  4702   0023EA  0012               	return		;funcret
  4703   0023EC                     __end_ofi2_RB4_HIGH_Int_APP_ISR:
  4704                           	callstack 0
  4705                           
  4706 ;; *************** function i2_RB7_HIGH_Int_APP_ISR *****************
  4707 ;; Defined at:
  4708 ;;		line 45 in file "application.c"
  4709 ;; Parameters:    Size  Location     Type
  4710 ;;		None
  4711 ;; Auto vars:     Size  Location     Type
  4712 ;;		None
  4713 ;; Return value:  Size  Location     Type
  4714 ;;                  1    wreg      void 
  4715 ;; Registers used:
  4716 ;;		wreg, fsr2l, fsr2h, status,2, status,0, prodl, prodh, cstack
  4717 ;; Tracked objects:
  4718 ;;		On entry : 0/0
  4719 ;;		On exit  : 0/0
  4720 ;;		Unchanged: 0/0
  4721 ;; Data sizes:     COMRAM   BANK0   BANK1   BANK2   BANK3   BANK4   BANK5   BANK6   BANK7   BANK8   BANK9  BANK10  BANK1
      +1  BANK12  BANK13  BANK14  BANK15
  4722 ;;      Params:         0       0       0       0       0       0       0       0       0       0       0       0       
      +0       0       0       0       0
  4723 ;;      Locals:         0       0       0       0       0       0       0       0       0       0       0       0       
      +0       0       0       0       0
  4724 ;;      Temps:          0       0       0       0       0       0       0       0       0       0       0       0       
      +0       0       0       0       0
  4725 ;;      Totals:         0       0       0       0       0       0       0       0       0       0       0       0       
      +0       0       0       0       0
  4726 ;;Total ram usage:        0 bytes
  4727 ;; Hardware stack levels used: 1
  4728 ;; Hardware stack levels required when called: 1
  4729 ;; This function calls:
  4730 ;;		i2_gpio_pin_write_logic
  4731 ;; This function is called by:
  4732 ;;		_RB4_ISR
  4733 ;;		_RB5_ISR
  4734 ;;		_RB6_ISR
  4735 ;;		_RB7_ISR
  4736 ;;		i2_RB4_ISR
  4737 ;;		i2_RB5_ISR
  4738 ;;		i2_RB6_ISR
  4739 ;;		i2_RB7_ISR
  4740 ;; This function uses a non-reentrant model
  4741 ;;
  4742                           
  4743                           	psect	text39
  4744   0023EC                     __ptext39:
  4745                           	callstack 0
  4746   0023EC                     i2_RB7_HIGH_Int_APP_ISR:
  4747                           	callstack 18
  4748   0023EC                     
  4749                           ;application.c: 46:     gpio_pin_write_logic(&led4,GPIO_HIGH);
  4750   0023EC  0E2B               	movlw	low _led4
  4751   0023EE  6E2F               	movwf	i2gpio_pin_write_logic@_pin_config^0,c
  4752   0023F0  0E00               	movlw	high _led4
  4753   0023F2  6E30               	movwf	(i2gpio_pin_write_logic@_pin_config+1)^0,c
  4754   0023F4  0E01               	movlw	1
  4755   0023F6  6E31               	movwf	i2gpio_pin_write_logic@logic^0,c
  4756   0023F8  EC76  F00C         	call	i2_gpio_pin_write_logic	;wreg free
  4757   0023FC  0012               	return		;funcret
  4758   0023FE                     __end_ofi2_RB7_HIGH_Int_APP_ISR:
  4759                           	callstack 0
  4760                           
  4761 ;; *************** function i2_gpio_pin_write_logic *****************
  4762 ;; Defined at:
  4763 ;;		line 80 in file "MCAL_Layer/GPIO/hal_gpio.c"
  4764 ;; Parameters:    Size  Location     Type
  4765 ;;  _pin_config     2    0[COMRAM] PTR const struct .
  4766 ;;		 -> lcd_2(10), lcd_1(6), led4(1), led3(1), 
  4767 ;;		 -> led2(1), led1(1), 
  4768 ;;  logic           1    2[COMRAM] enum E2968
  4769 ;; Auto vars:     Size  Location     Type
  4770 ;;  ret             1    0        unsigned char 
  4771 ;; Return value:  Size  Location     Type
  4772 ;;                  1    wreg      unsigned char 
  4773 ;; Registers used:
  4774 ;;		wreg, fsr2l, fsr2h, status,2, status,0, prodl, prodh
  4775 ;; Tracked objects:
  4776 ;;		On entry : 0/0
  4777 ;;		On exit  : 0/0
  4778 ;;		Unchanged: 0/0
  4779 ;; Data sizes:     COMRAM   BANK0   BANK1   BANK2   BANK3   BANK4   BANK5   BANK6   BANK7   BANK8   BANK9  BANK10  BANK1
      +1  BANK12  BANK13  BANK14  BANK15
  4780 ;;      Params:         3       0       0       0       0       0       0       0       0       0       0       0       
      +0       0       0       0       0
  4781 ;;      Locals:         0       0       0       0       0       0       0       0       0       0       0       0       
      +0       0       0       0       0
  4782 ;;      Temps:          6       0       0       0       0       0       0       0       0       0       0       0       
      +0       0       0       0       0
  4783 ;;      Totals:         9       0       0       0       0       0       0       0       0       0       0       0       
      +0       0       0       0       0
  4784 ;;Total ram usage:        9 bytes
  4785 ;; Hardware stack levels used: 1
  4786 ;; This function calls:
  4787 ;;		Nothing
  4788 ;; This function is called by:
  4789 ;;		i2_RB4_HIGH_Int_APP_ISR
  4790 ;;		i2_RB4_LOW_Int_APP_ISR
  4791 ;;		i2_RB5_HIGH_Int_APP_ISR
  4792 ;;		i2_RB5_LOW_Int_APP_ISR
  4793 ;;		i2_RB6_HIGH_Int_APP_ISR
  4794 ;;		i2_RB6_LOW_Int_APP_ISR
  4795 ;;		i2_RB7_HIGH_Int_APP_ISR
  4796 ;;		i2_RB7_LOW_Int_APP_ISR
  4797 ;; This function uses a non-reentrant model
  4798 ;;
  4799                           
  4800                           	psect	text40
  4801   0018EC                     __ptext40:
  4802                           	callstack 0
  4803   0018EC                     i2_gpio_pin_write_logic:
  4804                           	callstack 18
  4805   0018EC                     
  4806                           ;MCAL_Layer/GPIO/hal_gpio.c: 82:     if(((void*)0) == _pin_config || _pin_config->pin > 
      +                          8 -1)
  4807   0018EC  502F               	movf	i2gpio_pin_write_logic@_pin_config^0,w,c
  4808   0018EE  1030               	iorwf	(i2gpio_pin_write_logic@_pin_config+1)^0,w,c
  4809   0018F0  B4D8               	btfsc	status,2,c
  4810   0018F2  EF7D  F00C         	goto	i2u243_41
  4811   0018F6  EF7F  F00C         	goto	i2u243_40
  4812   0018FA                     i2u243_41:
  4813   0018FA  EF90  F00C         	goto	i2l2803
  4814   0018FE                     i2u243_40:
  4815   0018FE  C02F  FFD9         	movff	i2gpio_pin_write_logic@_pin_config,fsr2l
  4816   001902  C030  FFDA         	movff	i2gpio_pin_write_logic@_pin_config+1,fsr2h
  4817   001906  30DF               	rrcf	223,w,c
  4818   001908  32E8               	rrcf	wreg,f,c
  4819   00190A  32E8               	rrcf	wreg,f,c
  4820   00190C  0B07               	andlw	7
  4821   00190E  6E32               	movwf	??i2_gpio_pin_write_logic^0,c
  4822   001910  0E07               	movlw	7
  4823   001912  6432               	cpfsgt	??i2_gpio_pin_write_logic^0,c
  4824   001914  EF8E  F00C         	goto	i2u244_41
  4825   001918  EF90  F00C         	goto	i2u244_40
  4826   00191C                     i2u244_41:
  4827   00191C  EFF1  F00C         	goto	i2l2811
  4828   001920                     i2u244_40:
  4829   001920                     i2l2803:
  4830                           
  4831                           ;MCAL_Layer/GPIO/hal_gpio.c: 85:     }
  4832   001920  EF06  F00D         	goto	i2l229
  4833   001924                     i2l2805:
  4834                           
  4835                           ;MCAL_Layer/GPIO/hal_gpio.c: 90:             (*lat_registers[_pin_config->port] &= ~((ui
      +                          nt8)1 << _pin_config->pin));
  4836   001924  C02F  FFD9         	movff	i2gpio_pin_write_logic@_pin_config,fsr2l
  4837   001928  C030  FFDA         	movff	i2gpio_pin_write_logic@_pin_config+1,fsr2h
  4838   00192C  30DF               	rrcf	223,w,c
  4839   00192E  32E8               	rrcf	wreg,f,c
  4840   001930  32E8               	rrcf	wreg,f,c
  4841   001932  0B07               	andlw	7
  4842   001934  6E32               	movwf	??i2_gpio_pin_write_logic^0,c
  4843   001936  0E01               	movlw	1
  4844   001938  6E33               	movwf	(??i2_gpio_pin_write_logic+1)^0,c
  4845   00193A  2A32               	incf	??i2_gpio_pin_write_logic^0,f,c
  4846   00193C  EFA2  F00C         	goto	i2u245_44
  4847   001940                     i2u245_45:
  4848   001940  90D8               	bcf	status,0,c
  4849   001942  3633               	rlcf	(??i2_gpio_pin_write_logic+1)^0,f,c
  4850   001944                     i2u245_44:
  4851   001944  2E32               	decfsz	??i2_gpio_pin_write_logic^0,f,c
  4852   001946  EFA0  F00C         	goto	i2u245_45
  4853   00194A  5033               	movf	(??i2_gpio_pin_write_logic+1)^0,w,c
  4854   00194C  0AFF               	xorlw	255
  4855   00194E  6E34               	movwf	(??i2_gpio_pin_write_logic+2)^0,c
  4856   001950  C02F  FFD9         	movff	i2gpio_pin_write_logic@_pin_config,fsr2l
  4857   001954  C030  FFDA         	movff	i2gpio_pin_write_logic@_pin_config+1,fsr2h
  4858   001958  50DF               	movf	223,w,c
  4859   00195A  0B07               	andlw	7
  4860   00195C  6E35               	movwf	(??i2_gpio_pin_write_logic+3)^0,c
  4861   00195E  5035               	movf	(??i2_gpio_pin_write_logic+3)^0,w,c
  4862   001960  0D02               	mullw	2
  4863   001962  0E01               	movlw	low _lat_registers
  4864   001964  24F3               	addwf	243,w,c
  4865   001966  6ED9               	movwf	fsr2l,c
  4866   001968  0E00               	movlw	high _lat_registers
  4867   00196A  20F4               	addwfc	prodh,w,c
  4868   00196C  6EDA               	movwf	fsr2h,c
  4869   00196E  CFDE F036          	movff	postinc2,??i2_gpio_pin_write_logic+4
  4870   001972  CFDD F037          	movff	postdec2,??i2_gpio_pin_write_logic+5
  4871   001976  C036  FFD9         	movff	??i2_gpio_pin_write_logic+4,fsr2l
  4872   00197A  C037  FFDA         	movff	??i2_gpio_pin_write_logic+5,fsr2h
  4873   00197E  5034               	movf	(??i2_gpio_pin_write_logic+2)^0,w,c
  4874   001980  16DF               	andwf	indf2,f,c
  4875                           
  4876                           ;MCAL_Layer/GPIO/hal_gpio.c: 91:             break;
  4877   001982  EF06  F00D         	goto	i2l229
  4878   001986                     i2l2807:
  4879                           
  4880                           ;MCAL_Layer/GPIO/hal_gpio.c: 93:             (*lat_registers[_pin_config->port] |= ((uin
      +                          t8)1 << _pin_config->pin));
  4881   001986  C02F  FFD9         	movff	i2gpio_pin_write_logic@_pin_config,fsr2l
  4882   00198A  C030  FFDA         	movff	i2gpio_pin_write_logic@_pin_config+1,fsr2h
  4883   00198E  30DF               	rrcf	223,w,c
  4884   001990  32E8               	rrcf	wreg,f,c
  4885   001992  32E8               	rrcf	wreg,f,c
  4886   001994  0B07               	andlw	7
  4887   001996  6E32               	movwf	??i2_gpio_pin_write_logic^0,c
  4888   001998  0E01               	movlw	1
  4889   00199A  6E33               	movwf	(??i2_gpio_pin_write_logic+1)^0,c
  4890   00199C  2A32               	incf	??i2_gpio_pin_write_logic^0,f,c
  4891   00199E  EFD3  F00C         	goto	i2u246_44
  4892   0019A2                     i2u246_45:
  4893   0019A2  90D8               	bcf	status,0,c
  4894   0019A4  3633               	rlcf	(??i2_gpio_pin_write_logic+1)^0,f,c
  4895   0019A6                     i2u246_44:
  4896   0019A6  2E32               	decfsz	??i2_gpio_pin_write_logic^0,f,c
  4897   0019A8  EFD1  F00C         	goto	i2u246_45
  4898   0019AC  C02F  FFD9         	movff	i2gpio_pin_write_logic@_pin_config,fsr2l
  4899   0019B0  C030  FFDA         	movff	i2gpio_pin_write_logic@_pin_config+1,fsr2h
  4900   0019B4  50DF               	movf	223,w,c
  4901   0019B6  0B07               	andlw	7
  4902   0019B8  6E34               	movwf	(??i2_gpio_pin_write_logic+2)^0,c
  4903   0019BA  5034               	movf	(??i2_gpio_pin_write_logic+2)^0,w,c
  4904   0019BC  0D02               	mullw	2
  4905   0019BE  0E01               	movlw	low _lat_registers
  4906   0019C0  24F3               	addwf	243,w,c
  4907   0019C2  6ED9               	movwf	fsr2l,c
  4908   0019C4  0E00               	movlw	high _lat_registers
  4909   0019C6  20F4               	addwfc	prodh,w,c
  4910   0019C8  6EDA               	movwf	fsr2h,c
  4911   0019CA  CFDE F035          	movff	postinc2,??i2_gpio_pin_write_logic+3
  4912   0019CE  CFDD F036          	movff	postdec2,??i2_gpio_pin_write_logic+4
  4913   0019D2  C035  FFD9         	movff	??i2_gpio_pin_write_logic+3,fsr2l
  4914   0019D6  C036  FFDA         	movff	??i2_gpio_pin_write_logic+4,fsr2h
  4915   0019DA  5033               	movf	(??i2_gpio_pin_write_logic+1)^0,w,c
  4916   0019DC  12DF               	iorwf	indf2,f,c
  4917                           
  4918                           ;MCAL_Layer/GPIO/hal_gpio.c: 94:             break;
  4919   0019DE  EF06  F00D         	goto	i2l229
  4920   0019E2                     i2l2811:
  4921   0019E2  5031               	movf	i2gpio_pin_write_logic@logic^0,w,c
  4922   0019E4  6E32               	movwf	??i2_gpio_pin_write_logic^0,c
  4923   0019E6  6A33               	clrf	(??i2_gpio_pin_write_logic+1)^0,c
  4924                           
  4925                           ; Switch on 2 bytes has been partitioned into a top level switch of size 1, and 1 sub-sw
      +                          itches
  4926                           ; Switch size 1, requested type "simple"
  4927                           ; Number of cases is 1, Range of values is 0 to 0
  4928                           ; switch strategies available:
  4929                           ; Name         Instructions Cycles
  4930                           ; simple_byte            4     3 (average)
  4931                           ;	Chosen strategy is simple_byte
  4932   0019E8  5033               	movf	(??i2_gpio_pin_write_logic+1)^0,w,c
  4933   0019EA  0A00               	xorlw	0	; case 0
  4934   0019EC  B4D8               	btfsc	status,2,c
  4935   0019EE  EFFB  F00C         	goto	i2l4065
  4936   0019F2  EF90  F00C         	goto	i2l2803
  4937   0019F6                     i2l4065:
  4938                           
  4939                           ; Switch size 1, requested type "simple"
  4940                           ; Number of cases is 2, Range of values is 0 to 1
  4941                           ; switch strategies available:
  4942                           ; Name         Instructions Cycles
  4943                           ; simple_byte            7     4 (average)
  4944                           ;	Chosen strategy is simple_byte
  4945   0019F6  5032               	movf	??i2_gpio_pin_write_logic^0,w,c
  4946   0019F8  0A00               	xorlw	0	; case 0
  4947   0019FA  B4D8               	btfsc	status,2,c
  4948   0019FC  EF92  F00C         	goto	i2l2805
  4949   001A00  0A01               	xorlw	1	; case 1
  4950   001A02  B4D8               	btfsc	status,2,c
  4951   001A04  EFC3  F00C         	goto	i2l2807
  4952   001A08  EF90  F00C         	goto	i2l2803
  4953   001A0C                     i2l229:
  4954   001A0C  0012               	return		;funcret
  4955   001A0E                     __end_ofi2_gpio_pin_write_logic:
  4956                           	callstack 0
  4957                           
  4958 ;; *************** function i2_INT2_ISR *****************
  4959 ;; Defined at:
  4960 ;;		line 540 in file "mcal_external_interrupt.c"
  4961 ;; Parameters:    Size  Location     Type
  4962 ;;		None
  4963 ;; Auto vars:     Size  Location     Type
  4964 ;;		None
  4965 ;; Return value:  Size  Location     Type
  4966 ;;                  1    wreg      void 
  4967 ;; Registers used:
  4968 ;;		wreg, fsr2l, fsr2h, status,2, status,0, pcl, pclath, pclatu, tosl, prodl, prodh, cstack
  4969 ;; Tracked objects:
  4970 ;;		On entry : 0/0
  4971 ;;		On exit  : 0/0
  4972 ;;		Unchanged: 0/0
  4973 ;; Data sizes:     COMRAM   BANK0   BANK1   BANK2   BANK3   BANK4   BANK5   BANK6   BANK7   BANK8   BANK9  BANK10  BANK1
      +1  BANK12  BANK13  BANK14  BANK15
  4974 ;;      Params:         0       0       0       0       0       0       0       0       0       0       0       0       
      +0       0       0       0       0
  4975 ;;      Locals:         0       0       0       0       0       0       0       0       0       0       0       0       
      +0       0       0       0       0
  4976 ;;      Temps:          0       0       0       0       0       0       0       0       0       0       0       0       
      +0       0       0       0       0
  4977 ;;      Totals:         0       0       0       0       0       0       0       0       0       0       0       0       
      +0       0       0       0       0
  4978 ;;Total ram usage:        0 bytes
  4979 ;; Hardware stack levels used: 1
  4980 ;; Hardware stack levels required when called: 2
  4981 ;; This function calls:
  4982 ;;		NULL
  4983 ;;		i2_Int0_App_ISR
  4984 ;;		i2_Int1_App_ISR
  4985 ;;		i2_Int2_App_ISR
  4986 ;; This function is called by:
  4987 ;;		i2_InterruptCheck
  4988 ;; This function uses a non-reentrant model
  4989 ;;
  4990                           
  4991                           	psect	text41
  4992   002198                     __ptext41:
  4993                           	callstack 0
  4994   002198                     i2_INT2_ISR:
  4995                           	callstack 18
  4996   002198                     
  4997                           ;mcal_external_interrupt.c: 542:     (INTCON3bits.INT2IF = 0);
  4998   002198  92F0               	bcf	240,1,c	;volatile
  4999   00219A                     
  5000                           ;mcal_external_interrupt.c: 546:     if(INT2_InterruptHandler){INT2_InterruptHandler();}
  5001   00219A  5067               	movf	_INT2_InterruptHandler^0,w,c
  5002   00219C  1068               	iorwf	(_INT2_InterruptHandler+1)^0,w,c
  5003   00219E  B4D8               	btfsc	status,2,c
  5004   0021A0  EFD4  F010         	goto	i2u302_41
  5005   0021A4  EFD6  F010         	goto	i2u302_40
  5006   0021A8                     i2u302_41:
  5007   0021A8  EFE2  F010         	goto	i2l601
  5008   0021AC                     i2u302_40:
  5009   0021AC  D802               	call	i2u303_48
  5010   0021AE  EFE2  F010         	goto	i2u303_49
  5011   0021B2                     i2u303_48:
  5012   0021B2  0005               	push	
  5013   0021B4  6EFA               	movwf	pclath,c
  5014   0021B6  5067               	movf	_INT2_InterruptHandler^0,w,c
  5015   0021B8  6EFD               	movwf	tosl,c
  5016   0021BA  5068               	movf	(_INT2_InterruptHandler+1)^0,w,c
  5017   0021BC  6EFE               	movwf	tosh,c
  5018   0021BE  6AFF               	clrf	tosu,c
  5019   0021C0  50FA               	movf	pclath,w,c
  5020   0021C2  0012               	return		;indir
  5021   0021C4                     i2u303_49:
  5022   0021C4                     i2l601:
  5023   0021C4  0012               	return		;funcret
  5024   0021C6                     __end_ofi2_INT2_ISR:
  5025                           	callstack 0
  5026                           
  5027 ;; *************** function i2_INT1_ISR *****************
  5028 ;; Defined at:
  5029 ;;		line 530 in file "mcal_external_interrupt.c"
  5030 ;; Parameters:    Size  Location     Type
  5031 ;;		None
  5032 ;; Auto vars:     Size  Location     Type
  5033 ;;		None
  5034 ;; Return value:  Size  Location     Type
  5035 ;;                  1    wreg      void 
  5036 ;; Registers used:
  5037 ;;		wreg, fsr2l, fsr2h, status,2, status,0, pcl, pclath, pclatu, tosl, prodl, prodh, cstack
  5038 ;; Tracked objects:
  5039 ;;		On entry : 0/0
  5040 ;;		On exit  : 0/0
  5041 ;;		Unchanged: 0/0
  5042 ;; Data sizes:     COMRAM   BANK0   BANK1   BANK2   BANK3   BANK4   BANK5   BANK6   BANK7   BANK8   BANK9  BANK10  BANK1
      +1  BANK12  BANK13  BANK14  BANK15
  5043 ;;      Params:         0       0       0       0       0       0       0       0       0       0       0       0       
      +0       0       0       0       0
  5044 ;;      Locals:         0       0       0       0       0       0       0       0       0       0       0       0       
      +0       0       0       0       0
  5045 ;;      Temps:          0       0       0       0       0       0       0       0       0       0       0       0       
      +0       0       0       0       0
  5046 ;;      Totals:         0       0       0       0       0       0       0       0       0       0       0       0       
      +0       0       0       0       0
  5047 ;;Total ram usage:        0 bytes
  5048 ;; Hardware stack levels used: 1
  5049 ;; Hardware stack levels required when called: 2
  5050 ;; This function calls:
  5051 ;;		NULL
  5052 ;;		i2_Int0_App_ISR
  5053 ;;		i2_Int1_App_ISR
  5054 ;;		i2_Int2_App_ISR
  5055 ;; This function is called by:
  5056 ;;		i2_InterruptCheck
  5057 ;; This function uses a non-reentrant model
  5058 ;;
  5059                           
  5060                           	psect	text42
  5061   0021C6                     __ptext42:
  5062                           	callstack 0
  5063   0021C6                     i2_INT1_ISR:
  5064                           	callstack 18
  5065   0021C6                     
  5066                           ;mcal_external_interrupt.c: 532:     (INTCON3bits.INT1IF = 0);
  5067   0021C6  90F0               	bcf	240,0,c	;volatile
  5068   0021C8                     
  5069                           ;mcal_external_interrupt.c: 536:     if(INT1_InterruptHandler){INT1_InterruptHandler();}
  5070   0021C8  5069               	movf	_INT1_InterruptHandler^0,w,c
  5071   0021CA  106A               	iorwf	(_INT1_InterruptHandler+1)^0,w,c
  5072   0021CC  B4D8               	btfsc	status,2,c
  5073   0021CE  EFEB  F010         	goto	i2u300_41
  5074   0021D2  EFED  F010         	goto	i2u300_40
  5075   0021D6                     i2u300_41:
  5076   0021D6  EFF9  F010         	goto	i2l596
  5077   0021DA                     i2u300_40:
  5078   0021DA  D802               	call	i2u301_48
  5079   0021DC  EFF9  F010         	goto	i2u301_49
  5080   0021E0                     i2u301_48:
  5081   0021E0  0005               	push	
  5082   0021E2  6EFA               	movwf	pclath,c
  5083   0021E4  5069               	movf	_INT1_InterruptHandler^0,w,c
  5084   0021E6  6EFD               	movwf	tosl,c
  5085   0021E8  506A               	movf	(_INT1_InterruptHandler+1)^0,w,c
  5086   0021EA  6EFE               	movwf	tosh,c
  5087   0021EC  6AFF               	clrf	tosu,c
  5088   0021EE  50FA               	movf	pclath,w,c
  5089   0021F0  0012               	return		;indir
  5090   0021F2                     i2u301_49:
  5091   0021F2                     i2l596:
  5092   0021F2  0012               	return		;funcret
  5093   0021F4                     __end_ofi2_INT1_ISR:
  5094                           	callstack 0
  5095                           
  5096 ;; *************** function i2_INT0_ISR *****************
  5097 ;; Defined at:
  5098 ;;		line 520 in file "mcal_external_interrupt.c"
  5099 ;; Parameters:    Size  Location     Type
  5100 ;;		None
  5101 ;; Auto vars:     Size  Location     Type
  5102 ;;		None
  5103 ;; Return value:  Size  Location     Type
  5104 ;;                  1    wreg      void 
  5105 ;; Registers used:
  5106 ;;		wreg, fsr2l, fsr2h, status,2, status,0, pcl, pclath, pclatu, tosl, prodl, prodh, cstack
  5107 ;; Tracked objects:
  5108 ;;		On entry : 0/0
  5109 ;;		On exit  : 0/0
  5110 ;;		Unchanged: 0/0
  5111 ;; Data sizes:     COMRAM   BANK0   BANK1   BANK2   BANK3   BANK4   BANK5   BANK6   BANK7   BANK8   BANK9  BANK10  BANK1
      +1  BANK12  BANK13  BANK14  BANK15
  5112 ;;      Params:         0       0       0       0       0       0       0       0       0       0       0       0       
      +0       0       0       0       0
  5113 ;;      Locals:         0       0       0       0       0       0       0       0       0       0       0       0       
      +0       0       0       0       0
  5114 ;;      Temps:          0       0       0       0       0       0       0       0       0       0       0       0       
      +0       0       0       0       0
  5115 ;;      Totals:         0       0       0       0       0       0       0       0       0       0       0       0       
      +0       0       0       0       0
  5116 ;;Total ram usage:        0 bytes
  5117 ;; Hardware stack levels used: 1
  5118 ;; Hardware stack levels required when called: 2
  5119 ;; This function calls:
  5120 ;;		NULL
  5121 ;;		i2_Int0_App_ISR
  5122 ;;		i2_Int1_App_ISR
  5123 ;;		i2_Int2_App_ISR
  5124 ;; This function is called by:
  5125 ;;		i2_InterruptCheck
  5126 ;; This function uses a non-reentrant model
  5127 ;;
  5128                           
  5129                           	psect	text43
  5130   0021F4                     __ptext43:
  5131                           	callstack 0
  5132   0021F4                     i2_INT0_ISR:
  5133                           	callstack 18
  5134   0021F4                     
  5135                           ;mcal_external_interrupt.c: 522:     (INTCONbits.INT0IF = 0);
  5136   0021F4  92F2               	bcf	242,1,c	;volatile
  5137   0021F6                     
  5138                           ;mcal_external_interrupt.c: 526:     if(INT0_InterruptHandler){INT0_InterruptHandler();}
  5139   0021F6  506B               	movf	_INT0_InterruptHandler^0,w,c
  5140   0021F8  106C               	iorwf	(_INT0_InterruptHandler+1)^0,w,c
  5141   0021FA  B4D8               	btfsc	status,2,c
  5142   0021FC  EF02  F011         	goto	i2u298_41
  5143   002200  EF04  F011         	goto	i2u298_40
  5144   002204                     i2u298_41:
  5145   002204  EF10  F011         	goto	i2l591
  5146   002208                     i2u298_40:
  5147   002208  D802               	call	i2u299_48
  5148   00220A  EF10  F011         	goto	i2u299_49
  5149   00220E                     i2u299_48:
  5150   00220E  0005               	push	
  5151   002210  6EFA               	movwf	pclath,c
  5152   002212  506B               	movf	_INT0_InterruptHandler^0,w,c
  5153   002214  6EFD               	movwf	tosl,c
  5154   002216  506C               	movf	(_INT0_InterruptHandler+1)^0,w,c
  5155   002218  6EFE               	movwf	tosh,c
  5156   00221A  6AFF               	clrf	tosu,c
  5157   00221C  50FA               	movf	pclath,w,c
  5158   00221E  0012               	return		;indir
  5159   002220                     i2u299_49:
  5160   002220                     i2l591:
  5161   002220  0012               	return		;funcret
  5162   002222                     __end_ofi2_INT0_ISR:
  5163                           	callstack 0
  5164                           
  5165 ;; *************** function i2_Int1_App_ISR *****************
  5166 ;; Defined at:
  5167 ;;		line 94 in file "application.c"
  5168 ;; Parameters:    Size  Location     Type
  5169 ;;		None
  5170 ;; Auto vars:     Size  Location     Type
  5171 ;;		None
  5172 ;; Return value:  Size  Location     Type
  5173 ;;                  1    wreg      void 
  5174 ;; Registers used:
  5175 ;;		wreg, fsr2l, fsr2h, status,2, status,0, prodl, prodh, cstack
  5176 ;; Tracked objects:
  5177 ;;		On entry : 0/0
  5178 ;;		On exit  : 0/0
  5179 ;;		Unchanged: 0/0
  5180 ;; Data sizes:     COMRAM   BANK0   BANK1   BANK2   BANK3   BANK4   BANK5   BANK6   BANK7   BANK8   BANK9  BANK10  BANK1
      +1  BANK12  BANK13  BANK14  BANK15
  5181 ;;      Params:         0       0       0       0       0       0       0       0       0       0       0       0       
      +0       0       0       0       0
  5182 ;;      Locals:         0       0       0       0       0       0       0       0       0       0       0       0       
      +0       0       0       0       0
  5183 ;;      Temps:          2       0       0       0       0       0       0       0       0       0       0       0       
      +0       0       0       0       0
  5184 ;;      Totals:         2       0       0       0       0       0       0       0       0       0       0       0       
      +0       0       0       0       0
  5185 ;;Total ram usage:        2 bytes
  5186 ;; Hardware stack levels used: 1
  5187 ;; Hardware stack levels required when called: 1
  5188 ;; This function calls:
  5189 ;;		i2_gpio_pin_toggle_logic
  5190 ;; This function is called by:
  5191 ;;		_INT0_ISR
  5192 ;;		_INT1_ISR
  5193 ;;		_INT2_ISR
  5194 ;;		i2_INT0_ISR
  5195 ;;		i2_INT1_ISR
  5196 ;;		i2_INT2_ISR
  5197 ;; This function uses a non-reentrant model
  5198 ;;
  5199                           
  5200                           	psect	text44
  5201   002222                     __ptext44:
  5202                           	callstack 0
  5203   002222                     i2_Int1_App_ISR:
  5204                           	callstack 18
  5205   002222                     
  5206                           ;application.c: 95:     gpio_pin_toggle_logic(&led2);
  5207   002222  0E2D               	movlw	low _led2
  5208   002224  6E2F               	movwf	i2gpio_pin_toggle_logic@_pin_config^0,c
  5209   002226  0E00               	movlw	high _led2
  5210   002228  6E30               	movwf	(i2gpio_pin_toggle_logic@_pin_config+1)^0,c
  5211   00222A  EC50  F00D         	call	i2_gpio_pin_toggle_logic	;wreg free
  5212   00222E                     
  5213                           ;application.c: 96:     _delay((unsigned long)((500)*(8000000UL/4000.0)));
  5214   00222E  0E06               	movlw	6
  5215   002230  6E37               	movwf	(??i2_Int1_App_ISR+1)^0,c
  5216   002232  0E13               	movlw	19
  5217   002234  6E36               	movwf	??i2_Int1_App_ISR^0,c
  5218   002236  0EAE               	movlw	174
  5219   002238                     i2u449_47:
  5220   002238  2EE8               	decfsz	wreg,f,c
  5221   00223A  D7FE               	bra	i2u449_47
  5222   00223C  2E36               	decfsz	??i2_Int1_App_ISR^0,f,c
  5223   00223E  D7FC               	bra	i2u449_47
  5224   002240  2E37               	decfsz	(??i2_Int1_App_ISR+1)^0,f,c
  5225   002242  D7FA               	bra	i2u449_47
  5226   002244  0012               	return		;funcret
  5227   002246                     __end_ofi2_Int1_App_ISR:
  5228                           	callstack 0
  5229                           
  5230 ;; *************** function i2_Int0_App_ISR *****************
  5231 ;; Defined at:
  5232 ;;		line 90 in file "application.c"
  5233 ;; Parameters:    Size  Location     Type
  5234 ;;		None
  5235 ;; Auto vars:     Size  Location     Type
  5236 ;;		None
  5237 ;; Return value:  Size  Location     Type
  5238 ;;                  1    wreg      void 
  5239 ;; Registers used:
  5240 ;;		wreg, fsr2l, fsr2h, status,2, status,0, prodl, prodh, cstack
  5241 ;; Tracked objects:
  5242 ;;		On entry : 0/0
  5243 ;;		On exit  : 0/0
  5244 ;;		Unchanged: 0/0
  5245 ;; Data sizes:     COMRAM   BANK0   BANK1   BANK2   BANK3   BANK4   BANK5   BANK6   BANK7   BANK8   BANK9  BANK10  BANK1
      +1  BANK12  BANK13  BANK14  BANK15
  5246 ;;      Params:         0       0       0       0       0       0       0       0       0       0       0       0       
      +0       0       0       0       0
  5247 ;;      Locals:         0       0       0       0       0       0       0       0       0       0       0       0       
      +0       0       0       0       0
  5248 ;;      Temps:          2       0       0       0       0       0       0       0       0       0       0       0       
      +0       0       0       0       0
  5249 ;;      Totals:         2       0       0       0       0       0       0       0       0       0       0       0       
      +0       0       0       0       0
  5250 ;;Total ram usage:        2 bytes
  5251 ;; Hardware stack levels used: 1
  5252 ;; Hardware stack levels required when called: 1
  5253 ;; This function calls:
  5254 ;;		i2_gpio_pin_toggle_logic
  5255 ;; This function is called by:
  5256 ;;		_INT0_ISR
  5257 ;;		_INT1_ISR
  5258 ;;		_INT2_ISR
  5259 ;;		i2_INT0_ISR
  5260 ;;		i2_INT1_ISR
  5261 ;;		i2_INT2_ISR
  5262 ;; This function uses a non-reentrant model
  5263 ;;
  5264                           
  5265                           	psect	text45
  5266   002246                     __ptext45:
  5267                           	callstack 0
  5268   002246                     i2_Int0_App_ISR:
  5269                           	callstack 18
  5270   002246                     
  5271                           ;application.c: 91:     gpio_pin_toggle_logic(&led1);
  5272   002246  0E2E               	movlw	low _led1
  5273   002248  6E2F               	movwf	i2gpio_pin_toggle_logic@_pin_config^0,c
  5274   00224A  0E00               	movlw	high _led1
  5275   00224C  6E30               	movwf	(i2gpio_pin_toggle_logic@_pin_config+1)^0,c
  5276   00224E  EC50  F00D         	call	i2_gpio_pin_toggle_logic	;wreg free
  5277   002252                     
  5278                           ;application.c: 92:     _delay((unsigned long)((500)*(8000000UL/4000.0)));
  5279   002252  0E06               	movlw	6
  5280   002254  6E37               	movwf	(??i2_Int0_App_ISR+1)^0,c
  5281   002256  0E13               	movlw	19
  5282   002258  6E36               	movwf	??i2_Int0_App_ISR^0,c
  5283   00225A  0EAE               	movlw	174
  5284   00225C                     i2u450_47:
  5285   00225C  2EE8               	decfsz	wreg,f,c
  5286   00225E  D7FE               	bra	i2u450_47
  5287   002260  2E36               	decfsz	??i2_Int0_App_ISR^0,f,c
  5288   002262  D7FC               	bra	i2u450_47
  5289   002264  2E37               	decfsz	(??i2_Int0_App_ISR+1)^0,f,c
  5290   002266  D7FA               	bra	i2u450_47
  5291   002268  0012               	return		;funcret
  5292   00226A                     __end_ofi2_Int0_App_ISR:
  5293                           	callstack 0
  5294                           
  5295 ;; *************** function i2_Int2_App_ISR *****************
  5296 ;; Defined at:
  5297 ;;		line 98 in file "application.c"
  5298 ;; Parameters:    Size  Location     Type
  5299 ;;		None
  5300 ;; Auto vars:     Size  Location     Type
  5301 ;;		None
  5302 ;; Return value:  Size  Location     Type
  5303 ;;                  1    wreg      void 
  5304 ;; Registers used:
  5305 ;;		wreg, fsr2l, fsr2h, status,2, status,0, prodl, prodh, cstack
  5306 ;; Tracked objects:
  5307 ;;		On entry : 0/0
  5308 ;;		On exit  : 0/0
  5309 ;;		Unchanged: 0/0
  5310 ;; Data sizes:     COMRAM   BANK0   BANK1   BANK2   BANK3   BANK4   BANK5   BANK6   BANK7   BANK8   BANK9  BANK10  BANK1
      +1  BANK12  BANK13  BANK14  BANK15
  5311 ;;      Params:         0       0       0       0       0       0       0       0       0       0       0       0       
      +0       0       0       0       0
  5312 ;;      Locals:         0       0       0       0       0       0       0       0       0       0       0       0       
      +0       0       0       0       0
  5313 ;;      Temps:          2       0       0       0       0       0       0       0       0       0       0       0       
      +0       0       0       0       0
  5314 ;;      Totals:         2       0       0       0       0       0       0       0       0       0       0       0       
      +0       0       0       0       0
  5315 ;;Total ram usage:        2 bytes
  5316 ;; Hardware stack levels used: 1
  5317 ;; Hardware stack levels required when called: 1
  5318 ;; This function calls:
  5319 ;;		i2_gpio_pin_toggle_logic
  5320 ;; This function is called by:
  5321 ;;		_INT0_ISR
  5322 ;;		_INT1_ISR
  5323 ;;		_INT2_ISR
  5324 ;;		i2_INT0_ISR
  5325 ;;		i2_INT1_ISR
  5326 ;;		i2_INT2_ISR
  5327 ;; This function uses a non-reentrant model
  5328 ;;
  5329                           
  5330                           	psect	text46
  5331   00226A                     __ptext46:
  5332                           	callstack 0
  5333   00226A                     i2_Int2_App_ISR:
  5334                           	callstack 18
  5335   00226A                     
  5336                           ;application.c: 99:     gpio_pin_toggle_logic(&led3);
  5337   00226A  0E2C               	movlw	low _led3
  5338   00226C  6E2F               	movwf	i2gpio_pin_toggle_logic@_pin_config^0,c
  5339   00226E  0E00               	movlw	high _led3
  5340   002270  6E30               	movwf	(i2gpio_pin_toggle_logic@_pin_config+1)^0,c
  5341   002272  EC50  F00D         	call	i2_gpio_pin_toggle_logic	;wreg free
  5342   002276                     
  5343                           ;application.c: 100:     _delay((unsigned long)((500)*(8000000UL/4000.0)));
  5344   002276  0E06               	movlw	6
  5345   002278  6E37               	movwf	(??i2_Int2_App_ISR+1)^0,c
  5346   00227A  0E13               	movlw	19
  5347   00227C  6E36               	movwf	??i2_Int2_App_ISR^0,c
  5348   00227E  0EAE               	movlw	174
  5349   002280                     i2u451_47:
  5350   002280  2EE8               	decfsz	wreg,f,c
  5351   002282  D7FE               	bra	i2u451_47
  5352   002284  2E36               	decfsz	??i2_Int2_App_ISR^0,f,c
  5353   002286  D7FC               	bra	i2u451_47
  5354   002288  2E37               	decfsz	(??i2_Int2_App_ISR+1)^0,f,c
  5355   00228A  D7FA               	bra	i2u451_47
  5356   00228C  0012               	return		;funcret
  5357   00228E                     __end_ofi2_Int2_App_ISR:
  5358                           	callstack 0
  5359                           
  5360 ;; *************** function i2_gpio_pin_toggle_logic *****************
  5361 ;; Defined at:
  5362 ;;		line 136 in file "MCAL_Layer/GPIO/hal_gpio.c"
  5363 ;; Parameters:    Size  Location     Type
  5364 ;;  _pin_config     2    0[COMRAM] PTR const struct .
  5365 ;;		 -> led3(1), led2(1), led1(1), 
  5366 ;; Auto vars:     Size  Location     Type
  5367 ;;  ret             1    0        unsigned char 
  5368 ;; Return value:  Size  Location     Type
  5369 ;;                  1    wreg      unsigned char 
  5370 ;; Registers used:
  5371 ;;		wreg, fsr2l, fsr2h, status,2, status,0, prodl, prodh
  5372 ;; Tracked objects:
  5373 ;;		On entry : 0/0
  5374 ;;		On exit  : 0/0
  5375 ;;		Unchanged: 0/0
  5376 ;; Data sizes:     COMRAM   BANK0   BANK1   BANK2   BANK3   BANK4   BANK5   BANK6   BANK7   BANK8   BANK9  BANK10  BANK1
      +1  BANK12  BANK13  BANK14  BANK15
  5377 ;;      Params:         2       0       0       0       0       0       0       0       0       0       0       0       
      +0       0       0       0       0
  5378 ;;      Locals:         0       0       0       0       0       0       0       0       0       0       0       0       
      +0       0       0       0       0
  5379 ;;      Temps:          5       0       0       0       0       0       0       0       0       0       0       0       
      +0       0       0       0       0
  5380 ;;      Totals:         7       0       0       0       0       0       0       0       0       0       0       0       
      +0       0       0       0       0
  5381 ;;Total ram usage:        7 bytes
  5382 ;; Hardware stack levels used: 1
  5383 ;; This function calls:
  5384 ;;		Nothing
  5385 ;; This function is called by:
  5386 ;;		i2_Int0_App_ISR
  5387 ;;		i2_Int1_App_ISR
  5388 ;;		i2_Int2_App_ISR
  5389 ;; This function uses a non-reentrant model
  5390 ;;
  5391                           
  5392                           	psect	text47
  5393   001AA0                     __ptext47:
  5394                           	callstack 0
  5395   001AA0                     i2_gpio_pin_toggle_logic:
  5396                           	callstack 18
  5397   001AA0                     
  5398                           ;MCAL_Layer/GPIO/hal_gpio.c: 138:     if(((void*)0) == _pin_config || _pin_config->pin >
      +                           8 -1)
  5399   001AA0  502F               	movf	i2gpio_pin_toggle_logic@_pin_config^0,w,c
  5400   001AA2  1030               	iorwf	(i2gpio_pin_toggle_logic@_pin_config+1)^0,w,c
  5401   001AA4  B4D8               	btfsc	status,2,c
  5402   001AA6  EF57  F00D         	goto	i2u247_41
  5403   001AAA  EF59  F00D         	goto	i2u247_40
  5404   001AAE                     i2u247_41:
  5405   001AAE  EF6A  F00D         	goto	i2l2823
  5406   001AB2                     i2u247_40:
  5407   001AB2  C02F  FFD9         	movff	i2gpio_pin_toggle_logic@_pin_config,fsr2l
  5408   001AB6  C030  FFDA         	movff	i2gpio_pin_toggle_logic@_pin_config+1,fsr2h
  5409   001ABA  30DF               	rrcf	223,w,c
  5410   001ABC  32E8               	rrcf	wreg,f,c
  5411   001ABE  32E8               	rrcf	wreg,f,c
  5412   001AC0  0B07               	andlw	7
  5413   001AC2  6E31               	movwf	??i2_gpio_pin_toggle_logic^0,c
  5414   001AC4  0E07               	movlw	7
  5415   001AC6  6431               	cpfsgt	??i2_gpio_pin_toggle_logic^0,c
  5416   001AC8  EF68  F00D         	goto	i2u248_41
  5417   001ACC  EF6A  F00D         	goto	i2u248_40
  5418   001AD0                     i2u248_41:
  5419   001AD0  EF6C  F00D         	goto	i2l2825
  5420   001AD4                     i2u248_40:
  5421   001AD4                     i2l2823:
  5422                           
  5423                           ;MCAL_Layer/GPIO/hal_gpio.c: 141:     }
  5424   001AD4  EF98  F00D         	goto	i2l243
  5425   001AD8                     i2l2825:
  5426                           
  5427                           ;MCAL_Layer/GPIO/hal_gpio.c: 143:     {;MCAL_Layer/GPIO/hal_gpio.c: 144:         (*lat_r
      +                          egisters[_pin_config->port] ^= ((uint8)1 << _pin_config->pin));
  5428   001AD8  C02F  FFD9         	movff	i2gpio_pin_toggle_logic@_pin_config,fsr2l
  5429   001ADC  C030  FFDA         	movff	i2gpio_pin_toggle_logic@_pin_config+1,fsr2h
  5430   001AE0  30DF               	rrcf	223,w,c
  5431   001AE2  32E8               	rrcf	wreg,f,c
  5432   001AE4  32E8               	rrcf	wreg,f,c
  5433   001AE6  0B07               	andlw	7
  5434   001AE8  6E31               	movwf	??i2_gpio_pin_toggle_logic^0,c
  5435   001AEA  0E01               	movlw	1
  5436   001AEC  6E32               	movwf	(??i2_gpio_pin_toggle_logic+1)^0,c
  5437   001AEE  2A31               	incf	??i2_gpio_pin_toggle_logic^0,f,c
  5438   001AF0  EF7C  F00D         	goto	i2u249_44
  5439   001AF4                     i2u249_45:
  5440   001AF4  90D8               	bcf	status,0,c
  5441   001AF6  3632               	rlcf	(??i2_gpio_pin_toggle_logic+1)^0,f,c
  5442   001AF8                     i2u249_44:
  5443   001AF8  2E31               	decfsz	??i2_gpio_pin_toggle_logic^0,f,c
  5444   001AFA  EF7A  F00D         	goto	i2u249_45
  5445   001AFE  C02F  FFD9         	movff	i2gpio_pin_toggle_logic@_pin_config,fsr2l
  5446   001B02  C030  FFDA         	movff	i2gpio_pin_toggle_logic@_pin_config+1,fsr2h
  5447   001B06  50DF               	movf	223,w,c
  5448   001B08  0B07               	andlw	7
  5449   001B0A  6E33               	movwf	(??i2_gpio_pin_toggle_logic+2)^0,c
  5450   001B0C  5033               	movf	(??i2_gpio_pin_toggle_logic+2)^0,w,c
  5451   001B0E  0D02               	mullw	2
  5452   001B10  0E01               	movlw	low _lat_registers
  5453   001B12  24F3               	addwf	243,w,c
  5454   001B14  6ED9               	movwf	fsr2l,c
  5455   001B16  0E00               	movlw	high _lat_registers
  5456   001B18  20F4               	addwfc	prodh,w,c
  5457   001B1A  6EDA               	movwf	fsr2h,c
  5458   001B1C  CFDE F034          	movff	postinc2,??i2_gpio_pin_toggle_logic+3
  5459   001B20  CFDD F035          	movff	postdec2,??i2_gpio_pin_toggle_logic+4
  5460   001B24  C034  FFD9         	movff	??i2_gpio_pin_toggle_logic+3,fsr2l
  5461   001B28  C035  FFDA         	movff	??i2_gpio_pin_toggle_logic+4,fsr2h
  5462   001B2C  5032               	movf	(??i2_gpio_pin_toggle_logic+1)^0,w,c
  5463   001B2E  1ADF               	xorwf	indf2,f,c
  5464   001B30                     i2l243:
  5465   001B30  0012               	return		;funcret
  5466   001B32                     __end_ofi2_gpio_pin_toggle_logic:
  5467                           	callstack 0
  5468                           
  5469                           	psect	text48
  5470   000000                     __ptext48:
  5471                           	callstack 0
  5472   000000                     
  5473                           	psect	rparam
  5474   000000                     
  5475                           	psect	temp
  5476   00006E                     btemp:
  5477                           	callstack 0
  5478   00006E                     	ds	1
  5479   000000                     int$flags	set	btemp
  5480   000000                     wtemp8	set	btemp+1
  5481   000000                     ttemp5	set	btemp+1
  5482   000000                     ttemp6	set	btemp+4
  5483   000000                     ttemp7	set	btemp+8
  5484                           
  5485                           	psect	idloc
  5486                           
  5487                           ;Config register IDLOC0 @ 0x200000
  5488                           ;	unspecified, using default values
  5489   200000                     	org	2097152
  5490   200000  FF                 	db	255
  5491                           
  5492                           ;Config register IDLOC1 @ 0x200001
  5493                           ;	unspecified, using default values
  5494   200001                     	org	2097153
  5495   200001  FF                 	db	255
  5496                           
  5497                           ;Config register IDLOC2 @ 0x200002
  5498                           ;	unspecified, using default values
  5499   200002                     	org	2097154
  5500   200002  FF                 	db	255
  5501                           
  5502                           ;Config register IDLOC3 @ 0x200003
  5503                           ;	unspecified, using default values
  5504   200003                     	org	2097155
  5505   200003  FF                 	db	255
  5506                           
  5507                           ;Config register IDLOC4 @ 0x200004
  5508                           ;	unspecified, using default values
  5509   200004                     	org	2097156
  5510   200004  FF                 	db	255
  5511                           
  5512                           ;Config register IDLOC5 @ 0x200005
  5513                           ;	unspecified, using default values
  5514   200005                     	org	2097157
  5515   200005  FF                 	db	255
  5516                           
  5517                           ;Config register IDLOC6 @ 0x200006
  5518                           ;	unspecified, using default values
  5519   200006                     	org	2097158
  5520   200006  FF                 	db	255
  5521                           
  5522                           ;Config register IDLOC7 @ 0x200007
  5523                           ;	unspecified, using default values
  5524   200007                     	org	2097159
  5525   200007  FF                 	db	255
  5526                           
  5527                           	psect	config
  5528                           
  5529                           ; Padding undefined space
  5530   300000                     	org	3145728
  5531   300000  FF                 	db	255
  5532                           
  5533                           ;Config register CONFIG1H @ 0x300001
  5534                           ;	Oscillator Selection bits
  5535                           ;	OSC = HS, HS oscillator
  5536                           ;	Fail-Safe Clock Monitor Enable bit
  5537                           ;	FCMEN = OFF, Fail-Safe Clock Monitor disabled
  5538                           ;	Internal/External Oscillator Switchover bit
  5539                           ;	IESO = OFF, Oscillator Switchover mode disabled
  5540   300001                     	org	3145729
  5541   300001  02                 	db	2
  5542                           
  5543                           ;Config register CONFIG2L @ 0x300002
  5544                           ;	Power-up Timer Enable bit
  5545                           ;	PWRT = OFF, PWRT disabled
  5546                           ;	Brown-out Reset Enable bits
  5547                           ;	BOREN = OFF, Brown-out Reset disabled in hardware and software
  5548                           ;	Brown Out Reset Voltage bits
  5549                           ;	BORV = 1, 
  5550   300002                     	org	3145730
  5551   300002  09                 	db	9
  5552                           
  5553                           ;Config register CONFIG2H @ 0x300003
  5554                           ;	Watchdog Timer Enable bit
  5555                           ;	WDT = OFF, WDT disabled (control is placed on the SWDTEN bit)
  5556                           ;	Watchdog Timer Postscale Select bits
  5557                           ;	WDTPS = 32768, 1:32768
  5558   300003                     	org	3145731
  5559   300003  1E                 	db	30
  5560                           
  5561                           ; Padding undefined space
  5562   300004                     	org	3145732
  5563   300004  FF                 	db	255
  5564                           
  5565                           ;Config register CONFIG3H @ 0x300005
  5566                           ;	CCP2 MUX bit
  5567                           ;	CCP2MX = PORTC, CCP2 input/output is multiplexed with RC1
  5568                           ;	PORTB A/D Enable bit
  5569                           ;	PBADEN = OFF, PORTB<4:0> pins are configured as digital I/O on Reset
  5570                           ;	Low-Power Timer1 Oscillator Enable bit
  5571                           ;	LPT1OSC = OFF, Timer1 configured for higher power operation
  5572                           ;	MCLR Pin Enable bit
  5573                           ;	MCLRE = ON, MCLR pin enabled; RE3 input pin disabled
  5574   300005                     	org	3145733
  5575   300005  81                 	db	129
  5576                           
  5577                           ;Config register CONFIG4L @ 0x300006
  5578                           ;	Stack Full/Underflow Reset Enable bit
  5579                           ;	STVREN = ON, Stack full/underflow will cause Reset
  5580                           ;	Single-Supply ICSP Enable bit
  5581                           ;	LVP = OFF, Single-Supply ICSP disabled
  5582                           ;	Extended Instruction Set Enable bit
  5583                           ;	XINST = OFF, Instruction set extension and Indexed Addressing mode disabled (Legacy mo
      +                          de)
  5584                           ;	Background Debugger Enable bit
  5585                           ;	DEBUG = 0x1, unprogrammed default
  5586   300006                     	org	3145734
  5587   300006  81                 	db	129
  5588                           
  5589                           ; Padding undefined space
  5590   300007                     	org	3145735
  5591   300007  FF                 	db	255
  5592                           
  5593                           ;Config register CONFIG5L @ 0x300008
  5594                           ;	Code Protection bit
  5595                           ;	CP0 = OFF, Block 0 (000800-003FFFh) not code-protected
  5596                           ;	Code Protection bit
  5597                           ;	CP1 = OFF, Block 1 (004000-007FFFh) not code-protected
  5598                           ;	Code Protection bit
  5599                           ;	CP2 = OFF, Block 2 (008000-00BFFFh) not code-protected
  5600                           ;	Code Protection bit
  5601                           ;	CP3 = OFF, Block 3 (00C000-00FFFFh) not code-protected
  5602   300008                     	org	3145736
  5603   300008  0F                 	db	15
  5604                           
  5605                           ;Config register CONFIG5H @ 0x300009
  5606                           ;	Boot Block Code Protection bit
  5607                           ;	CPB = OFF, Boot block (000000-0007FFh) not code-protected
  5608                           ;	Data EEPROM Code Protection bit
  5609                           ;	CPD = OFF, Data EEPROM not code-protected
  5610   300009                     	org	3145737
  5611   300009  C0                 	db	192
  5612                           
  5613                           ;Config register CONFIG6L @ 0x30000A
  5614                           ;	Write Protection bit
  5615                           ;	WRT0 = OFF, Block 0 (000800-003FFFh) not write-protected
  5616                           ;	Write Protection bit
  5617                           ;	WRT1 = OFF, Block 1 (004000-007FFFh) not write-protected
  5618                           ;	Write Protection bit
  5619                           ;	WRT2 = OFF, Block 2 (008000-00BFFFh) not write-protected
  5620                           ;	Write Protection bit
  5621                           ;	WRT3 = OFF, Block 3 (00C000-00FFFFh) not write-protected
  5622   30000A                     	org	3145738
  5623   30000A  0F                 	db	15
  5624                           
  5625                           ;Config register CONFIG6H @ 0x30000B
  5626                           ;	Configuration Register Write Protection bit
  5627                           ;	WRTC = OFF, Configuration registers (300000-3000FFh) not write-protected
  5628                           ;	Boot Block Write Protection bit
  5629                           ;	WRTB = OFF, Boot Block (000000-0007FFh) not write-protected
  5630                           ;	Data EEPROM Write Protection bit
  5631                           ;	WRTD = OFF, Data EEPROM not write-protected
  5632   30000B                     	org	3145739
  5633   30000B  E0                 	db	224
  5634                           
  5635                           ;Config register CONFIG7L @ 0x30000C
  5636                           ;	Table Read Protection bit
  5637                           ;	EBTR0 = OFF, Block 0 (000800-003FFFh) not protected from table reads executed in other
      +                           blocks
  5638                           ;	Table Read Protection bit
  5639                           ;	EBTR1 = OFF, Block 1 (004000-007FFFh) not protected from table reads executed in other
      +                           blocks
  5640                           ;	Table Read Protection bit
  5641                           ;	EBTR2 = OFF, Block 2 (008000-00BFFFh) not protected from table reads executed in other
      +                           blocks
  5642                           ;	Table Read Protection bit
  5643                           ;	EBTR3 = OFF, Block 3 (00C000-00FFFFh) not protected from table reads executed in other
      +                           blocks
  5644   30000C                     	org	3145740
  5645   30000C  0F                 	db	15
  5646                           
  5647                           ;Config register CONFIG7H @ 0x30000D
  5648                           ;	Boot Block Table Read Protection bit
  5649                           ;	EBTRB = OFF, Boot Block (000000-0007FFh) not protected from table reads executed in ot
      +                          her blocks
  5650   30000D                     	org	3145741
  5651   30000D  40                 	db	64
  5652                           tosu	equ	0xFFF
  5653                           tosh	equ	0xFFE
  5654                           tosl	equ	0xFFD
  5655                           stkptr	equ	0xFFC
  5656                           pclatu	equ	0xFFB
  5657                           pclath	equ	0xFFA
  5658                           pcl	equ	0xFF9
  5659                           tblptru	equ	0xFF8
  5660                           tblptrh	equ	0xFF7
  5661                           tblptrl	equ	0xFF6
  5662                           tablat	equ	0xFF5
  5663                           prodh	equ	0xFF4
  5664                           prodl	equ	0xFF3
  5665                           indf0	equ	0xFEF
  5666                           postinc0	equ	0xFEE
  5667                           postdec0	equ	0xFED
  5668                           preinc0	equ	0xFEC
  5669                           plusw0	equ	0xFEB
  5670                           fsr0h	equ	0xFEA
  5671                           fsr0l	equ	0xFE9
  5672                           wreg	equ	0xFE8
  5673                           indf1	equ	0xFE7
  5674                           postinc1	equ	0xFE6
  5675                           postdec1	equ	0xFE5
  5676                           preinc1	equ	0xFE4
  5677                           plusw1	equ	0xFE3
  5678                           fsr1h	equ	0xFE2
  5679                           fsr1l	equ	0xFE1
  5680                           bsr	equ	0xFE0
  5681                           indf2	equ	0xFDF
  5682                           postinc2	equ	0xFDE
  5683                           postdec2	equ	0xFDD
  5684                           preinc2	equ	0xFDC
  5685                           plusw2	equ	0xFDB
  5686                           fsr2h	equ	0xFDA
  5687                           fsr2l	equ	0xFD9
  5688                           status	equ	0xFD8

Data Sizes:
    Strings     3
    Constant    0
    Data        96
    BSS         27
    Persistent  0
    Stack       0

Auto Spaces:
    Space          Size  Autos    Used
    COMRAM          126     36     109
    BANK0           128     13      63
    BANK1           256      0       0
    BANK2           256      0       0
    BANK3           256      0       0
    BANK4           256      0       0
    BANK5           256      0       0
    BANK6           256      0       0
    BANK7           256      0       0
    BANK8           256      0       0
    BANK9           256      0       0
    BANK10          256      0       0
    BANK11          256      0       0
    BANK12          256      0       0
    BANK13          256      0       0
    BANK14          256      0       0
    BANK15          128      0       0

Pointer List with Targets:

    vfprintf$2	PTR PTR void  size(2) Largest target is 2
		 -> sprintf@ap(COMRAM[2]), 

    vfprintf$1	PTR const unsigned char  size(2) Largest target is 3
		 -> STR_3(CODE[3]), STR_2(CODE[3]), STR_1(CODE[3]), 

    vfprintf$0	PTR struct _IO_FILE size(2) Largest target is 12
		 -> sprintf@f(COMRAM[12]), 

    S1786$source	PTR const unsigned char  size(2) Largest target is 0

    f...source	PTR const unsigned char  size(2) Largest target is 0

    S1786$buffer	PTR unsigned char  size(2) Largest target is 0

    f...buffer	PTR unsigned char  size(2) Largest target is 0

    Interrupt_INTx_SetInterruptHandler@int_obj.InterruptHandler	PTR FTN()void  size(2) Largest target is 1
		 -> Int2_App_ISR(), Int1_App_ISR(), Int0_App_ISR(), 

    INT2_InterruptHandler	PTR FTN()void  size(2) Largest target is 1
		 -> i2_Int2_App_ISR(), i2_Int1_App_ISR(), i2_Int0_App_ISR(), NULL(), 
		 -> Int2_App_ISR(), Int1_App_ISR(), Int0_App_ISR(), 

    INT1_InterruptHandler	PTR FTN()void  size(2) Largest target is 1
		 -> i2_Int2_App_ISR(), i2_Int1_App_ISR(), i2_Int0_App_ISR(), NULL(), 
		 -> Int2_App_ISR(), Int1_App_ISR(), Int0_App_ISR(), 

    INT0_InterruptHandler	PTR FTN()void  size(2) Largest target is 1
		 -> i2_Int2_App_ISR(), i2_Int1_App_ISR(), i2_Int0_App_ISR(), NULL(), 
		 -> Int2_App_ISR(), Int1_App_ISR(), Int0_App_ISR(), 

    Interrupt_RBx_Pin_Init@int_obj.InterruptHandler_LOW	PTR FTN()void  size(2) Largest target is 1
		 -> RB7_LOW_Int_APP_ISR(), RB6_LOW_Int_APP_ISR(), RB5_LOW_Int_APP_ISR(), RB4_LOW_Int_APP_ISR(), 

    Interrupt_RBx_Pin_Init@int_obj.InterruptHandler_HIGH	PTR FTN()void  size(2) Largest target is 1
		 -> RB7_HIGH_Int_APP_ISR(), RB6_HIGH_Int_APP_ISR(), RB5_HIGH_Int_APP_ISR(), RB4_HIGH_Int_APP_ISR(), 

    Interrupt_RBx_Priority_Init@int_obj.InterruptHandler_LOW	PTR FTN()void  size(2) Largest target is 1
		 -> RB7_LOW_Int_APP_ISR(), RB6_LOW_Int_APP_ISR(), RB5_LOW_Int_APP_ISR(), RB4_LOW_Int_APP_ISR(), 

    Interrupt_RBx_Priority_Init@int_obj.InterruptHandler_HIGH	PTR FTN()void  size(2) Largest target is 1
		 -> RB7_HIGH_Int_APP_ISR(), RB6_HIGH_Int_APP_ISR(), RB5_HIGH_Int_APP_ISR(), RB4_HIGH_Int_APP_ISR(), 

    Interrupt_INTx_Clear_Flag@int_obj.InterruptHandler	PTR FTN()void  size(2) Largest target is 1
		 -> Int2_App_ISR(), Int1_App_ISR(), Int0_App_ISR(), 

    Interrupt_INTx_Pin_Init@int_obj.InterruptHandler	PTR FTN()void  size(2) Largest target is 1
		 -> Int2_App_ISR(), Int1_App_ISR(), Int0_App_ISR(), 

    Interrupt_INTx_Edge_Init@int_obj.InterruptHandler	PTR FTN()void  size(2) Largest target is 1
		 -> Int2_App_ISR(), Int1_App_ISR(), Int0_App_ISR(), 

    Interrupt_INTx_Priority_Init@int_obj.InterruptHandler	PTR FTN()void  size(2) Largest target is 1
		 -> Int2_App_ISR(), Int1_App_ISR(), Int0_App_ISR(), 

    Interrupt_INTx_Disable@int_obj.InterruptHandler	PTR FTN()void  size(2) Largest target is 1
		 -> Int2_App_ISR(), Int1_App_ISR(), Int0_App_ISR(), 

    Interrupt_INTx_Enable@int_obj.InterruptHandler	PTR FTN()void  size(2) Largest target is 1
		 -> Int2_App_ISR(), Int1_App_ISR(), Int0_App_ISR(), 

    RB7_InterruptHandler_LOW	PTR FTN()void  size(2) Largest target is 1
		 -> i2_RB7_LOW_Int_APP_ISR(), i2_RB6_LOW_Int_APP_ISR(), i2_RB5_LOW_Int_APP_ISR(), i2_RB4_LOW_Int_APP_ISR(), 
		 -> NULL(), RB7_LOW_Int_APP_ISR(), RB6_LOW_Int_APP_ISR(), RB5_LOW_Int_APP_ISR(), 
		 -> RB4_LOW_Int_APP_ISR(), 

    RB7_InterruptHandler_HIGH	PTR FTN()void  size(2) Largest target is 1
		 -> i2_RB7_HIGH_Int_APP_ISR(), i2_RB6_HIGH_Int_APP_ISR(), i2_RB5_HIGH_Int_APP_ISR(), i2_RB4_HIGH_Int_APP_ISR(), 
		 -> NULL(), RB7_HIGH_Int_APP_ISR(), RB6_HIGH_Int_APP_ISR(), RB5_HIGH_Int_APP_ISR(), 
		 -> RB4_HIGH_Int_APP_ISR(), 

    RB6_InterruptHandler_LOW	PTR FTN()void  size(2) Largest target is 1
		 -> i2_RB7_LOW_Int_APP_ISR(), i2_RB6_LOW_Int_APP_ISR(), i2_RB5_LOW_Int_APP_ISR(), i2_RB4_LOW_Int_APP_ISR(), 
		 -> NULL(), RB7_LOW_Int_APP_ISR(), RB6_LOW_Int_APP_ISR(), RB5_LOW_Int_APP_ISR(), 
		 -> RB4_LOW_Int_APP_ISR(), 

    RB6_InterruptHandler_HIGH	PTR FTN()void  size(2) Largest target is 1
		 -> i2_RB7_HIGH_Int_APP_ISR(), i2_RB6_HIGH_Int_APP_ISR(), i2_RB5_HIGH_Int_APP_ISR(), i2_RB4_HIGH_Int_APP_ISR(), 
		 -> NULL(), RB7_HIGH_Int_APP_ISR(), RB6_HIGH_Int_APP_ISR(), RB5_HIGH_Int_APP_ISR(), 
		 -> RB4_HIGH_Int_APP_ISR(), 

    RB5_InterruptHandler_LOW	PTR FTN()void  size(2) Largest target is 1
		 -> i2_RB7_LOW_Int_APP_ISR(), i2_RB6_LOW_Int_APP_ISR(), i2_RB5_LOW_Int_APP_ISR(), i2_RB4_LOW_Int_APP_ISR(), 
		 -> NULL(), RB7_LOW_Int_APP_ISR(), RB6_LOW_Int_APP_ISR(), RB5_LOW_Int_APP_ISR(), 
		 -> RB4_LOW_Int_APP_ISR(), 

    RB5_InterruptHandler_HIGH	PTR FTN()void  size(2) Largest target is 1
		 -> i2_RB7_HIGH_Int_APP_ISR(), i2_RB6_HIGH_Int_APP_ISR(), i2_RB5_HIGH_Int_APP_ISR(), i2_RB4_HIGH_Int_APP_ISR(), 
		 -> NULL(), RB7_HIGH_Int_APP_ISR(), RB6_HIGH_Int_APP_ISR(), RB5_HIGH_Int_APP_ISR(), 
		 -> RB4_HIGH_Int_APP_ISR(), 

    RB4_InterruptHandler_LOW	PTR FTN()void  size(2) Largest target is 1
		 -> i2_RB7_LOW_Int_APP_ISR(), i2_RB6_LOW_Int_APP_ISR(), i2_RB5_LOW_Int_APP_ISR(), i2_RB4_LOW_Int_APP_ISR(), 
		 -> NULL(), RB7_LOW_Int_APP_ISR(), RB6_LOW_Int_APP_ISR(), RB5_LOW_Int_APP_ISR(), 
		 -> RB4_LOW_Int_APP_ISR(), 

    RB4_InterruptHandler_HIGH	PTR FTN()void  size(2) Largest target is 1
		 -> i2_RB7_HIGH_Int_APP_ISR(), i2_RB6_HIGH_Int_APP_ISR(), i2_RB5_HIGH_Int_APP_ISR(), i2_RB4_HIGH_Int_APP_ISR(), 
		 -> NULL(), RB7_HIGH_Int_APP_ISR(), RB6_HIGH_Int_APP_ISR(), RB5_HIGH_Int_APP_ISR(), 
		 -> RB4_HIGH_Int_APP_ISR(), 

    Interrupt_RBx_Init@int_obj.InterruptHandler_LOW	PTR FTN()void  size(2) Largest target is 1
		 -> RB7_LOW_Int_APP_ISR(), RB6_LOW_Int_APP_ISR(), RB5_LOW_Int_APP_ISR(), RB4_LOW_Int_APP_ISR(), 

    Interrupt_RBx_Init@int_obj.InterruptHandler_HIGH	PTR FTN()void  size(2) Largest target is 1
		 -> RB7_HIGH_Int_APP_ISR(), RB6_HIGH_Int_APP_ISR(), RB5_HIGH_Int_APP_ISR(), RB4_HIGH_Int_APP_ISR(), 

    Interrupt_RBx_Init@int_obj	PTR const struct . size(2) Largest target is 6
		 -> rb7_int_obj(BANK0[6]), rb6_int_obj(COMRAM[6]), rb5_int_obj(COMRAM[6]), rb4_int_obj(COMRAM[6]), 

    int2_obj.InterruptHandler	PTR FTN()void  size(2) Largest target is 1
		 -> i2_Int2_App_ISR(), Int2_App_ISR(), Int1_App_ISR(), Int0_App_ISR(), 

    int1_obj.InterruptHandler	PTR FTN()void  size(2) Largest target is 1
		 -> i2_Int1_App_ISR(), Int2_App_ISR(), Int1_App_ISR(), Int0_App_ISR(), 

    S473$InterruptHandler	PTR FTN()void  size(2) Largest target is 1
		 -> Int2_App_ISR(), Int1_App_ISR(), Int0_App_ISR(), 

    int0_obj.InterruptHandler	PTR FTN()void  size(2) Largest target is 1
		 -> i2_Int0_App_ISR(), Int2_App_ISR(), Int1_App_ISR(), Int0_App_ISR(), 

    rb7_int_obj.InterruptHandler_LOW	PTR FTN()void  size(2) Largest target is 1
		 -> i2_RB7_LOW_Int_APP_ISR(), RB7_LOW_Int_APP_ISR(), RB6_LOW_Int_APP_ISR(), RB5_LOW_Int_APP_ISR(), 
		 -> RB4_LOW_Int_APP_ISR(), 

    rb7_int_obj.InterruptHandler_HIGH	PTR FTN()void  size(2) Largest target is 1
		 -> i2_RB7_HIGH_Int_APP_ISR(), RB7_HIGH_Int_APP_ISR(), RB6_HIGH_Int_APP_ISR(), RB5_HIGH_Int_APP_ISR(), 
		 -> RB4_HIGH_Int_APP_ISR(), 

    rb6_int_obj.InterruptHandler_LOW	PTR FTN()void  size(2) Largest target is 1
		 -> i2_RB6_LOW_Int_APP_ISR(), RB7_LOW_Int_APP_ISR(), RB6_LOW_Int_APP_ISR(), RB5_LOW_Int_APP_ISR(), 
		 -> RB4_LOW_Int_APP_ISR(), 

    rb6_int_obj.InterruptHandler_HIGH	PTR FTN()void  size(2) Largest target is 1
		 -> i2_RB6_HIGH_Int_APP_ISR(), RB7_HIGH_Int_APP_ISR(), RB6_HIGH_Int_APP_ISR(), RB5_HIGH_Int_APP_ISR(), 
		 -> RB4_HIGH_Int_APP_ISR(), 

    rb5_int_obj.InterruptHandler_LOW	PTR FTN()void  size(2) Largest target is 1
		 -> i2_RB5_LOW_Int_APP_ISR(), RB7_LOW_Int_APP_ISR(), RB6_LOW_Int_APP_ISR(), RB5_LOW_Int_APP_ISR(), 
		 -> RB4_LOW_Int_APP_ISR(), 

    rb5_int_obj.InterruptHandler_HIGH	PTR FTN()void  size(2) Largest target is 1
		 -> i2_RB5_HIGH_Int_APP_ISR(), RB7_HIGH_Int_APP_ISR(), RB6_HIGH_Int_APP_ISR(), RB5_HIGH_Int_APP_ISR(), 
		 -> RB4_HIGH_Int_APP_ISR(), 

    S457$InterruptHandler_LOW	PTR FTN()void  size(2) Largest target is 1
		 -> RB7_LOW_Int_APP_ISR(), RB6_LOW_Int_APP_ISR(), RB5_LOW_Int_APP_ISR(), RB4_LOW_Int_APP_ISR(), 

    rb4_int_obj.InterruptHandler_LOW	PTR FTN()void  size(2) Largest target is 1
		 -> i2_RB4_LOW_Int_APP_ISR(), RB7_LOW_Int_APP_ISR(), RB6_LOW_Int_APP_ISR(), RB5_LOW_Int_APP_ISR(), 
		 -> RB4_LOW_Int_APP_ISR(), 

    S457$InterruptHandler_HIGH	PTR FTN()void  size(2) Largest target is 1
		 -> RB7_HIGH_Int_APP_ISR(), RB6_HIGH_Int_APP_ISR(), RB5_HIGH_Int_APP_ISR(), RB4_HIGH_Int_APP_ISR(), 

    rb4_int_obj.InterruptHandler_HIGH	PTR FTN()void  size(2) Largest target is 1
		 -> i2_RB4_HIGH_Int_APP_ISR(), RB7_HIGH_Int_APP_ISR(), RB6_HIGH_Int_APP_ISR(), RB5_HIGH_Int_APP_ISR(), 
		 -> RB4_HIGH_Int_APP_ISR(), 

    gpio_pin_toggle_logic@_pin_config	PTR const struct . size(2) Largest target is 1
		 -> led3(COMRAM[1]), led2(COMRAM[1]), led1(COMRAM[1]), 

    gpio_pin_write_logic@_pin_config	PTR const struct . size(2) Largest target is 10
		 -> lcd_2.lcd_data(BANK0[8]), lcd_2(BANK0[10]), lcd_1.lcd_data(BANK0[4]), lcd_1(BANK0[6]), 
		 -> led4(COMRAM[1]), led3(COMRAM[1]), led2(COMRAM[1]), led1(COMRAM[1]), 

    gpio_pin_direction_intialize@_pin_config	PTR const struct . size(2) Largest target is 10
		 -> lcd_2.lcd_data(BANK0[8]), lcd_2(BANK0[10]), lcd_1.lcd_data(BANK0[4]), lcd_1(BANK0[6]), 
		 -> rb7_int_obj(BANK0[6]), rb6_int_obj(COMRAM[6]), rb5_int_obj(COMRAM[6]), rb4_int_obj(COMRAM[6]), 
		 -> led4(COMRAM[1]), led3(COMRAM[1]), led2(COMRAM[1]), led1(COMRAM[1]), 

    port_registers	PTR volatile unsigned char [5] size(2) Largest target is 1
		 -> PORTE(BITBIGSFRll[1]), PORTD(BITBIGSFRll[1]), PORTC(BITBIGSFRll[1]), PORTB(BITBIGSFRll[1]), 
		 -> PORTA(BITBIGSFRll[1]), 

    lat_registers	PTR volatile unsigned char [5] size(2) Largest target is 1
		 -> LATE(BITBIGSFRlh[1]), LATD(BITBIGSFRlh[1]), LATC(BITBIGSFRlh[1]), LATB(BITBIGSFRlh[1]), 
		 -> LATA(BITBIGSFRll[1]), 

    tris_registers	PTR volatile unsigned char [5] size(2) Largest target is 1
		 -> TRISE(BITBIGSFRhll[1]), TRISD(BITBIGSFRhll[1]), TRISC(BITBIGSFRhll[1]), TRISB(BITBIGSFRhll[1]), 
		 -> TRISA(BITBIGSFRll[1]), 

    sp__memset	PTR void  size(2) Largest target is 0


Critical Paths under _main in COMRAM

    None.

Critical Paths under _InterruptManagerLow in COMRAM

    _InterruptCheck->_RB4_ISR
    _InterruptCheck->_RB5_ISR
    _InterruptCheck->_RB6_ISR
    _InterruptCheck->_RB7_ISR
    _RB7_LOW_Int_APP_ISR->_gpio_pin_write_logic
    _RB7_HIGH_Int_APP_ISR->_gpio_pin_write_logic
    _RB6_LOW_Int_APP_ISR->_gpio_pin_write_logic
    _RB6_HIGH_Int_APP_ISR->_gpio_pin_write_logic
    _RB5_LOW_Int_APP_ISR->_gpio_pin_write_logic
    _RB5_HIGH_Int_APP_ISR->_gpio_pin_write_logic
    _RB4_LOW_Int_APP_ISR->_gpio_pin_write_logic
    _RB4_HIGH_Int_APP_ISR->_gpio_pin_write_logic
    _INT2_ISR->_Int0_App_ISR
    _INT2_ISR->_Int1_App_ISR
    _INT2_ISR->_Int2_App_ISR
    _INT1_ISR->_Int0_App_ISR
    _INT1_ISR->_Int1_App_ISR
    _INT1_ISR->_Int2_App_ISR
    _INT0_ISR->_Int0_App_ISR
    _INT0_ISR->_Int1_App_ISR
    _INT0_ISR->_Int2_App_ISR
    _Int2_App_ISR->_gpio_pin_toggle_logic
    _Int1_App_ISR->_gpio_pin_toggle_logic
    _Int0_App_ISR->_gpio_pin_toggle_logic

Critical Paths under _InterruptManagerHigh in COMRAM

    i2_InterruptCheck->i2_RB4_ISR
    i2_InterruptCheck->i2_RB5_ISR
    i2_InterruptCheck->i2_RB6_ISR
    i2_InterruptCheck->i2_RB7_ISR
    i2_RB7_LOW_Int_APP_ISR->i2_gpio_pin_write_logic
    i2_RB7_HIGH_Int_APP_ISR->i2_gpio_pin_write_logic
    i2_RB6_LOW_Int_APP_ISR->i2_gpio_pin_write_logic
    i2_RB6_HIGH_Int_APP_ISR->i2_gpio_pin_write_logic
    i2_RB5_LOW_Int_APP_ISR->i2_gpio_pin_write_logic
    i2_RB5_HIGH_Int_APP_ISR->i2_gpio_pin_write_logic
    i2_RB4_LOW_Int_APP_ISR->i2_gpio_pin_write_logic
    i2_RB4_HIGH_Int_APP_ISR->i2_gpio_pin_write_logic
    i2_INT2_ISR->i2_Int0_App_ISR
    i2_INT2_ISR->i2_Int1_App_ISR
    i2_INT2_ISR->i2_Int2_App_ISR
    i2_INT1_ISR->i2_Int0_App_ISR
    i2_INT1_ISR->i2_Int1_App_ISR
    i2_INT1_ISR->i2_Int2_App_ISR
    i2_INT0_ISR->i2_Int0_App_ISR
    i2_INT0_ISR->i2_Int1_App_ISR
    i2_INT0_ISR->i2_Int2_App_ISR
    i2_Int2_App_ISR->i2_gpio_pin_toggle_logic
    i2_Int1_App_ISR->i2_gpio_pin_toggle_logic
    i2_Int0_App_ISR->i2_gpio_pin_toggle_logic

Critical Paths under _main in BANK0

    _app_initialize->_Interrupt_RBx_Init
    _Interrupt_RBx_Init->_gpio_pin_direction_intialize

Critical Paths under _InterruptManagerLow in BANK0

    None.

Critical Paths under _InterruptManagerHigh in BANK0

    None.

Critical Paths under _main in BANK1

    None.

Critical Paths under _InterruptManagerLow in BANK1

    None.

Critical Paths under _InterruptManagerHigh in BANK1

    None.

Critical Paths under _main in BANK2

    None.

Critical Paths under _InterruptManagerLow in BANK2

    None.

Critical Paths under _InterruptManagerHigh in BANK2

    None.

Critical Paths under _main in BANK3

    None.

Critical Paths under _InterruptManagerLow in BANK3

    None.

Critical Paths under _InterruptManagerHigh in BANK3

    None.

Critical Paths under _main in BANK4

    None.

Critical Paths under _InterruptManagerLow in BANK4

    None.

Critical Paths under _InterruptManagerHigh in BANK4

    None.

Critical Paths under _main in BANK5

    None.

Critical Paths under _InterruptManagerLow in BANK5

    None.

Critical Paths under _InterruptManagerHigh in BANK5

    None.

Critical Paths under _main in BANK6

    None.

Critical Paths under _InterruptManagerLow in BANK6

    None.

Critical Paths under _InterruptManagerHigh in BANK6

    None.

Critical Paths under _main in BANK7

    None.

Critical Paths under _InterruptManagerLow in BANK7

    None.

Critical Paths under _InterruptManagerHigh in BANK7

    None.

Critical Paths under _main in BANK8

    None.

Critical Paths under _InterruptManagerLow in BANK8

    None.

Critical Paths under _InterruptManagerHigh in BANK8

    None.

Critical Paths under _main in BANK9

    None.

Critical Paths under _InterruptManagerLow in BANK9

    None.

Critical Paths under _InterruptManagerHigh in BANK9

    None.

Critical Paths under _main in BANK10

    None.

Critical Paths under _InterruptManagerLow in BANK10

    None.

Critical Paths under _InterruptManagerHigh in BANK10

    None.

Critical Paths under _main in BANK11

    None.

Critical Paths under _InterruptManagerLow in BANK11

    None.

Critical Paths under _InterruptManagerHigh in BANK11

    None.

Critical Paths under _main in BANK12

    None.

Critical Paths under _InterruptManagerLow in BANK12

    None.

Critical Paths under _InterruptManagerHigh in BANK12

    None.

Critical Paths under _main in BANK13

    None.

Critical Paths under _InterruptManagerLow in BANK13

    None.

Critical Paths under _InterruptManagerHigh in BANK13

    None.

Critical Paths under _main in BANK14

    None.

Critical Paths under _InterruptManagerLow in BANK14

    None.

Critical Paths under _InterruptManagerHigh in BANK14

    None.

Critical Paths under _main in BANK15

    None.

Critical Paths under _InterruptManagerLow in BANK15

    None.

Critical Paths under _InterruptManagerHigh in BANK15

    None.

Call Graph Tables:

 ---------------------------------------------------------------------------------
 (Depth) Function   	        Calls       Base Space   Used Autos Params    Refs
 ---------------------------------------------------------------------------------
 (0) _main                                                 1     1      0    2739
                     _app_initialize
 ---------------------------------------------------------------------------------
 (1) _app_initialize                                       0     0      0    2736
                 _Interrupt_RBx_Init
       _gpio_pin_direction_intialize
 ---------------------------------------------------------------------------------
 (2) _Interrupt_RBx_Init                                   5     3      2    1759
                                              9 BANK0      4     2      2
       _gpio_pin_direction_intialize
 ---------------------------------------------------------------------------------
 (2) _gpio_pin_direction_intialize                         9     7      2     977
                                              0 BANK0      9     7      2
 ---------------------------------------------------------------------------------
 Estimated maximum stack depth 2
 ---------------------------------------------------------------------------------
 (Depth) Function   	        Calls       Base Space   Used Autos Params    Refs
 ---------------------------------------------------------------------------------
 (4) _InterruptManagerLow                                  9     9      0  120692
                                             27 COMRAM     9     9      0
                     _InterruptCheck
 ---------------------------------------------------------------------------------
 (5) _InterruptCheck                                       0     0      0  120692
                           _INT0_ISR
                           _INT1_ISR
                           _INT2_ISR
                            _RB4_ISR
                            _RB5_ISR
                            _RB6_ISR
                            _RB7_ISR
 ---------------------------------------------------------------------------------
 (6) _RB7_ISR                                              1     1      0   29444
                                             26 COMRAM     1     1      0
                                NULL *
               _RB4_HIGH_Int_APP_ISR *
                _RB4_LOW_Int_APP_ISR *
               _RB5_HIGH_Int_APP_ISR *
                _RB5_LOW_Int_APP_ISR *
               _RB6_HIGH_Int_APP_ISR *
                _RB6_LOW_Int_APP_ISR *
               _RB7_HIGH_Int_APP_ISR *
                _RB7_LOW_Int_APP_ISR *
 ---------------------------------------------------------------------------------
 (6) _RB6_ISR                                              1     1      0   29444
                                             26 COMRAM     1     1      0
                                NULL *
               _RB4_HIGH_Int_APP_ISR *
                _RB4_LOW_Int_APP_ISR *
               _RB5_HIGH_Int_APP_ISR *
                _RB5_LOW_Int_APP_ISR *
               _RB6_HIGH_Int_APP_ISR *
                _RB6_LOW_Int_APP_ISR *
               _RB7_HIGH_Int_APP_ISR *
                _RB7_LOW_Int_APP_ISR *
 ---------------------------------------------------------------------------------
 (6) _RB5_ISR                                              1     1      0   29444
                                             26 COMRAM     1     1      0
                                NULL *
               _RB4_HIGH_Int_APP_ISR *
                _RB4_LOW_Int_APP_ISR *
               _RB5_HIGH_Int_APP_ISR *
                _RB5_LOW_Int_APP_ISR *
               _RB6_HIGH_Int_APP_ISR *
                _RB6_LOW_Int_APP_ISR *
               _RB7_HIGH_Int_APP_ISR *
                _RB7_LOW_Int_APP_ISR *
 ---------------------------------------------------------------------------------
 (6) _RB4_ISR                                              1     1      0   29444
                                             26 COMRAM     1     1      0
                                NULL *
               _RB4_HIGH_Int_APP_ISR *
                _RB4_LOW_Int_APP_ISR *
               _RB5_HIGH_Int_APP_ISR *
                _RB5_LOW_Int_APP_ISR *
               _RB6_HIGH_Int_APP_ISR *
                _RB6_LOW_Int_APP_ISR *
               _RB7_HIGH_Int_APP_ISR *
                _RB7_LOW_Int_APP_ISR *
 ---------------------------------------------------------------------------------
 (7) _RB7_LOW_Int_APP_ISR                                  0     0      0    3675
               _gpio_pin_write_logic
 ---------------------------------------------------------------------------------
 (7) _RB7_HIGH_Int_APP_ISR                                 0     0      0    3675
               _gpio_pin_write_logic
 ---------------------------------------------------------------------------------
 (7) _RB6_LOW_Int_APP_ISR                                  0     0      0    3675
               _gpio_pin_write_logic
 ---------------------------------------------------------------------------------
 (7) _RB6_HIGH_Int_APP_ISR                                 0     0      0    3675
               _gpio_pin_write_logic
 ---------------------------------------------------------------------------------
 (7) _RB5_LOW_Int_APP_ISR                                  0     0      0    3675
               _gpio_pin_write_logic
 ---------------------------------------------------------------------------------
 (7) _RB5_HIGH_Int_APP_ISR                                 0     0      0    3675
               _gpio_pin_write_logic
 ---------------------------------------------------------------------------------
 (7) _RB4_LOW_Int_APP_ISR                                  0     0      0    3675
               _gpio_pin_write_logic
 ---------------------------------------------------------------------------------
 (7) _RB4_HIGH_Int_APP_ISR                                 0     0      0    3675
               _gpio_pin_write_logic
 ---------------------------------------------------------------------------------
 (8) _gpio_pin_write_logic                                10     7      3    3675
                                             16 COMRAM    10     7      3
 ---------------------------------------------------------------------------------
 (6) _INT2_ISR                                             0     0      0     972
                                NULL *
                       _Int0_App_ISR *
                       _Int1_App_ISR *
                       _Int2_App_ISR *
 ---------------------------------------------------------------------------------
 (6) _INT1_ISR                                             0     0      0     972
                                NULL *
                       _Int0_App_ISR *
                       _Int1_App_ISR *
                       _Int2_App_ISR *
 ---------------------------------------------------------------------------------
 (6) _INT0_ISR                                             0     0      0     972
                                NULL *
                       _Int0_App_ISR *
                       _Int1_App_ISR *
                       _Int2_App_ISR *
 ---------------------------------------------------------------------------------
 (7) _Int2_App_ISR                                         2     2      0     324
                                             23 COMRAM     2     2      0
              _gpio_pin_toggle_logic
 ---------------------------------------------------------------------------------
 (7) _Int1_App_ISR                                         2     2      0     324
                                             23 COMRAM     2     2      0
              _gpio_pin_toggle_logic
 ---------------------------------------------------------------------------------
 (7) _Int0_App_ISR                                         2     2      0     324
                                             23 COMRAM     2     2      0
              _gpio_pin_toggle_logic
 ---------------------------------------------------------------------------------
 (8) _gpio_pin_toggle_logic                                8     6      2     324
                                             16 COMRAM     7     5      2
 ---------------------------------------------------------------------------------
 (12) NULL(Fake)                                           0     0      0       0
 ---------------------------------------------------------------------------------
 Estimated maximum stack depth 12
 ---------------------------------------------------------------------------------
 (Depth) Function   	        Calls       Base Space   Used Autos Params    Refs
 ---------------------------------------------------------------------------------
 (9) _InterruptManagerHigh                                 6     6      0   20270
                                             10 COMRAM     6     6      0
                   i2_InterruptCheck
 ---------------------------------------------------------------------------------
 (10) i2_InterruptCheck                                    0     0      0   20270
                         i2_INT0_ISR
                         i2_INT1_ISR
                         i2_INT2_ISR
                          i2_RB4_ISR
                          i2_RB5_ISR
                          i2_RB6_ISR
                          i2_RB7_ISR
 ---------------------------------------------------------------------------------
 (11) i2_RB7_ISR                                           1     1      0    4676
                                              9 COMRAM     1     1      0
                                NULL *
             i2_RB4_HIGH_Int_APP_ISR *
              i2_RB4_LOW_Int_APP_ISR *
             i2_RB5_HIGH_Int_APP_ISR *
              i2_RB5_LOW_Int_APP_ISR *
             i2_RB6_HIGH_Int_APP_ISR *
              i2_RB6_LOW_Int_APP_ISR *
             i2_RB7_HIGH_Int_APP_ISR *
              i2_RB7_LOW_Int_APP_ISR *
 ---------------------------------------------------------------------------------
 (11) i2_RB6_ISR                                           1     1      0    4676
                                              9 COMRAM     1     1      0
                                NULL *
             i2_RB4_HIGH_Int_APP_ISR *
              i2_RB4_LOW_Int_APP_ISR *
             i2_RB5_HIGH_Int_APP_ISR *
              i2_RB5_LOW_Int_APP_ISR *
             i2_RB6_HIGH_Int_APP_ISR *
              i2_RB6_LOW_Int_APP_ISR *
             i2_RB7_HIGH_Int_APP_ISR *
              i2_RB7_LOW_Int_APP_ISR *
 ---------------------------------------------------------------------------------
 (11) i2_RB5_ISR                                           1     1      0    4676
                                              9 COMRAM     1     1      0
                                NULL *
             i2_RB4_HIGH_Int_APP_ISR *
              i2_RB4_LOW_Int_APP_ISR *
             i2_RB5_HIGH_Int_APP_ISR *
              i2_RB5_LOW_Int_APP_ISR *
             i2_RB6_HIGH_Int_APP_ISR *
              i2_RB6_LOW_Int_APP_ISR *
             i2_RB7_HIGH_Int_APP_ISR *
              i2_RB7_LOW_Int_APP_ISR *
 ---------------------------------------------------------------------------------
 (11) i2_RB4_ISR                                           1     1      0    4676
                                              9 COMRAM     1     1      0
                                NULL *
             i2_RB4_HIGH_Int_APP_ISR *
              i2_RB4_LOW_Int_APP_ISR *
             i2_RB5_HIGH_Int_APP_ISR *
              i2_RB5_LOW_Int_APP_ISR *
             i2_RB6_HIGH_Int_APP_ISR *
              i2_RB6_LOW_Int_APP_ISR *
             i2_RB7_HIGH_Int_APP_ISR *
              i2_RB7_LOW_Int_APP_ISR *
 ---------------------------------------------------------------------------------
 (12) i2_RB7_LOW_Int_APP_ISR                               0     0      0     579
             i2_gpio_pin_write_logic
 ---------------------------------------------------------------------------------
 (12) i2_RB7_HIGH_Int_APP_ISR                              0     0      0     579
             i2_gpio_pin_write_logic
 ---------------------------------------------------------------------------------
 (12) i2_RB6_LOW_Int_APP_ISR                               0     0      0     579
             i2_gpio_pin_write_logic
 ---------------------------------------------------------------------------------
 (12) i2_RB6_HIGH_Int_APP_ISR                              0     0      0     579
             i2_gpio_pin_write_logic
 ---------------------------------------------------------------------------------
 (12) i2_RB5_LOW_Int_APP_ISR                               0     0      0     579
             i2_gpio_pin_write_logic
 ---------------------------------------------------------------------------------
 (12) i2_RB5_HIGH_Int_APP_ISR                              0     0      0     579
             i2_gpio_pin_write_logic
 ---------------------------------------------------------------------------------
 (12) i2_RB4_LOW_Int_APP_ISR                               0     0      0     579
             i2_gpio_pin_write_logic
 ---------------------------------------------------------------------------------
 (12) i2_RB4_HIGH_Int_APP_ISR                              0     0      0     579
             i2_gpio_pin_write_logic
 ---------------------------------------------------------------------------------
 (13) i2_gpio_pin_write_logic                             10     7      3     579
                                              0 COMRAM     9     6      3
 ---------------------------------------------------------------------------------
 (11) i2_INT2_ISR                                          0     0      0     522
                                NULL *
                     i2_Int0_App_ISR *
                     i2_Int1_App_ISR *
                     i2_Int2_App_ISR *
 ---------------------------------------------------------------------------------
 (11) i2_INT1_ISR                                          0     0      0     522
                                NULL *
                     i2_Int0_App_ISR *
                     i2_Int1_App_ISR *
                     i2_Int2_App_ISR *
 ---------------------------------------------------------------------------------
 (11) i2_INT0_ISR                                          0     0      0     522
                                NULL *
                     i2_Int0_App_ISR *
                     i2_Int1_App_ISR *
                     i2_Int2_App_ISR *
 ---------------------------------------------------------------------------------
 (12) i2_Int2_App_ISR                                      2     2      0     174
                                              7 COMRAM     2     2      0
            i2_gpio_pin_toggle_logic
 ---------------------------------------------------------------------------------
 (12) i2_Int1_App_ISR                                      2     2      0     174
                                              7 COMRAM     2     2      0
            i2_gpio_pin_toggle_logic
 ---------------------------------------------------------------------------------
 (12) i2_Int0_App_ISR                                      2     2      0     174
                                              7 COMRAM     2     2      0
            i2_gpio_pin_toggle_logic
 ---------------------------------------------------------------------------------
 (13) i2_gpio_pin_toggle_logic                             8     6      2     174
                                              0 COMRAM     7     5      2
 ---------------------------------------------------------------------------------
 (12) NULL(Fake)                                           0     0      0       0
 ---------------------------------------------------------------------------------
 Estimated maximum stack depth 13
 ---------------------------------------------------------------------------------

 Call Graph Graphs:

 _main (ROOT)
   _app_initialize
     _Interrupt_RBx_Init
       _gpio_pin_direction_intialize
     _gpio_pin_direction_intialize

 _InterruptManagerLow (ROOT)
   _InterruptCheck
     _INT0_ISR
       NULL(Fake) *
       _Int0_App_ISR *
         _gpio_pin_toggle_logic
       _Int1_App_ISR *
         _gpio_pin_toggle_logic
       _Int2_App_ISR *
         _gpio_pin_toggle_logic
     _INT1_ISR
       NULL(Fake) *
       _Int0_App_ISR *
       _Int1_App_ISR *
       _Int2_App_ISR *
     _INT2_ISR
       NULL(Fake) *
       _Int0_App_ISR *
       _Int1_App_ISR *
       _Int2_App_ISR *
     _RB4_ISR
       NULL(Fake) *
       _RB4_HIGH_Int_APP_ISR *
         _gpio_pin_write_logic
       _RB4_LOW_Int_APP_ISR *
         _gpio_pin_write_logic
       _RB5_HIGH_Int_APP_ISR *
         _gpio_pin_write_logic
       _RB5_LOW_Int_APP_ISR *
         _gpio_pin_write_logic
       _RB6_HIGH_Int_APP_ISR *
         _gpio_pin_write_logic
       _RB6_LOW_Int_APP_ISR *
         _gpio_pin_write_logic
       _RB7_HIGH_Int_APP_ISR *
         _gpio_pin_write_logic
       _RB7_LOW_Int_APP_ISR *
         _gpio_pin_write_logic
     _RB5_ISR
       NULL(Fake) *
       _RB4_HIGH_Int_APP_ISR *
       _RB4_LOW_Int_APP_ISR *
       _RB5_HIGH_Int_APP_ISR *
       _RB5_LOW_Int_APP_ISR *
       _RB6_HIGH_Int_APP_ISR *
       _RB6_LOW_Int_APP_ISR *
       _RB7_HIGH_Int_APP_ISR *
       _RB7_LOW_Int_APP_ISR *
     _RB6_ISR
       NULL(Fake) *
       _RB4_HIGH_Int_APP_ISR *
       _RB4_LOW_Int_APP_ISR *
       _RB5_HIGH_Int_APP_ISR *
       _RB5_LOW_Int_APP_ISR *
       _RB6_HIGH_Int_APP_ISR *
       _RB6_LOW_Int_APP_ISR *
       _RB7_HIGH_Int_APP_ISR *
       _RB7_LOW_Int_APP_ISR *
     _RB7_ISR
       NULL(Fake) *
       _RB4_HIGH_Int_APP_ISR *
       _RB4_LOW_Int_APP_ISR *
       _RB5_HIGH_Int_APP_ISR *
       _RB5_LOW_Int_APP_ISR *
       _RB6_HIGH_Int_APP_ISR *
       _RB6_LOW_Int_APP_ISR *
       _RB7_HIGH_Int_APP_ISR *
       _RB7_LOW_Int_APP_ISR *

 _InterruptManagerHigh (ROOT)
   i2_InterruptCheck
     i2_INT0_ISR
       NULL(Fake) *
       i2_Int0_App_ISR *
         i2_gpio_pin_toggle_logic
       i2_Int1_App_ISR *
         i2_gpio_pin_toggle_logic
       i2_Int2_App_ISR *
         i2_gpio_pin_toggle_logic
     i2_INT1_ISR
       NULL(Fake) *
       i2_Int0_App_ISR *
       i2_Int1_App_ISR *
       i2_Int2_App_ISR *
     i2_INT2_ISR
       NULL(Fake) *
       i2_Int0_App_ISR *
       i2_Int1_App_ISR *
       i2_Int2_App_ISR *
     i2_RB4_ISR
       NULL(Fake) *
       i2_RB4_HIGH_Int_APP_ISR *
         i2_gpio_pin_write_logic
       i2_RB4_LOW_Int_APP_ISR *
         i2_gpio_pin_write_logic
       i2_RB5_HIGH_Int_APP_ISR *
         i2_gpio_pin_write_logic
       i2_RB5_LOW_Int_APP_ISR *
         i2_gpio_pin_write_logic
       i2_RB6_HIGH_Int_APP_ISR *
         i2_gpio_pin_write_logic
       i2_RB6_LOW_Int_APP_ISR *
         i2_gpio_pin_write_logic
       i2_RB7_HIGH_Int_APP_ISR *
         i2_gpio_pin_write_logic
       i2_RB7_LOW_Int_APP_ISR *
         i2_gpio_pin_write_logic
     i2_RB5_ISR
       NULL(Fake) *
       i2_RB4_HIGH_Int_APP_ISR *
       i2_RB4_LOW_Int_APP_ISR *
       i2_RB5_HIGH_Int_APP_ISR *
       i2_RB5_LOW_Int_APP_ISR *
       i2_RB6_HIGH_Int_APP_ISR *
       i2_RB6_LOW_Int_APP_ISR *
       i2_RB7_HIGH_Int_APP_ISR *
       i2_RB7_LOW_Int_APP_ISR *
     i2_RB6_ISR
       NULL(Fake) *
       i2_RB4_HIGH_Int_APP_ISR *
       i2_RB4_LOW_Int_APP_ISR *
       i2_RB5_HIGH_Int_APP_ISR *
       i2_RB5_LOW_Int_APP_ISR *
       i2_RB6_HIGH_Int_APP_ISR *
       i2_RB6_LOW_Int_APP_ISR *
       i2_RB7_HIGH_Int_APP_ISR *
       i2_RB7_LOW_Int_APP_ISR *
     i2_RB7_ISR
       NULL(Fake) *
       i2_RB4_HIGH_Int_APP_ISR *
       i2_RB4_LOW_Int_APP_ISR *
       i2_RB5_HIGH_Int_APP_ISR *
       i2_RB5_LOW_Int_APP_ISR *
       i2_RB6_HIGH_Int_APP_ISR *
       i2_RB6_LOW_Int_APP_ISR *
       i2_RB7_HIGH_Int_APP_ISR *
       i2_RB7_LOW_Int_APP_ISR *

 Address spaces:
Name               Size   Autos  Total    Cost      Usage
BIGRAM             F7F      0       0      42        0.0%
EEDATA             400      0       0       0        0.0%
BITBANK14          100      0       0      32        0.0%
BANK14             100      0       0      33        0.0%
BITBANK13          100      0       0      30        0.0%
BANK13             100      0       0      31        0.0%
BITBANK12          100      0       0      28        0.0%
BANK12             100      0       0      29        0.0%
BITBANK11          100      0       0      26        0.0%
BANK11             100      0       0      27        0.0%
BITBANK10          100      0       0      24        0.0%
BANK10             100      0       0      25        0.0%
BITBANK9           100      0       0      22        0.0%
BANK9              100      0       0      23        0.0%
BITBANK8           100      0       0      20        0.0%
BANK8              100      0       0      21        0.0%
BITBANK7           100      0       0      18        0.0%
BANK7              100      0       0      19        0.0%
BITBANK6           100      0       0      16        0.0%
BANK6              100      0       0      17        0.0%
BITBANK5           100      0       0      14        0.0%
BANK5              100      0       0      15        0.0%
BITBANK4           100      0       0      12        0.0%
BANK4              100      0       0      13        0.0%
BITBANK3           100      0       0      10        0.0%
BANK3              100      0       0      11        0.0%
BITBANK2           100      0       0       8        0.0%
BANK2              100      0       0       9        0.0%
BITBANK1           100      0       0       6        0.0%
BANK1              100      0       0       7        0.0%
BITBANK15           80      0       0      34        0.0%
BANK15              80      0       0      35        0.0%
BITBANK0            80      0       0       4        0.0%
BANK0               80      D      3F       5       49.2%
BITCOMRAM           7E      0       0       0        0.0%
COMRAM              7E     24      6D       1       86.5%
BITBIGSFRhll        39      0       0      38        0.0%
BITBIGSFRhlh        1F      0       0      37        0.0%
BITBIGSFRhh          D      0       0      36        0.0%
BITBIGSFRlh          4      0       0      39        0.0%
BITBIGSFRll          4      0       0      40        0.0%
BIGSFR               0      0       0     200        0.0%
BITSFR               0      0       0     200        0.0%
SFR                  0      0       0     200        0.0%
STACK                0      0       0       2        0.0%
NULL                 0      0       0       0        0.0%
ABS                  0      0      AC      41        0.0%
DATA                 0      0      AC       3        0.0%
CODE                 0      0       0       0        0.0%


Microchip Technology PIC18 Macro Assembler V2.41 build 20230208172133 
Symbol Table                                                                                   Sat Apr 22 17:57:09 2023

                   ??_Interrupt_RBx_Init 00BD                                       bsr 0FE0  
                  ??_InterruptManagerLow 004A                   ??_RB6_HIGH_Int_APP_ISR 0049  
                   ?_RB5_LOW_Int_APP_ISR 002F                                      l210 17BE  
                                    l353 2402                                      l442 1674  
                                    l354 2402                                      l437 1672  
                                    l429 1522                                      l359 1F92  
               ??i2_RB5_HIGH_Int_APP_ISR 0038                   ??_InterruptManagerHigh 0039  
              _RB5_InterruptHandler_HIGH 0061                                      prod 0FF3  
                                    tosl 0FFD                                      wreg 0FE8  
                       ??_app_initialize 00BF                          __end_of_RB4_ISR 1D2A  
                        __end_of_RB5_ISR 1CAC                          __end_of_RB6_ISR 1C2E  
                        __end_of_RB7_ISR 1BB0                                     l4061 17A6  
                                   l4059 164C                                     l3801 156C  
                                   l3811 15D0                                     l3803 1580  
                                   l3813 15E0                                     l3805 1590  
                                   l3821 1624                                     l3751 1676  
                                   l3815 15F8                                     l3807 15A8  
                                   l3761 171C                                     l3753 167C  
                                   l3817 1608                                     l3809 15B8  
                                   l3921 23FE                                     l3755 168E  
                                   l3819 1620                                     l3923 23FE  
                                   l3765 177A                                     l3757 16B0  
                                   l3759 16B8                                     l3767 17BC  
                                   l3791 151E                                     l3919 1F22  
                                   l3793 1528                                     l3795 1544  
                                   l3787 150A                                     l3797 154C  
                                   l3789 150A                                     l3799 1568  
                                   STR_1 1001                                     _LATA 0F89  
                                   _LATB 0F8A                                     _LATC 0F8B  
                                   _LATD 0F8C                                     _LATE 0F8D  
                                   u4300 16B0                                     u4301 16AC  
                                   u4330 1792                                     u4314 16D8  
                                   u4331 178C                                     u4315 16D4  
                                   u4340 1794                                     u4324 173C  
                                   u4325 1738                                     u4360 151E  
                                   u4361 151A                                     u4290 168E  
                                   u4370 1544                                     u4291 168A  
                                   u4371 1540                                     u4380 1568  
                                   u4381 1564                 _RB4_InterruptHandler_LOW 0063  
                                   _led1 002E                                     _led2 002D  
                                   _led3 002C                                     _led4 002B  
                            ?i2_INT0_ISR 002F                                     _main 23FE  
                            ?i2_INT1_ISR 002F                              ?i2_INT2_ISR 002F  
                    i2RB7_ISR@RB7_Source 0038                 _RB7_InterruptHandler_LOW 0057  
                                   fsr2h 0FDA                                     indf2 0FDF  
                                   fsr1l 0FE1                                     fsr2l 0FD9  
                                   btemp 006E                    ?_RB7_HIGH_Int_APP_ISR 002F  
                                   prodh 0FF4                                     prodl 0FF3  
                                   start 006A                  fp__RB5_HIGH_Int_APP_ISR 0000  
                           ___param_bank 0000                   ?_gpio_pin_toggle_logic 003F  
                    _RB6_LOW_Int_APP_ISR 228E            _RB7_LOW_Int_APP_ISR$intlevel1 22EC  
                   _gpio_pin_write_logic 17C0                         __end_of_INT0_ISR 210E  
                 ?i2_RB7_LOW_Int_APP_ISR 002F                         __end_of_INT1_ISR 20E0  
                       __end_of_INT2_ISR 20B2                    ??_RB5_LOW_Int_APP_ISR 0049  
                ??i2_RB4_LOW_Int_APP_ISR 0038                                    ?_main 002F  
                 i2_RB4_HIGH_Int_APP_ISR 23DA                                    i1l310 2334  
                                  i1l304 2350                                    i1l313 22C4  
                                  i1l322 236C                                    i1l243 1A9E  
                                  i1l307 22E0                                    i1l316 2318  
                                  i1l229 18EA                                    i1l325 22FC  
                                  i1l342 2196                                    i1l319 22A8  
                                  i1l336 2168                                    i1l601 20B0  
                                  i1l339 213A                                    i1l612 1D28  
                                  i1l701 1176                                    i2l310 23D8  
                                  i1l710 1286                                    i1l623 1CAA  
                                  i1l703 11BA                                    i2l304 23EA  
                                  i2l313 2390                                    i1l705 11FE  
                                  i2l322 23FC                                    i1l634 1C2C  
                                  i2l243 1B30                                    i2l307 23A2  
                                  i1l707 1242                                    i2l316 23C6  
                                  i2l229 1A0C                                    i2l325 23B4  
                                  i1l645 1BAE                                    i2l342 228C  
                                  i2l319 237E                                    i1l591 210C  
                                  i2l336 2268                                    i2l601 21C4  
                                  i2l339 2244                                    i1l691 1046  
                                  i2l612 1F20                                    i1l596 20DE  
                                  i2l701 13F8                                    i1l693 1066  
                                  i1l685 0042                                    i2l710 1508  
                                  i2l623 1EA2                                    i2l703 143C  
                                  i1l695 10AA                                    i2l705 1480  
                                  i1l697 10EE                                    i1l689 1026  
                                  i2l634 1E24                                    i2l707 14C4  
                                  i1l699 1132                                    i2l645 1DA6  
                                  i2l591 2220                                    i2l680 2008  
                                  i2l691 12C8                                    i2l596 21F2  
                                  i2l693 12E8                                    i2l695 132C  
                                  i2l697 1370                                    i2l689 12A8  
                                  i2l699 13B4                                    _PORTA 0F80  
                                  _PORTB 0F81                                    _PORTC 0F82  
                                  _PORTD 0F83                                    _PORTE 0F84  
                                  _TRISA 0F92                                    _TRISB 0F93  
                                  _TRISC 0F94                                    _TRISD 0F95  
                                  _TRISE 0F96                     __end_of_Int0_App_ISR 216A  
                   __end_of_Int1_App_ISR 213C                     ?_RB6_LOW_Int_APP_ISR 002F  
                                  _lcd_1 00A6                                    _lcd_2 009C  
                   __end_of_Int2_App_ISR 2198                                    pclath 0FFA  
                                  pclatu 0FFB                                    tablat 0FF5  
                                  ttemp5 006F                                    ttemp6 0072  
                                  ttemp7 0076                                    status 0FD8  
                                  wtemp8 006F                          __initialization 1F94  
                i2_gpio_pin_toggle_logic 1AA0                             __end_of_main 240A  
                  ?_gpio_pin_write_logic 003F              i2gpio_pin_write_logic@logic 0031  
                          _lat_registers 0001                                   ??_main 00BF  
                    _RB7_LOW_Int_APP_ISR 22E2                            __activetblptr 0003  
                              ??_RB4_ISR 0049                                ??_RB5_ISR 0049  
                              ??_RB6_ISR 0049                                ??_RB7_ISR 0049  
                  ??_RB6_LOW_Int_APP_ISR 0049                  ??i2_RB5_LOW_Int_APP_ISR 0038  
                 _Int0_App_ISR$intlevel1 2146                                   i1l3101 1CFE  
                                 i1l3103 1D10                                   i1l3111 1C54  
                                 i1l3113 1C70                                   i1l3105 1C30  
                                 i1l3121 1BB4                                   i1l3115 1C80  
                                 i1l3107 1C32                                   i1l3131 1C14  
                                 i1l3123 1BC4                                   i1l3117 1C92  
                                 i1l3109 1C42                                   i1l3125 1BD6  
                                 i1l3141 1B74                                   i1l3133 1B34  
                                 i1l3127 1BF2                                   i1l3119 1BB2  
                                 i1l3143 1B84                                   i1l3135 1B36  
                                 i1l3073 20E0                                   i1l3081 20B4  
                                 i1l3129 1C02                                   i1l3145 1B96  
                                 i1l3137 1B46                                   i1l3401 11C8  
                                 i1l3075 20E2                                   i1l3083 20C6  
                                 i1l3091 1CAE                                   i1l3139 1B58  
                                 i1l3411 120C                                   i1l3403 11D6  
                                 i1l3077 20F4                                   i1l3085 2084  
                                 i1l3093 1CB0                                   i1l3421 1250  
                                 i1l3413 121A                                   i1l3405 11E4  
                                 i1l3341 1022                                   i1l3079 20B2  
                                 i1l3087 2086                                   i1l4063 18D2  
                                 i1l3095 1CC0                                   i1l3423 125E  
                                 i1l3415 1228                                   i1l3407 11F4  
                                 i1l3351 1074                                   i1l3343 1034  
                                 i1l3089 2098                                   i1l3097 1CD2  
                                 i1l3425 126C                                   i1l3417 1238  
                                 i1l3409 11F8                                   i1l3361 10B8  
                                 i1l3353 1082                                   i1l3345 1042  
                                 i1l3337 1006                                   i1l3099 1CEE  
                                 i1l3427 127C                                   i1l3419 123C  
                                 i1l3371 10FC                                   i1l3363 10C6  
                                 i1l3355 1090                                   i1l3347 1054  
                                 i1l3339 1014                                   i1l2901 235C  
                                 i1l3429 1280                                   i1l3381 1140  
                                 i1l3373 110A                                   i1l3365 10D4  
                                 i1l3357 10A0                                   i1l3349 1062  
                                 i1l2911 2124                                   i1l2903 22EC  
                                 i1l3391 1184                                   i1l3383 114E  
                                 i1l3375 1118                                   i1l3367 10E4  
                                 i1l3359 10A4                                   i1l2913 2174  
                                 i1l2905 2146                                   i1l2761 17C0  
                                 i1l3393 1192                                   i1l3385 115C  
                                 i1l3377 1128                                   i1l3369 10E8  
                                 i1l2915 2180                                   i1l2907 2152  
                                 i1l2771 1862                                   i1l2763 17C4  
                                 i1l3395 11A0                                   i1l3387 116C  
                                 i1l3379 112C                                   i1l2909 2118  
                                 i1l2765 17D6                                   i1l3397 11B0  
                                 i1l3389 1170                                   i1l3733 003E  
                                 i1l2791 1A42                                   i1l2775 18BE  
                                 i1l2767 17F8                                   i1l3399 11B4  
                                 i2l3201 1DEA                                   i1l2793 1A46  
                                 i1l2785 1A0E                                   i1l2769 1800  
                                 i1l2777 18E8                                   i2l3203 1DFA  
                                 i2l3211 1D3E                                   i1l2787 1A0E  
                                 i1l2891 22D0                                   i2l3205 1E0C  
                                 i2l3213 1D50                                   i1l2789 1A20  
                                 i1l2893 2324                                   i2l3151 2208  
                                 i2l3215 1D6C                                   i2l3207 1D2C  
                                 i1l2895 22B4                                   i2l3153 21C6  
                                 i2l3161 219A                                   i2l3217 1D7C  
                                 i2l3209 1D2E                                   i1l2889 2340  
                                 i1l2897 2308                                   i2l3147 21F4  
                                 i2l3155 21C8                                   i2l3163 21AC  
                                 i2l3171 1ECA                                   i2l3219 1D8E  
                                 i1l2899 2298                                   i2l3149 21F6  
                                 i2l3157 21DA                                   i2l3173 1EE6  
                                 i2l3165 1EA6                                   i2l3181 1E2A  
                                 i2l3501 1476                                   i2l3159 2198  
                                 i2l3175 1EF6                                   i2l3167 1EA8  
                                 i2l3191 1E8A                                   i2l3183 1E3A  
                                 i2l3511 14BA                                   i2l3503 147A  
                                 i2l3431 1288                        __end_ofi2_RB4_ISR 1F22  
                                 i2l4065 19F6                                   i2l2801 18FE  
                                 i2l3177 1F08                                   i2l3169 1EB8  
                                 i2l3185 1E4C                                   i2l3193 1DAA  
                                 i2l3521 14FE                                   i2l3513 14BE  
                                 i2l3505 148E                                   i2l3441 12D6  
                                 i2l3433 1296                                   i2l2811 19E2  
                                 i2l2803 1920                                   i2l3187 1E68  
                                 i2l3179 1E28                                   i2l3195 1DAC  
                                 i2l3523 1502                                   i2l3515 14D2  
                                 i2l3507 149C                                   i2l3451 1322  
                                 i2l3443 12E4                                   i2l3435 12A4  
                                 i2l2821 1AB2                                   i2l2805 1924  
                                 i2l3189 1E78                                   i2l3197 1DBC  
                                 i2l3517 14E0                                   i2l3509 14AA  
                                 i2l3461 1366                                   i2l3453 1326  
                                 i2l3445 12F6                                   i2l3437 12B6  
                                 i2l2823 1AD4                                   i2l2807 1986  
                                 i2l3199 1DCE                                   i2l3519 14EE  
                                 i2l3471 13AA                                   i2l3463 136A  
                                 i2l3455 133A                                   i2l3447 1304  
                                 i2l3439 12C4                                   i2l2825 1AD8  
                                 i2l2817 1AA0                                   i2l2921 23C8  
                                 i2l3481 13EE                                   i2l3473 13AE  
                                 i2l3465 137E                                   i2l3457 1348  
                                 i2l3449 1312                                   i2l2819 1AA0  
                                 i2l2931 23A4                                   i2l2923 2380  
                                 i2l3491 1432                                   i2l3483 13F2  
                                 i2l3475 13C2                                   i2l3467 138C  
                                 i2l3459 1356                                   i2l3731 2004  
                                 i2l2941 226A                                   i2l2933 2246  
                                 i2l2917 23DA                                   i2l2925 23B6  
                                 i2l3493 1436                                   i2l3485 1406  
                                 i2l3477 13D0                                   i2l3469 139A  
                                 i2l2943 2276                                   i2l2935 2252  
                                 i2l2919 2392                                   i2l2927 236E  
                                 i2l3495 144A                                   i2l3487 1414  
                                 i2l3479 13DE                        __end_ofi2_RB5_ISR 1EA4  
                                 i2l2937 2222                                   i2l2929 23EC  
                                 i2l3497 1458                                   i2l3489 1422  
                                 i2l2939 222E                                   i2l3499 1466  
                                 i2l2797 18EC                                   i2l2799 18EC  
                      __end_ofi2_RB6_ISR 1E26                        __end_ofi2_RB7_ISR 1DA8  
                 ??_RB7_HIGH_Int_APP_ISR 0049                     ?_RB7_LOW_Int_APP_ISR 002F  
               ??i2_RB6_HIGH_Int_APP_ISR 0038         gpio_pin_toggle_logic@_pin_config 003F  
     i2gpio_pin_toggle_logic@_pin_config 002F                                   clear_0 1FDA  
                                 isa$std 0001  gpio_pin_direction_intialize@_pin_config 00B2  
                           __pdataCOMRAM 0001                  fp__RB6_HIGH_Int_APP_ISR 0000  
                           __mediumconst 0000                                   tblptrh 0FF7  
                                 tblptrl 0FF6                                   tblptru 0FF8  
                  ??_RB7_LOW_Int_APP_ISR 0049                               __accesstop 0080  
                __end_of__initialization 1FE0                  ??i2_RB6_LOW_Int_APP_ISR 0038  
                              ?_INT0_ISR 002F                                ?_INT1_ISR 002F  
                              ?_INT2_ISR 002F                   i2_RB5_HIGH_Int_APP_ISR 23C8  
                          ___rparam_used 0001                ??i2_gpio_pin_toggle_logic 0031  
         _RB4_HIGH_Int_APP_ISR$intlevel1 2340                        RB5_ISR@RB5_Source 0049  
                 ??_gpio_pin_write_logic 0042                           __pcstackCOMRAM 002F  
                           __pidataBANK0 2024                fp_i2_RB4_HIGH_Int_APP_ISR 0000  
            __end_of_RB4_LOW_Int_APP_ISR 22E2                             ??i2_INT0_ISR 0038  
                           ??i2_INT1_ISR 0038                    _INT0_InterruptHandler 006B  
                             ??_INT0_ISR 0048                             ??i2_INT2_ISR 0038  
                             ??_INT1_ISR 0048                               ??_INT2_ISR 0048  
           __end_of_RB4_HIGH_Int_APP_ISR 2352                  ??_gpio_pin_toggle_logic 0041  
            __end_of_InterruptManagerLow 006A                             _Int0_App_ISR 213C  
                ??i2_RB7_LOW_Int_APP_ISR 0038                             _Int1_App_ISR 210E  
                           _Int2_App_ISR 216A            _RB5_LOW_Int_APP_ISR$intlevel1 22B4  
                      fp_i2_Int0_App_ISR 0000                  ?i2_RB4_HIGH_Int_APP_ISR 002F  
                      fp_i2_Int1_App_ISR 0000                        fp_i2_Int2_App_ISR 0000  
                      RB7_ISR@RB7_Source 0049                 ??i2_RB7_HIGH_Int_APP_ISR 0038  
                                _RB4_ISR 1CAC            __end_ofi2_RB4_LOW_Int_APP_ISR 23A4  
                                _RB5_ISR 1C2E                                  _RB6_ISR 1BB0  
                                _RB7_ISR 1B32                       __end_ofi2_INT0_ISR 2222  
                     __end_ofi2_INT1_ISR 21F4                       __end_ofi2_INT2_ISR 21C6  
              _RB6_InterruptHandler_HIGH 005D                           _tris_registers 000B  
               _RB6_InterruptHandler_LOW 005B                                  __Hparam 0000  
                fp__RB7_HIGH_Int_APP_ISR 0000                                  __Lparam 0000  
            __end_of_RB5_LOW_Int_APP_ISR 22C6           __end_ofi2_RB4_HIGH_Int_APP_ISR 23EC  
                           __psmallconst 1000                                  __pcinit 1F94  
                                __ramtop 1000                                  __ptext0 23FE  
                                __ptext1 1F22                                  __ptext2 150A  
                                __ptext3 1676                                  __ptext5 1006  
                                __ptext6 1B32                                  __ptext7 1BB0  
                                __ptext8 1C2E                                  __ptext9 1CAC  
                    i2RB4_ISR@RB4_Source 0038                   i2_RB6_HIGH_Int_APP_ISR 23B6  
                                _counter 006D                                  _num_arr 0053  
               ??i2_gpio_pin_write_logic 0032                           __pintcode_body 1FEA  
          __end_ofi2_RB5_LOW_Int_APP_ISR 2392                     end_of_initialization 1FE0  
                                int_func 1FEA           _RB7_HIGH_Int_APP_ISR$intlevel1 235C  
                       i2_InterruptCheck 1288                                i2_RB4_ISR 1EA4  
                              i2_RB5_ISR 1E26                                i2_RB6_ISR 1DA8  
                              i2_RB7_ISR 1D2A                fp_i2_RB5_HIGH_Int_APP_ISR 0000  
                                postdec1 0FE5                                  postdec2 0FDD  
                                postinc0 0FEE                                  postinc2 0FDE  
            __end_of_RB6_LOW_Int_APP_ISR 22AA                    _INT1_InterruptHandler 0069  
                              _PORTBbits 0F81             __end_of_RB5_HIGH_Int_APP_ISR 2336  
                   _RB4_HIGH_Int_APP_ISR 2336     __end_of_gpio_pin_direction_intialize 17C0  
           _gpio_pin_direction_intialize 1676                   _Int1_App_ISR$intlevel1 2118  
               fp_i2_RB4_LOW_Int_APP_ISR 0000                      i2RB6_ISR@RB6_Source 0038  
                ?i2_RB5_HIGH_Int_APP_ISR 002F                               ?i2_RB4_ISR 002F  
          __end_ofi2_RB6_LOW_Int_APP_ISR 2380                               ?i2_RB5_ISR 002F  
                             ?i2_RB6_ISR 002F                               ?i2_RB7_ISR 002F  
              Interrupt_RBx_Init@int_obj 00BB                           i2_Int0_App_ISR 2246  
                         i2_Int1_App_ISR 2222                            __pidataCOMRAM 2056  
                         i2_Int2_App_ISR 226A                    ?_RB4_HIGH_Int_APP_ISR 002F  
                    start_initialization 1F94              __end_of_RB7_LOW_Int_APP_ISR 22FE  
          ?_gpio_pin_direction_intialize 00B2           __end_ofi2_RB5_HIGH_Int_APP_ISR 23DA  
                 i2_RB7_HIGH_Int_APP_ISR 23EC                 fp_i2_RB5_LOW_Int_APP_ISR 0000  
          __end_of_gpio_pin_toggle_logic 1AA0                   __end_ofi2_Int0_App_ISR 226A  
                 __end_ofi2_Int1_App_ISR 2246                   fp__RB4_LOW_Int_APP_ISR 0000  
                 __end_ofi2_Int2_App_ISR 228E            __end_ofi2_RB7_LOW_Int_APP_ISR 23B6  
                            __pdataBANK0 0080                           _InterruptCheck 1006  
                            _rb4_int_obj 0025                                 ?_RB4_ISR 002F  
                               ?_RB5_ISR 002F                                 ?_RB6_ISR 002F  
                               ?_RB7_ISR 002F                              _rb5_int_obj 001F  
              fp_i2_RB6_HIGH_Int_APP_ISR 0000                              __pbssCOMRAM 0053  
                            _rb6_int_obj 0019                            __pcstackBANK0 00B2  
                            _rb7_int_obj 00AC                 ?i2_gpio_pin_toggle_logic 002F  
                  _INT2_InterruptHandler 0067          gpio_pin_direction_intialize@ret 00BA  
           __end_of_RB6_HIGH_Int_APP_ISR 231A                           _app_initialize 1F22  
                            ??i2_RB4_ISR 0038                              ??i2_RB5_ISR 0038  
                            ??i2_RB6_ISR 0038                     _RB5_HIGH_Int_APP_ISR 231A  
                            ??i2_RB7_ISR 0038             __end_of_InterruptManagerHigh 2024  
                        ?i2_Int0_App_ISR 002F                                __pintcode 0008  
             __end_of_Interrupt_RBx_Init 1676                          ?i2_Int1_App_ISR 002F  
                 i2_gpio_pin_write_logic 18EC          gpio_pin_write_logic@_pin_config 003F  
      i2gpio_pin_write_logic@_pin_config 002F                 fp_i2_RB6_LOW_Int_APP_ISR 0000  
                        ?i2_Int2_App_ISR 002F                   __end_of_InterruptCheck 1288  
                ?i2_RB6_HIGH_Int_APP_ISR 002F                              __pintcodelo 0018  
              gpio_pin_write_logic@logic 0041                   ??_RB4_HIGH_Int_APP_ISR 0049  
                 fp__RB5_LOW_Int_APP_ISR 0000                              __smallconst 1000  
              _RB4_InterruptHandler_HIGH 0065                 __end_ofi2_InterruptCheck 150A  
              _RB7_InterruptHandler_HIGH 0059                    i2_RB4_LOW_Int_APP_ISR 2392  
          _RB6_LOW_Int_APP_ISR$intlevel1 2298                   __end_of_app_initialize 1F94  
         ??_gpio_pin_direction_intialize 00B4                 _RB5_InterruptHandler_LOW 005F  
                               _INT0_ISR 20E0                                 _INT1_ISR 20B2  
                               _INT2_ISR 2084                                 _RB4_Flag 0018  
                               _RB5_Flag 0017                                 _RB6_Flag 0016  
                               _RB7_Flag 0015                        RB4_ISR@RB4_Source 0049  
                  ?_RB5_HIGH_Int_APP_ISR 002F           _RB6_HIGH_Int_APP_ISR$intlevel1 2308  
                               i1u240_20 1A20                                 i1u240_21 1A1C  
                               i1u241_20 1A42                                 i1u241_21 1A3E  
                               i1u242_24 1A66                                 i1u242_25 1A62  
                               i1u236_20 17D6                                 i1u340_20 1074  
                               i1u236_21 17D2                                 i1u340_21 1070  
                               i1u237_20 17F8                                 i1u341_20 1082  
                               i1u237_21 17F4                                 i1u341_21 107E  
                               i1u270_20 20C6                                 i1u350_20 1118  
                               i1u342_20 1090                                 i1u334_20 1014  
                               i1u270_21 20C2                                 i1u350_21 1114  
                               i1u342_21 108C                                 i1u334_21 1010  
                               i1u238_24 1820                                 i1u238_25 181C  
                               i1u351_20 1128                                 i1u343_20 10A0  
                               i1u335_20 1022                                 i1u351_21 1124  
                               i1u343_21 109C                                 i1u335_21 101E  
                               i1u239_24 1882                                 i1u239_25 187E  
                               i1u271_28 20CC                                 i1u272_20 2098  
                               i1u280_20 1C42                                 i1u360_20 11C8  
                               i1u352_20 1140                                 i1u344_20 10B8  
                               i1u336_20 1034                                 i1u271_29 20DE  
                               i1u272_21 2094                                 i1u280_21 1C3E  
                               i1u360_21 11C4                                 i1u352_21 113C  
                               i1u344_21 10B4                                 i1u336_21 1030  
                               i1u281_20 1C54                                 i1u361_20 11D6  
                               i1u353_20 114E                                 i1u345_20 10C6  
                               i1u337_20 1042                                 i1u281_21 1C50  
                               i1u361_21 11D2                                 i1u353_21 114A  
                               i1u345_21 10C2                                 i1u337_21 103E  
                               i1u273_28 209E                                 i1u274_20 1CC0  
                               i1u290_20 1C14                                 i1u370_20 126C  
                               i1u362_20 11E4                                 i1u354_20 115C  
                               i1u346_20 10D4                                 i1u338_20 1054  
                               i1u273_29 20B0                                 i1u274_21 1CBC  
                               i1u290_21 1C10                                 i1u370_21 1268  
                               i1u362_21 11E0                                 i1u354_21 1158  
                               i1u346_21 10D0                                 i1u338_21 1050  
                               i1u275_20 1CD2                                 i1u283_20 1C80  
                               i1u282_28 1C5A                                 i1u371_20 127C  
                               i1u363_20 11F4                                 i1u355_20 116C  
                               i1u347_20 10E4                                 i1u339_20 1062  
                               i1u275_21 1CCE                                 i1u283_21 1C7C  
                               i1u282_29 1C6C                                 i1u371_21 1278  
                               i1u363_21 11F0                                 i1u355_21 1168  
                               i1u347_21 10E0                                 i1u339_21 105E  
                               i1u268_20 20F4                                 i1u284_20 1C92  
                               i1u291_28 1C1A                                 i1u292_20 1B46  
                               i1u364_20 120C                                 i1u356_20 1184  
                               i1u348_20 10FC                                 i1u268_21 20F0  
                               i1u284_21 1C8E                                 i1u291_29 1C2C  
                               i1u292_21 1B42                                 i1u364_21 1208  
                               i1u356_21 1180                                 i1u348_21 10F8  
                               i2u300_40 21DA                                 i2u300_41 21D6  
                               i1u277_20 1CFE                                 i1u276_28 1CD8  
                               i1u293_20 1B58                                 i1u365_20 121A  
                               i1u357_20 1192                                 i1u349_20 110A  
                               i1u277_21 1CFA                                 i1u276_29 1CEA  
                               i1u293_21 1B54                                 i1u365_21 1216  
                               i1u357_21 118E                                 i1u349_21 1106  
                               i1u269_28 20FA                                 i1u278_20 1D10  
                               i1u285_28 1C98                                 i1u286_20 1BC4  
                               i1u366_20 1228                                 i1u358_20 11A0  
                               i1u269_29 210C                                 i1u278_21 1D0C  
                               i1u285_29 1CAA                                 i1u286_21 1BC0  
                               i1u366_21 1224                                 i1u358_21 119C  
                               i2u301_48 21E0                                 i2u302_40 21AC  
                               i2u310_40 1E3A                                 i2u301_49 21F2  
                               i2u302_41 21A8                                 i2u310_41 1E36  
                               i1u446_27 212E                                 i1u287_20 1BD6  
                               i1u295_20 1B84                                 i1u294_28 1B5E  
                               i1u367_20 1238                                 i1u359_20 11B0  
                               i1u287_21 1BD2                                 i1u295_21 1B80  
                               i1u294_29 1B70                                 i1u367_21 1234  
                               i1u359_21 11AC                                 i2u311_40 1E4C  
                               i2u311_41 1E48                                 i1u447_27 215C  
                               i1u279_28 1D16                                 i1u296_20 1B96  
                               i1u368_20 1250                                 i1u279_29 1D28  
                               i1u296_21 1B92                                 i1u368_21 124C  
                               i2u303_48 21B2                                 i2u304_40 1EB8  
                               i2u320_40 1E0C                                 i2u400_40 1466  
                               i2u303_49 21C4                                 i2u304_41 1EB4  
                               i2u320_41 1E08                                 i2u400_41 1462  
                               i1u448_27 218A                                 i1u289_20 1C02  
                               i1u288_28 1BDC                                 i1u369_20 125E  
                               i1u289_21 1BFE                                 i1u288_29 1BEE  
                               i1u369_21 125A                                 i2u305_40 1ECA  
                               i2u313_40 1E78                                 i2u312_48 1E52  
                               i2u401_40 1476                                 i2u305_41 1EC6  
                               i2u313_41 1E74                                 i2u312_49 1E64  
                               i2u401_41 1472                                 i1u297_28 1B9C  
                               i1u297_29 1BAE                                 i2u314_40 1E8A  
                               i2u321_48 1E12                                 i2u322_40 1D3E  
                               i2u402_40 148E                                 i2u314_41 1E86  
                               i2u321_49 1E24                                 i2u322_41 1D3A  
                               i2u402_41 148A                                 i2u243_40 18FE  
                               i2u307_40 1EF6                                 i2u306_48 1ED0  
                               i2u323_40 1D50                                 i2u403_40 149C  
                               i2u243_41 18FA                                 i2u307_41 1EF2  
                               i2u306_49 1EE2                                 i2u323_41 1D4C  
                               i2u403_41 1498                                 i2u244_40 1920  
                               i2u308_40 1F08                                 i2u315_48 1E90  
                               i2u316_40 1DBC                                 i2u404_40 14AA  
                               i2u244_41 191C                                 i2u308_41 1F04  
                               i2u315_49 1EA2                                 i2u316_41 1DB8  
                               i2u404_41 14A6                                 i2u317_40 1DCE  
                               i2u325_40 1D7C                                 i2u324_48 1D56  
                               i2u405_40 14BA                                 i2u317_41 1DCA  
                               i2u325_41 1D78                                 i2u324_49 1D68  
                               i2u405_41 14B6                                 i2u245_44 1944  
                               i2u245_45 1940                                 i2u309_48 1F0E  
                               i2u326_40 1D8E                                 i2u406_40 14D2  
                               i2u309_49 1F20                                 i2u326_41 1D8A  
                               i2u406_41 14CE                                 i2u246_44 19A6  
                               i2u246_45 19A2                                 i2u247_40 1AB2  
                               i2u319_40 1DFA                                 i2u318_48 1DD4  
                               i2u407_40 14E0                                 i2u247_41 1AAE  
                               i2u319_41 1DF6                                 i2u318_49 1DE6  
                               i2u407_41 14DC                                 i2u248_40 1AD4  
                               i2u327_48 1D94                                 i2u408_40 14EE  
                               i2u248_41 1AD0                                 i2u327_49 1DA6  
                               i2u408_41 14EA                                 i2u409_40 14FE  
                               i2u409_41 14FA                                 i2u249_44 1AF8  
                               i2u249_45 1AF4                                 i2u450_47 225C  
                               i2u451_47 2280                                 i2u380_40 1312  
                               i2u372_40 1296                                 i2u380_41 130E  
                               i2u372_41 1292                                 i2u381_40 1322  
                               i2u373_40 12A4                                 i2u381_41 131E  
                               i2u373_41 12A0                                 i2u390_40 13C2  
                               i2u382_40 133A                                 i2u374_40 12B6  
                               i2u390_41 13BE                                 i2u382_41 1336  
                               i2u374_41 12B2                                 i2u391_40 13D0  
                               i2u383_40 1348                                 i2u375_40 12C4  
                               i2u391_41 13CC                                 i2u383_41 1344  
                               i2u375_41 12C0                                 i2u392_40 13DE  
                               i2u384_40 1356                                 i2u376_40 12D6  
                               i2u392_41 13DA                                 i2u384_41 1352  
                               i2u376_41 12D2                                 i2u393_40 13EE  
                               i2u385_40 1366                                 i2u377_40 12E4  
                               i2u393_41 13EA                                 i2u385_41 1362  
                               i2u377_41 12E0                                 i2u449_47 2238  
                               i2u298_40 2208                                 i2u394_40 1406  
                               i2u386_40 137E                                 i2u378_40 12F6  
                               i2u298_41 2204                                 i2u394_41 1402  
                               i2u386_41 137A                                 i2u378_41 12F2  
                               i2u395_40 1414                                 i2u387_40 138C  
                               i2u379_40 1304                                 i2u395_41 1410  
                               i2u387_41 1388                                 i2u379_41 1300  
                               i2u299_48 220E                                 i2u396_40 1422  
                               i2u388_40 139A                                 i2u299_49 2220  
                               i2u396_41 141E                                 i2u388_41 1396  
                               i2u397_40 1432                                 i2u389_40 13AA  
                               i2u397_41 142E                                 i2u389_41 13A6  
                               i2u398_40 144A                                 i2u398_41 1446  
                               i2u399_40 1458                                 i2u399_41 1454  
                               _RCONbits 0FD0           __end_ofi2_RB6_HIGH_Int_APP_ISR 23C8  
                        ?_InterruptCheck 002F                 fp_i2_RB7_LOW_Int_APP_ISR 0000  
        __end_ofi2_gpio_pin_toggle_logic 1B32                   fp__RB6_LOW_Int_APP_ISR 0000  
                gpio_pin_write_logic@ret 0048                              _INTCON2bits 0FF1  
                            _INTCON3bits 0FF0                                copy_data0 1FA8  
                              copy_data1 1FC8                          fp__Int0_App_ISR 0000  
                        ?_app_initialize 002F                    i2_RB5_LOW_Int_APP_ISR 2380  
                        fp__Int1_App_ISR 0000                          fp__Int2_App_ISR 0000  
              fp_i2_RB7_HIGH_Int_APP_ISR 0000                                 __Hrparam 0000  
                               __Lrparam 0000                        RB6_ISR@RB6_Source 0049  
           __end_of_RB7_HIGH_Int_APP_ISR 236E                     _RB6_HIGH_Int_APP_ISR 22FE  
                 ?i2_RB4_LOW_Int_APP_ISR 002F                     _InterruptManagerHigh 0008  
                               __ptext10 228E                                 __ptext11 22AA  
                               __ptext20 20B2                                 __ptext12 22C6  
                               __ptext21 20E0                                 __ptext13 22E2  
                               __ptext30 1E26                                 __ptext22 210E  
                               __ptext14 22FE                                 __ptext31 1EA4  
                               __ptext23 213C                                 __ptext15 231A  
                               __ptext40 18EC                                 __ptext32 236E  
                               __ptext24 216A                                 __ptext16 2336  
                               __ptext41 2198                                 __ptext33 2380  
                               __ptext25 1A0E                                 __ptext17 2352  
                               __ptext42 21C6                                 __ptext34 2392  
                               __ptext18 17C0                                 __ptext43 21F4  
                               __ptext35 23A4                                 __ptext27 1288  
                               __ptext19 2084                                 __ptext44 2222  
                               __ptext36 23B6                                 __ptext28 1D2A  
                               __ptext45 2246                                 __ptext37 23C8  
                               __ptext29 1DA8                                 __ptext46 226A  
                               __ptext38 23DA                                 __ptext47 1AA0  
                               __ptext39 23EC                                 __ptext48 0000  
                               _int0_obj 0096                   _Int2_App_ISR$intlevel1 2174  
                               _int1_obj 0090                                 _int2_obj 008A  
                ?i2_RB7_HIGH_Int_APP_ISR 002F                   ??_RB5_HIGH_Int_APP_ISR 0049  
                 fp__RB7_LOW_Int_APP_ISR 0000                 ??i2_RB4_HIGH_Int_APP_ISR 0038  
                          ?_Int0_App_ISR 002F                            ?_Int1_App_ISR 002F  
                  i2_RB6_LOW_Int_APP_ISR 236E                                 isa$xinst 0000  
                          ?_Int2_App_ISR 002F                                 int$flags 006E  
                  ?_RB6_HIGH_Int_APP_ISR 002F                               _INTCONbits 0FF2  
                fp__RB4_HIGH_Int_APP_ISR 0000                    ?_InterruptManagerHigh 002F  
                    _RB4_LOW_Int_APP_ISR 22C6             __end_of_gpio_pin_write_logic 18EC  
         __end_ofi2_RB7_HIGH_Int_APP_ISR 23FE                                 intlevel1 0000  
                               intlevel2 0000                   ?i2_RB5_LOW_Int_APP_ISR 002F  
                    _InterruptManagerLow 0018                               i2_INT0_ISR 21F4  
                       ??i2_Int0_App_ISR 0036                               i2_INT1_ISR 21C6  
                             i2_INT2_ISR 2198                         ??i2_Int1_App_ISR 0036  
                         ??_Int0_App_ISR 0046                  ?i2_gpio_pin_write_logic 002F  
                       ??i2_Int2_App_ISR 0036                           ??_Int1_App_ISR 0046  
                   ?_RB4_LOW_Int_APP_ISR 002F                           ??_Int2_App_ISR 0046  
                  _gpio_pin_toggle_logic 1A0E                     ?_InterruptManagerLow 002F  
                  i2_RB7_LOW_Int_APP_ISR 23A4                           _port_registers 0080  
                      ?i2_InterruptCheck 002F                       _Interrupt_RBx_Init 150A  
                    i2RB5_ISR@RB5_Source 0038                       ??i2_InterruptCheck 0039  
          _RB4_LOW_Int_APP_ISR$intlevel1 22D0                      ?_Interrupt_RBx_Init 00BB  
                    _RB5_LOW_Int_APP_ISR 22AA           __end_ofi2_gpio_pin_write_logic 1A0E  
                   _RB7_HIGH_Int_APP_ISR 2352           _RB5_HIGH_Int_APP_ISR$intlevel1 2324  
                 ?i2_RB6_LOW_Int_APP_ISR 002F                         ??_InterruptCheck 004A  
                  ??_RB4_LOW_Int_APP_ISR 0049  
