Microchip MPLAB XC8 Compiler V2.41

Linker command line:

-W-3 \
  --edf=C:\Program Files\Microchip\xc8\v2.41\pic\dat\20230208172133_en.msgs \
  -cn -h+dist/default/production\LCD_Driver.production.sym \
  --cmf=dist/default/production\LCD_Driver.production.cmf -z -Q18F4620 \
  -oC:\Users\Belal\AppData\Local\Temp\xcAs147s.\driver_tmp_3.o \
  --defsym=__MPLAB_BUILD=1 --fixupoverflow=error \
  -Mdist/default/production/LCD_Driver.production.map \
  --md=C:\Users\Belal\AppData\Local\Temp\xcAs147s.\driver_tmp_0.dat -E1 \
  -ver=XC8 Compiler --acfsm=1493 -ACODE=00h-0FFFFh -ACONST=00h-0FFFFh \
  -ASMALLCONST=01000h-010FFhx240 -AMEDIUMCONST=01000h-0FFFFh \
  -ACOMRAM=01h-07Fh -AABS1=00h-0F7Fh -ABIGRAM=01h-0F7Fh \
  -ARAM=080h-0FFh,0100h-01FFhx14,0F00h-0F7Fh -ABANK0=080h-0FFh \
  -ABANK1=0100h-01FFh -ABANK2=0200h-02FFh -ABANK3=0300h-03FFh \
  -ABANK4=0400h-04FFh -ABANK5=0500h-05FFh -ABANK6=0600h-06FFh \
  -ABANK7=0700h-07FFh -ABANK8=0800h-08FFh -ABANK9=0900h-09FFh \
  -ABANK10=0A00h-0AFFh -ABANK11=0B00h-0BFFh -ABANK12=0C00h-0CFFh \
  -ABANK13=0D00h-0DFFh -ABANK14=0E00h-0EFFh -ABANK15=0F00h-0F7Fh \
  -ASFR=0F80h-0FFFh -ABIGSFR=0F80h-0FFFh -ACONFIG=0300000h-030000Dh \
  -AIDLOC=0200000h-0200007h -AEEDATA=0F00000h-0F003FFh -peeprom_data=EEDATA \
  -preset_vec=00h,intcode=08h,intcodelo=018h,powerup,init -pramtop=01000h \
  -psmallconst=SMALLCONST -pmediumconst=MEDIUMCONST -pconst=CONST \
  -AFARRAM=00h-00h \
  -prdata=COMRAM,nvrram=COMRAM,nvbit=COMRAM,rbss=COMRAM,rbit=COMRAM \
  -pfarbss=FARRAM,fardata=FARRAM,nvFARRAM=FARRAM \
  -pintsave_regs=BIGRAM,bigbss=BIGRAM,bigdata=BIGRAM -pbss=RAM \
  -pidata=CODE,irdata=CODE,ibigdata=CODE,ifardata=CODE -prparam=COMRAM \
  C:\Users\Belal\AppData\Local\Temp\xcAs147s.\driver_tmp_9.o \
  dist/default/production\LCD_Driver.production.o 

Object code version is 3.11

Machine type is 18F4620



                Name                               Link     Load   Length Selector   Space Scale
C:\Users\Belal\AppData\Local\Temp\xcAs147s.\driver_tmp_9.o
                idloc                            200000   200000        8        0       5
                config                           300000   300000        E        0       4
                init                                 6A       6A        4        C       0
                reset_vec                             0        0        4        0       0
dist/default/production\LCD_Driver.production.o
                intcodelo                            18       18       52        C       0
                intcode                               8        8        6        4       0
                idloc                            200000   200000        8        0       5
                config                           300000   300000        E        0       4
                temp                                 6E       6E        1        1       1
                smallconst                         1000     1000        6      800       0
                text47                             1AA0     1AA0       92      803       0
                text46                             226A     226A       24      803       0
                text45                             2246     2246       24      803       0
                text44                             2222     2222       24      803       0
                text43                             21F4     21F4       2E      803       0
                text42                             21C6     21C6       2E      803       0
                text41                             2198     2198       2E      803       0
                text40                             18EC     18EC      122      803       0
                text39                             23EC     23EC       12      803       0
                text38                             23DA     23DA       12      803       0
                text37                             23C8     23C8       12      803       0
                text36                             23B6     23B6       12      803       0
                text35                             23A4     23A4       12      803       0
                text34                             2392     2392       12      803       0
                text33                             2380     2380       12      803       0
                text32                             236E     236E       12      803       0
                text31                             1EA4     1EA4       7E      803       0
                text30                             1E26     1E26       7E      803       0
                text29                             1DA8     1DA8       7E      803       0
                text28                             1D2A     1D2A       7E      803       0
                text27                             1288     1288      282      803       0
                intcode_body                       1FEA     1FEA       3A      803       0
                text25                             1A0E     1A0E       92      803       0
                text24                             216A     216A       2E      803       0
                text23                             213C     213C       2E      803       0
                text22                             210E     210E       2E      803       0
                text21                             20E0     20E0       2E      803       0
                text20                             20B2     20B2       2E      803       0
                text19                             2084     2084       2E      803       0
                text18                             17C0     17C0      12C      803       0
                text17                             2352     2352       1C      803       0
                text16                             2336     2336       1C      803       0
                text15                             231A     231A       1C      803       0
                text14                             22FE     22FE       1C      803       0
                text13                             22E2     22E2       1C      803       0
                text12                             22C6     22C6       1C      803       0
                text11                             22AA     22AA       1C      803       0
                text10                             228E     228E       1C      803       0
                text9                              1CAC     1CAC       7E      803       0
                text8                              1C2E     1C2E       7E      803       0
                text7                              1BB0     1BB0       7E      803       0
                text6                              1B32     1B32       7E      803       0
                text5                              1006     1006      282      803       0
                text3                              1676     1676      14A      803       0
                text2                              150A     150A      16C      803       0
                text1                              1F22     1F22       72      803       0
                text0                              23FE     23FE        C      803       0
                cstackCOMRAM                         2F       2F       24        1       1
                cstackBANK0                          B2       B2        D       80       1
                dataBANK0                            80       80       32       80       1
                dataCOMRAM                            1        1       2E        1       1
                bssCOMRAM                            53       53       1B        1       1
                cinit                              1F94     1F94       56      803       0
                idataBANK0                         2024     2024       32      803       0
                idataCOMRAM                        2056     2056       2E      803       0

TOTAL           Name                               Link     Load   Length     Space
        CLASS   CODE           
                intcodelo                            18       18       52         0
                intcode                               8        8        6         0
                init                                 6A       6A        4         0
                reset_vec                             0        0        4         0
                text47                             1AA0     1AA0       92         0
                text46                             226A     226A       24         0
                text45                             2246     2246       24         0
                text44                             2222     2222       24         0
                text43                             21F4     21F4       2E         0
                text42                             21C6     21C6       2E         0
                text41                             2198     2198       2E         0
                text40                             18EC     18EC      122         0
                text39                             23EC     23EC       12         0
                text38                             23DA     23DA       12         0
                text37                             23C8     23C8       12         0
                text36                             23B6     23B6       12         0
                text35                             23A4     23A4       12         0
                text34                             2392     2392       12         0
                text33                             2380     2380       12         0
                text32                             236E     236E       12         0
                text31                             1EA4     1EA4       7E         0
                text30                             1E26     1E26       7E         0
                text29                             1DA8     1DA8       7E         0
                text28                             1D2A     1D2A       7E         0
                text27                             1288     1288      282         0
                intcode_body                       1FEA     1FEA       3A         0
                text25                             1A0E     1A0E       92         0
                text24                             216A     216A       2E         0
                text23                             213C     213C       2E         0
                text22                             210E     210E       2E         0
                text21                             20E0     20E0       2E         0
                text20                             20B2     20B2       2E         0
                text19                             2084     2084       2E         0
                text18                             17C0     17C0      12C         0
                text17                             2352     2352       1C         0
                text16                             2336     2336       1C         0
                text15                             231A     231A       1C         0
                text14                             22FE     22FE       1C         0
                text13                             22E2     22E2       1C         0
                text12                             22C6     22C6       1C         0
                text11                             22AA     22AA       1C         0
                text10                             228E     228E       1C         0
                text9                              1CAC     1CAC       7E         0
                text8                              1C2E     1C2E       7E         0
                text7                              1BB0     1BB0       7E         0
                text6                              1B32     1B32       7E         0
                text5                              1006     1006      282         0
                text3                              1676     1676      14A         0
                text2                              150A     150A      16C         0
                text1                              1F22     1F22       72         0
                text0                              23FE     23FE        C         0
                cinit                              1F94     1F94       56         0
                idataBANK0                         2024     2024       32         0
                idataCOMRAM                        2056     2056       2E         0

        CLASS   CONST          

        CLASS   SMALLCONST     
                smallconst                         1000     1000        6         0

        CLASS   MEDIUMCONST    

        CLASS   COMRAM         
                temp                                 6E       6E        1         1
                cstackCOMRAM                         2F       2F       24         1
                dataCOMRAM                            1        1       2E         1
                bssCOMRAM                            53       53       1B         1

        CLASS   ABS1           

        CLASS   BIGRAM         

        CLASS   RAM            

        CLASS   BANK0          
                cstackBANK0                          B2       B2        D         1
                dataBANK0                            80       80       32         1

        CLASS   BANK1          

        CLASS   BANK2          

        CLASS   BANK3          

        CLASS   BANK4          

        CLASS   BANK5          

        CLASS   BANK6          

        CLASS   BANK7          

        CLASS   BANK8          

        CLASS   BANK9          

        CLASS   BANK10         

        CLASS   BANK11         

        CLASS   BANK12         

        CLASS   BANK13         

        CLASS   BANK14         

        CLASS   BANK15         

        CLASS   SFR            

        CLASS   BIGSFR         

        CLASS   CONFIG         
                config                           300000   300000        E         4

        CLASS   IDLOC          
                idloc                            200000   200000        8         5

        CLASS   EEDATA         

        CLASS   FARRAM         

        CLASS   HEAP           

        CLASS   STACK          



SEGMENTS        Name                           Load    Length   Top    Selector   Space  Class

                reset_vec                      000000  000004  000004         0       0  CODE    
                dataCOMRAM                     000001  00006E  00006F         1       1  COMRAM  
                intcode                        000008  000006  00000E         4       0  CODE    
                intcodelo                      000018  000056  00006E         C       0  CODE    
                dataBANK0                      000080  00003F  0000BF        80       1  BANK0   
                smallconst                     001000  000006  001006       800       0  SMALLCON
                text5                          001006  001404  00240A       803       0  CODE    


UNUSED ADDRESS RANGES

        Name                Unused          Largest block    Delta
        BANK0            0000BF-0000FF               41
        BANK1            000100-0001FF              100
        BANK10           000A00-000AFF              100
        BANK11           000B00-000BFF              100
        BANK12           000C00-000CFF              100
        BANK13           000D00-000DFF              100
        BANK14           000E00-000EFF              100
        BANK15           000F00-000F7F               80
        BANK2            000200-0002FF              100
        BANK3            000300-0003FF              100
        BANK4            000400-0004FF              100
        BANK5            000500-0005FF              100
        BANK6            000600-0006FF              100
        BANK7            000700-0007FF              100
        BANK8            000800-0008FF              100
        BANK9            000900-0009FF              100
        BIGRAM           00006F-00007F               11
                         0000BF-000F7F              EC1
        BIGSFR           000F80-000FFF               80
        CODE             000004-000007                4
                         00000E-000017                A
                         00006E-000FFF              F92
                         00240A-00FFFF             DBF6
        COMRAM           00006F-00007F               11
        CONST            000004-000007                4
                         00000E-000017                A
                         00006E-000FFF              F92
                         00240A-00FFFF             DBF6
        EEDATA           F00000-F003FF              400
        MEDIUMCONST      00240A-00FFFF             DBF6
        RAM              0000BF-000F7F              100
        SFR              000F80-000FFF               80
        SMALLCONST       00240A-00FFFF              100

                                  Symbol Table

Interrupt_RBx_Init@int_obj               cstackBANK0  0000BB
RB4_ISR@RB4_Source                       cstackCOMRAM 000049
RB5_ISR@RB5_Source                       cstackCOMRAM 000049
RB6_ISR@RB6_Source                       cstackCOMRAM 000049
RB7_ISR@RB7_Source                       cstackCOMRAM 000049
_INT0_ISR                                text21       0020E0
_INT0_InterruptHandler                   bssCOMRAM    00006B
_INT1_ISR                                text20       0020B2
_INT1_InterruptHandler                   bssCOMRAM    000069
_INT2_ISR                                text19       002084
_INT2_InterruptHandler                   bssCOMRAM    000067
_INTCON2bits                             (abs)        000FF1
_INTCON3bits                             (abs)        000FF0
_INTCONbits                              (abs)        000FF2
_Int0_App_ISR                            text23       00213C
_Int0_App_ISR$intlevel1                  text23       002146
_Int1_App_ISR                            text22       00210E
_Int1_App_ISR$intlevel1                  text22       002118
_Int2_App_ISR                            text24       00216A
_Int2_App_ISR$intlevel1                  text24       002174
_InterruptCheck                          text5        001006
_InterruptManagerHigh                    intcode      000008
_InterruptManagerLow                     intcodelo    000018
_Interrupt_RBx_Init                      text2        00150A
_LATA                                    (abs)        000F89
_LATB                                    (abs)        000F8A
_LATC                                    (abs)        000F8B
_LATD                                    (abs)        000F8C
_LATE                                    (abs)        000F8D
_PORTA                                   (abs)        000F80
_PORTB                                   (abs)        000F81
_PORTBbits                               (abs)        000F81
_PORTC                                   (abs)        000F82
_PORTD                                   (abs)        000F83
_PORTE                                   (abs)        000F84
_RB4_Flag                                dataCOMRAM   000018
_RB4_HIGH_Int_APP_ISR                    text16       002336
_RB4_HIGH_Int_APP_ISR$intlevel1          text16       002340
_RB4_ISR                                 text9        001CAC
_RB4_InterruptHandler_HIGH               bssCOMRAM    000065
_RB4_InterruptHandler_LOW                bssCOMRAM    000063
_RB4_LOW_Int_APP_ISR                     text12       0022C6
_RB4_LOW_Int_APP_ISR$intlevel1           text12       0022D0
_RB5_Flag                                dataCOMRAM   000017
_RB5_HIGH_Int_APP_ISR                    text15       00231A
_RB5_HIGH_Int_APP_ISR$intlevel1          text15       002324
_RB5_ISR                                 text8        001C2E
_RB5_InterruptHandler_HIGH               bssCOMRAM    000061
_RB5_InterruptHandler_LOW                bssCOMRAM    00005F
_RB5_LOW_Int_APP_ISR                     text11       0022AA
_RB5_LOW_Int_APP_ISR$intlevel1           text11       0022B4
_RB6_Flag                                dataCOMRAM   000016
_RB6_HIGH_Int_APP_ISR                    text14       0022FE
_RB6_HIGH_Int_APP_ISR$intlevel1          text14       002308
_RB6_ISR                                 text7        001BB0
_RB6_InterruptHandler_HIGH               bssCOMRAM    00005D
_RB6_InterruptHandler_LOW                bssCOMRAM    00005B
_RB6_LOW_Int_APP_ISR                     text10       00228E
_RB6_LOW_Int_APP_ISR$intlevel1           text10       002298
_RB7_Flag                                dataCOMRAM   000015
_RB7_HIGH_Int_APP_ISR                    text17       002352
_RB7_HIGH_Int_APP_ISR$intlevel1          text17       00235C
_RB7_ISR                                 text6        001B32
_RB7_InterruptHandler_HIGH               bssCOMRAM    000059
_RB7_InterruptHandler_LOW                bssCOMRAM    000057
_RB7_LOW_Int_APP_ISR                     text13       0022E2
_RB7_LOW_Int_APP_ISR$intlevel1           text13       0022EC
_RCONbits                                (abs)        000FD0
_TRISA                                   (abs)        000F92
_TRISB                                   (abs)        000F93
_TRISC                                   (abs)        000F94
_TRISD                                   (abs)        000F95
_TRISE                                   (abs)        000F96
__HRAM                                   (abs)        000000
__H__absolute__                          __absolute__ 000000
__Habs1                                  abs1         000000
__Hbank0                                 bank0        000000
__Hbank1                                 bank1        000000
__Hbank10                                bank10       000000
__Hbank11                                bank11       000000
__Hbank12                                bank12       000000
__Hbank13                                bank13       000000
__Hbank14                                bank14       000000
__Hbank15                                bank15       000000
__Hbank2                                 bank2        000000
__Hbank3                                 bank3        000000
__Hbank4                                 bank4        000000
__Hbank5                                 bank5        000000
__Hbank6                                 bank6        000000
__Hbank7                                 bank7        000000
__Hbank8                                 bank8        000000
__Hbank9                                 bank9        000000
__Hbigbss                                bigbss       000000
__Hbigdata                               bigdata      000000
__Hbigram                                bigram       000000
__Hbigsfr                                bigsfr       000000
__Hbss                                   bss          000000
__HbssCOMRAM                             bssCOMRAM    000000
__Hcinit                                 cinit        000000
__Hclrtext                               clrtext      000000
__Hcomram                                comram       000000
__Hconfig                                config       30000E
__Hconst                                 const        000000
__HcstackBANK0                           cstackBANK0  000000
__HcstackCOMRAM                          cstackCOMRAM 000000
__Hdata                                  data         000000
__HdataBANK0                             dataBANK0    000000
__HdataCOMRAM                            dataCOMRAM   000000
__Heeprom_data                           eeprom_data  000000
__Hfarbss                                farbss       000000
__Hfardata                               fardata      000000
__Hheap                                  heap         000000
__Hibigdata                              ibigdata     000000
__Hidata                                 idata        000000
__HidataBANK0                            idataBANK0   000000
__HidataCOMRAM                           idataCOMRAM  000000
__Hidloc                                 idloc        200008
__Hifardata                              ifardata     000000
__Hinit                                  init         00006E
__Hintcode                               intcode      00000E
__Hintcode_body                          intcode_body 000000
__Hintcodelo                             intcodelo    00006A
__Hintentry                              intentry     000000
__Hintret                                intret       000000
__Hintsave_regs                          intsave_regs 000000
__Hirdata                                irdata       000000
__Hmediumconst                           mediumconst  000000
__HnvFARRAM                              nvFARRAM     000000
__Hnvbit                                 nvbit        000000
__Hnvrram                                nvrram       000000
__Hparam                                 rparam       000000
__Hpowerup                               powerup      00006A
__Hram                                   ram          000000
__Hramtop                                ramtop       001000
__Hrbit                                  rbit         000000
__Hrbss                                  rbss         000000
__Hrdata                                 rdata        000000
__Hreset_vec                             reset_vec    000004
__Hrparam                                rparam       000000
__Hsfr                                   sfr          000000
__Hsmallconst                            smallconst   001006
__Hspace_0                               (abs)        00240A
__Hspace_1                               (abs)        0000BF
__Hspace_2                               (abs)        000000
__Hspace_4                               (abs)        60000E
__Hstack                                 stack        000000
__Hstruct                                struct       000000
__Htemp                                  temp         00006F
__Htext                                  text         000000
__Htext0                                 text0        000000
__Htext1                                 text1        000000
__Htext10                                text10       000000
__Htext11                                text11       000000
__Htext12                                text12       000000
__Htext13                                text13       000000
__Htext14                                text14       000000
__Htext15                                text15       000000
__Htext16                                text16       000000
__Htext17                                text17       000000
__Htext18                                text18       000000
__Htext19                                text19       000000
__Htext2                                 text2        000000
__Htext20                                text20       000000
__Htext21                                text21       000000
__Htext22                                text22       000000
__Htext23                                text23       000000
__Htext24                                text24       000000
__Htext25                                text25       000000
__Htext27                                text27       000000
__Htext28                                text28       000000
__Htext29                                text29       000000
__Htext3                                 text3        000000
__Htext30                                text30       000000
__Htext31                                text31       000000
__Htext32                                text32       000000
__Htext33                                text33       000000
__Htext34                                text34       000000
__Htext35                                text35       000000
__Htext36                                text36       000000
__Htext37                                text37       000000
__Htext38                                text38       000000
__Htext39                                text39       000000
__Htext40                                text40       000000
__Htext41                                text41       000000
__Htext42                                text42       000000
__Htext43                                text43       000000
__Htext44                                text44       000000
__Htext45                                text45       000000
__Htext46                                text46       000000
__Htext47                                text47       000000
__Htext48                                text48       000000
__Htext5                                 text5        000000
__Htext6                                 text6        000000
__Htext7                                 text7        000000
__Htext8                                 text8        000000
__Htext9                                 text9        000000
__LRAM                                   (abs)        000001
__L__absolute__                          __absolute__ 000000
__Labs1                                  abs1         000000
__Lbank0                                 bank0        000000
__Lbank1                                 bank1        000000
__Lbank10                                bank10       000000
__Lbank11                                bank11       000000
__Lbank12                                bank12       000000
__Lbank13                                bank13       000000
__Lbank14                                bank14       000000
__Lbank15                                bank15       000000
__Lbank2                                 bank2        000000
__Lbank3                                 bank3        000000
__Lbank4                                 bank4        000000
__Lbank5                                 bank5        000000
__Lbank6                                 bank6        000000
__Lbank7                                 bank7        000000
__Lbank8                                 bank8        000000
__Lbank9                                 bank9        000000
__Lbigbss                                bigbss       000000
__Lbigdata                               bigdata      000000
__Lbigram                                bigram       000000
__Lbigsfr                                bigsfr       000000
__Lbss                                   bss          000000
__LbssCOMRAM                             bssCOMRAM    000000
__Lcinit                                 cinit        000000
__Lclrtext                               clrtext      000000
__Lcomram                                comram       000000
__Lconfig                                config       000000
__Lconst                                 const        000000
__LcstackBANK0                           cstackBANK0  000000
__LcstackCOMRAM                          cstackCOMRAM 000000
__Ldata                                  data         000000
__LdataBANK0                             dataBANK0    000000
__LdataCOMRAM                            dataCOMRAM   000000
__Leeprom_data                           eeprom_data  000000
__Lfarbss                                farbss       000000
__Lfardata                               fardata      000000
__Lheap                                  heap         000000
__Libigdata                              ibigdata     000000
__Lidata                                 idata        000000
__LidataBANK0                            idataBANK0   000000
__LidataCOMRAM                           idataCOMRAM  000000
__Lidloc                                 idloc        000000
__Lifardata                              ifardata     000000
__Linit                                  init         00006A
__Lintcode                               intcode      000008
__Lintcode_body                          intcode_body 000000
__Lintcodelo                             intcodelo    000018
__Lintentry                              intentry     000000
__Lintret                                intret       000000
__Lintsave_regs                          intsave_regs 000000
__Lirdata                                irdata       000000
__Lmediumconst                           mediumconst  000000
__LnvFARRAM                              nvFARRAM     000000
__Lnvbit                                 nvbit        000000
__Lnvrram                                nvrram       000000
__Lparam                                 rparam       000000
__Lpowerup                               powerup      00006A
__Lram                                   ram          000000
__Lramtop                                ramtop       001000
__Lrbit                                  rbit         000000
__Lrbss                                  rbss         000000
__Lrdata                                 rdata        000000
__Lreset_vec                             reset_vec    000000
__Lrparam                                rparam       000000
__Lsfr                                   sfr          000000
__Lsmallconst                            smallconst   001000
__Lspace_0                               (abs)        000000
__Lspace_1                               (abs)        000000
__Lspace_2                               (abs)        000000
__Lspace_4                               (abs)        000000
__Lstack                                 stack        000000
__Lstruct                                struct       000000
__Ltemp                                  temp         00006E
__Ltext                                  text         000000
__Ltext0                                 text0        000000
__Ltext1                                 text1        000000
__Ltext10                                text10       000000
__Ltext11                                text11       000000
__Ltext12                                text12       000000
__Ltext13                                text13       000000
__Ltext14                                text14       000000
__Ltext15                                text15       000000
__Ltext16                                text16       000000
__Ltext17                                text17       000000
__Ltext18                                text18       000000
__Ltext19                                text19       000000
__Ltext2                                 text2        000000
__Ltext20                                text20       000000
__Ltext21                                text21       000000
__Ltext22                                text22       000000
__Ltext23                                text23       000000
__Ltext24                                text24       000000
__Ltext25                                text25       000000
__Ltext27                                text27       000000
__Ltext28                                text28       000000
__Ltext29                                text29       000000
__Ltext3                                 text3        000000
__Ltext30                                text30       000000
__Ltext31                                text31       000000
__Ltext32                                text32       000000
__Ltext33                                text33       000000
__Ltext34                                text34       000000
__Ltext35                                text35       000000
__Ltext36                                text36       000000
__Ltext37                                text37       000000
__Ltext38                                text38       000000
__Ltext39                                text39       000000
__Ltext40                                text40       000000
__Ltext41                                text41       000000
__Ltext42                                text42       000000
__Ltext43                                text43       000000
__Ltext44                                text44       000000
__Ltext45                                text45       000000
__Ltext46                                text46       000000
__Ltext47                                text47       000000
__Ltext48                                text48       000000
__Ltext5                                 text5        000000
__Ltext6                                 text6        000000
__Ltext7                                 text7        000000
__Ltext8                                 text8        000000
__Ltext9                                 text9        000000
__S0                                     (abs)        00240A
__S1                                     (abs)        0000BF
__S4                                     (abs)        000000
__S5                                     (abs)        000000
___heap_hi                               (abs)        000000
___heap_lo                               (abs)        000000
___inthi_sp                              stack        000000
___intlo_sp                              stack        000000
___param_bank                            (abs)        000000
___rparam_used                           (abs)        000001
___sp                                    stack        000000
__accesstop                              (abs)        000080
__activetblptr                           (abs)        000003
__end_of_INT0_ISR                        text21       00210E
__end_of_INT1_ISR                        text20       0020E0
__end_of_INT2_ISR                        text19       0020B2
__end_of_Int0_App_ISR                    text23       00216A
__end_of_Int1_App_ISR                    text22       00213C
__end_of_Int2_App_ISR                    text24       002198
__end_of_InterruptCheck                  text5        001288
__end_of_InterruptManagerHigh            intcode_body 002024
__end_of_InterruptManagerLow             intcodelo    00006A
__end_of_Interrupt_RBx_Init              text2        001676
__end_of_RB4_HIGH_Int_APP_ISR            text16       002352
__end_of_RB4_ISR                         text9        001D2A
__end_of_RB4_LOW_Int_APP_ISR             text12       0022E2
__end_of_RB5_HIGH_Int_APP_ISR            text15       002336
__end_of_RB5_ISR                         text8        001CAC
__end_of_RB5_LOW_Int_APP_ISR             text11       0022C6
__end_of_RB6_HIGH_Int_APP_ISR            text14       00231A
__end_of_RB6_ISR                         text7        001C2E
__end_of_RB6_LOW_Int_APP_ISR             text10       0022AA
__end_of_RB7_HIGH_Int_APP_ISR            text17       00236E
__end_of_RB7_ISR                         text6        001BB0
__end_of_RB7_LOW_Int_APP_ISR             text13       0022FE
__end_of__initialization                 cinit        001FE0
__end_of_app_initialize                  text1        001F94
__end_of_gpio_pin_direction_intialize    text3        0017C0
__end_of_gpio_pin_toggle_logic           text25       001AA0
__end_of_gpio_pin_write_logic            text18       0018EC
__end_of_main                            text0        00240A
__end_ofi2_INT0_ISR                      text43       002222
__end_ofi2_INT1_ISR                      text42       0021F4
__end_ofi2_INT2_ISR                      text41       0021C6
__end_ofi2_Int0_App_ISR                  text45       00226A
__end_ofi2_Int1_App_ISR                  text44       002246
__end_ofi2_Int2_App_ISR                  text46       00228E
__end_ofi2_InterruptCheck                text27       00150A
__end_ofi2_RB4_HIGH_Int_APP_ISR          text38       0023EC
__end_ofi2_RB4_ISR                       text31       001F22
__end_ofi2_RB4_LOW_Int_APP_ISR           text34       0023A4
__end_ofi2_RB5_HIGH_Int_APP_ISR          text37       0023DA
__end_ofi2_RB5_ISR                       text30       001EA4
__end_ofi2_RB5_LOW_Int_APP_ISR           text33       002392
__end_ofi2_RB6_HIGH_Int_APP_ISR          text36       0023C8
__end_ofi2_RB6_ISR                       text29       001E26
__end_ofi2_RB6_LOW_Int_APP_ISR           text32       002380
__end_ofi2_RB7_HIGH_Int_APP_ISR          text39       0023FE
__end_ofi2_RB7_ISR                       text28       001DA8
__end_ofi2_RB7_LOW_Int_APP_ISR           text35       0023B6
__end_ofi2_gpio_pin_toggle_logic         text47       001B32
__end_ofi2_gpio_pin_write_logic          text40       001A0E
__initialization                         cinit        001F94
__mediumconst                            mediumconst  000000
__pbssCOMRAM                             bssCOMRAM    000053
__pcinit                                 cinit        001F94
__pcstackBANK0                           cstackBANK0  0000B2
__pcstackCOMRAM                          cstackCOMRAM 00002F
__pdataBANK0                             dataBANK0    000080
__pdataCOMRAM                            dataCOMRAM   000001
__pidataBANK0                            idataBANK0   002024
__pidataCOMRAM                           idataCOMRAM  002056
__pintcode                               intcode      000008
__pintcode_body                          intcode_body 001FEA
__pintcodelo                             intcodelo    000018
__psmallconst                            smallconst   001000
__ptext0                                 text0        0023FE
__ptext1                                 text1        001F22
__ptext10                                text10       00228E
__ptext11                                text11       0022AA
__ptext12                                text12       0022C6
__ptext13                                text13       0022E2
__ptext14                                text14       0022FE
__ptext15                                text15       00231A
__ptext16                                text16       002336
__ptext17                                text17       002352
__ptext18                                text18       0017C0
__ptext19                                text19       002084
__ptext2                                 text2        00150A
__ptext20                                text20       0020B2
__ptext21                                text21       0020E0
__ptext22                                text22       00210E
__ptext23                                text23       00213C
__ptext24                                text24       00216A
__ptext25                                text25       001A0E
__ptext27                                text27       001288
__ptext28                                text28       001D2A
__ptext29                                text29       001DA8
__ptext3                                 text3        001676
__ptext30                                text30       001E26
__ptext31                                text31       001EA4
__ptext32                                text32       00236E
__ptext33                                text33       002380
__ptext34                                text34       002392
__ptext35                                text35       0023A4
__ptext36                                text36       0023B6
__ptext37                                text37       0023C8
__ptext38                                text38       0023DA
__ptext39                                text39       0023EC
__ptext40                                text40       0018EC
__ptext41                                text41       002198
__ptext42                                text42       0021C6
__ptext43                                text43       0021F4
__ptext44                                text44       002222
__ptext45                                text45       002246
__ptext46                                text46       00226A
__ptext47                                text47       001AA0
__ptext48                                text48       000000
__ptext5                                 text5        001006
__ptext6                                 text6        001B32
__ptext7                                 text7        001BB0
__ptext8                                 text8        001C2E
__ptext9                                 text9        001CAC
__ramtop                                 ramtop       001000
__smallconst                             smallconst   001000
_app_initialize                          text1        001F22
_counter                                 bssCOMRAM    00006D
_gpio_pin_direction_intialize            text3        001676
_gpio_pin_toggle_logic                   text25       001A0E
_gpio_pin_write_logic                    text18       0017C0
_int0_obj                                dataBANK0    000096
_int1_obj                                dataBANK0    000090
_int2_obj                                dataBANK0    00008A
_lat_registers                           dataCOMRAM   000001
_lcd_1                                   dataBANK0    0000A6
_lcd_2                                   dataBANK0    00009C
_led1                                    dataCOMRAM   00002E
_led2                                    dataCOMRAM   00002D
_led3                                    dataCOMRAM   00002C
_led4                                    dataCOMRAM   00002B
_main                                    text0        0023FE
_num_arr                                 bssCOMRAM    000053
_port_registers                          dataBANK0    000080
_rb4_int_obj                             dataCOMRAM   000025
_rb5_int_obj                             dataCOMRAM   00001F
_rb6_int_obj                             dataCOMRAM   000019
_rb7_int_obj                             dataBANK0    0000AC
_tris_registers                          dataCOMRAM   00000B
btemp                                    temp         00006E
end_of_initialization                    cinit        001FE0
gpio_pin_direction_intialize@_pin_config cstackBANK0  0000B2
gpio_pin_direction_intialize@ret         cstackBANK0  0000BA
gpio_pin_toggle_logic@_pin_config        cstackCOMRAM 00003F
gpio_pin_write_logic@_pin_config         cstackCOMRAM 00003F
gpio_pin_write_logic@logic               cstackCOMRAM 000041
gpio_pin_write_logic@ret                 cstackCOMRAM 000048
i2RB4_ISR@RB4_Source                     cstackCOMRAM 000038
i2RB5_ISR@RB5_Source                     cstackCOMRAM 000038
i2RB6_ISR@RB6_Source                     cstackCOMRAM 000038
i2RB7_ISR@RB7_Source                     cstackCOMRAM 000038
i2_INT0_ISR                              text43       0021F4
i2_INT1_ISR                              text42       0021C6
i2_INT2_ISR                              text41       002198
i2_Int0_App_ISR                          text45       002246
i2_Int1_App_ISR                          text44       002222
i2_Int2_App_ISR                          text46       00226A
i2_InterruptCheck                        text27       001288
i2_RB4_HIGH_Int_APP_ISR                  text38       0023DA
i2_RB4_ISR                               text31       001EA4
i2_RB4_LOW_Int_APP_ISR                   text34       002392
i2_RB5_HIGH_Int_APP_ISR                  text37       0023C8
i2_RB5_ISR                               text30       001E26
i2_RB5_LOW_Int_APP_ISR                   text33       002380
i2_RB6_HIGH_Int_APP_ISR                  text36       0023B6
i2_RB6_ISR                               text29       001DA8
i2_RB6_LOW_Int_APP_ISR                   text32       00236E
i2_RB7_HIGH_Int_APP_ISR                  text39       0023EC
i2_RB7_ISR                               text28       001D2A
i2_RB7_LOW_Int_APP_ISR                   text35       0023A4
i2_gpio_pin_toggle_logic                 text47       001AA0
i2_gpio_pin_write_logic                  text40       0018EC
i2gpio_pin_toggle_logic@_pin_config      cstackCOMRAM 00002F
i2gpio_pin_write_logic@_pin_config       cstackCOMRAM 00002F
i2gpio_pin_write_logic@logic             cstackCOMRAM 000031
int$flags                                temp         00006E
int_func                                 intcode_body 001FEA
intlevel0                                text         000000
intlevel1                                text         000000
intlevel2                                text         000000
intlevel3                                text         000000
isa$std                                  (abs)        000001
isa$xinst                                (abs)        000000
stackhi                                  (abs)        000000
stacklo                                  (abs)        000000
start                                    init         00006A
start_initialization                     cinit        001F94
ttemp5                                   temp         00006F
ttemp6                                   temp         000072
ttemp7                                   temp         000076
wtemp8                                   temp         00006F


MODULE INFORMATION

Module		Function		Class		Link	Load	Size
shared
		i2_Int2_App_ISR		CODE           	226A	0000	36
		i2_RB6_ISR     		CODE           	1DA8	0000	126
		i2_RB5_LOW_Int_APP_ISR		CODE           	2380	0000	18
		i2_INT1_ISR    		CODE           	21C6	0000	46
		i2_RB7_ISR     		CODE           	1D2A	0000	126
		i2_RB6_LOW_Int_APP_ISR		CODE           	236E	0000	18
		i2_Int0_App_ISR		CODE           	2246	0000	36
		i2_RB4_HIGH_Int_APP_ISR		CODE           	23DA	0000	18
		i2_RB7_LOW_Int_APP_ISR		CODE           	23A4	0000	18
		__initialization		CODE           	1F94	0000	76
		i2_InterruptCheck		CODE           	1288	0000	642
		i2_RB5_HIGH_Int_APP_ISR		CODE           	23C8	0000	18
		i2_INT2_ISR    		CODE           	2198	0000	46
		i2_gpio_pin_write_logic		CODE           	18EC	0000	290
		i2_Int1_App_ISR		CODE           	2222	0000	36
		i2_RB6_HIGH_Int_APP_ISR		CODE           	23B6	0000	18
		i2_RB4_ISR     		CODE           	1EA4	0000	126
		i2_gpio_pin_toggle_logic		CODE           	1AA0	0000	146
		i2_INT0_ISR    		CODE           	21F4	0000	46
		i2_RB7_HIGH_Int_APP_ISR		CODE           	23EC	0000	18
		i2_RB5_ISR     		CODE           	1E26	0000	126
		i2_RB4_LOW_Int_APP_ISR		CODE           	2392	0000	18

shared estimated size: 2048

MCAL_Layer/Interrupt/mcal_interrupt_manager.c
		_InterruptCheck		CODE           	1006	0000	642
		_InterruptManagerLow		CODE           	0018	0000	82
		_InterruptManagerHigh		CODE           	0008	0000	64

MCAL_Layer/Interrupt/mcal_interrupt_manager.c estimated size: 788

MCAL_Layer/GPIO/hal_gpio.c
		_gpio_pin_write_logic		CODE           	17C0	0000	300
		_gpio_pin_direction_intialize		CODE           	1676	0000	330
		_gpio_pin_toggle_logic		CODE           	1A0E	0000	146

MCAL_Layer/GPIO/hal_gpio.c estimated size: 776

application.c
		_RB7_LOW_Int_APP_ISR		CODE           	22E2	0000	28
		_Int0_App_ISR  		CODE           	213C	0000	46
		_RB4_HIGH_Int_APP_ISR		CODE           	2336	0000	28
		_Int1_App_ISR  		CODE           	210E	0000	46
		_RB5_HIGH_Int_APP_ISR		CODE           	231A	0000	28
		_RB6_HIGH_Int_APP_ISR		CODE           	22FE	0000	28
		_main          		CODE           	23FE	0000	12
		_Int2_App_ISR  		CODE           	216A	0000	46
		_RB7_HIGH_Int_APP_ISR		CODE           	2352	0000	28
		_RB4_LOW_Int_APP_ISR		CODE           	22C6	0000	28
		_app_initialize		CODE           	1F22	0000	114
		_RB5_LOW_Int_APP_ISR		CODE           	22AA	0000	28
		_RB6_LOW_Int_APP_ISR		CODE           	228E	0000	28

application.c estimated size: 488

mcal_external_interrupt.c
		_RB4_ISR       		CODE           	1CAC	0000	126
		_RB5_ISR       		CODE           	1C2E	0000	126
		_RB6_ISR       		CODE           	1BB0	0000	126
		_RB7_ISR       		CODE           	1B32	0000	126
		_INT0_ISR      		CODE           	20E0	0000	46
		_Interrupt_RBx_Init		CODE           	150A	0000	364
		_INT1_ISR      		CODE           	20B2	0000	46
		_INT2_ISR      		CODE           	2084	0000	46

mcal_external_interrupt.c estimated size: 1006

