

Microchip MPLAB XC8 Assembler V2.41 build 20230208172133 
                                                                                               Mon May 29 13:53:09 2023

Microchip MPLAB XC8 C Compiler v2.41 (Free license) build 20230208172133 Og1 
     1                           	processor	18F4620
     2                           	fnconf	rparam,??,?,0
     3                           	pagewidth 120
     4                           	opt	flic
     5                           	psect	idataCOMRAM,global,class=CODE,delta=1,noexec
     6                           	psect	idataBANK0,global,class=CODE,delta=1,noexec
     7                           	psect	idataBANK1,global,class=CODE,delta=1,noexec
     8                           	psect	smallconst,global,reloc=2,class=SMALLCONST,delta=1,noexec
     9                           	psect	cinit,global,reloc=2,class=CODE,delta=1
    10                           	psect	bssCOMRAM,global,class=COMRAM,space=1,delta=1,lowdata,noexec
    11                           	psect	dataCOMRAM,global,class=COMRAM,space=1,delta=1,lowdata,noexec
    12                           	psect	bssBANK0,global,class=BANK0,space=1,delta=1,lowdata,noexec
    13                           	psect	dataBANK0,global,class=BANK0,space=1,delta=1,lowdata,noexec
    14                           	psect	bssBANK1,global,class=BANK1,space=1,delta=1,lowdata,noexec
    15                           	psect	dataBANK1,global,class=BANK1,space=1,delta=1,lowdata,noexec
    16                           	psect	cstackBANK1,global,class=BANK1,space=1,delta=1,lowdata,noexec
    17                           	psect	cstackBANK0,global,class=BANK0,space=1,delta=1,lowdata,noexec
    18                           	psect	cstackCOMRAM,global,class=COMRAM,space=1,delta=1,lowdata,noexec
    19                           	psect	text0,global,reloc=2,class=CODE,delta=1
    20                           	psect	text1,global,reloc=2,class=CODE,delta=1
    21                           	psect	text2,global,reloc=2,class=CODE,delta=1
    22                           	psect	text3,global,reloc=2,class=CODE,delta=1
    23                           	psect	text4,global,reloc=2,class=CODE,delta=1
    24                           	psect	text5,global,reloc=2,class=CODE,delta=1
    25                           	psect	text6,global,reloc=2,class=CODE,delta=1
    26                           	psect	text7,global,reloc=2,class=CODE,delta=1
    27                           	psect	text8,global,reloc=2,class=CODE,delta=1,group=1
    28                           	psect	text9,global,reloc=2,class=CODE,delta=1,group=1
    29                           	psect	text10,global,reloc=2,class=CODE,delta=1,group=1
    30                           	psect	text11,global,reloc=2,class=CODE,delta=1,group=1
    31                           	psect	text12,global,reloc=2,class=CODE,delta=1
    32                           	psect	text13,global,reloc=2,class=CODE,delta=1
    33                           	psect	text14,global,reloc=2,class=CODE,delta=1
    34                           	psect	text15,global,reloc=2,class=CODE,delta=1
    35                           	psect	intcodelo,global,reloc=2,class=CODE,delta=1
    36                           	psect	text17,global,reloc=2,class=CODE,delta=1
    37                           	psect	text18,global,reloc=2,class=CODE,delta=1
    38                           	psect	text19,global,reloc=2,class=CODE,delta=1
    39                           	psect	text20,global,reloc=2,class=CODE,delta=1
    40                           	psect	text21,global,reloc=2,class=CODE,delta=1
    41                           	psect	text22,global,reloc=2,class=CODE,delta=1
    42                           	psect	text23,global,reloc=2,class=CODE,delta=1
    43                           	psect	text24,global,reloc=2,class=CODE,delta=1
    44                           	psect	text25,global,reloc=2,class=CODE,delta=1
    45                           	psect	text26,global,reloc=2,class=CODE,delta=1
    46                           	psect	text27,global,reloc=2,class=CODE,delta=1
    47                           	psect	text28,global,reloc=2,class=CODE,delta=1
    48                           	psect	text29,global,reloc=2,class=CODE,delta=1
    49                           	psect	text30,global,reloc=2,class=CODE,delta=1
    50                           	psect	text31,global,reloc=2,class=CODE,delta=1
    51                           	psect	text32,global,reloc=2,class=CODE,delta=1
    52                           	psect	text33,global,reloc=2,class=CODE,delta=1
    53                           	psect	text34,global,reloc=2,class=CODE,delta=1
    54                           	psect	text35,global,reloc=2,class=CODE,delta=1
    55                           	psect	text36,global,reloc=2,class=CODE,delta=1
    56                           	psect	text37,global,reloc=2,class=CODE,delta=1
    57                           	psect	text38,global,reloc=2,class=CODE,delta=1
    58                           	psect	text39,global,reloc=2,class=CODE,delta=1
    59                           	psect	text40,global,reloc=2,class=CODE,delta=1
    60                           	psect	text41,global,reloc=2,class=CODE,delta=1
    61                           	psect	text42,global,reloc=2,class=CODE,delta=1
    62                           	psect	text43,global,reloc=2,class=CODE,delta=1
    63                           	psect	intcode,global,reloc=2,class=CODE,delta=1
    64                           	psect	intcode_body,global,reloc=2,class=CODE,delta=1
    65                           	psect	text45,global,reloc=2,class=CODE,delta=1
    66                           	psect	text46,global,reloc=2,class=CODE,delta=1
    67                           	psect	text47,global,reloc=2,class=CODE,delta=1
    68                           	psect	text48,global,reloc=2,class=CODE,delta=1
    69                           	psect	text49,global,reloc=2,class=CODE,delta=1
    70                           	psect	text50,global,reloc=2,class=CODE,delta=1
    71                           	psect	text51,global,reloc=2,class=CODE,delta=1
    72                           	psect	text52,global,reloc=2,class=CODE,delta=1
    73                           	psect	text53,global,reloc=2,class=CODE,delta=1
    74                           	psect	text54,global,reloc=2,class=CODE,delta=1
    75                           	psect	text55,global,reloc=2,class=CODE,delta=1
    76                           	psect	text56,global,reloc=2,class=CODE,delta=1
    77                           	psect	text57,global,reloc=2,class=CODE,delta=1
    78                           	psect	text58,global,reloc=2,class=CODE,delta=1
    79                           	psect	text59,global,reloc=2,class=CODE,delta=1
    80                           	psect	text60,global,reloc=2,class=CODE,delta=1
    81                           	psect	text61,global,reloc=2,class=CODE,delta=1
    82                           	psect	text62,global,reloc=2,class=CODE,delta=1
    83                           	psect	text63,global,reloc=2,class=CODE,delta=1
    84                           	psect	text64,global,reloc=2,class=CODE,delta=1
    85                           	psect	text65,global,reloc=2,class=CODE,delta=1
    86                           	psect	text66,global,reloc=2,class=CODE,delta=1
    87                           	psect	text67,global,reloc=2,class=CODE,delta=1
    88                           	psect	text68,global,reloc=2,class=CODE,delta=1
    89                           	psect	text69,global,reloc=2,class=CODE,delta=1
    90                           	psect	text70,global,reloc=2,class=CODE,delta=1
    91                           	psect	text71,global,reloc=2,class=CODE,delta=1
    92                           	psect	intsave_regs,global,class=BIGRAM,space=1,delta=1,noexec
    93                           	psect	text72,global,reloc=2,class=CODE,delta=1
    94                           	psect	rparam,global,class=COMRAM,space=1,delta=1,noexec
    95                           	psect	temp,global,ovrld,common,class=COMRAM,space=1,delta=1
    96                           	psect	idloc,global,abs,ovrld,class=IDLOC,space=5,delta=1,noexec
    97                           	psect	config,global,abs,ovrld,class=CONFIG,space=4,delta=1,noexec
    98   000000                     
    99                           ; Version 2.40
   100                           ; Generated 17/11/2021 GMT
   101                           ; 
   102                           ; Copyright © 2021, Microchip Technology Inc. and its subsidiaries ("Microchip")
   103                           ; All rights reserved.
   104                           ; 
   105                           ; This software is developed by Microchip Technology Inc. and its subsidiaries ("Microch
      +                          ip").
   106                           ; 
   107                           ; Redistribution and use in source and binary forms, with or without modification, are
   108                           ; permitted provided that the following conditions are met:
   109                           ; 
   110                           ;     1. Redistributions of source code must retain the above copyright notice, this lis
      +                          t of
   111                           ;        conditions and the following disclaimer.
   112                           ; 
   113                           ;     2. Redistributions in binary form must reproduce the above copyright notice, this 
      +                          list
   114                           ;        of conditions and the following disclaimer in the documentation and/or other
   115                           ;        materials provided with the distribution. Publication is not required when
   116                           ;        this file is used in an embedded application.
   117                           ; 
   118                           ;     3. Microchip's name may not be used to endorse or promote products derived from th
      +                          is
   119                           ;        software without specific prior written permission.
   120                           ; 
   121                           ; THIS SOFTWARE IS PROVIDED BY MICROCHIP "AS IS" AND ANY EXPRESS OR IMPLIED WARRANTIES,
   122                           ; INCLUDING, BUT NOT LIMITED TO, THE IMPLIED WARRANTIES OF MERCHANTABILITY AND FITNESS F
      +                          OR
   123                           ; PURPOSE ARE DISCLAIMED.  IN NO EVENT SHALL MICROCHIP BE LIABLE FOR ANY DIRECT, INDIREC
      +                          T,
   124                           ; INCIDENTAL, SPECIAL, EXEMPLARY, OR CONSEQUENTIAL DAMAGES (INCLUDING BUT NOT LIMITED TO
   125                           ; PROCUREMENT OF SUBSTITUTE GOODS OR SERVICES; LOSS OF USE, DATA OR PROFITS; OR BUSINESS
   126                           ; INTERRUPTION) HOWSOEVER CAUSED AND ON ANY THEORY OF LIABILITY, WHETHER IN CONTRACT, ST
      +                          RICT
   127                           ; LIABILITY, OR TORT (INCLUDING NEGLIGENCE OR OTHERWISE) ARISING IN ANY WAY OUT OF THE U
      +                          SE OF
   128                           ; THIS SOFTWARE, EVEN IF ADVISED OF THE POSSIBILITY OF SUCH DAMAGE.
   129                           ; 
   130                           ; 
   131                           ; Code-generator required, PIC18F4620 Definitions
   132                           ; 
   133                           ; SFR Addresses
   134   000000                     
   135                           	psect	idataCOMRAM
   136   0036C0                     __pidataCOMRAM:
   137                           	callstack 0
   138                           
   139                           ;initializer for _led2
   140   0036C0  72                 	db	114
   141                           
   142                           ;initializer for _RB7_Flag
   143   0036C1  01                 	db	1
   144                           
   145                           ;initializer for _RB6_Flag
   146   0036C2  01                 	db	1
   147                           
   148                           ;initializer for _RB5_Flag
   149   0036C3  01                 	db	1
   150                           
   151                           ;initializer for _RB4_Flag
   152   0036C4  01                 	db	1
   153                           
   154                           ;initializer for _led1
   155   0036C5  42                 	db	66
   156                           
   157                           	psect	idataBANK0
   158   00336A                     __pidataBANK0:
   159                           	callstack 0
   160                           
   161                           ;initializer for _lat_registers
   162   00336A  89                 	db	137
   163   00336B  0F                 	db	15
   164   00336C  8A                 	db	138
   165   00336D  0F                 	db	15
   166   00336E  8B                 	db	139
   167   00336F  0F                 	db	15
   168   003370  8C                 	db	140
   169   003371  0F                 	db	15
   170   003372  8D                 	db	141
   171   003373  0F                 	db	15
   172                           
   173                           ;initializer for _tris_registers
   174   003374  92                 	db	146
   175   003375  0F                 	db	15
   176   003376  93                 	db	147
   177   003377  0F                 	db	15
   178   003378  94                 	db	148
   179   003379  0F                 	db	15
   180   00337A  95                 	db	149
   181   00337B  0F                 	db	15
   182   00337C  96                 	db	150
   183   00337D  0F                 	db	15
   184                           
   185                           ;initializer for _ccp1_obj
   186   00337E  00                 	db	0
   187   00337F  52                 	db	82
   188   003380  38                 	db	low _CCP1_interruptHundler
   189   003381  2F                 	db	high _CCP1_interruptHundler
   190   003382  01                 	db	1
   191   003383  05                 	db	5
   192   003384  00                 	db	0
   193                           
   194                           ;initializer for _lcd_1
   195   003385  02                 	db	2
   196   003386  0A                 	db	10
   197   003387  12                 	db	18
   198   003388  1A                 	db	26
   199   003389  22                 	db	34
   200   00338A  2A                 	db	42
   201                           
   202                           ;initializer for _timer2
   203   00338B  00                 	db	0
   204   00338C  00                 	db	0
   205   00338D  01                 	db	1
   206   00338E  00                 	db	0
   207   00338F  00                 	db	0
   208                           
   209                           ;initializer for _timer3
   210   003390  48                 	db	low _timer3_interruptHundler
   211   003391  35                 	db	high _timer3_interruptHundler
   212   003392  00                 	db	0
   213   003393  0000               	dw	0
   214   003395  00                 	db	0
   215                           
   216                           ;initializer for _timer1
   217   003396  00                 	db	0
   218   003397  00                 	db	0
   219   003398  01                 	db	1
   220   003399  0000               	dw	0
   221   00339B  24                 	db	36
   222                           
   223                           	psect	idataBANK1
   224   00339C                     __pidataBANK1:
   225                           	callstack 0
   226                           
   227                           ;initializer for _port_registers
   228   00339C  80                 	db	128
   229   00339D  0F                 	db	15
   230   00339E  81                 	db	129
   231   00339F  0F                 	db	15
   232   0033A0  82                 	db	130
   233   0033A1  0F                 	db	15
   234   0033A2  83                 	db	131
   235   0033A3  0F                 	db	15
   236   0033A4  84                 	db	132
   237   0033A5  0F                 	db	15
   238                           
   239                           ;initializer for _lcd_2
   240   0033A6  32                 	db	50
   241   0033A7  3A                 	db	58
   242   0033A8  03                 	db	3
   243   0033A9  0B                 	db	11
   244   0033AA  13                 	db	19
   245   0033AB  1B                 	db	27
   246   0033AC  23                 	db	35
   247   0033AD  2B                 	db	43
   248   0033AE  33                 	db	51
   249   0033AF  3B                 	db	59
   250                           
   251                           ;initializer for _timer0
   252   0033B0  36                 	db	low _timer0_interruptHundler
   253   0033B1  33                 	db	high _timer0_interruptHundler
   254   0033B2  01                 	db	1
   255   0033B3  04                 	db	4
   256   0033B4  0BDC               	dw	3036
   257   0033B6  07                 	db	7
   258                           
   259                           ;initializer for _usart_obj
   260   0033B7  2580               	dw	9600
   261   0033B9  0000               	dw	0
   262   0033BB  00                 	db	0
   263   0033BC  01                 	db	1
   264   0033BD  03                 	db	3
   265   0033BE  00                 	db	0
   266   0033BF  03                 	db	3
   267   0033C0  00                 	db	0
   268   0033C1  00                 	db	0
   269   0033C2  62                 	db	low _EUSART_Tx_InterruptHandler
   270   0033C3  36                 	db	high _EUSART_Tx_InterruptHandler
   271   0033C4  00                 	db	0
   272   0033C5  00                 	db	0
   273   0033C6  00                 	db	0
   274   0033C7  00                 	db	0
   275   0033C8  00                 	db	0
   276   0033C9  00                 	db	0
   277   000000                     _CCPR2H	set	4028
   278   000000                     _CCPR2L	set	4027
   279   000000                     _SPBRGH	set	4016
   280   000000                     _SPBRG	set	4015
   281   000000                     _TXREG	set	4013
   282   000000                     _TXSTAbits	set	4012
   283   000000                     _RCREG	set	4014
   284   000000                     _RCSTAbits	set	4011
   285   000000                     _CCPR1H	set	4031
   286   000000                     _CCPR1L	set	4030
   287   000000                     _TMR3L	set	4018
   288   000000                     _TMR3H	set	4019
   289   000000                     _T3CONbits	set	4017
   290   000000                     _TMR1L	set	4046
   291   000000                     _TMR1H	set	4047
   292   000000                     _TMR0L	set	4054
   293   000000                     _TMR0H	set	4055
   294   000000                     _INTCON2bits	set	4081
   295   000000                     _EECON2	set	4007
   296   000000                     _ADCON1bits	set	4033
   297   000000                     _ADRESL	set	4035
   298   000000                     _ADRESH	set	4036
   299   000000                     _RCONbits	set	4048
   300   000000                     _TRISD	set	3989
   301   000000                     _TRISC	set	3988
   302   000000                     _TRISB	set	3987
   303   000000                     _TRISE	set	3990
   304   000000                     _TRISCbits	set	3988
   305   000000                     _PORTBbits	set	3969
   306   000000                     _PIE1bits	set	3997
   307   000000                     _ADCON2bits	set	4032
   308   000000                     _ADCON0bits	set	4034
   309   000000                     _PORTE	set	3972
   310   000000                     _PORTD	set	3971
   311   000000                     _PORTC	set	3970
   312   000000                     _PORTB	set	3969
   313   000000                     _PORTA	set	3968
   314   000000                     _LATA	set	3977
   315   000000                     _TRISA	set	3986
   316   000000                     _IPR2bits	set	4002
   317   000000                     _PIR2bits	set	4001
   318   000000                     _PIE2bits	set	4000
   319   000000                     _EECON1bits	set	4006
   320   000000                     _EEDATA	set	4008
   321   000000                     _EEADR	set	4009
   322   000000                     _EEADRH	set	4010
   323   000000                     _IPR1bits	set	3999
   324   000000                     _PIR1bits	set	3998
   325   000000                     _T0CONbits	set	4053
   326   000000                     _INTCON3bits	set	4080
   327   000000                     _INTCONbits	set	4082
   328   000000                     _T2CONbits	set	4042
   329   000000                     _T1CONbits	set	4045
   330   000000                     _LATE	set	3981
   331   000000                     _LATD	set	3980
   332   000000                     _LATC	set	3979
   333   000000                     _LATB	set	3978
   334   000000                     _TMR2	set	4044
   335   000000                     _BAUDCONbits	set	4024
   336   000000                     _CCP1CONbits	set	4029
   337   000000                     _CCP2CONbits	set	4026
   338                           
   339                           	psect	smallconst
   340   001000                     __psmallconst:
   341                           	callstack 0
   342   001000  00                 	db	0
   343   001001                     STR_4:
   344   001001  41                 	db	65	;'A'
   345   001002  48                 	db	72	;'H'
   346   001003  4D                 	db	77	;'M'
   347   001004  45                 	db	69	;'E'
   348   001005  44                 	db	68	;'D'
   349   001006  0D                 	db	13
   350   001007  00                 	db	0
   351   001008                     STR_1:
   352   001008  25                 	db	37
   353   001009  69                 	db	105	;'i'
   354   00100A  00                 	db	0
   355   00100B  00                 	db	0	; dummy byte at the end
   356   000000                     
   357                           ; #config settings
   358                           
   359                           	psect	cinit
   360   002D44                     __pcinit:
   361                           	callstack 0
   362   002D44                     start_initialization:
   363                           	callstack 0
   364   002D44                     __initialization:
   365                           	callstack 0
   366                           
   367                           ; Initialize objects allocated to BANK1 (46 bytes)
   368                           ; load TBLPTR registers with __pidataBANK1
   369   002D44  0E9C               	movlw	low __pidataBANK1
   370   002D46  6EF6               	movwf	tblptrl,c
   371   002D48  0E33               	movlw	high __pidataBANK1
   372   002D4A  6EF7               	movwf	tblptrh,c
   373   002D4C  0E00               	movlw	low (__pidataBANK1 shr (0+16))
   374   002D4E  6EF8               	movwf	tblptru,c
   375   002D50  EE01  F000         	lfsr	0,__pdataBANK1
   376   002D54  EE10 F02E          	lfsr	1,46
   377   002D58                     copy_data0:
   378   002D58  0009               	tblrd		*+
   379   002D5A  CFF5 FFEE          	movff	tablat,postinc0
   380   002D5E  50E5               	movf	postdec1,w,c
   381   002D60  50E1               	movf	fsr1l,w,c
   382   002D62  E1FA               	bnz	copy_data0
   383                           
   384                           ; Initialize objects allocated to BANK0 (50 bytes)
   385                           ; load TBLPTR registers with __pidataBANK0
   386   002D64  0E6A               	movlw	low __pidataBANK0
   387   002D66  6EF6               	movwf	tblptrl,c
   388   002D68  0E33               	movlw	high __pidataBANK0
   389   002D6A  6EF7               	movwf	tblptrh,c
   390   002D6C  0E00               	movlw	low (__pidataBANK0 shr (0+16))
   391   002D6E  6EF8               	movwf	tblptru,c
   392   002D70  EE00  F0BC         	lfsr	0,__pdataBANK0
   393   002D74  EE10 F032          	lfsr	1,50
   394   002D78                     copy_data1:
   395   002D78  0009               	tblrd		*+
   396   002D7A  CFF5 FFEE          	movff	tablat,postinc0
   397   002D7E  50E5               	movf	postdec1,w,c
   398   002D80  50E1               	movf	fsr1l,w,c
   399   002D82  E1FA               	bnz	copy_data1
   400                           
   401                           ; Initialize objects allocated to COMRAM (6 bytes)
   402                           ; load TBLPTR registers with __pidataCOMRAM
   403   002D84  0EC0               	movlw	low __pidataCOMRAM
   404   002D86  6EF6               	movwf	tblptrl,c
   405   002D88  0E36               	movlw	high __pidataCOMRAM
   406   002D8A  6EF7               	movwf	tblptrh,c
   407   002D8C  0E00               	movlw	low (__pidataCOMRAM shr (0+16))
   408   002D8E  6EF8               	movwf	tblptru,c
   409   002D90  EE00  F054         	lfsr	0,__pdataCOMRAM
   410   002D94  EE10 F006          	lfsr	1,6
   411   002D98                     copy_data2:
   412   002D98  0009               	tblrd		*+
   413   002D9A  CFF5 FFEE          	movff	tablat,postinc0
   414   002D9E  50E5               	movf	postdec1,w,c
   415   002DA0  50E1               	movf	fsr1l,w,c
   416   002DA2  E1FA               	bnz	copy_data2
   417                           
   418                           ; Clear objects allocated to BANK1 (11 bytes)
   419   002DA4  EE01  F052         	lfsr	0,__pbssBANK1
   420   002DA8  0E0B               	movlw	11
   421   002DAA                     clear_0:
   422   002DAA  6AEE               	clrf	postinc0,c
   423   002DAC  06E8               	decf	wreg,f,c
   424   002DAE  E1FD               	bnz	clear_0
   425                           
   426                           ; Clear objects allocated to BANK0 (60 bytes)
   427   002DB0  EE00  F080         	lfsr	0,__pbssBANK0
   428   002DB4  0E3C               	movlw	60
   429   002DB6                     clear_1:
   430   002DB6  6AEE               	clrf	postinc0,c
   431   002DB8  06E8               	decf	wreg,f,c
   432   002DBA  E1FD               	bnz	clear_1
   433                           
   434                           ; Clear objects allocated to COMRAM (30 bytes)
   435   002DBC  EE00  F036         	lfsr	0,__pbssCOMRAM
   436   002DC0  0E1E               	movlw	30
   437   002DC2                     clear_2:
   438   002DC2  6AEE               	clrf	postinc0,c
   439   002DC4  06E8               	decf	wreg,f,c
   440   002DC6  E1FD               	bnz	clear_2
   441   002DC8                     end_of_initialization:
   442                           	callstack 0
   443   002DC8                     __end_of__initialization:
   444                           	callstack 0
   445   002DC8  905A               	bcf	int$flags,0,c	;clear compiler interrupt flag (level 1)
   446   002DCA  925A               	bcf	int$flags,1,c	;clear compiler interrupt flag (level 2)
   447   002DCC  0100               	movlb	0
   448   002DCE  EF19  F01B         	goto	_main	;jump to C main() function
   449                           
   450                           	psect	bssCOMRAM
   451   000036                     __pbssCOMRAM:
   452                           	callstack 0
   453   000036                     _EUSART_Tx_InterruptHandler@hal_usart$F3917:
   454                           	callstack 0
   455   000036                     	ds	2
   456   000038                     _CCP1_InterruptHandler:
   457                           	callstack 0
   458   000038                     	ds	2
   459   00003A                     _timer3_preload:
   460                           	callstack 0
   461   00003A                     	ds	2
   462   00003C                     _TMR3_InterruptHandler:
   463                           	callstack 0
   464   00003C                     	ds	2
   465   00003E                     _timer1_preload:
   466                           	callstack 0
   467   00003E                     	ds	2
   468   000040                     _timer0_preload:
   469                           	callstack 0
   470   000040                     	ds	2
   471   000042                     _TMR0_InterruptHandler:
   472                           	callstack 0
   473   000042                     	ds	2
   474   000044                     _ADC_InterruptHandler:
   475                           	callstack 0
   476   000044                     	ds	2
   477   000046                     _timer2_preload:
   478                           	callstack 0
   479   000046                     	ds	1
   480   000047                     _rec_uart_data:
   481                           	callstack 0
   482   000047                     	ds	1
   483   000048                     _CCP1_Interrupt_flag_2:
   484                           	callstack 0
   485   000048                     	ds	1
   486   000049                     _CCP1_Interrupt_flag:
   487                           	callstack 0
   488   000049                     	ds	1
   489   00004A                     _timer0_count:
   490                           	callstack 0
   491   00004A                     	ds	1
   492   00004B                     led_turn_toggle@F3063:
   493                           	callstack 0
   494   00004B                     	ds	1
   495   00004C                     led_turn_off@F3058:
   496                           	callstack 0
   497   00004C                     	ds	1
   498   00004D                     led_turn_on@F3053:
   499                           	callstack 0
   500   00004D                     	ds	1
   501   00004E                     led_initialize@F3048:
   502                           	callstack 0
   503   00004E                     	ds	1
   504   00004F                     _ccp1_capature_value:
   505                           	callstack 0
   506   00004F                     	ds	4
   507   000053                     _timer1_count:
   508                           	callstack 0
   509   000053                     	ds	1
   510                           
   511                           	psect	dataCOMRAM
   512   000054                     __pdataCOMRAM:
   513                           	callstack 0
   514   000054                     _led2:
   515                           	callstack 0
   516   000054                     	ds	1
   517   000055                     _RB7_Flag:
   518                           	callstack 0
   519   000055                     	ds	1
   520   000056                     _RB6_Flag:
   521                           	callstack 0
   522   000056                     	ds	1
   523   000057                     _RB5_Flag:
   524                           	callstack 0
   525   000057                     	ds	1
   526   000058                     _RB4_Flag:
   527                           	callstack 0
   528   000058                     	ds	1
   529   000059                     _led1:
   530                           	callstack 0
   531   000059                     	ds	1
   532                           
   533                           	psect	bssBANK0
   534   000080                     __pbssBANK0:
   535                           	callstack 0
   536   000080                     	ds	6
   537   000086                     _freqenct_measured:
   538                           	callstack 0
   539   000086                     	ds	4
   540   00008A                     _Total_period_microSecond:
   541                           	callstack 0
   542   00008A                     	ds	4
   543   00008E                     _timer3_overflow:
   544                           	callstack 0
   545   00008E                     	ds	4
   546   000092                     	ds	4
   547   000096                     CCP2_Capture_Mode_Read_Value@F3086:
   548                           	callstack 0
   549   000096                     	ds	2
   550   000098                     _CCP2_InterruptHandler:
   551                           	callstack 0
   552   000098                     	ds	2
   553   00009A                     _EUSART_OverrunErrorHandler:
   554                           	callstack 0
   555   00009A                     	ds	2
   556   00009C                     _EUSART_FramingErrorHandler:
   557                           	callstack 0
   558   00009C                     	ds	2
   559   00009E                     _EUSART_Rx_InterruptHandler:
   560                           	callstack 0
   561   00009E                     	ds	2
   562   0000A0                     CCP1_Capture_Mode_Read_Value@F3086:
   563                           	callstack 0
   564   0000A0                     	ds	2
   565   0000A2                     _TMR2_InterruptHandler:
   566                           	callstack 0
   567   0000A2                     	ds	2
   568   0000A4                     _TMR1_InterruptHandler:
   569                           	callstack 0
   570   0000A4                     	ds	2
   571   0000A6                     _RB7_InterruptHandler_LOW:
   572                           	callstack 0
   573   0000A6                     	ds	2
   574   0000A8                     _RB7_InterruptHandler_HIGH:
   575                           	callstack 0
   576   0000A8                     	ds	2
   577   0000AA                     _RB6_InterruptHandler_LOW:
   578                           	callstack 0
   579   0000AA                     	ds	2
   580   0000AC                     _RB6_InterruptHandler_HIGH:
   581                           	callstack 0
   582   0000AC                     	ds	2
   583   0000AE                     _RB5_InterruptHandler_LOW:
   584                           	callstack 0
   585   0000AE                     	ds	2
   586   0000B0                     _RB5_InterruptHandler_HIGH:
   587                           	callstack 0
   588   0000B0                     	ds	2
   589   0000B2                     _RB4_InterruptHandler_LOW:
   590                           	callstack 0
   591   0000B2                     	ds	2
   592   0000B4                     _RB4_InterruptHandler_HIGH:
   593                           	callstack 0
   594   0000B4                     	ds	2
   595   0000B6                     _INT2_InterruptHandler:
   596                           	callstack 0
   597   0000B6                     	ds	2
   598   0000B8                     _INT1_InterruptHandler:
   599                           	callstack 0
   600   0000B8                     	ds	2
   601   0000BA                     _INT0_InterruptHandler:
   602                           	callstack 0
   603   0000BA                     	ds	2
   604                           
   605                           	psect	dataBANK0
   606   0000BC                     __pdataBANK0:
   607                           	callstack 0
   608   0000BC                     _lat_registers:
   609                           	callstack 0
   610   0000BC                     	ds	10
   611   0000C6                     _tris_registers:
   612                           	callstack 0
   613   0000C6                     	ds	10
   614   0000D0                     _ccp1_obj:
   615                           	callstack 0
   616   0000D0                     	ds	7
   617   0000D7                     _lcd_1:
   618                           	callstack 0
   619   0000D7                     	ds	6
   620   0000DD                     _timer2:
   621                           	callstack 0
   622   0000DD                     	ds	5
   623   0000E2                     _timer3:
   624                           	callstack 0
   625   0000E2                     	ds	6
   626   0000E8                     _timer1:
   627                           	callstack 0
   628   0000E8                     	ds	6
   629                           
   630                           	psect	bssBANK1
   631   000152                     __pbssBANK1:
   632                           	callstack 0
   633   000152                     	ds	11
   634                           
   635                           	psect	dataBANK1
   636   000100                     __pdataBANK1:
   637                           	callstack 0
   638   000100                     _port_registers:
   639                           	callstack 0
   640   000100                     	ds	10
   641   00010A                     _lcd_2:
   642                           	callstack 0
   643   00010A                     	ds	10
   644   000114                     _timer0:
   645                           	callstack 0
   646   000114                     	ds	7
   647   00011B                     _usart_obj:
   648                           	callstack 0
   649   00011B                     	ds	19
   650                           
   651                           	psect	cstackBANK1
   652   00012E                     __pcstackBANK1:
   653                           	callstack 0
   654   00012E                     ___fldiv@rem:
   655                           	callstack 0
   656                           
   657                           ; 4 bytes @ 0x0
   658   00012E                     	ds	4
   659   000132                     ___fldiv@sign:
   660                           	callstack 0
   661                           
   662                           ; 1 bytes @ 0x4
   663   000132                     	ds	1
   664   000133                     ___fldiv@new_exp:
   665                           	callstack 0
   666                           
   667                           ; 2 bytes @ 0x5
   668   000133                     	ds	2
   669   000135                     ___fldiv@grs:
   670                           	callstack 0
   671                           
   672                           ; 4 bytes @ 0x7
   673   000135                     	ds	4
   674   000139                     ___fldiv@bexp:
   675                           	callstack 0
   676                           
   677                           ; 1 bytes @ 0xB
   678   000139                     	ds	1
   679   00013A                     ___fldiv@aexp:
   680                           	callstack 0
   681                           
   682                           ; 1 bytes @ 0xC
   683   00013A                     	ds	1
   684   00013B                     ?___fladd:
   685                           	callstack 0
   686   00013B                     ___fladd@b:
   687                           	callstack 0
   688                           
   689                           ; 4 bytes @ 0xD
   690   00013B                     	ds	4
   691   00013F                     ___fladd@a:
   692                           	callstack 0
   693                           
   694                           ; 4 bytes @ 0x11
   695   00013F                     	ds	4
   696   000143                     ___fladd@signs:
   697                           	callstack 0
   698                           
   699                           ; 1 bytes @ 0x15
   700   000143                     	ds	1
   701   000144                     ___fladd@aexp:
   702                           	callstack 0
   703                           
   704                           ; 1 bytes @ 0x16
   705   000144                     	ds	1
   706   000145                     ___fladd@bexp:
   707                           	callstack 0
   708                           
   709                           ; 1 bytes @ 0x17
   710   000145                     	ds	1
   711   000146                     ___fladd@grs:
   712                           	callstack 0
   713                           
   714                           ; 1 bytes @ 0x18
   715   000146                     	ds	1
   716   000147                     EUSART_Baud_Rate_Calculation@Baud_Rate_Temp:
   717                           	callstack 0
   718                           
   719                           ; 4 bytes @ 0x19
   720   000147                     	ds	4
   721   00014B                     _EUSART_Baud_Rate_Calculation$5227:
   722                           	callstack 0
   723                           
   724                           ; 4 bytes @ 0x1D
   725   00014B                     	ds	4
   726   00014F                     EUSART_ASYNC_Init@_eusart:
   727                           	callstack 0
   728                           
   729                           ; 2 bytes @ 0x21
   730   00014F                     	ds	2
   731   000151                     EUSART_ASYNC_Init@ret:
   732                           	callstack 0
   733                           
   734                           ; 1 bytes @ 0x23
   735   000151                     	ds	1
   736                           
   737                           	psect	cstackBANK0
   738   0000EE                     __pcstackBANK0:
   739                           	callstack 0
   740   0000EE                     ?___fldiv:
   741                           	callstack 0
   742   0000EE                     led_initialize@ret:
   743                           	callstack 0
   744   0000EE                     ___fldiv@b:
   745                           	callstack 0
   746                           
   747                           ; 4 bytes @ 0x0
   748   0000EE                     	ds	1
   749   0000EF                     led_initialize@pin_obj:
   750                           	callstack 0
   751                           
   752                           ; 1 bytes @ 0x1
   753   0000EF                     	ds	3
   754   0000F2                     ___fldiv@a:
   755                           	callstack 0
   756                           
   757                           ; 4 bytes @ 0x4
   758   0000F2                     	ds	4
   759   0000F6                     ??___fldiv:
   760                           
   761                           ; 1 bytes @ 0x8
   762   0000F6                     	ds	4
   763   0000FA                     ??___fladd:
   764                           
   765                           ; 1 bytes @ 0xC
   766   0000FA                     	ds	4
   767   0000FE                     EUSART_Baud_Rate_Calculation@_eusart:
   768                           	callstack 0
   769                           
   770                           ; 2 bytes @ 0x10
   771   0000FE                     	ds	2
   772                           
   773                           	psect	cstackCOMRAM
   774   000001                     __pcstackCOMRAM:
   775                           	callstack 0
   776   000001                     i2RB4_ISR@RB4_Source:
   777                           	callstack 0
   778   000001                     i2RB5_ISR@RB5_Source:
   779                           	callstack 0
   780   000001                     i2RB6_ISR@RB6_Source:
   781                           	callstack 0
   782   000001                     i2RB7_ISR@RB7_Source:
   783                           	callstack 0
   784   000001                     i2gpio_pin_toggle_logic@_pin_config:
   785                           	callstack 0
   786   000001                     i2Timer1_Write_value@_timer:
   787                           	callstack 0
   788   000001                     i2Timer1_Read_value@_timer:
   789                           	callstack 0
   790   000001                     i2Timer3_Write_value@_timer:
   791                           	callstack 0
   792   000001                     i2CCP1_Capture_Mode_Read_Value@_capture_value:
   793                           	callstack 0
   794                           
   795                           ; 2 bytes @ 0x0
   796   000001                     	ds	2
   797   000003                     ??i2_gpio_pin_toggle_logic:
   798   000003                     i2Timer1_Write_value@_value:
   799                           	callstack 0
   800   000003                     i2Timer1_Read_value@_value:
   801                           	callstack 0
   802   000003                     i2Timer3_Write_value@_value:
   803                           	callstack 0
   804   000003                     i2CCP1_Capture_Mode_Read_Value@compare_temp_value:
   805                           	callstack 0
   806                           
   807                           ; 2 bytes @ 0x2
   808   000003                     	ds	2
   809   000005                     ??i2_Timer1_Read_value:
   810   000005                     
   811                           ; 1 bytes @ 0x4
   812   000005                     	ds	2
   813   000007                     i2Timer1_Read_value@tmr1l:
   814                           	callstack 0
   815                           
   816                           ; 1 bytes @ 0x6
   817   000007                     	ds	1
   818   000008                     i2Timer1_Read_value@tmr1h:
   819                           	callstack 0
   820   000008                     i2led_turn_toggle@led:
   821                           	callstack 0
   822                           
   823                           ; 2 bytes @ 0x7
   824   000008                     	ds	1
   825   000009                     
   826                           ; 1 bytes @ 0x8
   827   000009                     	ds	1
   828   00000A                     ??i2_led_turn_toggle:
   829                           
   830                           ; 1 bytes @ 0x9
   831   00000A                     	ds	1
   832   00000B                     i2led_turn_toggle@pin_obj:
   833                           	callstack 0
   834                           
   835                           ; 1 bytes @ 0xA
   836   00000B                     	ds	1
   837   00000C                     ??_InterruptManagerHigh:
   838   00000C                     
   839                           ; 1 bytes @ 0xB
   840   00000C                     	ds	6
   841   000012                     RB4_ISR@RB4_Source:
   842                           	callstack 0
   843   000012                     RB5_ISR@RB5_Source:
   844                           	callstack 0
   845   000012                     RB6_ISR@RB6_Source:
   846                           	callstack 0
   847   000012                     RB7_ISR@RB7_Source:
   848                           	callstack 0
   849   000012                     gpio_pin_toggle_logic@_pin_config:
   850                           	callstack 0
   851   000012                     Timer1_Write_value@_timer:
   852                           	callstack 0
   853   000012                     Timer1_Read_value@_timer:
   854                           	callstack 0
   855   000012                     Timer3_Write_value@_timer:
   856                           	callstack 0
   857   000012                     CCP1_Capture_Mode_Read_Value@_capture_value:
   858                           	callstack 0
   859                           
   860                           ; 2 bytes @ 0x11
   861   000012                     	ds	2
   862   000014                     ??_gpio_pin_toggle_logic:
   863   000014                     Timer1_Write_value@_value:
   864                           	callstack 0
   865   000014                     Timer1_Read_value@_value:
   866                           	callstack 0
   867   000014                     Timer3_Write_value@_value:
   868                           	callstack 0
   869   000014                     CCP1_Capture_Mode_Read_Value@compare_temp_value:
   870                           	callstack 0
   871                           
   872                           ; 2 bytes @ 0x13
   873   000014                     	ds	2
   874   000016                     ??_Timer1_Read_value:
   875                           
   876                           ; 1 bytes @ 0x15
   877   000016                     	ds	2
   878   000018                     Timer1_Read_value@tmr1l:
   879                           	callstack 0
   880                           
   881                           ; 1 bytes @ 0x17
   882   000018                     	ds	1
   883   000019                     Timer1_Read_value@tmr1h:
   884                           	callstack 0
   885   000019                     led_turn_toggle@led:
   886                           	callstack 0
   887                           
   888                           ; 2 bytes @ 0x18
   889   000019                     	ds	1
   890   00001A                     
   891                           ; 1 bytes @ 0x19
   892   00001A                     	ds	1
   893   00001B                     ??_led_turn_toggle:
   894                           
   895                           ; 1 bytes @ 0x1A
   896   00001B                     	ds	1
   897   00001C                     led_turn_toggle@pin_obj:
   898                           	callstack 0
   899                           
   900                           ; 1 bytes @ 0x1B
   901   00001C                     	ds	1
   902   00001D                     ??_InterruptManagerLow:
   903                           
   904                           ; 1 bytes @ 0x1C
   905   00001D                     	ds	9
   906   000026                     ?___fltol:
   907                           	callstack 0
   908   000026                     ?___xxtofl:
   909                           	callstack 0
   910   000026                     EUSART_ASYNC_WriteByteBlocking@_data:
   911                           	callstack 0
   912   000026                     gpio_pin_direction_intialize@_pin_config:
   913                           	callstack 0
   914   000026                     gpio_pin_write_logic@_pin_config:
   915                           	callstack 0
   916   000026                     EUSART_ASYNC_TX_Init@_eusart:
   917                           	callstack 0
   918   000026                     EUSART_ASYNC_RX_Init@_eusart:
   919                           	callstack 0
   920   000026                     ___fltol@f1:
   921                           	callstack 0
   922   000026                     ___xxtofl@val:
   923                           	callstack 0
   924                           
   925                           ; 4 bytes @ 0x25
   926   000026                     	ds	1
   927   000027                     EUSART_ASYNC_WriteStringBlocking@_data:
   928                           	callstack 0
   929                           
   930                           ; 2 bytes @ 0x26
   931   000027                     	ds	1
   932   000028                     ??_gpio_pin_direction_intialize:
   933   000028                     gpio_pin_write_logic@logic:
   934                           	callstack 0
   935                           
   936                           ; 1 bytes @ 0x27
   937   000028                     	ds	1
   938   000029                     ??_gpio_pin_write_logic:
   939   000029                     EUSART_ASYNC_WriteStringBlocking@ret:
   940                           	callstack 0
   941                           
   942                           ; 1 bytes @ 0x28
   943   000029                     	ds	1
   944   00002A                     ??___fltol:
   945   00002A                     ??___xxtofl:
   946                           
   947                           ; 1 bytes @ 0x29
   948   00002A                     	ds	4
   949   00002E                     gpio_pin_direction_intialize@ret:
   950                           	callstack 0
   951   00002E                     ___fltol@sign1:
   952                           	callstack 0
   953   00002E                     ___xxtofl@sign:
   954                           	callstack 0
   955                           
   956                           ; 1 bytes @ 0x2D
   957   00002E                     	ds	1
   958   00002F                     gpio_pin_write_logic@ret:
   959                           	callstack 0
   960   00002F                     ___fltol@exp1:
   961                           	callstack 0
   962   00002F                     ___xxtofl@exp:
   963                           	callstack 0
   964                           
   965                           ; 1 bytes @ 0x2E
   966   00002F                     	ds	1
   967   000030                     gpio_pin_intialize@_pin_config:
   968                           	callstack 0
   969   000030                     ___xxtofl@arg:
   970                           	callstack 0
   971                           
   972                           ; 4 bytes @ 0x2F
   973   000030                     	ds	2
   974   000032                     gpio_pin_intialize@ret:
   975                           	callstack 0
   976                           
   977                           ; 1 bytes @ 0x31
   978   000032                     	ds	1
   979   000033                     led_initialize@led:
   980                           	callstack 0
   981                           
   982                           ; 2 bytes @ 0x32
   983   000033                     	ds	1
   984   000034                     ??_EUSART_Baud_Rate_Calculation:
   985                           
   986                           ; 1 bytes @ 0x33
   987   000034                     	ds	1
   988   000035                     ??_led_initialize:
   989                           
   990                           ; 1 bytes @ 0x34
   991   000035                     	ds	1
   992   000036                     
   993                           ; 1 bytes @ 0x35
   994 ;;
   995 ;;Main: autosize = 0, tempsize = 0, incstack = 0, save=0
   996 ;;
   997 ;; *************** function _main *****************
   998 ;; Defined at:
   999 ;;		line 94 in file "application.c"
  1000 ;; Parameters:    Size  Location     Type
  1001 ;;		None
  1002 ;; Auto vars:     Size  Location     Type
  1003 ;;  ret             1    0        unsigned char 
  1004 ;; Return value:  Size  Location     Type
  1005 ;;                  2  1121[None  ] int 
  1006 ;; Registers used:
  1007 ;;		wreg, fsr2l, fsr2h, status,2, status,0, tblptrl, tblptrh, tblptru, prodl, prodh, cstack
  1008 ;; Tracked objects:
  1009 ;;		On entry : 0/0
  1010 ;;		On exit  : 0/0
  1011 ;;		Unchanged: 0/0
  1012 ;; Data sizes:     COMRAM   BANK0   BANK1   BANK2   BANK3   BANK4   BANK5   BANK6   BANK7   BANK8   BANK9  BANK10  BANK1
      +1  BANK12  BANK13  BANK14  BANK15
  1013 ;;      Params:         0       0       0       0       0       0       0       0       0       0       0       0       
      +0       0       0       0       0
  1014 ;;      Locals:         0       0       0       0       0       0       0       0       0       0       0       0       
      +0       0       0       0       0
  1015 ;;      Temps:          0       0       0       0       0       0       0       0       0       0       0       0       
      +0       0       0       0       0
  1016 ;;      Totals:         0       0       0       0       0       0       0       0       0       0       0       0       
      +0       0       0       0       0
  1017 ;;Total ram usage:        0 bytes
  1018 ;; Hardware stack levels required when called: 16
  1019 ;; This function calls:
  1020 ;;		_EUSART_ASYNC_WriteStringBlocking
  1021 ;;		_app_intialize
  1022 ;; This function is called by:
  1023 ;;		Startup code after reset
  1024 ;; This function uses a non-reentrant model
  1025 ;;
  1026                           
  1027                           	psect	text0
  1028   003632                     __ptext0:
  1029                           	callstack 0
  1030   003632                     _main:
  1031                           	callstack 15
  1032   003632                     
  1033                           ;application.c: 96:     app_intialize();
  1034   003632  EC96  F01A         	call	_app_intialize	;wreg free
  1035   003636                     l8793:
  1036   003636  0E01               	movlw	low STR_4
  1037   003638  6E27               	movwf	EUSART_ASYNC_WriteStringBlocking@_data^0,c
  1038   00363A  0E10               	movlw	high STR_4
  1039   00363C  6E28               	movwf	(EUSART_ASYNC_WriteStringBlocking@_data+1)^0,c
  1040   00363E  EC61  F018         	call	_EUSART_ASYNC_WriteStringBlocking	;wreg free
  1041   003642  EF1B  F01B         	goto	l8793
  1042   003646  EF35  F000         	goto	start
  1043   00364A                     __end_of_main:
  1044                           	callstack 0
  1045                           
  1046 ;; *************** function _app_intialize *****************
  1047 ;; Defined at:
  1048 ;;		line 116 in file "application.c"
  1049 ;; Parameters:    Size  Location     Type
  1050 ;;		None
  1051 ;; Auto vars:     Size  Location     Type
  1052 ;;  ret             1    0        unsigned char 
  1053 ;; Return value:  Size  Location     Type
  1054 ;;                  1    wreg      void 
  1055 ;; Registers used:
  1056 ;;		wreg, fsr2l, fsr2h, status,2, status,0, prodl, prodh, cstack
  1057 ;; Tracked objects:
  1058 ;;		On entry : 0/0
  1059 ;;		On exit  : 0/0
  1060 ;;		Unchanged: 0/0
  1061 ;; Data sizes:     COMRAM   BANK0   BANK1   BANK2   BANK3   BANK4   BANK5   BANK6   BANK7   BANK8   BANK9  BANK10  BANK1
      +1  BANK12  BANK13  BANK14  BANK15
  1062 ;;      Params:         0       0       0       0       0       0       0       0       0       0       0       0       
      +0       0       0       0       0
  1063 ;;      Locals:         0       0       0       0       0       0       0       0       0       0       0       0       
      +0       0       0       0       0
  1064 ;;      Temps:          0       0       0       0       0       0       0       0       0       0       0       0       
      +0       0       0       0       0
  1065 ;;      Totals:         0       0       0       0       0       0       0       0       0       0       0       0       
      +0       0       0       0       0
  1066 ;;Total ram usage:        0 bytes
  1067 ;; Hardware stack levels used: 1
  1068 ;; Hardware stack levels required when called: 15
  1069 ;; This function calls:
  1070 ;;		_EUSART_ASYNC_Init
  1071 ;;		_led_initialize
  1072 ;; This function is called by:
  1073 ;;		_main
  1074 ;; This function uses a non-reentrant model
  1075 ;;
  1076                           
  1077                           	psect	text1
  1078   00352C                     __ptext1:
  1079                           	callstack 0
  1080   00352C                     _app_intialize:
  1081                           	callstack 15
  1082   00352C  0E59               	movlw	low _led1
  1083   00352E  6E33               	movwf	led_initialize@led^0,c
  1084   003530  0E00               	movlw	high _led1
  1085   003532  6E34               	movwf	(led_initialize@led+1)^0,c
  1086   003534  ECE9  F016         	call	_led_initialize	;wreg free
  1087   003538  0E1B               	movlw	low _usart_obj
  1088   00353A  0101               	movlb	1	; () banked
  1089   00353C  6F4F               	movwf	EUSART_ASYNC_Init@_eusart& (0+255),b
  1090   00353E  0E01               	movlw	high _usart_obj
  1091   003540  6F50               	movwf	(EUSART_ASYNC_Init@_eusart+1)& (0+255),b
  1092   003542  EC8C  F018         	call	_EUSART_ASYNC_Init	;wreg free
  1093   003546  0012               	return		;funcret
  1094   003548                     __end_of_app_intialize:
  1095                           	callstack 0
  1096                           
  1097 ;; *************** function _led_initialize *****************
  1098 ;; Defined at:
  1099 ;;		line 17 in file "ECU_Layer/LED/ecu_led.c"
  1100 ;; Parameters:    Size  Location     Type
  1101 ;;  led             2   50[COMRAM] PTR const struct .
  1102 ;;		 -> led1(1), 
  1103 ;; Auto vars:     Size  Location     Type
  1104 ;;  pin_obj         1    1[BANK0 ] struct .
  1105 ;;  ret             1    0[BANK0 ] unsigned char 
  1106 ;; Return value:  Size  Location     Type
  1107 ;;                  1    wreg      unsigned char 
  1108 ;; Registers used:
  1109 ;;		wreg, fsr2l, fsr2h, status,2, status,0, prodl, prodh, cstack
  1110 ;; Tracked objects:
  1111 ;;		On entry : 0/0
  1112 ;;		On exit  : 0/0
  1113 ;;		Unchanged: 0/0
  1114 ;; Data sizes:     COMRAM   BANK0   BANK1   BANK2   BANK3   BANK4   BANK5   BANK6   BANK7   BANK8   BANK9  BANK10  BANK1
      +1  BANK12  BANK13  BANK14  BANK15
  1115 ;;      Params:         2       0       0       0       0       0       0       0       0       0       0       0       
      +0       0       0       0       0
  1116 ;;      Locals:         0       2       0       0       0       0       0       0       0       0       0       0       
      +0       0       0       0       0
  1117 ;;      Temps:          1       0       0       0       0       0       0       0       0       0       0       0       
      +0       0       0       0       0
  1118 ;;      Totals:         3       2       0       0       0       0       0       0       0       0       0       0       
      +0       0       0       0       0
  1119 ;;Total ram usage:        5 bytes
  1120 ;; Hardware stack levels used: 1
  1121 ;; Hardware stack levels required when called: 14
  1122 ;; This function calls:
  1123 ;;		_gpio_pin_intialize
  1124 ;; This function is called by:
  1125 ;;		_app_intialize
  1126 ;; This function uses a non-reentrant model
  1127 ;;
  1128                           
  1129                           	psect	text2
  1130   002DD2                     __ptext2:
  1131                           	callstack 0
  1132   002DD2                     _led_initialize:
  1133                           	callstack 15
  1134   002DD2                     
  1135                           ;ECU_Layer/LED/ecu_led.c: 18:     Std_ReturnType ret = (Std_ReturnType)0x01;
  1136   002DD2  0E01               	movlw	1
  1137   002DD4  0100               	movlb	0	; () banked
  1138   002DD6  6FEE               	movwf	led_initialize@ret& (0+255),b
  1139   002DD8                     
  1140                           ; BSR set to: 0
  1141                           ;ECU_Layer/LED/ecu_led.c: 19:     if(((void*)0) == led){
  1142   002DD8  5033               	movf	led_initialize@led^0,w,c
  1143   002DDA  1034               	iorwf	(led_initialize@led+1)^0,w,c
  1144   002DDC  A4D8               	btfss	status,2,c
  1145   002DDE  EFF3  F016         	goto	u9241
  1146   002DE2  EFF5  F016         	goto	u9240
  1147   002DE6                     u9241:
  1148   002DE6  EFF9  F016         	goto	l226
  1149   002DEA                     u9240:
  1150   002DEA                     
  1151                           ; BSR set to: 0
  1152                           ;ECU_Layer/LED/ecu_led.c: 20:         ret = (Std_ReturnType)0x00;
  1153   002DEA  0E00               	movlw	0
  1154   002DEC  6FEE               	movwf	led_initialize@ret& (0+255),b
  1155                           
  1156                           ;ECU_Layer/LED/ecu_led.c: 21:     }
  1157   002DEE  EF27  F017         	goto	l8329
  1158   002DF2                     l226:
  1159                           
  1160                           ; BSR set to: 0
  1161                           ;ECU_Layer/LED/ecu_led.c: 23:     {;ECU_Layer/LED/ecu_led.c: 24:         pin_config_t pi
      +                          n_obj={.port = led->port_name, .pin = led->pin, .direction = GPIO_OUTPUT, .logic = led->
      +                          led_status};
  1162   002DF2  C04E  F0EF         	movff	led_initialize@F3048,led_initialize@pin_obj
  1163   002DF6                     
  1164                           ; BSR set to: 0
  1165   002DF6  C033  FFD9         	movff	led_initialize@led,fsr2l
  1166   002DFA  C034  FFDA         	movff	led_initialize@led+1,fsr2h
  1167   002DFE  50DF               	movf	223,w,c
  1168   002E00  0B0F               	andlw	15
  1169   002E02  6E35               	movwf	??_led_initialize^0,c
  1170   002E04  51EF               	movf	led_initialize@pin_obj& (0+255),w,b
  1171   002E06  1835               	xorwf	??_led_initialize^0,w,c
  1172   002E08  0BF8               	andlw	-8
  1173   002E0A  1835               	xorwf	??_led_initialize^0,w,c
  1174   002E0C  6FEF               	movwf	led_initialize@pin_obj& (0+255),b
  1175   002E0E  C033  FFD9         	movff	led_initialize@led,fsr2l
  1176   002E12  C034  FFDA         	movff	led_initialize@led+1,fsr2h
  1177   002E16  38DF               	swapf	223,w,c
  1178   002E18  0B07               	andlw	7
  1179   002E1A  6E35               	movwf	??_led_initialize^0,c
  1180   002E1C  4635               	rlncf	??_led_initialize^0,f,c
  1181   002E1E  4635               	rlncf	??_led_initialize^0,f,c
  1182   002E20  4635               	rlncf	??_led_initialize^0,f,c
  1183   002E22  51EF               	movf	led_initialize@pin_obj& (0+255),w,b
  1184   002E24  1835               	xorwf	??_led_initialize^0,w,c
  1185   002E26  0BC7               	andlw	-57
  1186   002E28  1835               	xorwf	??_led_initialize^0,w,c
  1187   002E2A  6FEF               	movwf	led_initialize@pin_obj& (0+255),b
  1188   002E2C                     
  1189                           ; BSR set to: 0
  1190   002E2C  9DEF               	bcf	led_initialize@pin_obj& (0+255),6,b
  1191   002E2E                     
  1192                           ; BSR set to: 0
  1193   002E2E  C033  FFD9         	movff	led_initialize@led,fsr2l
  1194   002E32  C034  FFDA         	movff	led_initialize@led+1,fsr2h
  1195   002E36  AEDF               	btfss	indf2,7,c
  1196   002E38  D002               	bra	u9255
  1197   002E3A  8FEF               	bsf	led_initialize@pin_obj& (0+255),7,b
  1198   002E3C  D002               	bra	u9257
  1199   002E3E                     u9255:
  1200   002E3E  0100               	movlb	0	; () banked
  1201   002E40  9FEF               	bcf	led_initialize@pin_obj& (0+255),7,b
  1202   002E42                     u9257:
  1203   002E42                     
  1204                           ; BSR set to: 0
  1205                           ;ECU_Layer/LED/ecu_led.c: 25:         gpio_pin_intialize(&pin_obj);
  1206   002E42  0EEF               	movlw	low led_initialize@pin_obj
  1207   002E44  6E30               	movwf	gpio_pin_intialize@_pin_config^0,c
  1208   002E46  0E00               	movlw	high led_initialize@pin_obj
  1209   002E48  6E31               	movwf	(gpio_pin_intialize@_pin_config+1)^0,c
  1210   002E4A  ECB5  F018         	call	_gpio_pin_intialize	;wreg free
  1211   002E4E                     l8329:
  1212                           
  1213                           ;ECU_Layer/LED/ecu_led.c: 27:     return ret;
  1214   002E4E  0100               	movlb	0	; () banked
  1215   002E50  51EE               	movf	led_initialize@ret& (0+255),w,b
  1216   002E52                     
  1217                           ; BSR set to: 0
  1218   002E52  0012               	return		;funcret
  1219   002E54                     __end_of_led_initialize:
  1220                           	callstack 0
  1221                           
  1222 ;; *************** function _gpio_pin_intialize *****************
  1223 ;; Defined at:
  1224 ;;		line 159 in file "MCAL_Layer/GPIO/hal_gpio.c"
  1225 ;; Parameters:    Size  Location     Type
  1226 ;;  _pin_config     2   47[COMRAM] PTR const struct .
  1227 ;;		 -> led_initialize@pin_obj(1), 
  1228 ;; Auto vars:     Size  Location     Type
  1229 ;;  ret             1   49[COMRAM] unsigned char 
  1230 ;; Return value:  Size  Location     Type
  1231 ;;                  1    wreg      unsigned char 
  1232 ;; Registers used:
  1233 ;;		wreg, fsr2l, fsr2h, status,2, status,0, prodl, prodh, cstack
  1234 ;; Tracked objects:
  1235 ;;		On entry : 0/0
  1236 ;;		On exit  : 0/0
  1237 ;;		Unchanged: 0/0
  1238 ;; Data sizes:     COMRAM   BANK0   BANK1   BANK2   BANK3   BANK4   BANK5   BANK6   BANK7   BANK8   BANK9  BANK10  BANK1
      +1  BANK12  BANK13  BANK14  BANK15
  1239 ;;      Params:         2       0       0       0       0       0       0       0       0       0       0       0       
      +0       0       0       0       0
  1240 ;;      Locals:         1       0       0       0       0       0       0       0       0       0       0       0       
      +0       0       0       0       0
  1241 ;;      Temps:          0       0       0       0       0       0       0       0       0       0       0       0       
      +0       0       0       0       0
  1242 ;;      Totals:         3       0       0       0       0       0       0       0       0       0       0       0       
      +0       0       0       0       0
  1243 ;;Total ram usage:        3 bytes
  1244 ;; Hardware stack levels used: 1
  1245 ;; Hardware stack levels required when called: 13
  1246 ;; This function calls:
  1247 ;;		_gpio_pin_direction_intialize
  1248 ;;		_gpio_pin_write_logic
  1249 ;; This function is called by:
  1250 ;;		_led_initialize
  1251 ;;		_seven_segement_intialize
  1252 ;;		_lcd_4bit_intialize
  1253 ;;		_lcd_8bit_intialize
  1254 ;;		_CCP1_Init
  1255 ;;		_CCP2_Init
  1256 ;; This function uses a non-reentrant model
  1257 ;;
  1258                           
  1259                           	psect	text3
  1260   00316A                     __ptext3:
  1261                           	callstack 0
  1262   00316A                     _gpio_pin_intialize:
  1263                           	callstack 15
  1264   00316A                     
  1265                           ;MCAL_Layer/GPIO/hal_gpio.c: 161:     if(((void*)0) == _pin_config)
  1266   00316A  5030               	movf	gpio_pin_intialize@_pin_config^0,w,c
  1267   00316C  1031               	iorwf	(gpio_pin_intialize@_pin_config+1)^0,w,c
  1268   00316E  A4D8               	btfss	status,2,c
  1269   003170  EFBC  F018         	goto	u9091
  1270   003174  EFBE  F018         	goto	u9090
  1271   003178                     u9091:
  1272   003178  EFC2  F018         	goto	l8171
  1273   00317C                     u9090:
  1274   00317C                     
  1275                           ;MCAL_Layer/GPIO/hal_gpio.c: 162:     {;MCAL_Layer/GPIO/hal_gpio.c: 163:         ret = (
      +                          Std_ReturnType)0x00;
  1276   00317C  0E00               	movlw	0
  1277   00317E  6E32               	movwf	gpio_pin_intialize@ret^0,c
  1278                           
  1279                           ;MCAL_Layer/GPIO/hal_gpio.c: 164:     }
  1280   003180  EFD8  F018         	goto	l8173
  1281   003184                     l8171:
  1282                           
  1283                           ;MCAL_Layer/GPIO/hal_gpio.c: 166:     {;MCAL_Layer/GPIO/hal_gpio.c: 167:         ret = g
      +                          pio_pin_direction_intialize(_pin_config);
  1284   003184  C030  F026         	movff	gpio_pin_intialize@_pin_config,gpio_pin_direction_intialize@_pin_config
  1285   003188  C031  F027         	movff	gpio_pin_intialize@_pin_config+1,gpio_pin_direction_intialize@_pin_config+1
  1286   00318C  EC99  F013         	call	_gpio_pin_direction_intialize	;wreg free
  1287   003190  6E32               	movwf	gpio_pin_intialize@ret^0,c
  1288                           
  1289                           ;MCAL_Layer/GPIO/hal_gpio.c: 168:         ret &= gpio_pin_write_logic(_pin_config ,_pin_
      +                          config->logic);
  1290   003192  C030  F026         	movff	gpio_pin_intialize@_pin_config,gpio_pin_write_logic@_pin_config
  1291   003196  C031  F027         	movff	gpio_pin_intialize@_pin_config+1,gpio_pin_write_logic@_pin_config+1
  1292   00319A  C030  FFD9         	movff	gpio_pin_intialize@_pin_config,fsr2l
  1293   00319E  C031  FFDA         	movff	gpio_pin_intialize@_pin_config+1,fsr2h
  1294   0031A2  0E00               	movlw	0
  1295   0031A4  BEDF               	btfsc	indf2,7,c
  1296   0031A6  0E01               	movlw	1
  1297   0031A8  6E28               	movwf	gpio_pin_write_logic@logic^0,c
  1298   0031AA  EC3B  F014         	call	_gpio_pin_write_logic	;wreg free
  1299   0031AE  1632               	andwf	gpio_pin_intialize@ret^0,f,c
  1300   0031B0                     l8173:
  1301                           
  1302                           ;MCAL_Layer/GPIO/hal_gpio.c: 172:     return ret;
  1303   0031B0  5032               	movf	gpio_pin_intialize@ret^0,w,c
  1304   0031B2  0012               	return		;funcret
  1305   0031B4                     __end_of_gpio_pin_intialize:
  1306                           	callstack 0
  1307                           
  1308 ;; *************** function _gpio_pin_write_logic *****************
  1309 ;; Defined at:
  1310 ;;		line 80 in file "MCAL_Layer/GPIO/hal_gpio.c"
  1311 ;; Parameters:    Size  Location     Type
  1312 ;;  _pin_config     2   37[COMRAM] PTR const struct .
  1313 ;;		 -> led_turn_off@pin_obj(1), led_turn_on@pin_obj(1), led_initialize@pin_obj(1), 
  1314 ;;  logic           1   39[COMRAM] enum E2968
  1315 ;; Auto vars:     Size  Location     Type
  1316 ;;  ret             1   46[COMRAM] unsigned char 
  1317 ;; Return value:  Size  Location     Type
  1318 ;;                  1    wreg      unsigned char 
  1319 ;; Registers used:
  1320 ;;		wreg, fsr2l, fsr2h, status,2, status,0, prodl, prodh
  1321 ;; Tracked objects:
  1322 ;;		On entry : 0/0
  1323 ;;		On exit  : 0/0
  1324 ;;		Unchanged: 0/0
  1325 ;; Data sizes:     COMRAM   BANK0   BANK1   BANK2   BANK3   BANK4   BANK5   BANK6   BANK7   BANK8   BANK9  BANK10  BANK1
      +1  BANK12  BANK13  BANK14  BANK15
  1326 ;;      Params:         3       0       0       0       0       0       0       0       0       0       0       0       
      +0       0       0       0       0
  1327 ;;      Locals:         1       0       0       0       0       0       0       0       0       0       0       0       
      +0       0       0       0       0
  1328 ;;      Temps:          6       0       0       0       0       0       0       0       0       0       0       0       
      +0       0       0       0       0
  1329 ;;      Totals:        10       0       0       0       0       0       0       0       0       0       0       0       
      +0       0       0       0       0
  1330 ;;Total ram usage:       10 bytes
  1331 ;; Hardware stack levels used: 1
  1332 ;; Hardware stack levels required when called: 12
  1333 ;; This function calls:
  1334 ;;		Nothing
  1335 ;; This function is called by:
  1336 ;;		_gpio_pin_intialize
  1337 ;;		_seven_segement_write_number
  1338 ;;		_lcd_4bit_send_command
  1339 ;;		_lcd_4bit_send_char_data
  1340 ;;		_lcd_8bit_send_command
  1341 ;;		_lcd_8bit_send_char_data
  1342 ;;		_lcd_send_4bits
  1343 ;;		_lcd_4bit_send_enable_signal
  1344 ;;		_lcd_8bit_send_enable_signal
  1345 ;;		_led_turn_on
  1346 ;;		_led_turn_off
  1347 ;; This function uses a non-reentrant model
  1348 ;;
  1349                           
  1350                           	psect	text4
  1351   002876                     __ptext4:
  1352                           	callstack 0
  1353   002876                     _gpio_pin_write_logic:
  1354                           	callstack 15
  1355   002876                     
  1356                           ;MCAL_Layer/GPIO/hal_gpio.c: 81:     Std_ReturnType ret = (Std_ReturnType)0x01;
  1357   002876  0E01               	movlw	1
  1358   002878  6E2F               	movwf	gpio_pin_write_logic@ret^0,c
  1359   00287A                     
  1360                           ;MCAL_Layer/GPIO/hal_gpio.c: 82:     if(((void*)0) == _pin_config || _pin_config->pin > 
      +                          8 -1)
  1361   00287A  5026               	movf	gpio_pin_write_logic@_pin_config^0,w,c
  1362   00287C  1027               	iorwf	(gpio_pin_write_logic@_pin_config+1)^0,w,c
  1363   00287E  B4D8               	btfsc	status,2,c
  1364   002880  EF44  F014         	goto	u8201
  1365   002884  EF46  F014         	goto	u8200
  1366   002888                     u8201:
  1367   002888  EF57  F014         	goto	l7693
  1368   00288C                     u8200:
  1369   00288C  C026  FFD9         	movff	gpio_pin_write_logic@_pin_config,fsr2l
  1370   002890  C027  FFDA         	movff	gpio_pin_write_logic@_pin_config+1,fsr2h
  1371   002894  30DF               	rrcf	223,w,c
  1372   002896  32E8               	rrcf	wreg,f,c
  1373   002898  32E8               	rrcf	wreg,f,c
  1374   00289A  0B07               	andlw	7
  1375   00289C  6E29               	movwf	??_gpio_pin_write_logic^0,c
  1376   00289E  0E07               	movlw	7
  1377   0028A0  6429               	cpfsgt	??_gpio_pin_write_logic^0,c
  1378   0028A2  EF55  F014         	goto	u8211
  1379   0028A6  EF57  F014         	goto	u8210
  1380   0028AA                     u8211:
  1381   0028AA  EFBA  F014         	goto	l7701
  1382   0028AE                     u8210:
  1383   0028AE                     l7693:
  1384                           
  1385                           ;MCAL_Layer/GPIO/hal_gpio.c: 83:     {;MCAL_Layer/GPIO/hal_gpio.c: 84:         ret = (St
      +                          d_ReturnType)0x00;
  1386   0028AE  0E00               	movlw	0
  1387   0028B0  6E2F               	movwf	gpio_pin_write_logic@ret^0,c
  1388                           
  1389                           ;MCAL_Layer/GPIO/hal_gpio.c: 85:     }
  1390   0028B2  EFCF  F014         	goto	l7703
  1391   0028B6                     l7695:
  1392                           
  1393                           ;MCAL_Layer/GPIO/hal_gpio.c: 90:             (*lat_registers[_pin_config->port] &= ~((ui
      +                          nt8)1 << _pin_config->pin));
  1394   0028B6  C026  FFD9         	movff	gpio_pin_write_logic@_pin_config,fsr2l
  1395   0028BA  C027  FFDA         	movff	gpio_pin_write_logic@_pin_config+1,fsr2h
  1396   0028BE  30DF               	rrcf	223,w,c
  1397   0028C0  32E8               	rrcf	wreg,f,c
  1398   0028C2  32E8               	rrcf	wreg,f,c
  1399   0028C4  0B07               	andlw	7
  1400   0028C6  6E29               	movwf	??_gpio_pin_write_logic^0,c
  1401   0028C8  0E01               	movlw	1
  1402   0028CA  6E2A               	movwf	(??_gpio_pin_write_logic+1)^0,c
  1403   0028CC  2A29               	incf	??_gpio_pin_write_logic^0,f,c
  1404   0028CE  EF6B  F014         	goto	u8224
  1405   0028D2                     u8225:
  1406   0028D2  90D8               	bcf	status,0,c
  1407   0028D4  362A               	rlcf	(??_gpio_pin_write_logic+1)^0,f,c
  1408   0028D6                     u8224:
  1409   0028D6  2E29               	decfsz	??_gpio_pin_write_logic^0,f,c
  1410   0028D8  EF69  F014         	goto	u8225
  1411   0028DC  502A               	movf	(??_gpio_pin_write_logic+1)^0,w,c
  1412   0028DE  0AFF               	xorlw	255
  1413   0028E0  6E2B               	movwf	(??_gpio_pin_write_logic+2)^0,c
  1414   0028E2  C026  FFD9         	movff	gpio_pin_write_logic@_pin_config,fsr2l
  1415   0028E6  C027  FFDA         	movff	gpio_pin_write_logic@_pin_config+1,fsr2h
  1416   0028EA  50DF               	movf	223,w,c
  1417   0028EC  0B07               	andlw	7
  1418   0028EE  6E2C               	movwf	(??_gpio_pin_write_logic+3)^0,c
  1419   0028F0  502C               	movf	(??_gpio_pin_write_logic+3)^0,w,c
  1420   0028F2  0D02               	mullw	2
  1421   0028F4  0EBC               	movlw	low _lat_registers
  1422   0028F6  24F3               	addwf	243,w,c
  1423   0028F8  6ED9               	movwf	fsr2l,c
  1424   0028FA  0E00               	movlw	high _lat_registers
  1425   0028FC  20F4               	addwfc	prodh,w,c
  1426   0028FE  6EDA               	movwf	fsr2h,c
  1427   002900  CFDE F02D          	movff	postinc2,??_gpio_pin_write_logic+4
  1428   002904  CFDD F02E          	movff	postdec2,??_gpio_pin_write_logic+5
  1429   002908  C02D  FFD9         	movff	??_gpio_pin_write_logic+4,fsr2l
  1430   00290C  C02E  FFDA         	movff	??_gpio_pin_write_logic+5,fsr2h
  1431   002910  502B               	movf	(??_gpio_pin_write_logic+2)^0,w,c
  1432   002912  16DF               	andwf	indf2,f,c
  1433                           
  1434                           ;MCAL_Layer/GPIO/hal_gpio.c: 91:             break;
  1435   002914  EFCF  F014         	goto	l7703
  1436   002918                     l7697:
  1437                           
  1438                           ;MCAL_Layer/GPIO/hal_gpio.c: 93:             (*lat_registers[_pin_config->port] |= ((uin
      +                          t8)1 << _pin_config->pin));
  1439   002918  C026  FFD9         	movff	gpio_pin_write_logic@_pin_config,fsr2l
  1440   00291C  C027  FFDA         	movff	gpio_pin_write_logic@_pin_config+1,fsr2h
  1441   002920  30DF               	rrcf	223,w,c
  1442   002922  32E8               	rrcf	wreg,f,c
  1443   002924  32E8               	rrcf	wreg,f,c
  1444   002926  0B07               	andlw	7
  1445   002928  6E29               	movwf	??_gpio_pin_write_logic^0,c
  1446   00292A  0E01               	movlw	1
  1447   00292C  6E2A               	movwf	(??_gpio_pin_write_logic+1)^0,c
  1448   00292E  2A29               	incf	??_gpio_pin_write_logic^0,f,c
  1449   002930  EF9C  F014         	goto	u8234
  1450   002934                     u8235:
  1451   002934  90D8               	bcf	status,0,c
  1452   002936  362A               	rlcf	(??_gpio_pin_write_logic+1)^0,f,c
  1453   002938                     u8234:
  1454   002938  2E29               	decfsz	??_gpio_pin_write_logic^0,f,c
  1455   00293A  EF9A  F014         	goto	u8235
  1456   00293E  C026  FFD9         	movff	gpio_pin_write_logic@_pin_config,fsr2l
  1457   002942  C027  FFDA         	movff	gpio_pin_write_logic@_pin_config+1,fsr2h
  1458   002946  50DF               	movf	223,w,c
  1459   002948  0B07               	andlw	7
  1460   00294A  6E2B               	movwf	(??_gpio_pin_write_logic+2)^0,c
  1461   00294C  502B               	movf	(??_gpio_pin_write_logic+2)^0,w,c
  1462   00294E  0D02               	mullw	2
  1463   002950  0EBC               	movlw	low _lat_registers
  1464   002952  24F3               	addwf	243,w,c
  1465   002954  6ED9               	movwf	fsr2l,c
  1466   002956  0E00               	movlw	high _lat_registers
  1467   002958  20F4               	addwfc	prodh,w,c
  1468   00295A  6EDA               	movwf	fsr2h,c
  1469   00295C  CFDE F02C          	movff	postinc2,??_gpio_pin_write_logic+3
  1470   002960  CFDD F02D          	movff	postdec2,??_gpio_pin_write_logic+4
  1471   002964  C02C  FFD9         	movff	??_gpio_pin_write_logic+3,fsr2l
  1472   002968  C02D  FFDA         	movff	??_gpio_pin_write_logic+4,fsr2h
  1473   00296C  502A               	movf	(??_gpio_pin_write_logic+1)^0,w,c
  1474   00296E  12DF               	iorwf	indf2,f,c
  1475                           
  1476                           ;MCAL_Layer/GPIO/hal_gpio.c: 94:             break;
  1477   002970  EFCF  F014         	goto	l7703
  1478   002974                     l7701:
  1479   002974  5028               	movf	gpio_pin_write_logic@logic^0,w,c
  1480   002976  6E29               	movwf	??_gpio_pin_write_logic^0,c
  1481   002978  6A2A               	clrf	(??_gpio_pin_write_logic+1)^0,c
  1482                           
  1483                           ; Switch on 2 bytes has been partitioned into a top level switch of size 1, and 1 sub-sw
      +                          itches
  1484                           ; Switch size 1, requested type "simple"
  1485                           ; Number of cases is 1, Range of values is 0 to 0
  1486                           ; switch strategies available:
  1487                           ; Name         Instructions Cycles
  1488                           ; simple_byte            4     3 (average)
  1489                           ;	Chosen strategy is simple_byte
  1490   00297A  502A               	movf	(??_gpio_pin_write_logic+1)^0,w,c
  1491   00297C  0A00               	xorlw	0	; case 0
  1492   00297E  B4D8               	btfsc	status,2,c
  1493   002980  EFC4  F014         	goto	l8925
  1494   002984  EF57  F014         	goto	l7693
  1495   002988                     l8925:
  1496                           
  1497                           ; Switch size 1, requested type "simple"
  1498                           ; Number of cases is 2, Range of values is 0 to 1
  1499                           ; switch strategies available:
  1500                           ; Name         Instructions Cycles
  1501                           ; simple_byte            7     4 (average)
  1502                           ;	Chosen strategy is simple_byte
  1503   002988  5029               	movf	??_gpio_pin_write_logic^0,w,c
  1504   00298A  0A00               	xorlw	0	; case 0
  1505   00298C  B4D8               	btfsc	status,2,c
  1506   00298E  EF5B  F014         	goto	l7695
  1507   002992  0A01               	xorlw	1	; case 1
  1508   002994  B4D8               	btfsc	status,2,c
  1509   002996  EF8C  F014         	goto	l7697
  1510   00299A  EF57  F014         	goto	l7693
  1511   00299E                     l7703:
  1512                           
  1513                           ;MCAL_Layer/GPIO/hal_gpio.c: 100:     return ret;
  1514   00299E  502F               	movf	gpio_pin_write_logic@ret^0,w,c
  1515   0029A0  0012               	return		;funcret
  1516   0029A2                     __end_of_gpio_pin_write_logic:
  1517                           	callstack 0
  1518                           
  1519 ;; *************** function _gpio_pin_direction_intialize *****************
  1520 ;; Defined at:
  1521 ;;		line 22 in file "MCAL_Layer/GPIO/hal_gpio.c"
  1522 ;; Parameters:    Size  Location     Type
  1523 ;;  _pin_config     2   37[COMRAM] PTR const struct .
  1524 ;;		 -> led_initialize@pin_obj(1), 
  1525 ;; Auto vars:     Size  Location     Type
  1526 ;;  ret             1   45[COMRAM] unsigned char 
  1527 ;; Return value:  Size  Location     Type
  1528 ;;                  1    wreg      unsigned char 
  1529 ;; Registers used:
  1530 ;;		wreg, fsr2l, fsr2h, status,2, status,0, prodl, prodh
  1531 ;; Tracked objects:
  1532 ;;		On entry : 0/0
  1533 ;;		On exit  : 0/0
  1534 ;;		Unchanged: 0/0
  1535 ;; Data sizes:     COMRAM   BANK0   BANK1   BANK2   BANK3   BANK4   BANK5   BANK6   BANK7   BANK8   BANK9  BANK10  BANK1
      +1  BANK12  BANK13  BANK14  BANK15
  1536 ;;      Params:         2       0       0       0       0       0       0       0       0       0       0       0       
      +0       0       0       0       0
  1537 ;;      Locals:         1       0       0       0       0       0       0       0       0       0       0       0       
      +0       0       0       0       0
  1538 ;;      Temps:          6       0       0       0       0       0       0       0       0       0       0       0       
      +0       0       0       0       0
  1539 ;;      Totals:         9       0       0       0       0       0       0       0       0       0       0       0       
      +0       0       0       0       0
  1540 ;;Total ram usage:        9 bytes
  1541 ;; Hardware stack levels used: 1
  1542 ;; Hardware stack levels required when called: 12
  1543 ;; This function calls:
  1544 ;;		Nothing
  1545 ;; This function is called by:
  1546 ;;		_gpio_pin_intialize
  1547 ;;		_button_initialize
  1548 ;;		_Interrupt_RBx_Init
  1549 ;;		_Interrupt_INTx_Pin_Init
  1550 ;;		_Interrupt_RBx_Pin_Init
  1551 ;; This function uses a non-reentrant model
  1552 ;;
  1553                           
  1554                           	psect	text5
  1555   002732                     __ptext5:
  1556                           	callstack 0
  1557   002732                     _gpio_pin_direction_intialize:
  1558                           	callstack 15
  1559   002732                     
  1560                           ;MCAL_Layer/GPIO/hal_gpio.c: 23:     Std_ReturnType ret = (Std_ReturnType)0x01;
  1561   002732  0E01               	movlw	1
  1562   002734  6E2E               	movwf	gpio_pin_direction_intialize@ret^0,c
  1563   002736                     
  1564                           ;MCAL_Layer/GPIO/hal_gpio.c: 24:     if(((void*)0) == _pin_config || _pin_config->pin > 
      +                          8 -1)
  1565   002736  5026               	movf	gpio_pin_direction_intialize@_pin_config^0,w,c
  1566   002738  1027               	iorwf	(gpio_pin_direction_intialize@_pin_config+1)^0,w,c
  1567   00273A  B4D8               	btfsc	status,2,c
  1568   00273C  EFA2  F013         	goto	u8241
  1569   002740  EFA4  F013         	goto	u8240
  1570   002744                     u8241:
  1571   002744  EFB5  F013         	goto	l7717
  1572   002748                     u8240:
  1573   002748  C026  FFD9         	movff	gpio_pin_direction_intialize@_pin_config,fsr2l
  1574   00274C  C027  FFDA         	movff	gpio_pin_direction_intialize@_pin_config+1,fsr2h
  1575   002750  30DF               	rrcf	223,w,c
  1576   002752  32E8               	rrcf	wreg,f,c
  1577   002754  32E8               	rrcf	wreg,f,c
  1578   002756  0B07               	andlw	7
  1579   002758  6E28               	movwf	??_gpio_pin_direction_intialize^0,c
  1580   00275A  0E07               	movlw	7
  1581   00275C  6428               	cpfsgt	??_gpio_pin_direction_intialize^0,c
  1582   00275E  EFB3  F013         	goto	u8251
  1583   002762  EFB5  F013         	goto	u8250
  1584   002766                     u8251:
  1585   002766  EF18  F014         	goto	l7725
  1586   00276A                     u8250:
  1587   00276A                     l7717:
  1588                           
  1589                           ;MCAL_Layer/GPIO/hal_gpio.c: 25:     {;MCAL_Layer/GPIO/hal_gpio.c: 26:         ret = (St
      +                          d_ReturnType)0x00;
  1590   00276A  0E00               	movlw	0
  1591   00276C  6E2E               	movwf	gpio_pin_direction_intialize@ret^0,c
  1592                           
  1593                           ;MCAL_Layer/GPIO/hal_gpio.c: 27:     }
  1594   00276E  EF39  F014         	goto	l7727
  1595   002772                     l7719:
  1596                           
  1597                           ;MCAL_Layer/GPIO/hal_gpio.c: 32:             (*tris_registers[_pin_config->port] &= ~((u
      +                          int8)1 << _pin_config->pin));
  1598   002772  C026  FFD9         	movff	gpio_pin_direction_intialize@_pin_config,fsr2l
  1599   002776  C027  FFDA         	movff	gpio_pin_direction_intialize@_pin_config+1,fsr2h
  1600   00277A  30DF               	rrcf	223,w,c
  1601   00277C  32E8               	rrcf	wreg,f,c
  1602   00277E  32E8               	rrcf	wreg,f,c
  1603   002780  0B07               	andlw	7
  1604   002782  6E28               	movwf	??_gpio_pin_direction_intialize^0,c
  1605   002784  0E01               	movlw	1
  1606   002786  6E29               	movwf	(??_gpio_pin_direction_intialize+1)^0,c
  1607   002788  2A28               	incf	??_gpio_pin_direction_intialize^0,f,c
  1608   00278A  EFC9  F013         	goto	u8264
  1609   00278E                     u8265:
  1610   00278E  90D8               	bcf	status,0,c
  1611   002790  3629               	rlcf	(??_gpio_pin_direction_intialize+1)^0,f,c
  1612   002792                     u8264:
  1613   002792  2E28               	decfsz	??_gpio_pin_direction_intialize^0,f,c
  1614   002794  EFC7  F013         	goto	u8265
  1615   002798  5029               	movf	(??_gpio_pin_direction_intialize+1)^0,w,c
  1616   00279A  0AFF               	xorlw	255
  1617   00279C  6E2A               	movwf	(??_gpio_pin_direction_intialize+2)^0,c
  1618   00279E  C026  FFD9         	movff	gpio_pin_direction_intialize@_pin_config,fsr2l
  1619   0027A2  C027  FFDA         	movff	gpio_pin_direction_intialize@_pin_config+1,fsr2h
  1620   0027A6  50DF               	movf	223,w,c
  1621   0027A8  0B07               	andlw	7
  1622   0027AA  6E2B               	movwf	(??_gpio_pin_direction_intialize+3)^0,c
  1623   0027AC  502B               	movf	(??_gpio_pin_direction_intialize+3)^0,w,c
  1624   0027AE  0D02               	mullw	2
  1625   0027B0  0EC6               	movlw	low _tris_registers
  1626   0027B2  24F3               	addwf	243,w,c
  1627   0027B4  6ED9               	movwf	fsr2l,c
  1628   0027B6  0E00               	movlw	high _tris_registers
  1629   0027B8  20F4               	addwfc	prodh,w,c
  1630   0027BA  6EDA               	movwf	fsr2h,c
  1631   0027BC  CFDE F02C          	movff	postinc2,??_gpio_pin_direction_intialize+4
  1632   0027C0  CFDD F02D          	movff	postdec2,??_gpio_pin_direction_intialize+5
  1633   0027C4  C02C  FFD9         	movff	??_gpio_pin_direction_intialize+4,fsr2l
  1634   0027C8  C02D  FFDA         	movff	??_gpio_pin_direction_intialize+5,fsr2h
  1635   0027CC  502A               	movf	(??_gpio_pin_direction_intialize+2)^0,w,c
  1636   0027CE  16DF               	andwf	indf2,f,c
  1637                           
  1638                           ;MCAL_Layer/GPIO/hal_gpio.c: 33:             break;
  1639   0027D0  EF39  F014         	goto	l7727
  1640   0027D4                     l7721:
  1641                           
  1642                           ;MCAL_Layer/GPIO/hal_gpio.c: 35:             (*tris_registers[_pin_config->port] |= ((ui
      +                          nt8)1 << _pin_config->pin));
  1643   0027D4  C026  FFD9         	movff	gpio_pin_direction_intialize@_pin_config,fsr2l
  1644   0027D8  C027  FFDA         	movff	gpio_pin_direction_intialize@_pin_config+1,fsr2h
  1645   0027DC  30DF               	rrcf	223,w,c
  1646   0027DE  32E8               	rrcf	wreg,f,c
  1647   0027E0  32E8               	rrcf	wreg,f,c
  1648   0027E2  0B07               	andlw	7
  1649   0027E4  6E28               	movwf	??_gpio_pin_direction_intialize^0,c
  1650   0027E6  0E01               	movlw	1
  1651   0027E8  6E29               	movwf	(??_gpio_pin_direction_intialize+1)^0,c
  1652   0027EA  2A28               	incf	??_gpio_pin_direction_intialize^0,f,c
  1653   0027EC  EFFA  F013         	goto	u8274
  1654   0027F0                     u8275:
  1655   0027F0  90D8               	bcf	status,0,c
  1656   0027F2  3629               	rlcf	(??_gpio_pin_direction_intialize+1)^0,f,c
  1657   0027F4                     u8274:
  1658   0027F4  2E28               	decfsz	??_gpio_pin_direction_intialize^0,f,c
  1659   0027F6  EFF8  F013         	goto	u8275
  1660   0027FA  C026  FFD9         	movff	gpio_pin_direction_intialize@_pin_config,fsr2l
  1661   0027FE  C027  FFDA         	movff	gpio_pin_direction_intialize@_pin_config+1,fsr2h
  1662   002802  50DF               	movf	223,w,c
  1663   002804  0B07               	andlw	7
  1664   002806  6E2A               	movwf	(??_gpio_pin_direction_intialize+2)^0,c
  1665   002808  502A               	movf	(??_gpio_pin_direction_intialize+2)^0,w,c
  1666   00280A  0D02               	mullw	2
  1667   00280C  0EC6               	movlw	low _tris_registers
  1668   00280E  24F3               	addwf	243,w,c
  1669   002810  6ED9               	movwf	fsr2l,c
  1670   002812  0E00               	movlw	high _tris_registers
  1671   002814  20F4               	addwfc	prodh,w,c
  1672   002816  6EDA               	movwf	fsr2h,c
  1673   002818  CFDE F02B          	movff	postinc2,??_gpio_pin_direction_intialize+3
  1674   00281C  CFDD F02C          	movff	postdec2,??_gpio_pin_direction_intialize+4
  1675   002820  C02B  FFD9         	movff	??_gpio_pin_direction_intialize+3,fsr2l
  1676   002824  C02C  FFDA         	movff	??_gpio_pin_direction_intialize+4,fsr2h
  1677   002828  5029               	movf	(??_gpio_pin_direction_intialize+1)^0,w,c
  1678   00282A  12DF               	iorwf	indf2,f,c
  1679                           
  1680                           ;MCAL_Layer/GPIO/hal_gpio.c: 36:             break;
  1681   00282C  EF39  F014         	goto	l7727
  1682   002830                     l7725:
  1683   002830  C026  FFD9         	movff	gpio_pin_direction_intialize@_pin_config,fsr2l
  1684   002834  C027  FFDA         	movff	gpio_pin_direction_intialize@_pin_config+1,fsr2h
  1685   002838  BCDF               	btfsc	indf2,6,c
  1686   00283A  EF21  F014         	goto	u8281
  1687   00283E  EF24  F014         	goto	u8280
  1688   002842                     u8281:
  1689   002842  0E01               	movlw	1
  1690   002844  EF25  F014         	goto	u8290
  1691   002848                     u8280:
  1692   002848  0E00               	movlw	0
  1693   00284A                     u8290:
  1694   00284A  6E28               	movwf	??_gpio_pin_direction_intialize^0,c
  1695   00284C  6A29               	clrf	(??_gpio_pin_direction_intialize+1)^0,c
  1696                           
  1697                           ; Switch on 2 bytes has been partitioned into a top level switch of size 1, and 1 sub-sw
      +                          itches
  1698                           ; Switch size 1, requested type "simple"
  1699                           ; Number of cases is 1, Range of values is 0 to 0
  1700                           ; switch strategies available:
  1701                           ; Name         Instructions Cycles
  1702                           ; simple_byte            4     3 (average)
  1703                           ;	Chosen strategy is simple_byte
  1704   00284E  5029               	movf	(??_gpio_pin_direction_intialize+1)^0,w,c
  1705   002850  0A00               	xorlw	0	; case 0
  1706   002852  B4D8               	btfsc	status,2,c
  1707   002854  EF2E  F014         	goto	l8927
  1708   002858  EFB5  F013         	goto	l7717
  1709   00285C                     l8927:
  1710                           
  1711                           ; Switch size 1, requested type "simple"
  1712                           ; Number of cases is 2, Range of values is 0 to 1
  1713                           ; switch strategies available:
  1714                           ; Name         Instructions Cycles
  1715                           ; simple_byte            7     4 (average)
  1716                           ;	Chosen strategy is simple_byte
  1717   00285C  5028               	movf	??_gpio_pin_direction_intialize^0,w,c
  1718   00285E  0A00               	xorlw	0	; case 0
  1719   002860  B4D8               	btfsc	status,2,c
  1720   002862  EFB9  F013         	goto	l7719
  1721   002866  0A01               	xorlw	1	; case 1
  1722   002868  B4D8               	btfsc	status,2,c
  1723   00286A  EFEA  F013         	goto	l7721
  1724   00286E  EFB5  F013         	goto	l7717
  1725   002872                     l7727:
  1726                           
  1727                           ;MCAL_Layer/GPIO/hal_gpio.c: 43:     return ret;
  1728   002872  502E               	movf	gpio_pin_direction_intialize@ret^0,w,c
  1729   002874  0012               	return		;funcret
  1730   002876                     __end_of_gpio_pin_direction_intialize:
  1731                           	callstack 0
  1732                           
  1733 ;; *************** function _EUSART_ASYNC_Init *****************
  1734 ;; Defined at:
  1735 ;;		line 27 in file "MCAL_Layer/USART/hal_usart.c"
  1736 ;; Parameters:    Size  Location     Type
  1737 ;;  _eusart         2   33[BANK1 ] PTR const struct .
  1738 ;;		 -> usart_obj(19), 
  1739 ;; Auto vars:     Size  Location     Type
  1740 ;;  ret             1   35[BANK1 ] unsigned char 
  1741 ;; Return value:  Size  Location     Type
  1742 ;;                  1    wreg      unsigned char 
  1743 ;; Registers used:
  1744 ;;		wreg, fsr2l, fsr2h, status,2, status,0, cstack
  1745 ;; Tracked objects:
  1746 ;;		On entry : 0/0
  1747 ;;		On exit  : 0/0
  1748 ;;		Unchanged: 0/0
  1749 ;; Data sizes:     COMRAM   BANK0   BANK1   BANK2   BANK3   BANK4   BANK5   BANK6   BANK7   BANK8   BANK9  BANK10  BANK1
      +1  BANK12  BANK13  BANK14  BANK15
  1750 ;;      Params:         0       0       2       0       0       0       0       0       0       0       0       0       
      +0       0       0       0       0
  1751 ;;      Locals:         0       0       1       0       0       0       0       0       0       0       0       0       
      +0       0       0       0       0
  1752 ;;      Temps:          0       0       0       0       0       0       0       0       0       0       0       0       
      +0       0       0       0       0
  1753 ;;      Totals:         0       0       3       0       0       0       0       0       0       0       0       0       
      +0       0       0       0       0
  1754 ;;Total ram usage:        3 bytes
  1755 ;; Hardware stack levels used: 1
  1756 ;; Hardware stack levels required when called: 14
  1757 ;; This function calls:
  1758 ;;		_EUSART_ASYNC_RX_Init
  1759 ;;		_EUSART_ASYNC_TX_Init
  1760 ;;		_EUSART_Baud_Rate_Calculation
  1761 ;; This function is called by:
  1762 ;;		_app_intialize
  1763 ;; This function uses a non-reentrant model
  1764 ;;
  1765                           
  1766                           	psect	text6
  1767   003118                     __ptext6:
  1768                           	callstack 0
  1769   003118                     _EUSART_ASYNC_Init:
  1770                           	callstack 15
  1771   003118                     
  1772                           ;MCAL_Layer/USART/hal_usart.c: 29:     if(((void*)0) == _eusart){
  1773   003118  0101               	movlb	1	; () banked
  1774   00311A  514F               	movf	EUSART_ASYNC_Init@_eusart& (0+255),w,b
  1775   00311C  1150               	iorwf	(EUSART_ASYNC_Init@_eusart+1)& (0+255),w,b
  1776   00311E  A4D8               	btfss	status,2,c
  1777   003120  EF94  F018         	goto	u9261
  1778   003124  EF96  F018         	goto	u9260
  1779   003128                     u9261:
  1780   003128  EF9A  F018         	goto	l1372
  1781   00312C                     u9260:
  1782   00312C                     
  1783                           ; BSR set to: 1
  1784                           ;MCAL_Layer/USART/hal_usart.c: 30:         ret = (Std_ReturnType)0x00;
  1785   00312C  0E00               	movlw	0
  1786   00312E  6F51               	movwf	EUSART_ASYNC_Init@ret& (0+255),b
  1787                           
  1788                           ;MCAL_Layer/USART/hal_usart.c: 31:     }else{
  1789   003130  EFB3  F018         	goto	l8345
  1790   003134                     l1372:
  1791                           
  1792                           ; BSR set to: 1
  1793                           ;MCAL_Layer/USART/hal_usart.c: 33:         RCSTAbits.SPEN = 0;
  1794   003134  9EAB               	bcf	171,7,c	;volatile
  1795                           
  1796                           ;MCAL_Layer/USART/hal_usart.c: 34:         TRISCbits.RC7 = 1;
  1797   003136  8E94               	bsf	148,7,c	;volatile
  1798                           
  1799                           ;MCAL_Layer/USART/hal_usart.c: 35:         TRISCbits.RC6 = 1;
  1800   003138  8C94               	bsf	148,6,c	;volatile
  1801   00313A                     
  1802                           ; BSR set to: 1
  1803                           ;MCAL_Layer/USART/hal_usart.c: 36:         EUSART_Baud_Rate_Calculation(_eusart);
  1804   00313A  C14F  F0FE         	movff	EUSART_ASYNC_Init@_eusart,EUSART_Baud_Rate_Calculation@_eusart
  1805   00313E  C150  F0FF         	movff	EUSART_ASYNC_Init@_eusart+1,EUSART_Baud_Rate_Calculation@_eusart+1
  1806   003142  EC06  F008         	call	_EUSART_Baud_Rate_Calculation	;wreg free
  1807                           
  1808                           ;MCAL_Layer/USART/hal_usart.c: 37:         EUSART_ASYNC_TX_Init(_eusart);
  1809   003146  C14F  F026         	movff	EUSART_ASYNC_Init@_eusart,EUSART_ASYNC_TX_Init@_eusart
  1810   00314A  C150  F027         	movff	EUSART_ASYNC_Init@_eusart+1,EUSART_ASYNC_TX_Init@_eusart+1
  1811   00314E  ECBC  F015         	call	_EUSART_ASYNC_TX_Init	;wreg free
  1812                           
  1813                           ;MCAL_Layer/USART/hal_usart.c: 38:         EUSART_ASYNC_RX_Init(_eusart);
  1814   003152  C14F  F026         	movff	EUSART_ASYNC_Init@_eusart,EUSART_ASYNC_RX_Init@_eusart
  1815   003156  C150  F027         	movff	EUSART_ASYNC_Init@_eusart+1,EUSART_ASYNC_RX_Init@_eusart+1
  1816   00315A  EC54  F015         	call	_EUSART_ASYNC_RX_Init	;wreg free
  1817   00315E                     
  1818                           ;MCAL_Layer/USART/hal_usart.c: 39:         RCSTAbits.SPEN = 1;
  1819   00315E  8EAB               	bsf	171,7,c	;volatile
  1820   003160                     
  1821                           ;MCAL_Layer/USART/hal_usart.c: 40:         ret = (Std_ReturnType)0x01;
  1822   003160  0E01               	movlw	1
  1823   003162  0101               	movlb	1	; () banked
  1824   003164  6F51               	movwf	EUSART_ASYNC_Init@ret& (0+255),b
  1825   003166                     l8345:
  1826                           
  1827                           ; BSR set to: 1
  1828                           ;MCAL_Layer/USART/hal_usart.c: 42:     return ret;
  1829   003166  5151               	movf	EUSART_ASYNC_Init@ret& (0+255),w,b
  1830   003168                     
  1831                           ; BSR set to: 1
  1832   003168  0012               	return		;funcret
  1833   00316A                     __end_of_EUSART_ASYNC_Init:
  1834                           	callstack 0
  1835                           
  1836 ;; *************** function _EUSART_Baud_Rate_Calculation *****************
  1837 ;; Defined at:
  1838 ;;		line 127 in file "MCAL_Layer/USART/hal_usart.c"
  1839 ;; Parameters:    Size  Location     Type
  1840 ;;  _eusart         2   16[BANK0 ] PTR const struct .
  1841 ;;		 -> usart_obj(19), 
  1842 ;; Auto vars:     Size  Location     Type
  1843 ;;  Baud_Rate_Te    4   25[BANK1 ] float 
  1844 ;; Return value:  Size  Location     Type
  1845 ;;                  1    wreg      void 
  1846 ;; Registers used:
  1847 ;;		wreg, fsr2l, fsr2h, status,2, status,0, cstack
  1848 ;; Tracked objects:
  1849 ;;		On entry : 0/0
  1850 ;;		On exit  : 0/0
  1851 ;;		Unchanged: 0/0
  1852 ;; Data sizes:     COMRAM   BANK0   BANK1   BANK2   BANK3   BANK4   BANK5   BANK6   BANK7   BANK8   BANK9  BANK10  BANK1
      +1  BANK12  BANK13  BANK14  BANK15
  1853 ;;      Params:         0       2       0       0       0       0       0       0       0       0       0       0       
      +0       0       0       0       0
  1854 ;;      Locals:         0       0       8       0       0       0       0       0       0       0       0       0       
      +0       0       0       0       0
  1855 ;;      Temps:          2       0       0       0       0       0       0       0       0       0       0       0       
      +0       0       0       0       0
  1856 ;;      Totals:         2       2       8       0       0       0       0       0       0       0       0       0       
      +0       0       0       0       0
  1857 ;;Total ram usage:       12 bytes
  1858 ;; Hardware stack levels used: 1
  1859 ;; Hardware stack levels required when called: 13
  1860 ;; This function calls:
  1861 ;;		___fladd
  1862 ;;		___fldiv
  1863 ;;		___fltol
  1864 ;;		___xxtofl
  1865 ;; This function is called by:
  1866 ;;		_EUSART_ASYNC_Init
  1867 ;; This function uses a non-reentrant model
  1868 ;;
  1869                           
  1870                           	psect	text7
  1871   00100C                     __ptext7:
  1872                           	callstack 0
  1873   00100C                     _EUSART_Baud_Rate_Calculation:
  1874                           	callstack 15
  1875   00100C                     
  1876                           ;MCAL_Layer/USART/hal_usart.c: 128:     float Baud_Rate_Temp = 0;
  1877   00100C  0E00               	movlw	0
  1878   00100E  0101               	movlb	1	; () banked
  1879   001010  6F47               	movwf	EUSART_Baud_Rate_Calculation@Baud_Rate_Temp& (0+255),b
  1880   001012  0E00               	movlw	0
  1881   001014  6F48               	movwf	(EUSART_Baud_Rate_Calculation@Baud_Rate_Temp+1)& (0+255),b
  1882   001016  0E00               	movlw	0
  1883   001018  6F49               	movwf	(EUSART_Baud_Rate_Calculation@Baud_Rate_Temp+2)& (0+255),b
  1884   00101A  0E00               	movlw	0
  1885   00101C  6F4A               	movwf	(EUSART_Baud_Rate_Calculation@Baud_Rate_Temp+3)& (0+255),b
  1886                           
  1887                           ;MCAL_Layer/USART/hal_usart.c: 129:     switch(_eusart->baudrate_gen_cfg){
  1888   00101E  EF3E  F00A         	goto	l8203
  1889   001022                     l1412:
  1890                           
  1891                           ; BSR set to: 0
  1892                           ;MCAL_Layer/USART/hal_usart.c: 131:             TXSTAbits.SYNC = 0;
  1893   001022  98AC               	bcf	172,4,c	;volatile
  1894                           
  1895                           ;MCAL_Layer/USART/hal_usart.c: 132:             TXSTAbits.BRGH = 0;
  1896   001024  94AC               	bcf	172,2,c	;volatile
  1897                           
  1898                           ;MCAL_Layer/USART/hal_usart.c: 133:             BAUDCONbits.BRG16 = 0;
  1899   001026  96B8               	bcf	184,3,c	;volatile
  1900   001028                     
  1901                           ; BSR set to: 0
  1902                           ;MCAL_Layer/USART/hal_usart.c: 134:             Baud_Rate_Temp = ((8000000UL/(float)_eus
      +                          art->baudrate)/64)-1;
  1903   001028  C0FE  FFD9         	movff	EUSART_Baud_Rate_Calculation@_eusart,fsr2l
  1904   00102C  C0FF  FFDA         	movff	EUSART_Baud_Rate_Calculation@_eusart+1,fsr2h
  1905   001030  CFDE F026          	movff	postinc2,___xxtofl@val
  1906   001034  CFDE F027          	movff	postinc2,___xxtofl@val+1
  1907   001038  CFDE F028          	movff	postinc2,___xxtofl@val+2
  1908   00103C  CFDE F029          	movff	postinc2,___xxtofl@val+3
  1909   001040  0E00               	movlw	0
  1910   001042  ECBF  F012         	call	___xxtofl
  1911   001046  C026  F0F2         	movff	?___xxtofl,___fldiv@a
  1912   00104A  C027  F0F3         	movff	?___xxtofl+1,___fldiv@a+1
  1913   00104E  C028  F0F4         	movff	?___xxtofl+2,___fldiv@a+2
  1914   001052  C029  F0F5         	movff	?___xxtofl+3,___fldiv@a+3
  1915   001056  0E00               	movlw	0
  1916   001058  0100               	movlb	0	; () banked
  1917   00105A  6FEE               	movwf	___fldiv@b& (0+255),b
  1918   00105C  0E24               	movlw	36
  1919   00105E  6FEF               	movwf	(___fldiv@b+1)& (0+255),b
  1920   001060  0EF4               	movlw	244
  1921   001062  6FF0               	movwf	(___fldiv@b+2)& (0+255),b
  1922   001064  0E4A               	movlw	74
  1923   001066  6FF1               	movwf	(___fldiv@b+3)& (0+255),b
  1924   001068  EC06  F00D         	call	___fldiv	;wreg free
  1925   00106C  C0EE  F14B         	movff	?___fldiv,_EUSART_Baud_Rate_Calculation$5227
  1926   001070  C0EF  F14C         	movff	?___fldiv+1,_EUSART_Baud_Rate_Calculation$5227+1
  1927   001074  C0F0  F14D         	movff	?___fldiv+2,_EUSART_Baud_Rate_Calculation$5227+2
  1928   001078  C0F1  F14E         	movff	?___fldiv+3,_EUSART_Baud_Rate_Calculation$5227+3
  1929   00107C                     
  1930                           ;MCAL_Layer/USART/hal_usart.c: 134:             Baud_Rate_Temp = ((8000000UL/(float)_eus
      +                          art->baudrate)/64)-1;
  1931   00107C  0E00               	movlw	0
  1932   00107E  0100               	movlb	0	; () banked
  1933   001080  6FF2               	movwf	___fldiv@a& (0+255),b
  1934   001082  0E00               	movlw	0
  1935   001084  6FF3               	movwf	(___fldiv@a+1)& (0+255),b
  1936   001086  0E80               	movlw	128
  1937   001088  6FF4               	movwf	(___fldiv@a+2)& (0+255),b
  1938   00108A  0E42               	movlw	66
  1939   00108C  6FF5               	movwf	(___fldiv@a+3)& (0+255),b
  1940   00108E  C14B  F0EE         	movff	_EUSART_Baud_Rate_Calculation$5227,___fldiv@b
  1941   001092  C14C  F0EF         	movff	_EUSART_Baud_Rate_Calculation$5227+1,___fldiv@b+1
  1942   001096  C14D  F0F0         	movff	_EUSART_Baud_Rate_Calculation$5227+2,___fldiv@b+2
  1943   00109A  C14E  F0F1         	movff	_EUSART_Baud_Rate_Calculation$5227+3,___fldiv@b+3
  1944   00109E  EC06  F00D         	call	___fldiv	;wreg free
  1945   0010A2  C0EE  F13B         	movff	?___fldiv,___fladd@b
  1946   0010A6  C0EF  F13C         	movff	?___fldiv+1,___fladd@b+1
  1947   0010AA  C0F0  F13D         	movff	?___fldiv+2,___fladd@b+2
  1948   0010AE  C0F1  F13E         	movff	?___fldiv+3,___fladd@b+3
  1949   0010B2  0E00               	movlw	0
  1950   0010B4  0101               	movlb	1	; () banked
  1951   0010B6  6F3F               	movwf	___fladd@a& (0+255),b
  1952   0010B8  0E00               	movlw	0
  1953   0010BA  6F40               	movwf	(___fladd@a+1)& (0+255),b
  1954   0010BC  0E80               	movlw	128
  1955   0010BE  6F41               	movwf	(___fladd@a+2)& (0+255),b
  1956   0010C0  0EBF               	movlw	191
  1957   0010C2  6F42               	movwf	(___fladd@a+3)& (0+255),b
  1958   0010C4  EC8A  F00A         	call	___fladd	;wreg free
  1959   0010C8  C13B  F147         	movff	?___fladd,EUSART_Baud_Rate_Calculation@Baud_Rate_Temp
  1960   0010CC  C13C  F148         	movff	?___fladd+1,EUSART_Baud_Rate_Calculation@Baud_Rate_Temp+1
  1961   0010D0  C13D  F149         	movff	?___fladd+2,EUSART_Baud_Rate_Calculation@Baud_Rate_Temp+2
  1962   0010D4  C13E  F14A         	movff	?___fladd+3,EUSART_Baud_Rate_Calculation@Baud_Rate_Temp+3
  1963                           
  1964                           ;MCAL_Layer/USART/hal_usart.c: 135:             break;
  1965   0010D8  EF6A  F00A         	goto	l8205
  1966   0010DC                     l1414:
  1967                           
  1968                           ; BSR set to: 0
  1969                           ;MCAL_Layer/USART/hal_usart.c: 137:             TXSTAbits.SYNC = 0;
  1970   0010DC  98AC               	bcf	172,4,c	;volatile
  1971                           
  1972                           ;MCAL_Layer/USART/hal_usart.c: 138:             TXSTAbits.BRGH = 1;
  1973   0010DE  84AC               	bsf	172,2,c	;volatile
  1974                           
  1975                           ;MCAL_Layer/USART/hal_usart.c: 139:             BAUDCONbits.BRG16 = 0;
  1976   0010E0  96B8               	bcf	184,3,c	;volatile
  1977   0010E2                     
  1978                           ; BSR set to: 0
  1979                           ;MCAL_Layer/USART/hal_usart.c: 140:             Baud_Rate_Temp = ((8000000UL/(float)_eus
      +                          art->baudrate)/16)-1;
  1980   0010E2  C0FE  FFD9         	movff	EUSART_Baud_Rate_Calculation@_eusart,fsr2l
  1981   0010E6  C0FF  FFDA         	movff	EUSART_Baud_Rate_Calculation@_eusart+1,fsr2h
  1982   0010EA  CFDE F026          	movff	postinc2,___xxtofl@val
  1983   0010EE  CFDE F027          	movff	postinc2,___xxtofl@val+1
  1984   0010F2  CFDE F028          	movff	postinc2,___xxtofl@val+2
  1985   0010F6  CFDE F029          	movff	postinc2,___xxtofl@val+3
  1986   0010FA  0E00               	movlw	0
  1987   0010FC  ECBF  F012         	call	___xxtofl
  1988   001100  C026  F0F2         	movff	?___xxtofl,___fldiv@a
  1989   001104  C027  F0F3         	movff	?___xxtofl+1,___fldiv@a+1
  1990   001108  C028  F0F4         	movff	?___xxtofl+2,___fldiv@a+2
  1991   00110C  C029  F0F5         	movff	?___xxtofl+3,___fldiv@a+3
  1992   001110  0E00               	movlw	0
  1993   001112  0100               	movlb	0	; () banked
  1994   001114  6FEE               	movwf	___fldiv@b& (0+255),b
  1995   001116  0E24               	movlw	36
  1996   001118  6FEF               	movwf	(___fldiv@b+1)& (0+255),b
  1997   00111A  0EF4               	movlw	244
  1998   00111C  6FF0               	movwf	(___fldiv@b+2)& (0+255),b
  1999   00111E  0E4A               	movlw	74
  2000   001120  6FF1               	movwf	(___fldiv@b+3)& (0+255),b
  2001   001122  EC06  F00D         	call	___fldiv	;wreg free
  2002   001126  C0EE  F14B         	movff	?___fldiv,_EUSART_Baud_Rate_Calculation$5227
  2003   00112A  C0EF  F14C         	movff	?___fldiv+1,_EUSART_Baud_Rate_Calculation$5227+1
  2004   00112E  C0F0  F14D         	movff	?___fldiv+2,_EUSART_Baud_Rate_Calculation$5227+2
  2005   001132  C0F1  F14E         	movff	?___fldiv+3,_EUSART_Baud_Rate_Calculation$5227+3
  2006   001136                     
  2007                           ;MCAL_Layer/USART/hal_usart.c: 140:             Baud_Rate_Temp = ((8000000UL/(float)_eus
      +                          art->baudrate)/16)-1;
  2008   001136  0E00               	movlw	0
  2009   001138  0100               	movlb	0	; () banked
  2010   00113A  6FF2               	movwf	___fldiv@a& (0+255),b
  2011   00113C  0E00               	movlw	0
  2012   00113E  6FF3               	movwf	(___fldiv@a+1)& (0+255),b
  2013   001140  0E80               	movlw	128
  2014   001142  6FF4               	movwf	(___fldiv@a+2)& (0+255),b
  2015   001144  0E41               	movlw	65
  2016   001146  6FF5               	movwf	(___fldiv@a+3)& (0+255),b
  2017   001148  C14B  F0EE         	movff	_EUSART_Baud_Rate_Calculation$5227,___fldiv@b
  2018   00114C  C14C  F0EF         	movff	_EUSART_Baud_Rate_Calculation$5227+1,___fldiv@b+1
  2019   001150  C14D  F0F0         	movff	_EUSART_Baud_Rate_Calculation$5227+2,___fldiv@b+2
  2020   001154  C14E  F0F1         	movff	_EUSART_Baud_Rate_Calculation$5227+3,___fldiv@b+3
  2021   001158  EC06  F00D         	call	___fldiv	;wreg free
  2022   00115C  C0EE  F13B         	movff	?___fldiv,___fladd@b
  2023   001160  C0EF  F13C         	movff	?___fldiv+1,___fladd@b+1
  2024   001164  C0F0  F13D         	movff	?___fldiv+2,___fladd@b+2
  2025   001168  C0F1  F13E         	movff	?___fldiv+3,___fladd@b+3
  2026   00116C  0E00               	movlw	0
  2027   00116E  0101               	movlb	1	; () banked
  2028   001170  6F3F               	movwf	___fladd@a& (0+255),b
  2029   001172  0E00               	movlw	0
  2030   001174  6F40               	movwf	(___fladd@a+1)& (0+255),b
  2031   001176  0E80               	movlw	128
  2032   001178  6F41               	movwf	(___fladd@a+2)& (0+255),b
  2033   00117A  0EBF               	movlw	191
  2034   00117C  6F42               	movwf	(___fladd@a+3)& (0+255),b
  2035   00117E  EC8A  F00A         	call	___fladd	;wreg free
  2036   001182  C13B  F147         	movff	?___fladd,EUSART_Baud_Rate_Calculation@Baud_Rate_Temp
  2037   001186  C13C  F148         	movff	?___fladd+1,EUSART_Baud_Rate_Calculation@Baud_Rate_Temp+1
  2038   00118A  C13D  F149         	movff	?___fladd+2,EUSART_Baud_Rate_Calculation@Baud_Rate_Temp+2
  2039   00118E  C13E  F14A         	movff	?___fladd+3,EUSART_Baud_Rate_Calculation@Baud_Rate_Temp+3
  2040                           
  2041                           ;MCAL_Layer/USART/hal_usart.c: 141:             break;
  2042   001192  EF6A  F00A         	goto	l8205
  2043   001196                     l1415:
  2044                           
  2045                           ; BSR set to: 0
  2046                           ;MCAL_Layer/USART/hal_usart.c: 143:             TXSTAbits.SYNC = 0;
  2047   001196  98AC               	bcf	172,4,c	;volatile
  2048                           
  2049                           ;MCAL_Layer/USART/hal_usart.c: 144:             TXSTAbits.BRGH = 0;
  2050   001198  94AC               	bcf	172,2,c	;volatile
  2051                           
  2052                           ;MCAL_Layer/USART/hal_usart.c: 145:             BAUDCONbits.BRG16 = 1;
  2053   00119A  86B8               	bsf	184,3,c	;volatile
  2054   00119C                     
  2055                           ; BSR set to: 0
  2056                           ;MCAL_Layer/USART/hal_usart.c: 146:             Baud_Rate_Temp = ((8000000UL/(float)_eus
      +                          art->baudrate)/16)-1;
  2057   00119C  C0FE  FFD9         	movff	EUSART_Baud_Rate_Calculation@_eusart,fsr2l
  2058   0011A0  C0FF  FFDA         	movff	EUSART_Baud_Rate_Calculation@_eusart+1,fsr2h
  2059   0011A4  CFDE F026          	movff	postinc2,___xxtofl@val
  2060   0011A8  CFDE F027          	movff	postinc2,___xxtofl@val+1
  2061   0011AC  CFDE F028          	movff	postinc2,___xxtofl@val+2
  2062   0011B0  CFDE F029          	movff	postinc2,___xxtofl@val+3
  2063   0011B4  0E00               	movlw	0
  2064   0011B6  ECBF  F012         	call	___xxtofl
  2065   0011BA  C026  F0F2         	movff	?___xxtofl,___fldiv@a
  2066   0011BE  C027  F0F3         	movff	?___xxtofl+1,___fldiv@a+1
  2067   0011C2  C028  F0F4         	movff	?___xxtofl+2,___fldiv@a+2
  2068   0011C6  C029  F0F5         	movff	?___xxtofl+3,___fldiv@a+3
  2069   0011CA  0E00               	movlw	0
  2070   0011CC  0100               	movlb	0	; () banked
  2071   0011CE  6FEE               	movwf	___fldiv@b& (0+255),b
  2072   0011D0  0E24               	movlw	36
  2073   0011D2  6FEF               	movwf	(___fldiv@b+1)& (0+255),b
  2074   0011D4  0EF4               	movlw	244
  2075   0011D6  6FF0               	movwf	(___fldiv@b+2)& (0+255),b
  2076   0011D8  0E4A               	movlw	74
  2077   0011DA  6FF1               	movwf	(___fldiv@b+3)& (0+255),b
  2078   0011DC  EC06  F00D         	call	___fldiv	;wreg free
  2079   0011E0  C0EE  F14B         	movff	?___fldiv,_EUSART_Baud_Rate_Calculation$5227
  2080   0011E4  C0EF  F14C         	movff	?___fldiv+1,_EUSART_Baud_Rate_Calculation$5227+1
  2081   0011E8  C0F0  F14D         	movff	?___fldiv+2,_EUSART_Baud_Rate_Calculation$5227+2
  2082   0011EC  C0F1  F14E         	movff	?___fldiv+3,_EUSART_Baud_Rate_Calculation$5227+3
  2083   0011F0                     
  2084                           ;MCAL_Layer/USART/hal_usart.c: 146:             Baud_Rate_Temp = ((8000000UL/(float)_eus
      +                          art->baudrate)/16)-1;
  2085   0011F0  0E00               	movlw	0
  2086   0011F2  0100               	movlb	0	; () banked
  2087   0011F4  6FF2               	movwf	___fldiv@a& (0+255),b
  2088   0011F6  0E00               	movlw	0
  2089   0011F8  6FF3               	movwf	(___fldiv@a+1)& (0+255),b
  2090   0011FA  0E80               	movlw	128
  2091   0011FC  6FF4               	movwf	(___fldiv@a+2)& (0+255),b
  2092   0011FE  0E41               	movlw	65
  2093   001200  6FF5               	movwf	(___fldiv@a+3)& (0+255),b
  2094   001202  C14B  F0EE         	movff	_EUSART_Baud_Rate_Calculation$5227,___fldiv@b
  2095   001206  C14C  F0EF         	movff	_EUSART_Baud_Rate_Calculation$5227+1,___fldiv@b+1
  2096   00120A  C14D  F0F0         	movff	_EUSART_Baud_Rate_Calculation$5227+2,___fldiv@b+2
  2097   00120E  C14E  F0F1         	movff	_EUSART_Baud_Rate_Calculation$5227+3,___fldiv@b+3
  2098   001212  EC06  F00D         	call	___fldiv	;wreg free
  2099   001216  C0EE  F13B         	movff	?___fldiv,___fladd@b
  2100   00121A  C0EF  F13C         	movff	?___fldiv+1,___fladd@b+1
  2101   00121E  C0F0  F13D         	movff	?___fldiv+2,___fladd@b+2
  2102   001222  C0F1  F13E         	movff	?___fldiv+3,___fladd@b+3
  2103   001226  0E00               	movlw	0
  2104   001228  0101               	movlb	1	; () banked
  2105   00122A  6F3F               	movwf	___fladd@a& (0+255),b
  2106   00122C  0E00               	movlw	0
  2107   00122E  6F40               	movwf	(___fladd@a+1)& (0+255),b
  2108   001230  0E80               	movlw	128
  2109   001232  6F41               	movwf	(___fladd@a+2)& (0+255),b
  2110   001234  0EBF               	movlw	191
  2111   001236  6F42               	movwf	(___fladd@a+3)& (0+255),b
  2112   001238  EC8A  F00A         	call	___fladd	;wreg free
  2113   00123C  C13B  F147         	movff	?___fladd,EUSART_Baud_Rate_Calculation@Baud_Rate_Temp
  2114   001240  C13C  F148         	movff	?___fladd+1,EUSART_Baud_Rate_Calculation@Baud_Rate_Temp+1
  2115   001244  C13D  F149         	movff	?___fladd+2,EUSART_Baud_Rate_Calculation@Baud_Rate_Temp+2
  2116   001248  C13E  F14A         	movff	?___fladd+3,EUSART_Baud_Rate_Calculation@Baud_Rate_Temp+3
  2117                           
  2118                           ;MCAL_Layer/USART/hal_usart.c: 147:             break;
  2119   00124C  EF6A  F00A         	goto	l8205
  2120   001250                     l1416:
  2121                           
  2122                           ; BSR set to: 0
  2123                           ;MCAL_Layer/USART/hal_usart.c: 149:             TXSTAbits.SYNC = 0;
  2124   001250  98AC               	bcf	172,4,c	;volatile
  2125                           
  2126                           ;MCAL_Layer/USART/hal_usart.c: 150:             TXSTAbits.BRGH = 1;
  2127   001252  84AC               	bsf	172,2,c	;volatile
  2128                           
  2129                           ;MCAL_Layer/USART/hal_usart.c: 151:             BAUDCONbits.BRG16 = 1;
  2130   001254  86B8               	bsf	184,3,c	;volatile
  2131   001256                     
  2132                           ; BSR set to: 0
  2133                           ;MCAL_Layer/USART/hal_usart.c: 152:             Baud_Rate_Temp = ((8000000UL/(float)_eus
      +                          art->baudrate)/4)-1;
  2134   001256  C0FE  FFD9         	movff	EUSART_Baud_Rate_Calculation@_eusart,fsr2l
  2135   00125A  C0FF  FFDA         	movff	EUSART_Baud_Rate_Calculation@_eusart+1,fsr2h
  2136   00125E  CFDE F026          	movff	postinc2,___xxtofl@val
  2137   001262  CFDE F027          	movff	postinc2,___xxtofl@val+1
  2138   001266  CFDE F028          	movff	postinc2,___xxtofl@val+2
  2139   00126A  CFDE F029          	movff	postinc2,___xxtofl@val+3
  2140   00126E  0E00               	movlw	0
  2141   001270  ECBF  F012         	call	___xxtofl
  2142   001274  C026  F0F2         	movff	?___xxtofl,___fldiv@a
  2143   001278  C027  F0F3         	movff	?___xxtofl+1,___fldiv@a+1
  2144   00127C  C028  F0F4         	movff	?___xxtofl+2,___fldiv@a+2
  2145   001280  C029  F0F5         	movff	?___xxtofl+3,___fldiv@a+3
  2146   001284  0E00               	movlw	0
  2147   001286  0100               	movlb	0	; () banked
  2148   001288  6FEE               	movwf	___fldiv@b& (0+255),b
  2149   00128A  0E24               	movlw	36
  2150   00128C  6FEF               	movwf	(___fldiv@b+1)& (0+255),b
  2151   00128E  0EF4               	movlw	244
  2152   001290  6FF0               	movwf	(___fldiv@b+2)& (0+255),b
  2153   001292  0E4A               	movlw	74
  2154   001294  6FF1               	movwf	(___fldiv@b+3)& (0+255),b
  2155   001296  EC06  F00D         	call	___fldiv	;wreg free
  2156   00129A  C0EE  F14B         	movff	?___fldiv,_EUSART_Baud_Rate_Calculation$5227
  2157   00129E  C0EF  F14C         	movff	?___fldiv+1,_EUSART_Baud_Rate_Calculation$5227+1
  2158   0012A2  C0F0  F14D         	movff	?___fldiv+2,_EUSART_Baud_Rate_Calculation$5227+2
  2159   0012A6  C0F1  F14E         	movff	?___fldiv+3,_EUSART_Baud_Rate_Calculation$5227+3
  2160   0012AA                     
  2161                           ;MCAL_Layer/USART/hal_usart.c: 152:             Baud_Rate_Temp = ((8000000UL/(float)_eus
      +                          art->baudrate)/4)-1;
  2162   0012AA  0E00               	movlw	0
  2163   0012AC  0100               	movlb	0	; () banked
  2164   0012AE  6FF2               	movwf	___fldiv@a& (0+255),b
  2165   0012B0  0E00               	movlw	0
  2166   0012B2  6FF3               	movwf	(___fldiv@a+1)& (0+255),b
  2167   0012B4  0E80               	movlw	128
  2168   0012B6  6FF4               	movwf	(___fldiv@a+2)& (0+255),b
  2169   0012B8  0E40               	movlw	64
  2170   0012BA  6FF5               	movwf	(___fldiv@a+3)& (0+255),b
  2171   0012BC  C14B  F0EE         	movff	_EUSART_Baud_Rate_Calculation$5227,___fldiv@b
  2172   0012C0  C14C  F0EF         	movff	_EUSART_Baud_Rate_Calculation$5227+1,___fldiv@b+1
  2173   0012C4  C14D  F0F0         	movff	_EUSART_Baud_Rate_Calculation$5227+2,___fldiv@b+2
  2174   0012C8  C14E  F0F1         	movff	_EUSART_Baud_Rate_Calculation$5227+3,___fldiv@b+3
  2175   0012CC  EC06  F00D         	call	___fldiv	;wreg free
  2176   0012D0  C0EE  F13B         	movff	?___fldiv,___fladd@b
  2177   0012D4  C0EF  F13C         	movff	?___fldiv+1,___fladd@b+1
  2178   0012D8  C0F0  F13D         	movff	?___fldiv+2,___fladd@b+2
  2179   0012DC  C0F1  F13E         	movff	?___fldiv+3,___fladd@b+3
  2180   0012E0  0E00               	movlw	0
  2181   0012E2  0101               	movlb	1	; () banked
  2182   0012E4  6F3F               	movwf	___fladd@a& (0+255),b
  2183   0012E6  0E00               	movlw	0
  2184   0012E8  6F40               	movwf	(___fladd@a+1)& (0+255),b
  2185   0012EA  0E80               	movlw	128
  2186   0012EC  6F41               	movwf	(___fladd@a+2)& (0+255),b
  2187   0012EE  0EBF               	movlw	191
  2188   0012F0  6F42               	movwf	(___fladd@a+3)& (0+255),b
  2189   0012F2  EC8A  F00A         	call	___fladd	;wreg free
  2190   0012F6  C13B  F147         	movff	?___fladd,EUSART_Baud_Rate_Calculation@Baud_Rate_Temp
  2191   0012FA  C13C  F148         	movff	?___fladd+1,EUSART_Baud_Rate_Calculation@Baud_Rate_Temp+1
  2192   0012FE  C13D  F149         	movff	?___fladd+2,EUSART_Baud_Rate_Calculation@Baud_Rate_Temp+2
  2193   001302  C13E  F14A         	movff	?___fladd+3,EUSART_Baud_Rate_Calculation@Baud_Rate_Temp+3
  2194                           
  2195                           ;MCAL_Layer/USART/hal_usart.c: 153:             break;
  2196   001306  EF6A  F00A         	goto	l8205
  2197   00130A                     l1417:
  2198                           
  2199                           ; BSR set to: 0
  2200                           ;MCAL_Layer/USART/hal_usart.c: 155:             TXSTAbits.SYNC = 1;
  2201   00130A  88AC               	bsf	172,4,c	;volatile
  2202                           
  2203                           ;MCAL_Layer/USART/hal_usart.c: 156:             TXSTAbits.BRGH = 0;
  2204   00130C  94AC               	bcf	172,2,c	;volatile
  2205                           
  2206                           ;MCAL_Layer/USART/hal_usart.c: 157:             BAUDCONbits.BRG16 = 0;
  2207   00130E  96B8               	bcf	184,3,c	;volatile
  2208   001310                     
  2209                           ; BSR set to: 0
  2210                           ;MCAL_Layer/USART/hal_usart.c: 158:             Baud_Rate_Temp = ((8000000UL/(float)_eus
      +                          art->baudrate)/4)-1;
  2211   001310  C0FE  FFD9         	movff	EUSART_Baud_Rate_Calculation@_eusart,fsr2l
  2212   001314  C0FF  FFDA         	movff	EUSART_Baud_Rate_Calculation@_eusart+1,fsr2h
  2213   001318  CFDE F026          	movff	postinc2,___xxtofl@val
  2214   00131C  CFDE F027          	movff	postinc2,___xxtofl@val+1
  2215   001320  CFDE F028          	movff	postinc2,___xxtofl@val+2
  2216   001324  CFDE F029          	movff	postinc2,___xxtofl@val+3
  2217   001328  0E00               	movlw	0
  2218   00132A  ECBF  F012         	call	___xxtofl
  2219   00132E  C026  F0F2         	movff	?___xxtofl,___fldiv@a
  2220   001332  C027  F0F3         	movff	?___xxtofl+1,___fldiv@a+1
  2221   001336  C028  F0F4         	movff	?___xxtofl+2,___fldiv@a+2
  2222   00133A  C029  F0F5         	movff	?___xxtofl+3,___fldiv@a+3
  2223   00133E  0E00               	movlw	0
  2224   001340  0100               	movlb	0	; () banked
  2225   001342  6FEE               	movwf	___fldiv@b& (0+255),b
  2226   001344  0E24               	movlw	36
  2227   001346  6FEF               	movwf	(___fldiv@b+1)& (0+255),b
  2228   001348  0EF4               	movlw	244
  2229   00134A  6FF0               	movwf	(___fldiv@b+2)& (0+255),b
  2230   00134C  0E4A               	movlw	74
  2231   00134E  6FF1               	movwf	(___fldiv@b+3)& (0+255),b
  2232   001350  EC06  F00D         	call	___fldiv	;wreg free
  2233   001354  C0EE  F14B         	movff	?___fldiv,_EUSART_Baud_Rate_Calculation$5227
  2234   001358  C0EF  F14C         	movff	?___fldiv+1,_EUSART_Baud_Rate_Calculation$5227+1
  2235   00135C  C0F0  F14D         	movff	?___fldiv+2,_EUSART_Baud_Rate_Calculation$5227+2
  2236   001360  C0F1  F14E         	movff	?___fldiv+3,_EUSART_Baud_Rate_Calculation$5227+3
  2237   001364                     
  2238                           ;MCAL_Layer/USART/hal_usart.c: 158:             Baud_Rate_Temp = ((8000000UL/(float)_eus
      +                          art->baudrate)/4)-1;
  2239   001364  0E00               	movlw	0
  2240   001366  0100               	movlb	0	; () banked
  2241   001368  6FF2               	movwf	___fldiv@a& (0+255),b
  2242   00136A  0E00               	movlw	0
  2243   00136C  6FF3               	movwf	(___fldiv@a+1)& (0+255),b
  2244   00136E  0E80               	movlw	128
  2245   001370  6FF4               	movwf	(___fldiv@a+2)& (0+255),b
  2246   001372  0E40               	movlw	64
  2247   001374  6FF5               	movwf	(___fldiv@a+3)& (0+255),b
  2248   001376  C14B  F0EE         	movff	_EUSART_Baud_Rate_Calculation$5227,___fldiv@b
  2249   00137A  C14C  F0EF         	movff	_EUSART_Baud_Rate_Calculation$5227+1,___fldiv@b+1
  2250   00137E  C14D  F0F0         	movff	_EUSART_Baud_Rate_Calculation$5227+2,___fldiv@b+2
  2251   001382  C14E  F0F1         	movff	_EUSART_Baud_Rate_Calculation$5227+3,___fldiv@b+3
  2252   001386  EC06  F00D         	call	___fldiv	;wreg free
  2253   00138A  C0EE  F13B         	movff	?___fldiv,___fladd@b
  2254   00138E  C0EF  F13C         	movff	?___fldiv+1,___fladd@b+1
  2255   001392  C0F0  F13D         	movff	?___fldiv+2,___fladd@b+2
  2256   001396  C0F1  F13E         	movff	?___fldiv+3,___fladd@b+3
  2257   00139A  0E00               	movlw	0
  2258   00139C  0101               	movlb	1	; () banked
  2259   00139E  6F3F               	movwf	___fladd@a& (0+255),b
  2260   0013A0  0E00               	movlw	0
  2261   0013A2  6F40               	movwf	(___fladd@a+1)& (0+255),b
  2262   0013A4  0E80               	movlw	128
  2263   0013A6  6F41               	movwf	(___fladd@a+2)& (0+255),b
  2264   0013A8  0EBF               	movlw	191
  2265   0013AA  6F42               	movwf	(___fladd@a+3)& (0+255),b
  2266   0013AC  EC8A  F00A         	call	___fladd	;wreg free
  2267   0013B0  C13B  F147         	movff	?___fladd,EUSART_Baud_Rate_Calculation@Baud_Rate_Temp
  2268   0013B4  C13C  F148         	movff	?___fladd+1,EUSART_Baud_Rate_Calculation@Baud_Rate_Temp+1
  2269   0013B8  C13D  F149         	movff	?___fladd+2,EUSART_Baud_Rate_Calculation@Baud_Rate_Temp+2
  2270   0013BC  C13E  F14A         	movff	?___fladd+3,EUSART_Baud_Rate_Calculation@Baud_Rate_Temp+3
  2271                           
  2272                           ;MCAL_Layer/USART/hal_usart.c: 159:             break;
  2273   0013C0  EF6A  F00A         	goto	l8205
  2274   0013C4                     l1418:
  2275                           
  2276                           ; BSR set to: 0
  2277                           ;MCAL_Layer/USART/hal_usart.c: 161:             TXSTAbits.SYNC = 1;
  2278   0013C4  88AC               	bsf	172,4,c	;volatile
  2279                           
  2280                           ;MCAL_Layer/USART/hal_usart.c: 162:             BAUDCONbits.BRG16 = 1;
  2281   0013C6  86B8               	bsf	184,3,c	;volatile
  2282   0013C8                     
  2283                           ; BSR set to: 0
  2284                           ;MCAL_Layer/USART/hal_usart.c: 163:             Baud_Rate_Temp = ((8000000UL/(float)_eus
      +                          art->baudrate)/4)-1;
  2285   0013C8  C0FE  FFD9         	movff	EUSART_Baud_Rate_Calculation@_eusart,fsr2l
  2286   0013CC  C0FF  FFDA         	movff	EUSART_Baud_Rate_Calculation@_eusart+1,fsr2h
  2287   0013D0  CFDE F026          	movff	postinc2,___xxtofl@val
  2288   0013D4  CFDE F027          	movff	postinc2,___xxtofl@val+1
  2289   0013D8  CFDE F028          	movff	postinc2,___xxtofl@val+2
  2290   0013DC  CFDE F029          	movff	postinc2,___xxtofl@val+3
  2291   0013E0  0E00               	movlw	0
  2292   0013E2  ECBF  F012         	call	___xxtofl
  2293   0013E6  C026  F0F2         	movff	?___xxtofl,___fldiv@a
  2294   0013EA  C027  F0F3         	movff	?___xxtofl+1,___fldiv@a+1
  2295   0013EE  C028  F0F4         	movff	?___xxtofl+2,___fldiv@a+2
  2296   0013F2  C029  F0F5         	movff	?___xxtofl+3,___fldiv@a+3
  2297   0013F6  0E00               	movlw	0
  2298   0013F8  0100               	movlb	0	; () banked
  2299   0013FA  6FEE               	movwf	___fldiv@b& (0+255),b
  2300   0013FC  0E24               	movlw	36
  2301   0013FE  6FEF               	movwf	(___fldiv@b+1)& (0+255),b
  2302   001400  0EF4               	movlw	244
  2303   001402  6FF0               	movwf	(___fldiv@b+2)& (0+255),b
  2304   001404  0E4A               	movlw	74
  2305   001406  6FF1               	movwf	(___fldiv@b+3)& (0+255),b
  2306   001408  EC06  F00D         	call	___fldiv	;wreg free
  2307   00140C  C0EE  F14B         	movff	?___fldiv,_EUSART_Baud_Rate_Calculation$5227
  2308   001410  C0EF  F14C         	movff	?___fldiv+1,_EUSART_Baud_Rate_Calculation$5227+1
  2309   001414  C0F0  F14D         	movff	?___fldiv+2,_EUSART_Baud_Rate_Calculation$5227+2
  2310   001418  C0F1  F14E         	movff	?___fldiv+3,_EUSART_Baud_Rate_Calculation$5227+3
  2311   00141C                     
  2312                           ;MCAL_Layer/USART/hal_usart.c: 163:             Baud_Rate_Temp = ((8000000UL/(float)_eus
      +                          art->baudrate)/4)-1;
  2313   00141C  0E00               	movlw	0
  2314   00141E  0100               	movlb	0	; () banked
  2315   001420  6FF2               	movwf	___fldiv@a& (0+255),b
  2316   001422  0E00               	movlw	0
  2317   001424  6FF3               	movwf	(___fldiv@a+1)& (0+255),b
  2318   001426  0E80               	movlw	128
  2319   001428  6FF4               	movwf	(___fldiv@a+2)& (0+255),b
  2320   00142A  0E40               	movlw	64
  2321   00142C  6FF5               	movwf	(___fldiv@a+3)& (0+255),b
  2322   00142E  C14B  F0EE         	movff	_EUSART_Baud_Rate_Calculation$5227,___fldiv@b
  2323   001432  C14C  F0EF         	movff	_EUSART_Baud_Rate_Calculation$5227+1,___fldiv@b+1
  2324   001436  C14D  F0F0         	movff	_EUSART_Baud_Rate_Calculation$5227+2,___fldiv@b+2
  2325   00143A  C14E  F0F1         	movff	_EUSART_Baud_Rate_Calculation$5227+3,___fldiv@b+3
  2326   00143E  EC06  F00D         	call	___fldiv	;wreg free
  2327   001442  C0EE  F13B         	movff	?___fldiv,___fladd@b
  2328   001446  C0EF  F13C         	movff	?___fldiv+1,___fladd@b+1
  2329   00144A  C0F0  F13D         	movff	?___fldiv+2,___fladd@b+2
  2330   00144E  C0F1  F13E         	movff	?___fldiv+3,___fladd@b+3
  2331   001452  0E00               	movlw	0
  2332   001454  0101               	movlb	1	; () banked
  2333   001456  6F3F               	movwf	___fladd@a& (0+255),b
  2334   001458  0E00               	movlw	0
  2335   00145A  6F40               	movwf	(___fladd@a+1)& (0+255),b
  2336   00145C  0E80               	movlw	128
  2337   00145E  6F41               	movwf	(___fladd@a+2)& (0+255),b
  2338   001460  0EBF               	movlw	191
  2339   001462  6F42               	movwf	(___fladd@a+3)& (0+255),b
  2340   001464  EC8A  F00A         	call	___fladd	;wreg free
  2341   001468  C13B  F147         	movff	?___fladd,EUSART_Baud_Rate_Calculation@Baud_Rate_Temp
  2342   00146C  C13C  F148         	movff	?___fladd+1,EUSART_Baud_Rate_Calculation@Baud_Rate_Temp+1
  2343   001470  C13D  F149         	movff	?___fladd+2,EUSART_Baud_Rate_Calculation@Baud_Rate_Temp+2
  2344   001474  C13E  F14A         	movff	?___fladd+3,EUSART_Baud_Rate_Calculation@Baud_Rate_Temp+3
  2345                           
  2346                           ;MCAL_Layer/USART/hal_usart.c: 164:             break;
  2347   001478  EF6A  F00A         	goto	l8205
  2348   00147C                     l8203:
  2349                           
  2350                           ; BSR set to: 1
  2351   00147C  0100               	movlb	0	; () banked
  2352   00147E  EE20 F004          	lfsr	2,4
  2353   001482  51FE               	movf	EUSART_Baud_Rate_Calculation@_eusart& (0+255),w,b
  2354   001484  26D9               	addwf	fsr2l,f,c
  2355   001486  51FF               	movf	(EUSART_Baud_Rate_Calculation@_eusart+1)& (0+255),w,b
  2356   001488  22DA               	addwfc	fsr2h,f,c
  2357   00148A  50DF               	movf	indf2,w,c
  2358   00148C  6E34               	movwf	??_EUSART_Baud_Rate_Calculation^0,c
  2359   00148E  6A35               	clrf	(??_EUSART_Baud_Rate_Calculation+1)^0,c
  2360                           
  2361                           ; Switch on 2 bytes has been partitioned into a top level switch of size 1, and 1 sub-sw
      +                          itches
  2362                           ; Switch size 1, requested type "simple"
  2363                           ; Number of cases is 1, Range of values is 0 to 0
  2364                           ; switch strategies available:
  2365                           ; Name         Instructions Cycles
  2366                           ; simple_byte            4     3 (average)
  2367                           ;	Chosen strategy is simple_byte
  2368   001490  5035               	movf	(??_EUSART_Baud_Rate_Calculation+1)^0,w,c
  2369   001492  0A00               	xorlw	0	; case 0
  2370   001494  B4D8               	btfsc	status,2,c
  2371   001496  EF4F  F00A         	goto	l8929
  2372   00149A  EF6A  F00A         	goto	l8205
  2373   00149E                     l8929:
  2374                           
  2375                           ; BSR set to: 0
  2376                           ; Switch size 1, requested type "simple"
  2377                           ; Number of cases is 6, Range of values is 0 to 5
  2378                           ; switch strategies available:
  2379                           ; Name         Instructions Cycles
  2380                           ; simple_byte           19    10 (average)
  2381                           ;	Chosen strategy is simple_byte
  2382   00149E  5034               	movf	??_EUSART_Baud_Rate_Calculation^0,w,c
  2383   0014A0  0A00               	xorlw	0	; case 0
  2384   0014A2  B4D8               	btfsc	status,2,c
  2385   0014A4  EF11  F008         	goto	l1412
  2386   0014A8  0A01               	xorlw	1	; case 1
  2387   0014AA  B4D8               	btfsc	status,2,c
  2388   0014AC  EF6E  F008         	goto	l1414
  2389   0014B0  0A03               	xorlw	3	; case 2
  2390   0014B2  B4D8               	btfsc	status,2,c
  2391   0014B4  EFCB  F008         	goto	l1415
  2392   0014B8  0A01               	xorlw	1	; case 3
  2393   0014BA  B4D8               	btfsc	status,2,c
  2394   0014BC  EF28  F009         	goto	l1416
  2395   0014C0  0A07               	xorlw	7	; case 4
  2396   0014C2  B4D8               	btfsc	status,2,c
  2397   0014C4  EF85  F009         	goto	l1417
  2398   0014C8  0A01               	xorlw	1	; case 5
  2399   0014CA  B4D8               	btfsc	status,2,c
  2400   0014CC  EFE2  F009         	goto	l1418
  2401   0014D0  EF6A  F00A         	goto	l8205
  2402   0014D4                     l8205:
  2403                           
  2404                           ;MCAL_Layer/USART/hal_usart.c: 167:     SPBRG = (uint8)((uint32)Baud_Rate_Temp);
  2405   0014D4  C147  F026         	movff	EUSART_Baud_Rate_Calculation@Baud_Rate_Temp,___fltol@f1
  2406   0014D8  C148  F027         	movff	EUSART_Baud_Rate_Calculation@Baud_Rate_Temp+1,___fltol@f1+1
  2407   0014DC  C149  F028         	movff	EUSART_Baud_Rate_Calculation@Baud_Rate_Temp+2,___fltol@f1+2
  2408   0014E0  C14A  F029         	movff	EUSART_Baud_Rate_Calculation@Baud_Rate_Temp+3,___fltol@f1+3
  2409   0014E4  ECD1  F014         	call	___fltol	;wreg free
  2410   0014E8  5026               	movf	?___fltol^0,w,c
  2411   0014EA  6EAF               	movwf	175,c	;volatile
  2412                           
  2413                           ;MCAL_Layer/USART/hal_usart.c: 168:     SPBRGH = (uint8)((uint32)Baud_Rate_Temp >> 8);
  2414   0014EC  C147  F026         	movff	EUSART_Baud_Rate_Calculation@Baud_Rate_Temp,___fltol@f1
  2415   0014F0  C148  F027         	movff	EUSART_Baud_Rate_Calculation@Baud_Rate_Temp+1,___fltol@f1+1
  2416   0014F4  C149  F028         	movff	EUSART_Baud_Rate_Calculation@Baud_Rate_Temp+2,___fltol@f1+2
  2417   0014F8  C14A  F029         	movff	EUSART_Baud_Rate_Calculation@Baud_Rate_Temp+3,___fltol@f1+3
  2418   0014FC  ECD1  F014         	call	___fltol	;wreg free
  2419   001500  C027  F026         	movff	?___fltol+1,?___fltol
  2420   001504  C028  F027         	movff	?___fltol+2,?___fltol+1
  2421   001508  C029  F028         	movff	?___fltol+3,?___fltol+2
  2422   00150C  6A29               	clrf	(?___fltol+3)^0,c
  2423   00150E  5026               	movf	?___fltol^0,w,c
  2424   001510  6EB0               	movwf	176,c	;volatile
  2425   001512  0012               	return		;funcret
  2426   001514                     __end_of_EUSART_Baud_Rate_Calculation:
  2427                           	callstack 0
  2428                           
  2429 ;; *************** function ___xxtofl *****************
  2430 ;; Defined at:
  2431 ;;		line 10 in file "C:\Program Files\Microchip\xc8\v2.41\pic\sources\c99\common\xxtofl.c"
  2432 ;; Parameters:    Size  Location     Type
  2433 ;;  sign            1    wreg     unsigned char 
  2434 ;;  val             4   37[COMRAM] long 
  2435 ;; Auto vars:     Size  Location     Type
  2436 ;;  sign            1   45[COMRAM] unsigned char 
  2437 ;;  arg             4   47[COMRAM] unsigned long 
  2438 ;;  exp             1   46[COMRAM] unsigned char 
  2439 ;; Return value:  Size  Location     Type
  2440 ;;                  4   37[COMRAM] unsigned char 
  2441 ;; Registers used:
  2442 ;;		wreg, status,2, status,0
  2443 ;; Tracked objects:
  2444 ;;		On entry : 0/0
  2445 ;;		On exit  : 0/0
  2446 ;;		Unchanged: 0/0
  2447 ;; Data sizes:     COMRAM   BANK0   BANK1   BANK2   BANK3   BANK4   BANK5   BANK6   BANK7   BANK8   BANK9  BANK10  BANK1
      +1  BANK12  BANK13  BANK14  BANK15
  2448 ;;      Params:         4       0       0       0       0       0       0       0       0       0       0       0       
      +0       0       0       0       0
  2449 ;;      Locals:         6       0       0       0       0       0       0       0       0       0       0       0       
      +0       0       0       0       0
  2450 ;;      Temps:          4       0       0       0       0       0       0       0       0       0       0       0       
      +0       0       0       0       0
  2451 ;;      Totals:        14       0       0       0       0       0       0       0       0       0       0       0       
      +0       0       0       0       0
  2452 ;;Total ram usage:       14 bytes
  2453 ;; Hardware stack levels used: 1
  2454 ;; Hardware stack levels required when called: 12
  2455 ;; This function calls:
  2456 ;;		Nothing
  2457 ;; This function is called by:
  2458 ;;		_EUSART_Baud_Rate_Calculation
  2459 ;; This function uses a non-reentrant model
  2460 ;;
  2461                           
  2462                           	psect	text8
  2463   00257E                     __ptext8:
  2464                           	callstack 0
  2465   00257E                     ___xxtofl:
  2466                           	callstack 15
  2467                           
  2468                           ;incstack = 0
  2469                           ;___xxtofl@sign stored from wreg
  2470   00257E  6E2E               	movwf	___xxtofl@sign^0,c
  2471   002580  502E               	movf	___xxtofl@sign^0,w,c
  2472   002582  B4D8               	btfsc	status,2,c
  2473   002584  EFC6  F012         	goto	u8991
  2474   002588  EFC8  F012         	goto	u8990
  2475   00258C                     u8991:
  2476   00258C  EFEA  F012         	goto	l2174
  2477   002590                     u8990:
  2478   002590  BE29               	btfsc	(___xxtofl@val+3)^0,7,c
  2479   002592  EFCF  F012         	goto	u9000
  2480   002596  EFCD  F012         	goto	u9001
  2481   00259A                     u9001:
  2482   00259A  EFEA  F012         	goto	l2174
  2483   00259E                     u9000:
  2484   00259E  C026  F02A         	movff	___xxtofl@val,??___xxtofl
  2485   0025A2  C027  F02B         	movff	___xxtofl@val+1,??___xxtofl+1
  2486   0025A6  C028  F02C         	movff	___xxtofl@val+2,??___xxtofl+2
  2487   0025AA  C029  F02D         	movff	___xxtofl@val+3,??___xxtofl+3
  2488   0025AE  1E2A               	comf	??___xxtofl^0,f,c
  2489   0025B0  1E2B               	comf	(??___xxtofl+1)^0,f,c
  2490   0025B2  1E2C               	comf	(??___xxtofl+2)^0,f,c
  2491   0025B4  1E2D               	comf	(??___xxtofl+3)^0,f,c
  2492   0025B6  2A2A               	incf	??___xxtofl^0,f,c
  2493   0025B8  0E00               	movlw	0
  2494   0025BA  222B               	addwfc	(??___xxtofl+1)^0,f,c
  2495   0025BC  222C               	addwfc	(??___xxtofl+2)^0,f,c
  2496   0025BE  222D               	addwfc	(??___xxtofl+3)^0,f,c
  2497   0025C0  C02A  F030         	movff	??___xxtofl,___xxtofl@arg
  2498   0025C4  C02B  F031         	movff	??___xxtofl+1,___xxtofl@arg+1
  2499   0025C8  C02C  F032         	movff	??___xxtofl+2,___xxtofl@arg+2
  2500   0025CC  C02D  F033         	movff	??___xxtofl+3,___xxtofl@arg+3
  2501   0025D0  EFF2  F012         	goto	l8125
  2502   0025D4                     l2174:
  2503   0025D4  C026  F030         	movff	___xxtofl@val,___xxtofl@arg
  2504   0025D8  C027  F031         	movff	___xxtofl@val+1,___xxtofl@arg+1
  2505   0025DC  C028  F032         	movff	___xxtofl@val+2,___xxtofl@arg+2
  2506   0025E0  C029  F033         	movff	___xxtofl@val+3,___xxtofl@arg+3
  2507   0025E4                     l8125:
  2508   0025E4  5026               	movf	___xxtofl@val^0,w,c
  2509   0025E6  1027               	iorwf	(___xxtofl@val+1)^0,w,c
  2510   0025E8  1028               	iorwf	(___xxtofl@val+2)^0,w,c
  2511   0025EA  1029               	iorwf	(___xxtofl@val+3)^0,w,c
  2512   0025EC  A4D8               	btfss	status,2,c
  2513   0025EE  EFFB  F012         	goto	u9011
  2514   0025F2  EFFD  F012         	goto	u9010
  2515   0025F6                     u9011:
  2516   0025F6  EF07  F013         	goto	l8131
  2517   0025FA                     u9010:
  2518   0025FA  0E00               	movlw	0
  2519   0025FC  6E26               	movwf	?___xxtofl^0,c
  2520   0025FE  0E00               	movlw	0
  2521   002600  6E27               	movwf	(?___xxtofl+1)^0,c
  2522   002602  0E00               	movlw	0
  2523   002604  6E28               	movwf	(?___xxtofl+2)^0,c
  2524   002606  0E00               	movlw	0
  2525   002608  6E29               	movwf	(?___xxtofl+3)^0,c
  2526   00260A  EF98  F013         	goto	l2177
  2527   00260E                     l8131:
  2528   00260E  0E96               	movlw	150
  2529   002610  6E2F               	movwf	___xxtofl@exp^0,c
  2530   002612  EF11  F013         	goto	l8135
  2531   002616                     l8133:
  2532   002616  2A2F               	incf	___xxtofl@exp^0,f,c
  2533   002618  90D8               	bcf	status,0,c
  2534   00261A  3233               	rrcf	(___xxtofl@arg+3)^0,f,c
  2535   00261C  3232               	rrcf	(___xxtofl@arg+2)^0,f,c
  2536   00261E  3231               	rrcf	(___xxtofl@arg+1)^0,f,c
  2537   002620  3230               	rrcf	___xxtofl@arg^0,f,c
  2538   002622                     l8135:
  2539   002622  0E00               	movlw	0
  2540   002624  1430               	andwf	___xxtofl@arg^0,w,c
  2541   002626  6E2A               	movwf	??___xxtofl^0,c
  2542   002628  0E00               	movlw	0
  2543   00262A  1431               	andwf	(___xxtofl@arg+1)^0,w,c
  2544   00262C  6E2B               	movwf	(??___xxtofl+1)^0,c
  2545   00262E  0E00               	movlw	0
  2546   002630  1432               	andwf	(___xxtofl@arg+2)^0,w,c
  2547   002632  6E2C               	movwf	(??___xxtofl+2)^0,c
  2548   002634  0EFE               	movlw	254
  2549   002636  1433               	andwf	(___xxtofl@arg+3)^0,w,c
  2550   002638  6E2D               	movwf	(??___xxtofl+3)^0,c
  2551   00263A  502A               	movf	??___xxtofl^0,w,c
  2552   00263C  102B               	iorwf	(??___xxtofl+1)^0,w,c
  2553   00263E  102C               	iorwf	(??___xxtofl+2)^0,w,c
  2554   002640  102D               	iorwf	(??___xxtofl+3)^0,w,c
  2555   002642  A4D8               	btfss	status,2,c
  2556   002644  EF26  F013         	goto	u9021
  2557   002648  EF28  F013         	goto	u9020
  2558   00264C                     u9021:
  2559   00264C  EF0B  F013         	goto	l8133
  2560   002650                     u9020:
  2561   002650  EF36  F013         	goto	l2181
  2562   002654                     l8137:
  2563   002654  2A2F               	incf	___xxtofl@exp^0,f,c
  2564   002656  0E01               	movlw	1
  2565   002658  2630               	addwf	___xxtofl@arg^0,f,c
  2566   00265A  0E00               	movlw	0
  2567   00265C  2231               	addwfc	(___xxtofl@arg+1)^0,f,c
  2568   00265E  2232               	addwfc	(___xxtofl@arg+2)^0,f,c
  2569   002660  2233               	addwfc	(___xxtofl@arg+3)^0,f,c
  2570   002662  90D8               	bcf	status,0,c
  2571   002664  3233               	rrcf	(___xxtofl@arg+3)^0,f,c
  2572   002666  3232               	rrcf	(___xxtofl@arg+2)^0,f,c
  2573   002668  3231               	rrcf	(___xxtofl@arg+1)^0,f,c
  2574   00266A  3230               	rrcf	___xxtofl@arg^0,f,c
  2575   00266C                     l2181:
  2576   00266C  0E00               	movlw	0
  2577   00266E  1430               	andwf	___xxtofl@arg^0,w,c
  2578   002670  6E2A               	movwf	??___xxtofl^0,c
  2579   002672  0E00               	movlw	0
  2580   002674  1431               	andwf	(___xxtofl@arg+1)^0,w,c
  2581   002676  6E2B               	movwf	(??___xxtofl+1)^0,c
  2582   002678  0E00               	movlw	0
  2583   00267A  1432               	andwf	(___xxtofl@arg+2)^0,w,c
  2584   00267C  6E2C               	movwf	(??___xxtofl+2)^0,c
  2585   00267E  0EFF               	movlw	255
  2586   002680  1433               	andwf	(___xxtofl@arg+3)^0,w,c
  2587   002682  6E2D               	movwf	(??___xxtofl+3)^0,c
  2588   002684  502A               	movf	??___xxtofl^0,w,c
  2589   002686  102B               	iorwf	(??___xxtofl+1)^0,w,c
  2590   002688  102C               	iorwf	(??___xxtofl+2)^0,w,c
  2591   00268A  102D               	iorwf	(??___xxtofl+3)^0,w,c
  2592   00268C  A4D8               	btfss	status,2,c
  2593   00268E  EF4B  F013         	goto	u9031
  2594   002692  EF4D  F013         	goto	u9030
  2595   002696                     u9031:
  2596   002696  EF2A  F013         	goto	l8137
  2597   00269A                     u9030:
  2598   00269A  EF55  F013         	goto	l8145
  2599   00269E                     l8143:
  2600   00269E  062F               	decf	___xxtofl@exp^0,f,c
  2601   0026A0  90D8               	bcf	status,0,c
  2602   0026A2  3630               	rlcf	___xxtofl@arg^0,f,c
  2603   0026A4  3631               	rlcf	(___xxtofl@arg+1)^0,f,c
  2604   0026A6  3632               	rlcf	(___xxtofl@arg+2)^0,f,c
  2605   0026A8  3633               	rlcf	(___xxtofl@arg+3)^0,f,c
  2606   0026AA                     l8145:
  2607   0026AA  BE32               	btfsc	(___xxtofl@arg+2)^0,7,c
  2608   0026AC  EF5A  F013         	goto	u9041
  2609   0026B0  EF5C  F013         	goto	u9040
  2610   0026B4                     u9041:
  2611   0026B4  EF64  F013         	goto	l2188
  2612   0026B8                     u9040:
  2613   0026B8  0E02               	movlw	2
  2614   0026BA  602F               	cpfslt	___xxtofl@exp^0,c
  2615   0026BC  EF62  F013         	goto	u9051
  2616   0026C0  EF64  F013         	goto	u9050
  2617   0026C4                     u9051:
  2618   0026C4  EF4F  F013         	goto	l8143
  2619   0026C8                     u9050:
  2620   0026C8                     l2188:
  2621   0026C8  B02F               	btfsc	___xxtofl@exp^0,0,c
  2622   0026CA  EF69  F013         	goto	u9061
  2623   0026CE  EF6B  F013         	goto	u9060
  2624   0026D2                     u9061:
  2625   0026D2  EF6C  F013         	goto	l8151
  2626   0026D6                     u9060:
  2627   0026D6  9E32               	bcf	(___xxtofl@arg+2)^0,7,c
  2628   0026D8                     l8151:
  2629   0026D8  90D8               	bcf	status,0,c
  2630   0026DA  322F               	rrcf	___xxtofl@exp^0,f,c
  2631   0026DC  C02F  F02A         	movff	___xxtofl@exp,??___xxtofl
  2632   0026E0  6A2B               	clrf	(??___xxtofl+1)^0,c
  2633   0026E2  6A2C               	clrf	(??___xxtofl+2)^0,c
  2634   0026E4  6A2D               	clrf	(??___xxtofl+3)^0,c
  2635   0026E6  C02A  F02D         	movff	??___xxtofl,??___xxtofl+3
  2636   0026EA  6A2C               	clrf	(??___xxtofl+2)^0,c
  2637   0026EC  6A2B               	clrf	(??___xxtofl+1)^0,c
  2638   0026EE  6A2A               	clrf	??___xxtofl^0,c
  2639   0026F0  502A               	movf	??___xxtofl^0,w,c
  2640   0026F2  1230               	iorwf	___xxtofl@arg^0,f,c
  2641   0026F4  502B               	movf	(??___xxtofl+1)^0,w,c
  2642   0026F6  1231               	iorwf	(___xxtofl@arg+1)^0,f,c
  2643   0026F8  502C               	movf	(??___xxtofl+2)^0,w,c
  2644   0026FA  1232               	iorwf	(___xxtofl@arg+2)^0,f,c
  2645   0026FC  502D               	movf	(??___xxtofl+3)^0,w,c
  2646   0026FE  1233               	iorwf	(___xxtofl@arg+3)^0,f,c
  2647   002700  502E               	movf	___xxtofl@sign^0,w,c
  2648   002702  B4D8               	btfsc	status,2,c
  2649   002704  EF86  F013         	goto	u9071
  2650   002708  EF88  F013         	goto	u9070
  2651   00270C                     u9071:
  2652   00270C  EF90  F013         	goto	l8161
  2653   002710                     u9070:
  2654   002710  BE29               	btfsc	(___xxtofl@val+3)^0,7,c
  2655   002712  EF8F  F013         	goto	u9080
  2656   002716  EF8D  F013         	goto	u9081
  2657   00271A                     u9081:
  2658   00271A  EF90  F013         	goto	l8161
  2659   00271E                     u9080:
  2660   00271E  8E33               	bsf	(___xxtofl@arg+3)^0,7,c
  2661   002720                     l8161:
  2662   002720  C030  F026         	movff	___xxtofl@arg,?___xxtofl
  2663   002724  C031  F027         	movff	___xxtofl@arg+1,?___xxtofl+1
  2664   002728  C032  F028         	movff	___xxtofl@arg+2,?___xxtofl+2
  2665   00272C  C033  F029         	movff	___xxtofl@arg+3,?___xxtofl+3
  2666   002730                     l2177:
  2667   002730  0012               	return		;funcret
  2668   002732                     __end_of___xxtofl:
  2669                           	callstack 0
  2670                           
  2671 ;; *************** function ___fltol *****************
  2672 ;; Defined at:
  2673 ;;		line 43 in file "C:\Program Files\Microchip\xc8\v2.41\pic\sources\c99\common\fltol.c"
  2674 ;; Parameters:    Size  Location     Type
  2675 ;;  f1              4   37[COMRAM] unsigned char 
  2676 ;; Auto vars:     Size  Location     Type
  2677 ;;  exp1            1   46[COMRAM] unsigned char 
  2678 ;;  sign1           1   45[COMRAM] unsigned char 
  2679 ;; Return value:  Size  Location     Type
  2680 ;;                  4   37[COMRAM] long 
  2681 ;; Registers used:
  2682 ;;		wreg, status,2, status,0
  2683 ;; Tracked objects:
  2684 ;;		On entry : 0/0
  2685 ;;		On exit  : 0/0
  2686 ;;		Unchanged: 0/0
  2687 ;; Data sizes:     COMRAM   BANK0   BANK1   BANK2   BANK3   BANK4   BANK5   BANK6   BANK7   BANK8   BANK9  BANK10  BANK1
      +1  BANK12  BANK13  BANK14  BANK15
  2688 ;;      Params:         4       0       0       0       0       0       0       0       0       0       0       0       
      +0       0       0       0       0
  2689 ;;      Locals:         2       0       0       0       0       0       0       0       0       0       0       0       
      +0       0       0       0       0
  2690 ;;      Temps:          4       0       0       0       0       0       0       0       0       0       0       0       
      +0       0       0       0       0
  2691 ;;      Totals:        10       0       0       0       0       0       0       0       0       0       0       0       
      +0       0       0       0       0
  2692 ;;Total ram usage:       10 bytes
  2693 ;; Hardware stack levels used: 1
  2694 ;; Hardware stack levels required when called: 12
  2695 ;; This function calls:
  2696 ;;		Nothing
  2697 ;; This function is called by:
  2698 ;;		_EUSART_Baud_Rate_Calculation
  2699 ;; This function uses a non-reentrant model
  2700 ;;
  2701                           
  2702                           	psect	text9
  2703   0029A2                     __ptext9:
  2704                           	callstack 0
  2705   0029A2                     ___fltol:
  2706                           	callstack 15
  2707   0029A2  3428               	rlcf	(___fltol@f1+2)^0,w,c
  2708   0029A4  3429               	rlcf	(___fltol@f1+3)^0,w,c
  2709   0029A6  6E2F               	movwf	___fltol@exp1^0,c
  2710   0029A8  502F               	movf	___fltol@exp1^0,w,c
  2711   0029AA  A4D8               	btfss	status,2,c
  2712   0029AC  EFDA  F014         	goto	u8921
  2713   0029B0  EFDC  F014         	goto	u8920
  2714   0029B4                     u8921:
  2715   0029B4  EFE6  F014         	goto	l8081
  2716   0029B8                     u8920:
  2717   0029B8                     l8077:
  2718   0029B8  0E00               	movlw	0
  2719   0029BA  6E26               	movwf	?___fltol^0,c
  2720   0029BC  0E00               	movlw	0
  2721   0029BE  6E27               	movwf	(?___fltol+1)^0,c
  2722   0029C0  0E00               	movlw	0
  2723   0029C2  6E28               	movwf	(?___fltol+2)^0,c
  2724   0029C4  0E00               	movlw	0
  2725   0029C6  6E29               	movwf	(?___fltol+3)^0,c
  2726   0029C8  EF53  F015         	goto	l1816
  2727   0029CC                     l8081:
  2728   0029CC  C026  F02A         	movff	___fltol@f1,??___fltol
  2729   0029D0  C027  F02B         	movff	___fltol@f1+1,??___fltol+1
  2730   0029D4  C028  F02C         	movff	___fltol@f1+2,??___fltol+2
  2731   0029D8  C029  F02D         	movff	___fltol@f1+3,??___fltol+3
  2732   0029DC  0E20               	movlw	32
  2733   0029DE  EFF6  F014         	goto	u8930
  2734   0029E2                     u8935:
  2735   0029E2  90D8               	bcf	status,0,c
  2736   0029E4  322D               	rrcf	(??___fltol+3)^0,f,c
  2737   0029E6  322C               	rrcf	(??___fltol+2)^0,f,c
  2738   0029E8  322B               	rrcf	(??___fltol+1)^0,f,c
  2739   0029EA  322A               	rrcf	??___fltol^0,f,c
  2740   0029EC                     u8930:
  2741   0029EC  2EE8               	decfsz	wreg,f,c
  2742   0029EE  EFF1  F014         	goto	u8935
  2743   0029F2  502A               	movf	??___fltol^0,w,c
  2744   0029F4  6E2E               	movwf	___fltol@sign1^0,c
  2745   0029F6  8E28               	bsf	(___fltol@f1+2)^0,7,c
  2746   0029F8  0EFF               	movlw	255
  2747   0029FA  1626               	andwf	___fltol@f1^0,f,c
  2748   0029FC  0EFF               	movlw	255
  2749   0029FE  1627               	andwf	(___fltol@f1+1)^0,f,c
  2750   002A00  0EFF               	movlw	255
  2751   002A02  1628               	andwf	(___fltol@f1+2)^0,f,c
  2752   002A04  0E00               	movlw	0
  2753   002A06  1629               	andwf	(___fltol@f1+3)^0,f,c
  2754   002A08  0E96               	movlw	150
  2755   002A0A  5E2F               	subwf	___fltol@exp1^0,f,c
  2756   002A0C  BE2F               	btfsc	___fltol@exp1^0,7,c
  2757   002A0E  EF0D  F015         	goto	u8940
  2758   002A12  EF0B  F015         	goto	u8941
  2759   002A16                     u8941:
  2760   002A16  EF23  F015         	goto	l8101
  2761   002A1A                     u8940:
  2762   002A1A  502F               	movf	___fltol@exp1^0,w,c
  2763   002A1C  0A80               	xorlw	128
  2764   002A1E  0F97               	addlw	151
  2765   002A20  B0D8               	btfsc	status,0,c
  2766   002A22  EF15  F015         	goto	u8951
  2767   002A26  EF17  F015         	goto	u8950
  2768   002A2A                     u8951:
  2769   002A2A  EF19  F015         	goto	l8097
  2770   002A2E                     u8950:
  2771   002A2E  EFDC  F014         	goto	l8077
  2772   002A32                     l8097:
  2773   002A32  90D8               	bcf	status,0,c
  2774   002A34  3229               	rrcf	(___fltol@f1+3)^0,f,c
  2775   002A36  3228               	rrcf	(___fltol@f1+2)^0,f,c
  2776   002A38  3227               	rrcf	(___fltol@f1+1)^0,f,c
  2777   002A3A  3226               	rrcf	___fltol@f1^0,f,c
  2778   002A3C  3E2F               	incfsz	___fltol@exp1^0,f,c
  2779   002A3E  EF19  F015         	goto	l8097
  2780   002A42  EF3B  F015         	goto	l8111
  2781   002A46                     l8101:
  2782   002A46  0E1F               	movlw	31
  2783   002A48  642F               	cpfsgt	___fltol@exp1^0,c
  2784   002A4A  EF29  F015         	goto	u8961
  2785   002A4E  EF2B  F015         	goto	u8960
  2786   002A52                     u8961:
  2787   002A52  EF33  F015         	goto	l8109
  2788   002A56                     u8960:
  2789   002A56  EFDC  F014         	goto	l8077
  2790   002A5A                     l8107:
  2791   002A5A  90D8               	bcf	status,0,c
  2792   002A5C  3626               	rlcf	___fltol@f1^0,f,c
  2793   002A5E  3627               	rlcf	(___fltol@f1+1)^0,f,c
  2794   002A60  3628               	rlcf	(___fltol@f1+2)^0,f,c
  2795   002A62  3629               	rlcf	(___fltol@f1+3)^0,f,c
  2796   002A64  062F               	decf	___fltol@exp1^0,f,c
  2797   002A66                     l8109:
  2798   002A66  502F               	movf	___fltol@exp1^0,w,c
  2799   002A68  A4D8               	btfss	status,2,c
  2800   002A6A  EF39  F015         	goto	u8971
  2801   002A6E  EF3B  F015         	goto	u8970
  2802   002A72                     u8971:
  2803   002A72  EF2D  F015         	goto	l8107
  2804   002A76                     u8970:
  2805   002A76                     l8111:
  2806   002A76  502E               	movf	___fltol@sign1^0,w,c
  2807   002A78  B4D8               	btfsc	status,2,c
  2808   002A7A  EF41  F015         	goto	u8981
  2809   002A7E  EF43  F015         	goto	u8980
  2810   002A82                     u8981:
  2811   002A82  EF4B  F015         	goto	l8115
  2812   002A86                     u8980:
  2813   002A86  1E29               	comf	(___fltol@f1+3)^0,f,c
  2814   002A88  1E28               	comf	(___fltol@f1+2)^0,f,c
  2815   002A8A  1E27               	comf	(___fltol@f1+1)^0,f,c
  2816   002A8C  6C26               	negf	___fltol@f1^0,c
  2817   002A8E  0E00               	movlw	0
  2818   002A90  2227               	addwfc	(___fltol@f1+1)^0,f,c
  2819   002A92  2228               	addwfc	(___fltol@f1+2)^0,f,c
  2820   002A94  2229               	addwfc	(___fltol@f1+3)^0,f,c
  2821   002A96                     l8115:
  2822   002A96  C026  F026         	movff	___fltol@f1,?___fltol
  2823   002A9A  C027  F027         	movff	___fltol@f1+1,?___fltol+1
  2824   002A9E  C028  F028         	movff	___fltol@f1+2,?___fltol+2
  2825   002AA2  C029  F029         	movff	___fltol@f1+3,?___fltol+3
  2826   002AA6                     l1816:
  2827   002AA6  0012               	return		;funcret
  2828   002AA8                     __end_of___fltol:
  2829                           	callstack 0
  2830                           
  2831 ;; *************** function ___fldiv *****************
  2832 ;; Defined at:
  2833 ;;		line 11 in file "C:\Program Files\Microchip\xc8\v2.41\pic\sources\c99\common\sprcdiv.c"
  2834 ;; Parameters:    Size  Location     Type
  2835 ;;  b               4    0[BANK0 ] long 
  2836 ;;  a               4    4[BANK0 ] long 
  2837 ;; Auto vars:     Size  Location     Type
  2838 ;;  grs             4    7[BANK1 ] unsigned long 
  2839 ;;  rem             4    0[BANK1 ] unsigned long 
  2840 ;;  new_exp         2    5[BANK1 ] short 
  2841 ;;  aexp            1   12[BANK1 ] unsigned char 
  2842 ;;  bexp            1   11[BANK1 ] unsigned char 
  2843 ;;  sign            1    4[BANK1 ] unsigned char 
  2844 ;; Return value:  Size  Location     Type
  2845 ;;                  4    0[BANK0 ] unsigned char 
  2846 ;; Registers used:
  2847 ;;		wreg, status,2, status,0
  2848 ;; Tracked objects:
  2849 ;;		On entry : 0/0
  2850 ;;		On exit  : 0/0
  2851 ;;		Unchanged: 0/0
  2852 ;; Data sizes:     COMRAM   BANK0   BANK1   BANK2   BANK3   BANK4   BANK5   BANK6   BANK7   BANK8   BANK9  BANK10  BANK1
      +1  BANK12  BANK13  BANK14  BANK15
  2853 ;;      Params:         0       8       0       0       0       0       0       0       0       0       0       0       
      +0       0       0       0       0
  2854 ;;      Locals:         0       0      13       0       0       0       0       0       0       0       0       0       
      +0       0       0       0       0
  2855 ;;      Temps:          0       4       0       0       0       0       0       0       0       0       0       0       
      +0       0       0       0       0
  2856 ;;      Totals:         0      12      13       0       0       0       0       0       0       0       0       0       
      +0       0       0       0       0
  2857 ;;Total ram usage:       25 bytes
  2858 ;; Hardware stack levels used: 1
  2859 ;; Hardware stack levels required when called: 12
  2860 ;; This function calls:
  2861 ;;		Nothing
  2862 ;; This function is called by:
  2863 ;;		_EUSART_Baud_Rate_Calculation
  2864 ;; This function uses a non-reentrant model
  2865 ;;
  2866                           
  2867                           	psect	text10
  2868   001A0C                     __ptext10:
  2869                           	callstack 0
  2870   001A0C                     ___fldiv:
  2871                           	callstack 15
  2872   001A0C  0100               	movlb	0	; () banked
  2873   001A0E  51F1               	movf	(___fldiv@b+3)& (0+255),w,b
  2874   001A10  0B80               	andlw	128
  2875   001A12  0101               	movlb	1	; () banked
  2876   001A14  6F32               	movwf	___fldiv@sign& (0+255),b
  2877   001A16  0100               	movlb	0	; () banked
  2878   001A18  51F1               	movf	(___fldiv@b+3)& (0+255),w,b
  2879   001A1A  25F1               	addwf	(___fldiv@b+3)& (0+255),w,b
  2880   001A1C  0101               	movlb	1	; () banked
  2881   001A1E  6F39               	movwf	___fldiv@bexp& (0+255),b
  2882   001A20                     
  2883                           ; BSR set to: 1
  2884   001A20  0100               	movlb	0	; () banked
  2885   001A22  AFF0               	btfss	(___fldiv@b+2)& (0+255),7,b
  2886   001A24  EF16  F00D         	goto	u8691
  2887   001A28  EF18  F00D         	goto	u8690
  2888   001A2C                     u8691:
  2889   001A2C  EF1A  F00D         	goto	l7943
  2890   001A30                     u8690:
  2891   001A30                     
  2892                           ; BSR set to: 0
  2893   001A30  0101               	movlb	1	; () banked
  2894   001A32  8139               	bsf	___fldiv@bexp& (0+255),0,b
  2895   001A34                     l7943:
  2896   001A34  0101               	movlb	1	; () banked
  2897   001A36  5139               	movf	___fldiv@bexp& (0+255),w,b
  2898   001A38  B4D8               	btfsc	status,2,c
  2899   001A3A  EF21  F00D         	goto	u8701
  2900   001A3E  EF23  F00D         	goto	u8700
  2901   001A42                     u8701:
  2902   001A42  EF3A  F00D         	goto	l7953
  2903   001A46                     u8700:
  2904   001A46                     
  2905                           ; BSR set to: 1
  2906   001A46  2939               	incf	___fldiv@bexp& (0+255),w,b
  2907   001A48  A4D8               	btfss	status,2,c
  2908   001A4A  EF29  F00D         	goto	u8711
  2909   001A4E  EF2B  F00D         	goto	u8710
  2910   001A52                     u8711:
  2911   001A52  EF34  F00D         	goto	l7949
  2912   001A56                     u8710:
  2913   001A56                     
  2914                           ; BSR set to: 1
  2915   001A56  0E00               	movlw	0
  2916   001A58  0100               	movlb	0	; () banked
  2917   001A5A  6FEE               	movwf	___fldiv@b& (0+255),b
  2918   001A5C  0E00               	movlw	0
  2919   001A5E  6FEF               	movwf	(___fldiv@b+1)& (0+255),b
  2920   001A60  0E00               	movlw	0
  2921   001A62  6FF0               	movwf	(___fldiv@b+2)& (0+255),b
  2922   001A64  0E00               	movlw	0
  2923   001A66  6FF1               	movwf	(___fldiv@b+3)& (0+255),b
  2924   001A68                     l7949:
  2925   001A68  0100               	movlb	0	; () banked
  2926   001A6A  8FF0               	bsf	(___fldiv@b+2)& (0+255),7,b
  2927   001A6C                     
  2928                           ; BSR set to: 0
  2929   001A6C  0E00               	movlw	0
  2930   001A6E  6FF1               	movwf	(___fldiv@b+3)& (0+255),b
  2931   001A70  EF43  F00D         	goto	l7955
  2932   001A74                     l7953:
  2933                           
  2934                           ; BSR set to: 1
  2935   001A74  0E00               	movlw	0
  2936   001A76  0100               	movlb	0	; () banked
  2937   001A78  6FEE               	movwf	___fldiv@b& (0+255),b
  2938   001A7A  0E00               	movlw	0
  2939   001A7C  6FEF               	movwf	(___fldiv@b+1)& (0+255),b
  2940   001A7E  0E00               	movlw	0
  2941   001A80  6FF0               	movwf	(___fldiv@b+2)& (0+255),b
  2942   001A82  0E00               	movlw	0
  2943   001A84  6FF1               	movwf	(___fldiv@b+3)& (0+255),b
  2944   001A86                     l7955:
  2945                           
  2946                           ; BSR set to: 0
  2947   001A86  51F5               	movf	(___fldiv@a+3)& (0+255),w,b
  2948   001A88  0B80               	andlw	128
  2949   001A8A  0101               	movlb	1	; () banked
  2950   001A8C  1B32               	xorwf	___fldiv@sign& (0+255),f,b
  2951   001A8E                     
  2952                           ; BSR set to: 1
  2953   001A8E  0100               	movlb	0	; () banked
  2954   001A90  51F5               	movf	(___fldiv@a+3)& (0+255),w,b
  2955   001A92  25F5               	addwf	(___fldiv@a+3)& (0+255),w,b
  2956   001A94  0101               	movlb	1	; () banked
  2957   001A96  6F3A               	movwf	___fldiv@aexp& (0+255),b
  2958   001A98                     
  2959                           ; BSR set to: 1
  2960   001A98  0100               	movlb	0	; () banked
  2961   001A9A  AFF4               	btfss	(___fldiv@a+2)& (0+255),7,b
  2962   001A9C  EF52  F00D         	goto	u8721
  2963   001AA0  EF54  F00D         	goto	u8720
  2964   001AA4                     u8721:
  2965   001AA4  EF56  F00D         	goto	l7963
  2966   001AA8                     u8720:
  2967   001AA8                     
  2968                           ; BSR set to: 0
  2969   001AA8  0101               	movlb	1	; () banked
  2970   001AAA  813A               	bsf	___fldiv@aexp& (0+255),0,b
  2971   001AAC                     l7963:
  2972   001AAC  0101               	movlb	1	; () banked
  2973   001AAE  513A               	movf	___fldiv@aexp& (0+255),w,b
  2974   001AB0  B4D8               	btfsc	status,2,c
  2975   001AB2  EF5D  F00D         	goto	u8731
  2976   001AB6  EF5F  F00D         	goto	u8730
  2977   001ABA                     u8731:
  2978   001ABA  EF76  F00D         	goto	l7973
  2979   001ABE                     u8730:
  2980   001ABE                     
  2981                           ; BSR set to: 1
  2982   001ABE  293A               	incf	___fldiv@aexp& (0+255),w,b
  2983   001AC0  A4D8               	btfss	status,2,c
  2984   001AC2  EF65  F00D         	goto	u8741
  2985   001AC6  EF67  F00D         	goto	u8740
  2986   001ACA                     u8741:
  2987   001ACA  EF70  F00D         	goto	l7969
  2988   001ACE                     u8740:
  2989   001ACE                     
  2990                           ; BSR set to: 1
  2991   001ACE  0E00               	movlw	0
  2992   001AD0  0100               	movlb	0	; () banked
  2993   001AD2  6FF2               	movwf	___fldiv@a& (0+255),b
  2994   001AD4  0E00               	movlw	0
  2995   001AD6  6FF3               	movwf	(___fldiv@a+1)& (0+255),b
  2996   001AD8  0E00               	movlw	0
  2997   001ADA  6FF4               	movwf	(___fldiv@a+2)& (0+255),b
  2998   001ADC  0E00               	movlw	0
  2999   001ADE  6FF5               	movwf	(___fldiv@a+3)& (0+255),b
  3000   001AE0                     l7969:
  3001   001AE0  0100               	movlb	0	; () banked
  3002   001AE2  8FF4               	bsf	(___fldiv@a+2)& (0+255),7,b
  3003   001AE4                     
  3004                           ; BSR set to: 0
  3005   001AE4  0E00               	movlw	0
  3006   001AE6  6FF5               	movwf	(___fldiv@a+3)& (0+255),b
  3007   001AE8  EF7F  F00D         	goto	l7975
  3008   001AEC                     l7973:
  3009                           
  3010                           ; BSR set to: 1
  3011   001AEC  0E00               	movlw	0
  3012   001AEE  0100               	movlb	0	; () banked
  3013   001AF0  6FF2               	movwf	___fldiv@a& (0+255),b
  3014   001AF2  0E00               	movlw	0
  3015   001AF4  6FF3               	movwf	(___fldiv@a+1)& (0+255),b
  3016   001AF6  0E00               	movlw	0
  3017   001AF8  6FF4               	movwf	(___fldiv@a+2)& (0+255),b
  3018   001AFA  0E00               	movlw	0
  3019   001AFC  6FF5               	movwf	(___fldiv@a+3)& (0+255),b
  3020   001AFE                     l7975:
  3021                           
  3022                           ; BSR set to: 0
  3023   001AFE  51F2               	movf	___fldiv@a& (0+255),w,b
  3024   001B00  11F3               	iorwf	(___fldiv@a+1)& (0+255),w,b
  3025   001B02  11F4               	iorwf	(___fldiv@a+2)& (0+255),w,b
  3026   001B04  11F5               	iorwf	(___fldiv@a+3)& (0+255),w,b
  3027   001B06  A4D8               	btfss	status,2,c
  3028   001B08  EF88  F00D         	goto	u8751
  3029   001B0C  EF8A  F00D         	goto	u8750
  3030   001B10                     u8751:
  3031   001B10  EFA4  F00D         	goto	l7987
  3032   001B14                     u8750:
  3033   001B14                     
  3034                           ; BSR set to: 0
  3035   001B14  0E00               	movlw	0
  3036   001B16  6FEE               	movwf	___fldiv@b& (0+255),b
  3037   001B18  0E00               	movlw	0
  3038   001B1A  6FEF               	movwf	(___fldiv@b+1)& (0+255),b
  3039   001B1C  0E00               	movlw	0
  3040   001B1E  6FF0               	movwf	(___fldiv@b+2)& (0+255),b
  3041   001B20  0E00               	movlw	0
  3042   001B22  6FF1               	movwf	(___fldiv@b+3)& (0+255),b
  3043   001B24                     
  3044                           ; BSR set to: 0
  3045   001B24  0E80               	movlw	128
  3046   001B26  13F0               	iorwf	(___fldiv@b+2)& (0+255),f,b
  3047   001B28  0E7F               	movlw	127
  3048   001B2A  13F1               	iorwf	(___fldiv@b+3)& (0+255),f,b
  3049   001B2C                     l7981:
  3050                           
  3051                           ; BSR set to: 0
  3052   001B2C  0101               	movlb	1	; () banked
  3053   001B2E  5132               	movf	___fldiv@sign& (0+255),w,b
  3054   001B30  0100               	movlb	0	; () banked
  3055   001B32  13F1               	iorwf	(___fldiv@b+3)& (0+255),f,b
  3056   001B34                     
  3057                           ; BSR set to: 0
  3058   001B34  C0EE  F0EE         	movff	___fldiv@b,?___fldiv
  3059   001B38  C0EF  F0EF         	movff	___fldiv@b+1,?___fldiv+1
  3060   001B3C  C0F0  F0F0         	movff	___fldiv@b+2,?___fldiv+2
  3061   001B40  C0F1  F0F1         	movff	___fldiv@b+3,?___fldiv+3
  3062   001B44  EF1C  F00F         	goto	l2101
  3063   001B48                     l7987:
  3064                           
  3065                           ; BSR set to: 0
  3066   001B48  0101               	movlb	1	; () banked
  3067   001B4A  5139               	movf	___fldiv@bexp& (0+255),w,b
  3068   001B4C  A4D8               	btfss	status,2,c
  3069   001B4E  EFAB  F00D         	goto	u8761
  3070   001B52  EFAD  F00D         	goto	u8760
  3071   001B56                     u8761:
  3072   001B56  EFB8  F00D         	goto	l7995
  3073   001B5A                     u8760:
  3074   001B5A                     
  3075                           ; BSR set to: 1
  3076   001B5A  0E00               	movlw	0
  3077   001B5C  0100               	movlb	0	; () banked
  3078   001B5E  6FEE               	movwf	?___fldiv& (0+255),b
  3079   001B60  0E00               	movlw	0
  3080   001B62  6FEF               	movwf	(?___fldiv+1)& (0+255),b
  3081   001B64  0E00               	movlw	0
  3082   001B66  6FF0               	movwf	(?___fldiv+2)& (0+255),b
  3083   001B68  0E00               	movlw	0
  3084   001B6A  6FF1               	movwf	(?___fldiv+3)& (0+255),b
  3085   001B6C  EF1C  F00F         	goto	l2101
  3086   001B70                     l7995:
  3087                           
  3088                           ; BSR set to: 1
  3089   001B70  513A               	movf	___fldiv@aexp& (0+255),w,b
  3090   001B72  C139  F0F6         	movff	___fldiv@bexp,??___fldiv
  3091   001B76  0100               	movlb	0	; () banked
  3092   001B78  6BF7               	clrf	(??___fldiv+1)& (0+255),b
  3093   001B7A  5FF6               	subwf	??___fldiv& (0+255),f,b
  3094   001B7C  0E00               	movlw	0
  3095   001B7E  5BF7               	subwfb	(??___fldiv+1)& (0+255),f,b
  3096   001B80  0E7F               	movlw	127
  3097   001B82  25F6               	addwf	??___fldiv& (0+255),w,b
  3098   001B84  0101               	movlb	1	; () banked
  3099   001B86  6F33               	movwf	___fldiv@new_exp& (0+255),b
  3100   001B88  0E00               	movlw	0
  3101   001B8A  0100               	movlb	0	; () banked
  3102   001B8C  21F7               	addwfc	(??___fldiv+1)& (0+255),w,b
  3103   001B8E  0101               	movlb	1	; () banked
  3104   001B90  6F34               	movwf	(___fldiv@new_exp+1)& (0+255),b
  3105   001B92                     
  3106                           ; BSR set to: 1
  3107   001B92  C0EE  F12E         	movff	___fldiv@b,___fldiv@rem
  3108   001B96  C0EF  F12F         	movff	___fldiv@b+1,___fldiv@rem+1
  3109   001B9A  C0F0  F130         	movff	___fldiv@b+2,___fldiv@rem+2
  3110   001B9E  C0F1  F131         	movff	___fldiv@b+3,___fldiv@rem+3
  3111   001BA2                     
  3112                           ; BSR set to: 1
  3113   001BA2  0E00               	movlw	0
  3114   001BA4  0100               	movlb	0	; () banked
  3115   001BA6  6FEE               	movwf	___fldiv@b& (0+255),b
  3116   001BA8  0E00               	movlw	0
  3117   001BAA  6FEF               	movwf	(___fldiv@b+1)& (0+255),b
  3118   001BAC  0E00               	movlw	0
  3119   001BAE  6FF0               	movwf	(___fldiv@b+2)& (0+255),b
  3120   001BB0  0E00               	movlw	0
  3121   001BB2  6FF1               	movwf	(___fldiv@b+3)& (0+255),b
  3122   001BB4                     
  3123                           ; BSR set to: 0
  3124   001BB4  0E00               	movlw	0
  3125   001BB6  0101               	movlb	1	; () banked
  3126   001BB8  6F35               	movwf	___fldiv@grs& (0+255),b
  3127   001BBA  0E00               	movlw	0
  3128   001BBC  6F36               	movwf	(___fldiv@grs+1)& (0+255),b
  3129   001BBE  0E00               	movlw	0
  3130   001BC0  6F37               	movwf	(___fldiv@grs+2)& (0+255),b
  3131   001BC2  0E00               	movlw	0
  3132   001BC4  6F38               	movwf	(___fldiv@grs+3)& (0+255),b
  3133   001BC6                     
  3134                           ; BSR set to: 1
  3135   001BC6  0E00               	movlw	0
  3136   001BC8  6F3A               	movwf	___fldiv@aexp& (0+255),b
  3137   001BCA  EF33  F00E         	goto	l2103
  3138   001BCE                     l8005:
  3139                           
  3140                           ; BSR set to: 1
  3141   001BCE  513A               	movf	___fldiv@aexp& (0+255),w,b
  3142   001BD0  B4D8               	btfsc	status,2,c
  3143   001BD2  EFED  F00D         	goto	u8771
  3144   001BD6  EFEF  F00D         	goto	u8770
  3145   001BDA                     u8771:
  3146   001BDA  EF0A  F00E         	goto	l8013
  3147   001BDE                     u8770:
  3148   001BDE                     
  3149                           ; BSR set to: 1
  3150   001BDE  90D8               	bcf	status,0,c
  3151   001BE0  372E               	rlcf	___fldiv@rem& (0+255),f,b
  3152   001BE2  372F               	rlcf	(___fldiv@rem+1)& (0+255),f,b
  3153   001BE4  3730               	rlcf	(___fldiv@rem+2)& (0+255),f,b
  3154   001BE6  3731               	rlcf	(___fldiv@rem+3)& (0+255),f,b
  3155   001BE8  0100               	movlb	0	; () banked
  3156   001BEA  90D8               	bcf	status,0,c
  3157   001BEC  37EE               	rlcf	___fldiv@b& (0+255),f,b
  3158   001BEE  37EF               	rlcf	(___fldiv@b+1)& (0+255),f,b
  3159   001BF0  37F0               	rlcf	(___fldiv@b+2)& (0+255),f,b
  3160   001BF2  37F1               	rlcf	(___fldiv@b+3)& (0+255),f,b
  3161   001BF4                     
  3162                           ; BSR set to: 0
  3163   001BF4  0101               	movlb	1	; () banked
  3164   001BF6  AF38               	btfss	(___fldiv@grs+3)& (0+255),7,b
  3165   001BF8  EF00  F00E         	goto	u8781
  3166   001BFC  EF02  F00E         	goto	u8780
  3167   001C00                     u8781:
  3168   001C00  EF04  F00E         	goto	l2106
  3169   001C04                     u8780:
  3170   001C04                     
  3171                           ; BSR set to: 1
  3172   001C04  0100               	movlb	0	; () banked
  3173   001C06  81EE               	bsf	___fldiv@b& (0+255),0,b
  3174   001C08                     l2106:
  3175   001C08  0101               	movlb	1	; () banked
  3176   001C0A  90D8               	bcf	status,0,c
  3177   001C0C  3735               	rlcf	___fldiv@grs& (0+255),f,b
  3178   001C0E  3736               	rlcf	(___fldiv@grs+1)& (0+255),f,b
  3179   001C10  3737               	rlcf	(___fldiv@grs+2)& (0+255),f,b
  3180   001C12  3738               	rlcf	(___fldiv@grs+3)& (0+255),f,b
  3181   001C14                     l8013:
  3182                           
  3183                           ; BSR set to: 1
  3184   001C14  0100               	movlb	0	; () banked
  3185   001C16  51F2               	movf	___fldiv@a& (0+255),w,b
  3186   001C18  0101               	movlb	1	; () banked
  3187   001C1A  5D2E               	subwf	___fldiv@rem& (0+255),w,b
  3188   001C1C  0100               	movlb	0	; () banked
  3189   001C1E  51F3               	movf	(___fldiv@a+1)& (0+255),w,b
  3190   001C20  0101               	movlb	1	; () banked
  3191   001C22  592F               	subwfb	(___fldiv@rem+1)& (0+255),w,b
  3192   001C24  0100               	movlb	0	; () banked
  3193   001C26  51F4               	movf	(___fldiv@a+2)& (0+255),w,b
  3194   001C28  0101               	movlb	1	; () banked
  3195   001C2A  5930               	subwfb	(___fldiv@rem+2)& (0+255),w,b
  3196   001C2C  0100               	movlb	0	; () banked
  3197   001C2E  51F5               	movf	(___fldiv@a+3)& (0+255),w,b
  3198   001C30  0101               	movlb	1	; () banked
  3199   001C32  5931               	subwfb	(___fldiv@rem+3)& (0+255),w,b
  3200   001C34  A0D8               	btfss	status,0,c
  3201   001C36  EF1F  F00E         	goto	u8791
  3202   001C3A  EF21  F00E         	goto	u8790
  3203   001C3E                     u8791:
  3204   001C3E  EF32  F00E         	goto	l8019
  3205   001C42                     u8790:
  3206   001C42                     
  3207                           ; BSR set to: 1
  3208   001C42  8D38               	bsf	(___fldiv@grs+3)& (0+255),6,b
  3209   001C44                     
  3210                           ; BSR set to: 1
  3211   001C44  0100               	movlb	0	; () banked
  3212   001C46  51F2               	movf	___fldiv@a& (0+255),w,b
  3213   001C48  0101               	movlb	1	; () banked
  3214   001C4A  5F2E               	subwf	___fldiv@rem& (0+255),f,b
  3215   001C4C  0100               	movlb	0	; () banked
  3216   001C4E  51F3               	movf	(___fldiv@a+1)& (0+255),w,b
  3217   001C50  0101               	movlb	1	; () banked
  3218   001C52  5B2F               	subwfb	(___fldiv@rem+1)& (0+255),f,b
  3219   001C54  0100               	movlb	0	; () banked
  3220   001C56  51F4               	movf	(___fldiv@a+2)& (0+255),w,b
  3221   001C58  0101               	movlb	1	; () banked
  3222   001C5A  5B30               	subwfb	(___fldiv@rem+2)& (0+255),f,b
  3223   001C5C  0100               	movlb	0	; () banked
  3224   001C5E  51F5               	movf	(___fldiv@a+3)& (0+255),w,b
  3225   001C60  0101               	movlb	1	; () banked
  3226   001C62  5B31               	subwfb	(___fldiv@rem+3)& (0+255),f,b
  3227   001C64                     l8019:
  3228                           
  3229                           ; BSR set to: 1
  3230   001C64  2B3A               	incf	___fldiv@aexp& (0+255),f,b
  3231   001C66                     l2103:
  3232                           
  3233                           ; BSR set to: 1
  3234   001C66  0E19               	movlw	25
  3235   001C68  653A               	cpfsgt	___fldiv@aexp& (0+255),b
  3236   001C6A  EF39  F00E         	goto	u8801
  3237   001C6E  EF3B  F00E         	goto	u8800
  3238   001C72                     u8801:
  3239   001C72  EFE7  F00D         	goto	l8005
  3240   001C76                     u8800:
  3241   001C76                     
  3242                           ; BSR set to: 1
  3243   001C76  512E               	movf	___fldiv@rem& (0+255),w,b
  3244   001C78  112F               	iorwf	(___fldiv@rem+1)& (0+255),w,b
  3245   001C7A  1130               	iorwf	(___fldiv@rem+2)& (0+255),w,b
  3246   001C7C  1131               	iorwf	(___fldiv@rem+3)& (0+255),w,b
  3247   001C7E  B4D8               	btfsc	status,2,c
  3248   001C80  EF44  F00E         	goto	u8811
  3249   001C84  EF46  F00E         	goto	u8810
  3250   001C88                     u8811:
  3251   001C88  EF61  F00E         	goto	l8031
  3252   001C8C                     u8810:
  3253   001C8C                     
  3254                           ; BSR set to: 1
  3255   001C8C  8135               	bsf	___fldiv@grs& (0+255),0,b
  3256   001C8E  EF61  F00E         	goto	l8031
  3257   001C92                     l8025:
  3258                           
  3259                           ; BSR set to: 0
  3260   001C92  90D8               	bcf	status,0,c
  3261   001C94  37EE               	rlcf	___fldiv@b& (0+255),f,b
  3262   001C96  37EF               	rlcf	(___fldiv@b+1)& (0+255),f,b
  3263   001C98  37F0               	rlcf	(___fldiv@b+2)& (0+255),f,b
  3264   001C9A  37F1               	rlcf	(___fldiv@b+3)& (0+255),f,b
  3265   001C9C                     
  3266                           ; BSR set to: 0
  3267   001C9C  0101               	movlb	1	; () banked
  3268   001C9E  AF38               	btfss	(___fldiv@grs+3)& (0+255),7,b
  3269   001CA0  EF54  F00E         	goto	u8821
  3270   001CA4  EF56  F00E         	goto	u8820
  3271   001CA8                     u8821:
  3272   001CA8  EF58  F00E         	goto	l2112
  3273   001CAC                     u8820:
  3274   001CAC                     
  3275                           ; BSR set to: 1
  3276   001CAC  0100               	movlb	0	; () banked
  3277   001CAE  81EE               	bsf	___fldiv@b& (0+255),0,b
  3278   001CB0                     l2112:
  3279   001CB0  0101               	movlb	1	; () banked
  3280   001CB2  90D8               	bcf	status,0,c
  3281   001CB4  3735               	rlcf	___fldiv@grs& (0+255),f,b
  3282   001CB6  3736               	rlcf	(___fldiv@grs+1)& (0+255),f,b
  3283   001CB8  3737               	rlcf	(___fldiv@grs+2)& (0+255),f,b
  3284   001CBA  3738               	rlcf	(___fldiv@grs+3)& (0+255),f,b
  3285   001CBC  0733               	decf	___fldiv@new_exp& (0+255),f,b
  3286   001CBE  A0D8               	btfss	status,0,c
  3287   001CC0  0734               	decf	(___fldiv@new_exp+1)& (0+255),f,b
  3288   001CC2                     l8031:
  3289                           
  3290                           ; BSR set to: 1
  3291   001CC2  0100               	movlb	0	; () banked
  3292   001CC4  AFF0               	btfss	(___fldiv@b+2)& (0+255),7,b
  3293   001CC6  EF67  F00E         	goto	u8831
  3294   001CCA  EF69  F00E         	goto	u8830
  3295   001CCE                     u8831:
  3296   001CCE  EF49  F00E         	goto	l8025
  3297   001CD2                     u8830:
  3298   001CD2                     
  3299                           ; BSR set to: 0
  3300   001CD2  0E00               	movlw	0
  3301   001CD4  0101               	movlb	1	; () banked
  3302   001CD6  6F3A               	movwf	___fldiv@aexp& (0+255),b
  3303   001CD8                     
  3304                           ; BSR set to: 1
  3305   001CD8  AF38               	btfss	(___fldiv@grs+3)& (0+255),7,b
  3306   001CDA  EF71  F00E         	goto	u8841
  3307   001CDE  EF73  F00E         	goto	u8840
  3308   001CE2                     u8841:
  3309   001CE2  EF9F  F00E         	goto	l2114
  3310   001CE6                     u8840:
  3311   001CE6                     
  3312                           ; BSR set to: 1
  3313   001CE6  0EFF               	movlw	255
  3314   001CE8  1535               	andwf	___fldiv@grs& (0+255),w,b
  3315   001CEA  0100               	movlb	0	; () banked
  3316   001CEC  6FF6               	movwf	??___fldiv& (0+255),b
  3317   001CEE  0EFF               	movlw	255
  3318   001CF0  0101               	movlb	1	; () banked
  3319   001CF2  1536               	andwf	(___fldiv@grs+1)& (0+255),w,b
  3320   001CF4  0100               	movlb	0	; () banked
  3321   001CF6  6FF7               	movwf	(??___fldiv+1)& (0+255),b
  3322   001CF8  0EFF               	movlw	255
  3323   001CFA  0101               	movlb	1	; () banked
  3324   001CFC  1537               	andwf	(___fldiv@grs+2)& (0+255),w,b
  3325   001CFE  0100               	movlb	0	; () banked
  3326   001D00  6FF8               	movwf	(??___fldiv+2)& (0+255),b
  3327   001D02  0E7F               	movlw	127
  3328   001D04  0101               	movlb	1	; () banked
  3329   001D06  1538               	andwf	(___fldiv@grs+3)& (0+255),w,b
  3330   001D08  0100               	movlb	0	; () banked
  3331   001D0A  6FF9               	movwf	(??___fldiv+3)& (0+255),b
  3332   001D0C  51F6               	movf	??___fldiv& (0+255),w,b
  3333   001D0E  11F7               	iorwf	(??___fldiv+1)& (0+255),w,b
  3334   001D10  11F8               	iorwf	(??___fldiv+2)& (0+255),w,b
  3335   001D12  11F9               	iorwf	(??___fldiv+3)& (0+255),w,b
  3336   001D14  B4D8               	btfsc	status,2,c
  3337   001D16  EF8F  F00E         	goto	u8851
  3338   001D1A  EF91  F00E         	goto	u8850
  3339   001D1E                     u8851:
  3340   001D1E  EF96  F00E         	goto	l2115
  3341   001D22                     u8850:
  3342   001D22                     l8039:
  3343                           
  3344                           ; BSR set to: 0
  3345   001D22  0E01               	movlw	1
  3346   001D24  0101               	movlb	1	; () banked
  3347   001D26  6F3A               	movwf	___fldiv@aexp& (0+255),b
  3348   001D28  EF9F  F00E         	goto	l2114
  3349   001D2C                     l2115:
  3350                           
  3351                           ; BSR set to: 0
  3352   001D2C  A1EE               	btfss	___fldiv@b& (0+255),0,b
  3353   001D2E  EF9B  F00E         	goto	u8861
  3354   001D32  EF9D  F00E         	goto	u8860
  3355   001D36                     u8861:
  3356   001D36  EF9F  F00E         	goto	l2114
  3357   001D3A                     u8860:
  3358   001D3A  EF91  F00E         	goto	l8039
  3359   001D3E                     l2114:
  3360   001D3E  0101               	movlb	1	; () banked
  3361   001D40  513A               	movf	___fldiv@aexp& (0+255),w,b
  3362   001D42  B4D8               	btfsc	status,2,c
  3363   001D44  EFA6  F00E         	goto	u8871
  3364   001D48  EFA8  F00E         	goto	u8870
  3365   001D4C                     u8871:
  3366   001D4C  EFCE  F00E         	goto	l8051
  3367   001D50                     u8870:
  3368   001D50                     
  3369                           ; BSR set to: 1
  3370   001D50  0E01               	movlw	1
  3371   001D52  0100               	movlb	0	; () banked
  3372   001D54  27EE               	addwf	___fldiv@b& (0+255),f,b
  3373   001D56  0E00               	movlw	0
  3374   001D58  23EF               	addwfc	(___fldiv@b+1)& (0+255),f,b
  3375   001D5A  23F0               	addwfc	(___fldiv@b+2)& (0+255),f,b
  3376   001D5C  23F1               	addwfc	(___fldiv@b+3)& (0+255),f,b
  3377   001D5E                     
  3378                           ; BSR set to: 0
  3379   001D5E  A1F1               	btfss	(___fldiv@b+3)& (0+255),0,b
  3380   001D60  EFB4  F00E         	goto	u8881
  3381   001D64  EFB6  F00E         	goto	u8880
  3382   001D68                     u8881:
  3383   001D68  EFCE  F00E         	goto	l8051
  3384   001D6C                     u8880:
  3385   001D6C                     
  3386                           ; BSR set to: 0
  3387   001D6C  C0EE  F0F6         	movff	___fldiv@b,??___fldiv
  3388   001D70  C0EF  F0F7         	movff	___fldiv@b+1,??___fldiv+1
  3389   001D74  C0F0  F0F8         	movff	___fldiv@b+2,??___fldiv+2
  3390   001D78  C0F1  F0F9         	movff	___fldiv@b+3,??___fldiv+3
  3391   001D7C  35F9               	rlcf	(??___fldiv+3)& (0+255),w,b
  3392   001D7E  33F9               	rrcf	(??___fldiv+3)& (0+255),f,b
  3393   001D80  33F8               	rrcf	(??___fldiv+2)& (0+255),f,b
  3394   001D82  33F7               	rrcf	(??___fldiv+1)& (0+255),f,b
  3395   001D84  33F6               	rrcf	??___fldiv& (0+255),f,b
  3396   001D86  C0F6  F0EE         	movff	??___fldiv,___fldiv@b
  3397   001D8A  C0F7  F0EF         	movff	??___fldiv+1,___fldiv@b+1
  3398   001D8E  C0F8  F0F0         	movff	??___fldiv+2,___fldiv@b+2
  3399   001D92  C0F9  F0F1         	movff	??___fldiv+3,___fldiv@b+3
  3400   001D96                     
  3401                           ; BSR set to: 0
  3402   001D96  0101               	movlb	1	; () banked
  3403   001D98  4B33               	infsnz	___fldiv@new_exp& (0+255),f,b
  3404   001D9A  2B34               	incf	(___fldiv@new_exp+1)& (0+255),f,b
  3405   001D9C                     l8051:
  3406   001D9C  0101               	movlb	1	; () banked
  3407   001D9E  BF34               	btfsc	(___fldiv@new_exp+1)& (0+255),7,b
  3408   001DA0  EFDA  F00E         	goto	u8891
  3409   001DA4  5134               	movf	(___fldiv@new_exp+1)& (0+255),w,b
  3410   001DA6  E108               	bnz	u8890
  3411   001DA8  2933               	incf	___fldiv@new_exp& (0+255),w,b
  3412   001DAA  A0D8               	btfss	status,0,c
  3413   001DAC  EFDA  F00E         	goto	u8891
  3414   001DB0  EFDC  F00E         	goto	u8890
  3415   001DB4                     u8891:
  3416   001DB4  EFE8  F00E         	goto	l8055
  3417   001DB8                     u8890:
  3418   001DB8                     
  3419                           ; BSR set to: 1
  3420   001DB8  0E00               	movlw	0
  3421   001DBA  6F34               	movwf	(___fldiv@new_exp+1)& (0+255),b
  3422   001DBC  6933               	setf	___fldiv@new_exp& (0+255),b
  3423   001DBE  0E00               	movlw	0
  3424   001DC0  0100               	movlb	0	; () banked
  3425   001DC2  6FEE               	movwf	___fldiv@b& (0+255),b
  3426   001DC4  0E00               	movlw	0
  3427   001DC6  6FEF               	movwf	(___fldiv@b+1)& (0+255),b
  3428   001DC8  0E00               	movlw	0
  3429   001DCA  6FF0               	movwf	(___fldiv@b+2)& (0+255),b
  3430   001DCC  0E00               	movlw	0
  3431   001DCE  6FF1               	movwf	(___fldiv@b+3)& (0+255),b
  3432   001DD0                     l8055:
  3433   001DD0  0101               	movlb	1	; () banked
  3434   001DD2  BF34               	btfsc	(___fldiv@new_exp+1)& (0+255),7,b
  3435   001DD4  EFF6  F00E         	goto	u8900
  3436   001DD8  5134               	movf	(___fldiv@new_exp+1)& (0+255),w,b
  3437   001DDA  E106               	bnz	u8901
  3438   001DDC  0533               	decf	___fldiv@new_exp& (0+255),w,b
  3439   001DDE  B0D8               	btfsc	status,0,c
  3440   001DE0  EFF4  F00E         	goto	u8901
  3441   001DE4  EFF6  F00E         	goto	u8900
  3442   001DE8                     u8901:
  3443   001DE8  EF06  F00F         	goto	l8059
  3444   001DEC                     u8900:
  3445   001DEC                     
  3446                           ; BSR set to: 1
  3447   001DEC  0E00               	movlw	0
  3448   001DEE  6F34               	movwf	(___fldiv@new_exp+1)& (0+255),b
  3449   001DF0  0E00               	movlw	0
  3450   001DF2  6F33               	movwf	___fldiv@new_exp& (0+255),b
  3451   001DF4  0E00               	movlw	0
  3452   001DF6  0100               	movlb	0	; () banked
  3453   001DF8  6FEE               	movwf	___fldiv@b& (0+255),b
  3454   001DFA  0E00               	movlw	0
  3455   001DFC  6FEF               	movwf	(___fldiv@b+1)& (0+255),b
  3456   001DFE  0E00               	movlw	0
  3457   001E00  6FF0               	movwf	(___fldiv@b+2)& (0+255),b
  3458   001E02  0E00               	movlw	0
  3459   001E04  6FF1               	movwf	(___fldiv@b+3)& (0+255),b
  3460   001E06  0E00               	movlw	0
  3461   001E08  0101               	movlb	1	; () banked
  3462   001E0A  6F32               	movwf	___fldiv@sign& (0+255),b
  3463   001E0C                     l8059:
  3464                           
  3465                           ; BSR set to: 1
  3466   001E0C  C133  F139         	movff	___fldiv@new_exp,___fldiv@bexp
  3467   001E10                     
  3468                           ; BSR set to: 1
  3469   001E10  A139               	btfss	___fldiv@bexp& (0+255),0,b
  3470   001E12  EF0D  F00F         	goto	u8911
  3471   001E16  EF0F  F00F         	goto	u8910
  3472   001E1A                     u8911:
  3473   001E1A  EF13  F00F         	goto	l8065
  3474   001E1E                     u8910:
  3475   001E1E                     
  3476                           ; BSR set to: 1
  3477   001E1E  0100               	movlb	0	; () banked
  3478   001E20  8FF0               	bsf	(___fldiv@b+2)& (0+255),7,b
  3479   001E22  EF15  F00F         	goto	l8067
  3480   001E26                     l8065:
  3481                           
  3482                           ; BSR set to: 1
  3483   001E26  0100               	movlb	0	; () banked
  3484   001E28  9FF0               	bcf	(___fldiv@b+2)& (0+255),7,b
  3485   001E2A                     l8067:
  3486                           
  3487                           ; BSR set to: 0
  3488   001E2A  0101               	movlb	1	; () banked
  3489   001E2C  90D8               	bcf	status,0,c
  3490   001E2E  3139               	rrcf	___fldiv@bexp& (0+255),w,b
  3491   001E30  0100               	movlb	0	; () banked
  3492   001E32  6FF1               	movwf	(___fldiv@b+3)& (0+255),b
  3493   001E34  EF96  F00D         	goto	l7981
  3494   001E38                     l2101:
  3495                           
  3496                           ; BSR set to: 0
  3497   001E38  0012               	return		;funcret
  3498   001E3A                     __end_of___fldiv:
  3499                           	callstack 0
  3500                           
  3501 ;; *************** function ___fladd *****************
  3502 ;; Defined at:
  3503 ;;		line 10 in file "C:\Program Files\Microchip\xc8\v2.41\pic\sources\c99\common\sprcadd.c"
  3504 ;; Parameters:    Size  Location     Type
  3505 ;;  b               4   13[BANK1 ] unsigned char 
  3506 ;;  a               4   17[BANK1 ] unsigned char 
  3507 ;; Auto vars:     Size  Location     Type
  3508 ;;  grs             1   24[BANK1 ] unsigned char 
  3509 ;;  bexp            1   23[BANK1 ] unsigned char 
  3510 ;;  aexp            1   22[BANK1 ] unsigned char 
  3511 ;;  signs           1   21[BANK1 ] unsigned char 
  3512 ;; Return value:  Size  Location     Type
  3513 ;;                  4   13[BANK1 ] unsigned char 
  3514 ;; Registers used:
  3515 ;;		wreg, status,2, status,0
  3516 ;; Tracked objects:
  3517 ;;		On entry : 0/0
  3518 ;;		On exit  : 0/0
  3519 ;;		Unchanged: 0/0
  3520 ;; Data sizes:     COMRAM   BANK0   BANK1   BANK2   BANK3   BANK4   BANK5   BANK6   BANK7   BANK8   BANK9  BANK10  BANK1
      +1  BANK12  BANK13  BANK14  BANK15
  3521 ;;      Params:         0       0       8       0       0       0       0       0       0       0       0       0       
      +0       0       0       0       0
  3522 ;;      Locals:         0       0       4       0       0       0       0       0       0       0       0       0       
      +0       0       0       0       0
  3523 ;;      Temps:          0       4       0       0       0       0       0       0       0       0       0       0       
      +0       0       0       0       0
  3524 ;;      Totals:         0       4      12       0       0       0       0       0       0       0       0       0       
      +0       0       0       0       0
  3525 ;;Total ram usage:       16 bytes
  3526 ;; Hardware stack levels used: 1
  3527 ;; Hardware stack levels required when called: 12
  3528 ;; This function calls:
  3529 ;;		Nothing
  3530 ;; This function is called by:
  3531 ;;		_EUSART_Baud_Rate_Calculation
  3532 ;; This function uses a non-reentrant model
  3533 ;;
  3534                           
  3535                           	psect	text11
  3536   001514                     __ptext11:
  3537                           	callstack 0
  3538   001514                     ___fladd:
  3539                           	callstack 15
  3540   001514  0101               	movlb	1	; () banked
  3541   001516  513E               	movf	(___fladd@b+3)& (0+255),w,b
  3542   001518  0B80               	andlw	128
  3543   00151A  6F43               	movwf	___fladd@signs& (0+255),b
  3544   00151C  513E               	movf	(___fladd@b+3)& (0+255),w,b
  3545   00151E  253E               	addwf	(___fladd@b+3)& (0+255),w,b
  3546   001520  6F45               	movwf	___fladd@bexp& (0+255),b
  3547   001522                     
  3548                           ; BSR set to: 1
  3549   001522  AF3D               	btfss	(___fladd@b+2)& (0+255),7,b
  3550   001524  EF96  F00A         	goto	u8301
  3551   001528  EF98  F00A         	goto	u8300
  3552   00152C                     u8301:
  3553   00152C  EF99  F00A         	goto	l7741
  3554   001530                     u8300:
  3555   001530                     
  3556                           ; BSR set to: 1
  3557   001530  8145               	bsf	___fladd@bexp& (0+255),0,b
  3558   001532                     l7741:
  3559                           
  3560                           ; BSR set to: 1
  3561   001532  5145               	movf	___fladd@bexp& (0+255),w,b
  3562   001534  B4D8               	btfsc	status,2,c
  3563   001536  EF9F  F00A         	goto	u8311
  3564   00153A  EFA1  F00A         	goto	u8310
  3565   00153E                     u8311:
  3566   00153E  EFB6  F00A         	goto	l7751
  3567   001542                     u8310:
  3568   001542                     
  3569                           ; BSR set to: 1
  3570   001542  2945               	incf	___fladd@bexp& (0+255),w,b
  3571   001544  A4D8               	btfss	status,2,c
  3572   001546  EFA7  F00A         	goto	u8321
  3573   00154A  EFA9  F00A         	goto	u8320
  3574   00154E                     u8321:
  3575   00154E  EFB1  F00A         	goto	l7747
  3576   001552                     u8320:
  3577   001552                     
  3578                           ; BSR set to: 1
  3579   001552  0E00               	movlw	0
  3580   001554  6F3B               	movwf	___fladd@b& (0+255),b
  3581   001556  0E00               	movlw	0
  3582   001558  6F3C               	movwf	(___fladd@b+1)& (0+255),b
  3583   00155A  0E00               	movlw	0
  3584   00155C  6F3D               	movwf	(___fladd@b+2)& (0+255),b
  3585   00155E  0E00               	movlw	0
  3586   001560  6F3E               	movwf	(___fladd@b+3)& (0+255),b
  3587   001562                     l7747:
  3588                           
  3589                           ; BSR set to: 1
  3590   001562  8F3D               	bsf	(___fladd@b+2)& (0+255),7,b
  3591   001564                     
  3592                           ; BSR set to: 1
  3593   001564  0E00               	movlw	0
  3594   001566  6F3E               	movwf	(___fladd@b+3)& (0+255),b
  3595   001568  EFBE  F00A         	goto	l7753
  3596   00156C                     l7751:
  3597                           
  3598                           ; BSR set to: 1
  3599   00156C  0E00               	movlw	0
  3600   00156E  6F3B               	movwf	___fladd@b& (0+255),b
  3601   001570  0E00               	movlw	0
  3602   001572  6F3C               	movwf	(___fladd@b+1)& (0+255),b
  3603   001574  0E00               	movlw	0
  3604   001576  6F3D               	movwf	(___fladd@b+2)& (0+255),b
  3605   001578  0E00               	movlw	0
  3606   00157A  6F3E               	movwf	(___fladd@b+3)& (0+255),b
  3607   00157C                     l7753:
  3608                           
  3609                           ; BSR set to: 1
  3610   00157C  5142               	movf	(___fladd@a+3)& (0+255),w,b
  3611   00157E  0B80               	andlw	128
  3612   001580  6F44               	movwf	___fladd@aexp& (0+255),b
  3613   001582                     
  3614                           ; BSR set to: 1
  3615   001582  5143               	movf	___fladd@signs& (0+255),w,b
  3616   001584  1944               	xorwf	___fladd@aexp& (0+255),w,b
  3617   001586  B4D8               	btfsc	status,2,c
  3618   001588  EFC8  F00A         	goto	u8331
  3619   00158C  EFCA  F00A         	goto	u8330
  3620   001590                     u8331:
  3621   001590  EFCB  F00A         	goto	l7759
  3622   001594                     u8330:
  3623   001594                     
  3624                           ; BSR set to: 1
  3625   001594  8D43               	bsf	___fladd@signs& (0+255),6,b
  3626   001596                     l7759:
  3627                           
  3628                           ; BSR set to: 1
  3629   001596  5142               	movf	(___fladd@a+3)& (0+255),w,b
  3630   001598  2542               	addwf	(___fladd@a+3)& (0+255),w,b
  3631   00159A  6F44               	movwf	___fladd@aexp& (0+255),b
  3632   00159C                     
  3633                           ; BSR set to: 1
  3634   00159C  AF41               	btfss	(___fladd@a+2)& (0+255),7,b
  3635   00159E  EFD3  F00A         	goto	u8341
  3636   0015A2  EFD5  F00A         	goto	u8340
  3637   0015A6                     u8341:
  3638   0015A6  EFD6  F00A         	goto	l7765
  3639   0015AA                     u8340:
  3640   0015AA                     
  3641                           ; BSR set to: 1
  3642   0015AA  8144               	bsf	___fladd@aexp& (0+255),0,b
  3643   0015AC                     l7765:
  3644                           
  3645                           ; BSR set to: 1
  3646   0015AC  5144               	movf	___fladd@aexp& (0+255),w,b
  3647   0015AE  B4D8               	btfsc	status,2,c
  3648   0015B0  EFDC  F00A         	goto	u8351
  3649   0015B4  EFDE  F00A         	goto	u8350
  3650   0015B8                     u8351:
  3651   0015B8  EFF3  F00A         	goto	l7775
  3652   0015BC                     u8350:
  3653   0015BC                     
  3654                           ; BSR set to: 1
  3655   0015BC  2944               	incf	___fladd@aexp& (0+255),w,b
  3656   0015BE  A4D8               	btfss	status,2,c
  3657   0015C0  EFE4  F00A         	goto	u8361
  3658   0015C4  EFE6  F00A         	goto	u8360
  3659   0015C8                     u8361:
  3660   0015C8  EFEE  F00A         	goto	l7771
  3661   0015CC                     u8360:
  3662   0015CC                     
  3663                           ; BSR set to: 1
  3664   0015CC  0E00               	movlw	0
  3665   0015CE  6F3F               	movwf	___fladd@a& (0+255),b
  3666   0015D0  0E00               	movlw	0
  3667   0015D2  6F40               	movwf	(___fladd@a+1)& (0+255),b
  3668   0015D4  0E00               	movlw	0
  3669   0015D6  6F41               	movwf	(___fladd@a+2)& (0+255),b
  3670   0015D8  0E00               	movlw	0
  3671   0015DA  6F42               	movwf	(___fladd@a+3)& (0+255),b
  3672   0015DC                     l7771:
  3673                           
  3674                           ; BSR set to: 1
  3675   0015DC  8F41               	bsf	(___fladd@a+2)& (0+255),7,b
  3676   0015DE                     
  3677                           ; BSR set to: 1
  3678   0015DE  0E00               	movlw	0
  3679   0015E0  6F42               	movwf	(___fladd@a+3)& (0+255),b
  3680   0015E2  EFFB  F00A         	goto	l7777
  3681   0015E6                     l7775:
  3682                           
  3683                           ; BSR set to: 1
  3684   0015E6  0E00               	movlw	0
  3685   0015E8  6F3F               	movwf	___fladd@a& (0+255),b
  3686   0015EA  0E00               	movlw	0
  3687   0015EC  6F40               	movwf	(___fladd@a+1)& (0+255),b
  3688   0015EE  0E00               	movlw	0
  3689   0015F0  6F41               	movwf	(___fladd@a+2)& (0+255),b
  3690   0015F2  0E00               	movlw	0
  3691   0015F4  6F42               	movwf	(___fladd@a+3)& (0+255),b
  3692   0015F6                     l7777:
  3693                           
  3694                           ; BSR set to: 1
  3695   0015F6  5145               	movf	___fladd@bexp& (0+255),w,b
  3696   0015F8  5D44               	subwf	___fladd@aexp& (0+255),w,b
  3697   0015FA  B0D8               	btfsc	status,0,c
  3698   0015FC  EF02  F00B         	goto	u8371
  3699   001600  EF04  F00B         	goto	u8370
  3700   001604                     u8371:
  3701   001604  EF2B  F00B         	goto	l7813
  3702   001608                     u8370:
  3703   001608                     
  3704                           ; BSR set to: 1
  3705   001608  AD43               	btfss	___fladd@signs& (0+255),6,b
  3706   00160A  EF09  F00B         	goto	u8381
  3707   00160E  EF0B  F00B         	goto	u8380
  3708   001612                     u8381:
  3709   001612  EF0D  F00B         	goto	l7783
  3710   001616                     u8380:
  3711   001616                     
  3712                           ; BSR set to: 1
  3713   001616  0E80               	movlw	128
  3714   001618  1B43               	xorwf	___fladd@signs& (0+255),f,b
  3715   00161A                     l7783:
  3716                           
  3717                           ; BSR set to: 1
  3718   00161A  C145  F146         	movff	___fladd@bexp,___fladd@grs
  3719   00161E                     
  3720                           ; BSR set to: 1
  3721   00161E  C144  F145         	movff	___fladd@aexp,___fladd@bexp
  3722   001622                     
  3723                           ; BSR set to: 1
  3724   001622  C146  F144         	movff	___fladd@grs,___fladd@aexp
  3725   001626                     
  3726                           ; BSR set to: 1
  3727   001626  C13B  F146         	movff	___fladd@b,___fladd@grs
  3728   00162A                     
  3729                           ; BSR set to: 1
  3730   00162A  C13F  F13B         	movff	___fladd@a,___fladd@b
  3731   00162E                     
  3732                           ; BSR set to: 1
  3733   00162E  C146  F13F         	movff	___fladd@grs,___fladd@a
  3734   001632                     
  3735                           ; BSR set to: 1
  3736   001632  C13C  F146         	movff	___fladd@b+1,___fladd@grs
  3737   001636                     
  3738                           ; BSR set to: 1
  3739   001636  C140  F13C         	movff	___fladd@a+1,___fladd@b+1
  3740   00163A                     
  3741                           ; BSR set to: 1
  3742   00163A  C146  F140         	movff	___fladd@grs,___fladd@a+1
  3743   00163E                     
  3744                           ; BSR set to: 1
  3745   00163E  C13D  F146         	movff	___fladd@b+2,___fladd@grs
  3746   001642                     
  3747                           ; BSR set to: 1
  3748   001642  C141  F13D         	movff	___fladd@a+2,___fladd@b+2
  3749   001646                     
  3750                           ; BSR set to: 1
  3751   001646  C146  F141         	movff	___fladd@grs,___fladd@a+2
  3752   00164A                     
  3753                           ; BSR set to: 1
  3754   00164A  C13E  F146         	movff	___fladd@b+3,___fladd@grs
  3755   00164E                     
  3756                           ; BSR set to: 1
  3757   00164E  C142  F13E         	movff	___fladd@a+3,___fladd@b+3
  3758   001652                     
  3759                           ; BSR set to: 1
  3760   001652  C146  F142         	movff	___fladd@grs,___fladd@a+3
  3761   001656                     l7813:
  3762                           
  3763                           ; BSR set to: 1
  3764   001656  0E00               	movlw	0
  3765   001658  6F46               	movwf	___fladd@grs& (0+255),b
  3766   00165A                     
  3767                           ; BSR set to: 1
  3768   00165A  5145               	movf	___fladd@bexp& (0+255),w,b
  3769   00165C  C144  F0FA         	movff	___fladd@aexp,??___fladd
  3770   001660  0100               	movlb	0	; () banked
  3771   001662  6BFB               	clrf	(??___fladd+1)& (0+255),b
  3772   001664  5FFA               	subwf	??___fladd& (0+255),f,b
  3773   001666  0E00               	movlw	0
  3774   001668  5BFB               	subwfb	(??___fladd+1)& (0+255),f,b
  3775   00166A  BFFB               	btfsc	(??___fladd+1)& (0+255),7,b
  3776   00166C  EF41  F00B         	goto	u8391
  3777   001670  51FB               	movf	(??___fladd+1)& (0+255),w,b
  3778   001672  E109               	bnz	u8390
  3779   001674  0E1A               	movlw	26
  3780   001676  5DFA               	subwf	??___fladd& (0+255),w,b
  3781   001678  A0D8               	btfss	status,0,c
  3782   00167A  EF41  F00B         	goto	u8391
  3783   00167E  EF43  F00B         	goto	u8390
  3784   001682                     u8391:
  3785   001682  EF7B  F00B         	goto	l2048
  3786   001686                     u8390:
  3787   001686                     
  3788                           ; BSR set to: 0
  3789   001686  0101               	movlb	1	; () banked
  3790   001688  513B               	movf	___fladd@b& (0+255),w,b
  3791   00168A  113C               	iorwf	(___fladd@b+1)& (0+255),w,b
  3792   00168C  113D               	iorwf	(___fladd@b+2)& (0+255),w,b
  3793   00168E  113E               	iorwf	(___fladd@b+3)& (0+255),w,b
  3794   001690  A4D8               	btfss	status,2,c
  3795   001692  EF4D  F00B         	goto	u8401
  3796   001696  EF50  F00B         	goto	u8400
  3797   00169A                     u8401:
  3798   00169A  0E01               	movlw	1
  3799   00169C  EF51  F00B         	goto	u8410
  3800   0016A0                     u8400:
  3801   0016A0  0E00               	movlw	0
  3802   0016A2                     u8410:
  3803   0016A2  6F46               	movwf	___fladd@grs& (0+255),b
  3804   0016A4                     
  3805                           ; BSR set to: 1
  3806   0016A4  0E00               	movlw	0
  3807   0016A6  6F3B               	movwf	___fladd@b& (0+255),b
  3808   0016A8  0E00               	movlw	0
  3809   0016AA  6F3C               	movwf	(___fladd@b+1)& (0+255),b
  3810   0016AC  0E00               	movlw	0
  3811   0016AE  6F3D               	movwf	(___fladd@b+2)& (0+255),b
  3812   0016B0  0E00               	movlw	0
  3813   0016B2  6F3E               	movwf	(___fladd@b+3)& (0+255),b
  3814   0016B4                     
  3815                           ; BSR set to: 1
  3816   0016B4  C144  F145         	movff	___fladd@aexp,___fladd@bexp
  3817   0016B8  EF85  F00B         	goto	l2047
  3818   0016BC                     l2049:
  3819                           
  3820                           ; BSR set to: 1
  3821   0016BC  A146               	btfss	___fladd@grs& (0+255),0,b
  3822   0016BE  EF63  F00B         	goto	u8421
  3823   0016C2  EF65  F00B         	goto	u8420
  3824   0016C6                     u8421:
  3825   0016C6  EF6B  F00B         	goto	l7825
  3826   0016CA                     u8420:
  3827   0016CA                     
  3828                           ; BSR set to: 1
  3829   0016CA  90D8               	bcf	status,0,c
  3830   0016CC  3146               	rrcf	___fladd@grs& (0+255),w,b
  3831   0016CE  0901               	iorlw	1
  3832   0016D0  6F46               	movwf	___fladd@grs& (0+255),b
  3833   0016D2  EF6D  F00B         	goto	l7827
  3834   0016D6                     l7825:
  3835                           
  3836                           ; BSR set to: 1
  3837   0016D6  90D8               	bcf	status,0,c
  3838   0016D8  3346               	rrcf	___fladd@grs& (0+255),f,b
  3839   0016DA                     l7827:
  3840                           
  3841                           ; BSR set to: 1
  3842   0016DA  A13B               	btfss	___fladd@b& (0+255),0,b
  3843   0016DC  EF72  F00B         	goto	u8431
  3844   0016E0  EF74  F00B         	goto	u8430
  3845   0016E4                     u8431:
  3846   0016E4  EF75  F00B         	goto	l7831
  3847   0016E8                     u8430:
  3848   0016E8                     
  3849                           ; BSR set to: 1
  3850   0016E8  8F46               	bsf	___fladd@grs& (0+255),7,b
  3851   0016EA                     l7831:
  3852                           
  3853                           ; BSR set to: 1
  3854   0016EA  353E               	rlcf	(___fladd@b+3)& (0+255),w,b
  3855   0016EC  333E               	rrcf	(___fladd@b+3)& (0+255),f,b
  3856   0016EE  333D               	rrcf	(___fladd@b+2)& (0+255),f,b
  3857   0016F0  333C               	rrcf	(___fladd@b+1)& (0+255),f,b
  3858   0016F2  333B               	rrcf	___fladd@b& (0+255),f,b
  3859   0016F4                     
  3860                           ; BSR set to: 1
  3861   0016F4  2B45               	incf	___fladd@bexp& (0+255),f,b
  3862   0016F6                     l2048:
  3863   0016F6  0101               	movlb	1	; () banked
  3864   0016F8  5144               	movf	___fladd@aexp& (0+255),w,b
  3865   0016FA  5D45               	subwf	___fladd@bexp& (0+255),w,b
  3866   0016FC  A0D8               	btfss	status,0,c
  3867   0016FE  EF83  F00B         	goto	u8441
  3868   001702  EF85  F00B         	goto	u8440
  3869   001706                     u8441:
  3870   001706  EF5E  F00B         	goto	l2049
  3871   00170A                     u8440:
  3872   00170A                     l2047:
  3873                           
  3874                           ; BSR set to: 1
  3875   00170A  BD43               	btfsc	___fladd@signs& (0+255),6,b
  3876   00170C  EF8A  F00B         	goto	u8451
  3877   001710  EF8C  F00B         	goto	u8450
  3878   001714                     u8451:
  3879   001714  EFCC  F00B         	goto	l7859
  3880   001718                     u8450:
  3881   001718                     
  3882                           ; BSR set to: 1
  3883   001718  5145               	movf	___fladd@bexp& (0+255),w,b
  3884   00171A  A4D8               	btfss	status,2,c
  3885   00171C  EF92  F00B         	goto	u8461
  3886   001720  EF94  F00B         	goto	u8460
  3887   001724                     u8461:
  3888   001724  EF9E  F00B         	goto	l7841
  3889   001728                     u8460:
  3890   001728                     
  3891                           ; BSR set to: 1
  3892   001728  0E00               	movlw	0
  3893   00172A  6F3B               	movwf	?___fladd& (0+255),b
  3894   00172C  0E00               	movlw	0
  3895   00172E  6F3C               	movwf	(?___fladd+1)& (0+255),b
  3896   001730  0E00               	movlw	0
  3897   001732  6F3D               	movwf	(?___fladd+2)& (0+255),b
  3898   001734  0E00               	movlw	0
  3899   001736  6F3E               	movwf	(?___fladd+3)& (0+255),b
  3900   001738  EF05  F00D         	goto	l2056
  3901   00173C                     l7841:
  3902                           
  3903                           ; BSR set to: 1
  3904   00173C  513F               	movf	___fladd@a& (0+255),w,b
  3905   00173E  273B               	addwf	___fladd@b& (0+255),f,b
  3906   001740  5140               	movf	(___fladd@a+1)& (0+255),w,b
  3907   001742  233C               	addwfc	(___fladd@b+1)& (0+255),f,b
  3908   001744  5141               	movf	(___fladd@a+2)& (0+255),w,b
  3909   001746  233D               	addwfc	(___fladd@b+2)& (0+255),f,b
  3910   001748  5142               	movf	(___fladd@a+3)& (0+255),w,b
  3911   00174A  233E               	addwfc	(___fladd@b+3)& (0+255),f,b
  3912   00174C                     
  3913                           ; BSR set to: 1
  3914   00174C  A13E               	btfss	(___fladd@b+3)& (0+255),0,b
  3915   00174E  EFAB  F00B         	goto	u8471
  3916   001752  EFAD  F00B         	goto	u8470
  3917   001756                     u8471:
  3918   001756  EF6C  F00C         	goto	l7895
  3919   00175A                     u8470:
  3920   00175A                     
  3921                           ; BSR set to: 1
  3922   00175A  A146               	btfss	___fladd@grs& (0+255),0,b
  3923   00175C  EFB2  F00B         	goto	u8481
  3924   001760  EFB4  F00B         	goto	u8480
  3925   001764                     u8481:
  3926   001764  EFBA  F00B         	goto	l7849
  3927   001768                     u8480:
  3928   001768                     
  3929                           ; BSR set to: 1
  3930   001768  90D8               	bcf	status,0,c
  3931   00176A  3146               	rrcf	___fladd@grs& (0+255),w,b
  3932   00176C  0901               	iorlw	1
  3933   00176E  6F46               	movwf	___fladd@grs& (0+255),b
  3934   001770  EFBC  F00B         	goto	l7851
  3935   001774                     l7849:
  3936                           
  3937                           ; BSR set to: 1
  3938   001774  90D8               	bcf	status,0,c
  3939   001776  3346               	rrcf	___fladd@grs& (0+255),f,b
  3940   001778                     l7851:
  3941                           
  3942                           ; BSR set to: 1
  3943   001778  A13B               	btfss	___fladd@b& (0+255),0,b
  3944   00177A  EFC1  F00B         	goto	u8491
  3945   00177E  EFC3  F00B         	goto	u8490
  3946   001782                     u8491:
  3947   001782  EFC4  F00B         	goto	l7855
  3948   001786                     u8490:
  3949   001786                     
  3950                           ; BSR set to: 1
  3951   001786  8F46               	bsf	___fladd@grs& (0+255),7,b
  3952   001788                     l7855:
  3953                           
  3954                           ; BSR set to: 1
  3955   001788  353E               	rlcf	(___fladd@b+3)& (0+255),w,b
  3956   00178A  333E               	rrcf	(___fladd@b+3)& (0+255),f,b
  3957   00178C  333D               	rrcf	(___fladd@b+2)& (0+255),f,b
  3958   00178E  333C               	rrcf	(___fladd@b+1)& (0+255),f,b
  3959   001790  333B               	rrcf	___fladd@b& (0+255),f,b
  3960   001792                     
  3961                           ; BSR set to: 1
  3962   001792  2B45               	incf	___fladd@bexp& (0+255),f,b
  3963   001794  EF6C  F00C         	goto	l7895
  3964   001798                     l7859:
  3965                           
  3966                           ; BSR set to: 1
  3967   001798  513F               	movf	___fladd@a& (0+255),w,b
  3968   00179A  5D3B               	subwf	___fladd@b& (0+255),w,b
  3969   00179C  5140               	movf	(___fladd@a+1)& (0+255),w,b
  3970   00179E  593C               	subwfb	(___fladd@b+1)& (0+255),w,b
  3971   0017A0  5141               	movf	(___fladd@a+2)& (0+255),w,b
  3972   0017A2  593D               	subwfb	(___fladd@b+2)& (0+255),w,b
  3973   0017A4  513E               	movf	(___fladd@b+3)& (0+255),w,b
  3974   0017A6  0A80               	xorlw	128
  3975   0017A8  0100               	movlb	0	; () banked
  3976   0017AA  6FFA               	movwf	??___fladd& (0+255),b
  3977   0017AC  0101               	movlb	1	; () banked
  3978   0017AE  5142               	movf	(___fladd@a+3)& (0+255),w,b
  3979   0017B0  0A80               	xorlw	128
  3980   0017B2  0100               	movlb	0	; () banked
  3981   0017B4  59FA               	subwfb	??___fladd& (0+255),w,b
  3982   0017B6  B0D8               	btfsc	status,0,c
  3983   0017B8  EFE0  F00B         	goto	u8501
  3984   0017BC  EFE2  F00B         	goto	u8500
  3985   0017C0                     u8501:
  3986   0017C0  EF1C  F00C         	goto	l7869
  3987   0017C4                     u8500:
  3988   0017C4                     
  3989                           ; BSR set to: 0
  3990   0017C4  0101               	movlb	1	; () banked
  3991   0017C6  513B               	movf	___fladd@b& (0+255),w,b
  3992   0017C8  5D3F               	subwf	___fladd@a& (0+255),w,b
  3993   0017CA  0100               	movlb	0	; () banked
  3994   0017CC  6FFA               	movwf	??___fladd& (0+255),b
  3995   0017CE  0101               	movlb	1	; () banked
  3996   0017D0  513C               	movf	(___fladd@b+1)& (0+255),w,b
  3997   0017D2  5940               	subwfb	(___fladd@a+1)& (0+255),w,b
  3998   0017D4  0100               	movlb	0	; () banked
  3999   0017D6  6FFB               	movwf	(??___fladd+1)& (0+255),b
  4000   0017D8  0101               	movlb	1	; () banked
  4001   0017DA  513D               	movf	(___fladd@b+2)& (0+255),w,b
  4002   0017DC  5941               	subwfb	(___fladd@a+2)& (0+255),w,b
  4003   0017DE  0100               	movlb	0	; () banked
  4004   0017E0  6FFC               	movwf	(??___fladd+2)& (0+255),b
  4005   0017E2  0101               	movlb	1	; () banked
  4006   0017E4  513E               	movf	(___fladd@b+3)& (0+255),w,b
  4007   0017E6  5942               	subwfb	(___fladd@a+3)& (0+255),w,b
  4008   0017E8  0100               	movlb	0	; () banked
  4009   0017EA  6FFD               	movwf	(??___fladd+3)& (0+255),b
  4010   0017EC  0EFF               	movlw	255
  4011   0017EE  25FA               	addwf	??___fladd& (0+255),w,b
  4012   0017F0  0101               	movlb	1	; () banked
  4013   0017F2  6F3B               	movwf	___fladd@b& (0+255),b
  4014   0017F4  0EFF               	movlw	255
  4015   0017F6  0100               	movlb	0	; () banked
  4016   0017F8  21FB               	addwfc	(??___fladd+1)& (0+255),w,b
  4017   0017FA  0101               	movlb	1	; () banked
  4018   0017FC  6F3C               	movwf	(___fladd@b+1)& (0+255),b
  4019   0017FE  0EFF               	movlw	255
  4020   001800  0100               	movlb	0	; () banked
  4021   001802  21FC               	addwfc	(??___fladd+2)& (0+255),w,b
  4022   001804  0101               	movlb	1	; () banked
  4023   001806  6F3D               	movwf	(___fladd@b+2)& (0+255),b
  4024   001808  0EFF               	movlw	255
  4025   00180A  0100               	movlb	0	; () banked
  4026   00180C  21FD               	addwfc	(??___fladd+3)& (0+255),w,b
  4027   00180E  0101               	movlb	1	; () banked
  4028   001810  6F3E               	movwf	(___fladd@b+3)& (0+255),b
  4029   001812  0E80               	movlw	128
  4030   001814  1B43               	xorwf	___fladd@signs& (0+255),f,b
  4031   001816                     
  4032                           ; BSR set to: 1
  4033   001816  6D46               	negf	___fladd@grs& (0+255),b
  4034   001818                     
  4035                           ; BSR set to: 1
  4036   001818  5146               	movf	___fladd@grs& (0+255),w,b
  4037   00181A  A4D8               	btfss	status,2,c
  4038   00181C  EF12  F00C         	goto	u8511
  4039   001820  EF14  F00C         	goto	u8510
  4040   001824                     u8511:
  4041   001824  EF25  F00C         	goto	l2064
  4042   001828                     u8510:
  4043   001828                     
  4044                           ; BSR set to: 1
  4045   001828  0E01               	movlw	1
  4046   00182A  273B               	addwf	___fladd@b& (0+255),f,b
  4047   00182C  0E00               	movlw	0
  4048   00182E  233C               	addwfc	(___fladd@b+1)& (0+255),f,b
  4049   001830  233D               	addwfc	(___fladd@b+2)& (0+255),f,b
  4050   001832  233E               	addwfc	(___fladd@b+3)& (0+255),f,b
  4051   001834  EF25  F00C         	goto	l2064
  4052   001838                     l7869:
  4053                           
  4054                           ; BSR set to: 0
  4055   001838  0101               	movlb	1	; () banked
  4056   00183A  513F               	movf	___fladd@a& (0+255),w,b
  4057   00183C  5F3B               	subwf	___fladd@b& (0+255),f,b
  4058   00183E  5140               	movf	(___fladd@a+1)& (0+255),w,b
  4059   001840  5B3C               	subwfb	(___fladd@b+1)& (0+255),f,b
  4060   001842  5141               	movf	(___fladd@a+2)& (0+255),w,b
  4061   001844  5B3D               	subwfb	(___fladd@b+2)& (0+255),f,b
  4062   001846  5142               	movf	(___fladd@a+3)& (0+255),w,b
  4063   001848  5B3E               	subwfb	(___fladd@b+3)& (0+255),f,b
  4064   00184A                     l2064:
  4065                           
  4066                           ; BSR set to: 1
  4067   00184A  513B               	movf	___fladd@b& (0+255),w,b
  4068   00184C  113C               	iorwf	(___fladd@b+1)& (0+255),w,b
  4069   00184E  113D               	iorwf	(___fladd@b+2)& (0+255),w,b
  4070   001850  113E               	iorwf	(___fladd@b+3)& (0+255),w,b
  4071   001852  A4D8               	btfss	status,2,c
  4072   001854  EF2E  F00C         	goto	u8521
  4073   001858  EF30  F00C         	goto	u8520
  4074   00185C                     u8521:
  4075   00185C  EF65  F00C         	goto	l7893
  4076   001860                     u8520:
  4077   001860                     
  4078                           ; BSR set to: 1
  4079   001860  5146               	movf	___fladd@grs& (0+255),w,b
  4080   001862  A4D8               	btfss	status,2,c
  4081   001864  EF36  F00C         	goto	u8531
  4082   001868  EF38  F00C         	goto	u8530
  4083   00186C                     u8531:
  4084   00186C  EF65  F00C         	goto	l7893
  4085   001870                     u8530:
  4086   001870                     
  4087                           ; BSR set to: 1
  4088   001870  0E00               	movlw	0
  4089   001872  6F3B               	movwf	?___fladd& (0+255),b
  4090   001874  0E00               	movlw	0
  4091   001876  6F3C               	movwf	(?___fladd+1)& (0+255),b
  4092   001878  0E00               	movlw	0
  4093   00187A  6F3D               	movwf	(?___fladd+2)& (0+255),b
  4094   00187C  0E00               	movlw	0
  4095   00187E  6F3E               	movwf	(?___fladd+3)& (0+255),b
  4096   001880  EF05  F00D         	goto	l2056
  4097   001884                     l7877:
  4098                           
  4099                           ; BSR set to: 1
  4100   001884  90D8               	bcf	status,0,c
  4101   001886  373B               	rlcf	___fladd@b& (0+255),f,b
  4102   001888  373C               	rlcf	(___fladd@b+1)& (0+255),f,b
  4103   00188A  373D               	rlcf	(___fladd@b+2)& (0+255),f,b
  4104   00188C  373E               	rlcf	(___fladd@b+3)& (0+255),f,b
  4105   00188E                     
  4106                           ; BSR set to: 1
  4107   00188E  AF46               	btfss	___fladd@grs& (0+255),7,b
  4108   001890  EF4C  F00C         	goto	u8541
  4109   001894  EF4E  F00C         	goto	u8540
  4110   001898                     u8541:
  4111   001898  EF4F  F00C         	goto	l7883
  4112   00189C                     u8540:
  4113   00189C                     
  4114                           ; BSR set to: 1
  4115   00189C  813B               	bsf	___fladd@b& (0+255),0,b
  4116   00189E                     l7883:
  4117                           
  4118                           ; BSR set to: 1
  4119   00189E  A146               	btfss	___fladd@grs& (0+255),0,b
  4120   0018A0  EF54  F00C         	goto	u8551
  4121   0018A4  EF56  F00C         	goto	u8550
  4122   0018A8                     u8551:
  4123   0018A8  EF5A  F00C         	goto	l7887
  4124   0018AC                     u8550:
  4125   0018AC                     
  4126                           ; BSR set to: 1
  4127   0018AC  80D8               	bsf	status,0,c
  4128   0018AE  3746               	rlcf	___fladd@grs& (0+255),f,b
  4129   0018B0  EF5C  F00C         	goto	l7889
  4130   0018B4                     l7887:
  4131                           
  4132                           ; BSR set to: 1
  4133   0018B4  90D8               	bcf	status,0,c
  4134   0018B6  3746               	rlcf	___fladd@grs& (0+255),f,b
  4135   0018B8                     l7889:
  4136                           
  4137                           ; BSR set to: 1
  4138   0018B8  5145               	movf	___fladd@bexp& (0+255),w,b
  4139   0018BA  B4D8               	btfsc	status,2,c
  4140   0018BC  EF62  F00C         	goto	u8561
  4141   0018C0  EF64  F00C         	goto	u8560
  4142   0018C4                     u8561:
  4143   0018C4  EF65  F00C         	goto	l7893
  4144   0018C8                     u8560:
  4145   0018C8                     
  4146                           ; BSR set to: 1
  4147   0018C8  0745               	decf	___fladd@bexp& (0+255),f,b
  4148   0018CA                     l7893:
  4149                           
  4150                           ; BSR set to: 1
  4151   0018CA  AF3D               	btfss	(___fladd@b+2)& (0+255),7,b
  4152   0018CC  EF6A  F00C         	goto	u8571
  4153   0018D0  EF6C  F00C         	goto	u8570
  4154   0018D4                     u8571:
  4155   0018D4  EF42  F00C         	goto	l7877
  4156   0018D8                     u8570:
  4157   0018D8                     l7895:
  4158                           
  4159                           ; BSR set to: 1
  4160   0018D8  0E00               	movlw	0
  4161   0018DA  6F44               	movwf	___fladd@aexp& (0+255),b
  4162   0018DC                     
  4163                           ; BSR set to: 1
  4164   0018DC  AF46               	btfss	___fladd@grs& (0+255),7,b
  4165   0018DE  EF73  F00C         	goto	u8581
  4166   0018E2  EF75  F00C         	goto	u8580
  4167   0018E6                     u8581:
  4168   0018E6  EF90  F00C         	goto	l2073
  4169   0018EA                     u8580:
  4170   0018EA                     
  4171                           ; BSR set to: 1
  4172   0018EA  C146  F0FA         	movff	___fladd@grs,??___fladd
  4173   0018EE  0E7F               	movlw	127
  4174   0018F0  0100               	movlb	0	; () banked
  4175   0018F2  17FA               	andwf	??___fladd& (0+255),f,b
  4176   0018F4  B4D8               	btfsc	status,2,c
  4177   0018F6  EF7F  F00C         	goto	u8591
  4178   0018FA  EF81  F00C         	goto	u8590
  4179   0018FE                     u8591:
  4180   0018FE  EF86  F00C         	goto	l2074
  4181   001902                     u8590:
  4182   001902                     l7901:
  4183   001902  0E01               	movlw	1
  4184   001904  0101               	movlb	1	; () banked
  4185   001906  6F44               	movwf	___fladd@aexp& (0+255),b
  4186   001908  EF90  F00C         	goto	l2073
  4187   00190C                     l2074:
  4188                           
  4189                           ; BSR set to: 0
  4190   00190C  0101               	movlb	1	; () banked
  4191   00190E  A13B               	btfss	___fladd@b& (0+255),0,b
  4192   001910  EF8C  F00C         	goto	u8601
  4193   001914  EF8E  F00C         	goto	u8600
  4194   001918                     u8601:
  4195   001918  EF90  F00C         	goto	l2073
  4196   00191C                     u8600:
  4197   00191C  EF81  F00C         	goto	l7901
  4198   001920                     l2073:
  4199                           
  4200                           ; BSR set to: 1
  4201   001920  5144               	movf	___fladd@aexp& (0+255),w,b
  4202   001922  B4D8               	btfsc	status,2,c
  4203   001924  EF96  F00C         	goto	u8611
  4204   001928  EF98  F00C         	goto	u8610
  4205   00192C                     u8611:
  4206   00192C  EFC5  F00C         	goto	l7913
  4207   001930                     u8610:
  4208   001930                     
  4209                           ; BSR set to: 1
  4210   001930  0E01               	movlw	1
  4211   001932  273B               	addwf	___fladd@b& (0+255),f,b
  4212   001934  0E00               	movlw	0
  4213   001936  233C               	addwfc	(___fladd@b+1)& (0+255),f,b
  4214   001938  233D               	addwfc	(___fladd@b+2)& (0+255),f,b
  4215   00193A  233E               	addwfc	(___fladd@b+3)& (0+255),f,b
  4216   00193C                     
  4217                           ; BSR set to: 1
  4218   00193C  A13E               	btfss	(___fladd@b+3)& (0+255),0,b
  4219   00193E  EFA3  F00C         	goto	u8621
  4220   001942  EFA5  F00C         	goto	u8620
  4221   001946                     u8621:
  4222   001946  EFC5  F00C         	goto	l7913
  4223   00194A                     u8620:
  4224   00194A                     
  4225                           ; BSR set to: 1
  4226   00194A  C13B  F0FA         	movff	___fladd@b,??___fladd
  4227   00194E  C13C  F0FB         	movff	___fladd@b+1,??___fladd+1
  4228   001952  C13D  F0FC         	movff	___fladd@b+2,??___fladd+2
  4229   001956  C13E  F0FD         	movff	___fladd@b+3,??___fladd+3
  4230   00195A  0100               	movlb	0	; () banked
  4231   00195C  35FD               	rlcf	(??___fladd+3)& (0+255),w,b
  4232   00195E  33FD               	rrcf	(??___fladd+3)& (0+255),f,b
  4233   001960  33FC               	rrcf	(??___fladd+2)& (0+255),f,b
  4234   001962  33FB               	rrcf	(??___fladd+1)& (0+255),f,b
  4235   001964  33FA               	rrcf	??___fladd& (0+255),f,b
  4236   001966  C0FA  F13B         	movff	??___fladd,___fladd@b
  4237   00196A  C0FB  F13C         	movff	??___fladd+1,___fladd@b+1
  4238   00196E  C0FC  F13D         	movff	??___fladd+2,___fladd@b+2
  4239   001972  C0FD  F13E         	movff	??___fladd+3,___fladd@b+3
  4240   001976  0101               	movlb	1	; () banked
  4241   001978  2945               	incf	___fladd@bexp& (0+255),w,b
  4242   00197A  B4D8               	btfsc	status,2,c
  4243   00197C  EFC2  F00C         	goto	u8631
  4244   001980  EFC4  F00C         	goto	u8630
  4245   001984                     u8631:
  4246   001984  EFC5  F00C         	goto	l7913
  4247   001988                     u8630:
  4248   001988                     
  4249                           ; BSR set to: 1
  4250   001988  2B45               	incf	___fladd@bexp& (0+255),f,b
  4251   00198A                     l7913:
  4252                           
  4253                           ; BSR set to: 1
  4254   00198A  2945               	incf	___fladd@bexp& (0+255),w,b
  4255   00198C  B4D8               	btfsc	status,2,c
  4256   00198E  EFCB  F00C         	goto	u8641
  4257   001992  EFCD  F00C         	goto	u8640
  4258   001996                     u8641:
  4259   001996  EFD5  F00C         	goto	l7917
  4260   00199A                     u8640:
  4261   00199A                     
  4262                           ; BSR set to: 1
  4263   00199A  5145               	movf	___fladd@bexp& (0+255),w,b
  4264   00199C  A4D8               	btfss	status,2,c
  4265   00199E  EFD3  F00C         	goto	u8651
  4266   0019A2  EFD5  F00C         	goto	u8650
  4267   0019A6                     u8651:
  4268   0019A6  EFE7  F00C         	goto	l7921
  4269   0019AA                     u8650:
  4270   0019AA                     l7917:
  4271                           
  4272                           ; BSR set to: 1
  4273   0019AA  0E00               	movlw	0
  4274   0019AC  6F3B               	movwf	___fladd@b& (0+255),b
  4275   0019AE  0E00               	movlw	0
  4276   0019B0  6F3C               	movwf	(___fladd@b+1)& (0+255),b
  4277   0019B2  0E00               	movlw	0
  4278   0019B4  6F3D               	movwf	(___fladd@b+2)& (0+255),b
  4279   0019B6  0E00               	movlw	0
  4280   0019B8  6F3E               	movwf	(___fladd@b+3)& (0+255),b
  4281   0019BA  5145               	movf	___fladd@bexp& (0+255),w,b
  4282   0019BC  A4D8               	btfss	status,2,c
  4283   0019BE  EFE3  F00C         	goto	u8661
  4284   0019C2  EFE5  F00C         	goto	u8660
  4285   0019C6                     u8661:
  4286   0019C6  EFE7  F00C         	goto	l7921
  4287   0019CA                     u8660:
  4288   0019CA                     
  4289                           ; BSR set to: 1
  4290   0019CA  0E00               	movlw	0
  4291   0019CC  6F43               	movwf	___fladd@signs& (0+255),b
  4292   0019CE                     l7921:
  4293                           
  4294                           ; BSR set to: 1
  4295   0019CE  A145               	btfss	___fladd@bexp& (0+255),0,b
  4296   0019D0  EFEC  F00C         	goto	u8671
  4297   0019D4  EFEE  F00C         	goto	u8670
  4298   0019D8                     u8671:
  4299   0019D8  EFF1  F00C         	goto	l7925
  4300   0019DC                     u8670:
  4301   0019DC                     
  4302                           ; BSR set to: 1
  4303   0019DC  8F3D               	bsf	(___fladd@b+2)& (0+255),7,b
  4304   0019DE  EFF2  F00C         	goto	l7927
  4305   0019E2                     l7925:
  4306                           
  4307                           ; BSR set to: 1
  4308   0019E2  9F3D               	bcf	(___fladd@b+2)& (0+255),7,b
  4309   0019E4                     l7927:
  4310                           
  4311                           ; BSR set to: 1
  4312   0019E4  90D8               	bcf	status,0,c
  4313   0019E6  3145               	rrcf	___fladd@bexp& (0+255),w,b
  4314   0019E8  6F3E               	movwf	(___fladd@b+3)& (0+255),b
  4315   0019EA                     
  4316                           ; BSR set to: 1
  4317   0019EA  AF43               	btfss	___fladd@signs& (0+255),7,b
  4318   0019EC  EFFA  F00C         	goto	u8681
  4319   0019F0  EFFC  F00C         	goto	u8680
  4320   0019F4                     u8681:
  4321   0019F4  EFFD  F00C         	goto	l7933
  4322   0019F8                     u8680:
  4323   0019F8                     
  4324                           ; BSR set to: 1
  4325   0019F8  8F3E               	bsf	(___fladd@b+3)& (0+255),7,b
  4326   0019FA                     l7933:
  4327                           
  4328                           ; BSR set to: 1
  4329   0019FA  C13B  F13B         	movff	___fladd@b,?___fladd
  4330   0019FE  C13C  F13C         	movff	___fladd@b+1,?___fladd+1
  4331   001A02  C13D  F13D         	movff	___fladd@b+2,?___fladd+2
  4332   001A06  C13E  F13E         	movff	___fladd@b+3,?___fladd+3
  4333   001A0A                     l2056:
  4334                           
  4335                           ; BSR set to: 1
  4336   001A0A  0012               	return		;funcret
  4337   001A0C                     __end_of___fladd:
  4338                           	callstack 0
  4339                           
  4340 ;; *************** function _EUSART_ASYNC_TX_Init *****************
  4341 ;; Defined at:
  4342 ;;		line 171 in file "MCAL_Layer/USART/hal_usart.c"
  4343 ;; Parameters:    Size  Location     Type
  4344 ;;  _eusart         2   37[COMRAM] PTR const struct .
  4345 ;;		 -> usart_obj(19), 
  4346 ;; Auto vars:     Size  Location     Type
  4347 ;;		None
  4348 ;; Return value:  Size  Location     Type
  4349 ;;                  1    wreg      void 
  4350 ;; Registers used:
  4351 ;;		wreg, fsr2l, fsr2h, status,2, status,0
  4352 ;; Tracked objects:
  4353 ;;		On entry : 0/0
  4354 ;;		On exit  : 0/0
  4355 ;;		Unchanged: 0/0
  4356 ;; Data sizes:     COMRAM   BANK0   BANK1   BANK2   BANK3   BANK4   BANK5   BANK6   BANK7   BANK8   BANK9  BANK10  BANK1
      +1  BANK12  BANK13  BANK14  BANK15
  4357 ;;      Params:         2       0       0       0       0       0       0       0       0       0       0       0       
      +0       0       0       0       0
  4358 ;;      Locals:         0       0       0       0       0       0       0       0       0       0       0       0       
      +0       0       0       0       0
  4359 ;;      Temps:          1       0       0       0       0       0       0       0       0       0       0       0       
      +0       0       0       0       0
  4360 ;;      Totals:         3       0       0       0       0       0       0       0       0       0       0       0       
      +0       0       0       0       0
  4361 ;;Total ram usage:        3 bytes
  4362 ;; Hardware stack levels used: 1
  4363 ;; Hardware stack levels required when called: 12
  4364 ;; This function calls:
  4365 ;;		Nothing
  4366 ;; This function is called by:
  4367 ;;		_EUSART_ASYNC_Init
  4368 ;; This function uses a non-reentrant model
  4369 ;;
  4370                           
  4371                           	psect	text12
  4372   002B78                     __ptext12:
  4373                           	callstack 0
  4374   002B78                     _EUSART_ASYNC_TX_Init:
  4375                           	callstack 16
  4376   002B78                     
  4377                           ;MCAL_Layer/USART/hal_usart.c: 172:     if( 1 == _eusart->usart_tx_cfg.usart_tx_enable){
  4378   002B78  EE20 F006          	lfsr	2,6
  4379   002B7C  5026               	movf	EUSART_ASYNC_TX_Init@_eusart^0,w,c
  4380   002B7E  26D9               	addwf	fsr2l,f,c
  4381   002B80  5027               	movf	(EUSART_ASYNC_TX_Init@_eusart+1)^0,w,c
  4382   002B82  22DA               	addwfc	fsr2h,f,c
  4383   002B84  A0DF               	btfss	indf2,0,c
  4384   002B86  EFC7  F015         	goto	u9101
  4385   002B8A  EFC9  F015         	goto	u9100
  4386   002B8E                     u9101:
  4387   002B8E  EF0F  F016         	goto	l1429
  4388   002B92                     u9100:
  4389   002B92                     
  4390                           ;MCAL_Layer/USART/hal_usart.c: 174:         (TXSTAbits.TXEN = 1);
  4391   002B92  8AAC               	bsf	172,5,c	;volatile
  4392   002B94                     
  4393                           ;MCAL_Layer/USART/hal_usart.c: 176:         (TXSTAbits.TX9 = _eusart->usart_tx_cfg.usart
      +                          _tx_9bit_enable);
  4394   002B94  EE20 F006          	lfsr	2,6
  4395   002B98  5026               	movf	EUSART_ASYNC_TX_Init@_eusart^0,w,c
  4396   002B9A  26D9               	addwf	fsr2l,f,c
  4397   002B9C  5027               	movf	(EUSART_ASYNC_TX_Init@_eusart+1)^0,w,c
  4398   002B9E  22DA               	addwfc	fsr2h,f,c
  4399   002BA0  A4DF               	btfss	indf2,2,c
  4400   002BA2  D002               	bra	u9115
  4401   002BA4  8CAC               	bsf	172,6,c	;volatile
  4402   002BA6  D001               	bra	u9117
  4403   002BA8                     u9115:
  4404   002BA8  9CAC               	bcf	172,6,c	;volatile
  4405   002BAA                     u9117:
  4406                           
  4407                           ;MCAL_Layer/USART/hal_usart.c: 179:         (PIE1bits.TXIE = _eusart->usart_tx_cfg.usart
      +                          _tx_interrupt_enable);
  4408   002BAA  EE20 F006          	lfsr	2,6
  4409   002BAE  5026               	movf	EUSART_ASYNC_TX_Init@_eusart^0,w,c
  4410   002BB0  26D9               	addwf	fsr2l,f,c
  4411   002BB2  5027               	movf	(EUSART_ASYNC_TX_Init@_eusart+1)^0,w,c
  4412   002BB4  22DA               	addwfc	fsr2h,f,c
  4413   002BB6  A2DF               	btfss	indf2,1,c
  4414   002BB8  D002               	bra	u9125
  4415   002BBA  889D               	bsf	157,4,c	;volatile
  4416   002BBC  D001               	bra	u9127
  4417   002BBE                     u9125:
  4418   002BBE  989D               	bcf	157,4,c	;volatile
  4419   002BC0                     u9127:
  4420                           
  4421                           ;MCAL_Layer/USART/hal_usart.c: 180:         EUSART_Tx_InterruptHandler = _eusart->EUSART
      +                          _TxDefailtInterruptHandler;
  4422   002BC0  EE20 F00B          	lfsr	2,11
  4423   002BC4  5026               	movf	EUSART_ASYNC_TX_Init@_eusart^0,w,c
  4424   002BC6  26D9               	addwf	fsr2l,f,c
  4425   002BC8  5027               	movf	(EUSART_ASYNC_TX_Init@_eusart+1)^0,w,c
  4426   002BCA  22DA               	addwfc	fsr2h,f,c
  4427   002BCC  CFDE F036          	movff	postinc2,_EUSART_Tx_InterruptHandler@hal_usart$F3917
  4428   002BD0  CFDD F037          	movff	postdec2,_EUSART_Tx_InterruptHandler@hal_usart$F3917+1
  4429   002BD4                     
  4430                           ;MCAL_Layer/USART/hal_usart.c: 182:         (RCONbits.IPEN = 1);
  4431   002BD4  8ED0               	bsf	208,7,c	;volatile
  4432                           
  4433                           ;MCAL_Layer/USART/hal_usart.c: 183:         if(INTERRUPT_HIGH_PRIORITY == _eusart->usart
      +                          _tx_cfg.usart_tx_priority){
  4434   002BD6  EE20 F005          	lfsr	2,5
  4435   002BDA  5026               	movf	EUSART_ASYNC_TX_Init@_eusart^0,w,c
  4436   002BDC  26D9               	addwf	fsr2l,f,c
  4437   002BDE  5027               	movf	(EUSART_ASYNC_TX_Init@_eusart+1)^0,w,c
  4438   002BE0  22DA               	addwfc	fsr2h,f,c
  4439   002BE2  04DE               	decf	postinc2,w,c
  4440   002BE4  A4D8               	btfss	status,2,c
  4441   002BE6  EFF7  F015         	goto	u9131
  4442   002BEA  EFF9  F015         	goto	u9130
  4443   002BEE                     u9131:
  4444   002BEE  EFFD  F015         	goto	l8223
  4445   002BF2                     u9130:
  4446   002BF2                     
  4447                           ;MCAL_Layer/USART/hal_usart.c: 184:             (INTCONbits.GIEH = 1);
  4448   002BF2  8EF2               	bsf	242,7,c	;volatile
  4449                           
  4450                           ;MCAL_Layer/USART/hal_usart.c: 185:             (IPR1bits.TXIP = 1);
  4451   002BF4  889F               	bsf	159,4,c	;volatile
  4452                           
  4453                           ;MCAL_Layer/USART/hal_usart.c: 186:         }else if(INTERRUPT_LOW_PRIORITY == _eusart->
      +                          usart_tx_cfg.usart_tx_priority){
  4454   002BF6  EF0F  F016         	goto	l1429
  4455   002BFA                     l8223:
  4456   002BFA  EE20 F005          	lfsr	2,5
  4457   002BFE  5026               	movf	EUSART_ASYNC_TX_Init@_eusart^0,w,c
  4458   002C00  26D9               	addwf	fsr2l,f,c
  4459   002C02  5027               	movf	(EUSART_ASYNC_TX_Init@_eusart+1)^0,w,c
  4460   002C04  22DA               	addwfc	fsr2h,f,c
  4461   002C06  50DF               	movf	indf2,w,c
  4462   002C08  A4D8               	btfss	status,2,c
  4463   002C0A  EF09  F016         	goto	u9141
  4464   002C0E  EF0B  F016         	goto	u9140
  4465   002C12                     u9141:
  4466   002C12  EF0F  F016         	goto	l1425
  4467   002C16                     u9140:
  4468   002C16                     
  4469                           ;MCAL_Layer/USART/hal_usart.c: 187:             (INTCONbits.GIEL = 1);
  4470   002C16  8CF2               	bsf	242,6,c	;volatile
  4471                           
  4472                           ;MCAL_Layer/USART/hal_usart.c: 188:             (IPR1bits.TXIP = 0);
  4473   002C18  989F               	bcf	159,4,c	;volatile
  4474                           
  4475                           ;MCAL_Layer/USART/hal_usart.c: 189:         }else{ }
  4476   002C1A  EF0F  F016         	goto	l1429
  4477   002C1E                     l1425:
  4478   002C1E                     l1429:
  4479   002C1E  0012               	return		;funcret
  4480   002C20                     __end_of_EUSART_ASYNC_TX_Init:
  4481                           	callstack 0
  4482                           
  4483 ;; *************** function _EUSART_ASYNC_RX_Init *****************
  4484 ;; Defined at:
  4485 ;;		line 197 in file "MCAL_Layer/USART/hal_usart.c"
  4486 ;; Parameters:    Size  Location     Type
  4487 ;;  _eusart         2   37[COMRAM] PTR const struct .
  4488 ;;		 -> usart_obj(19), 
  4489 ;; Auto vars:     Size  Location     Type
  4490 ;;		None
  4491 ;; Return value:  Size  Location     Type
  4492 ;;                  1    wreg      void 
  4493 ;; Registers used:
  4494 ;;		wreg, fsr2l, fsr2h, status,2, status,0
  4495 ;; Tracked objects:
  4496 ;;		On entry : 0/0
  4497 ;;		On exit  : 0/0
  4498 ;;		Unchanged: 0/0
  4499 ;; Data sizes:     COMRAM   BANK0   BANK1   BANK2   BANK3   BANK4   BANK5   BANK6   BANK7   BANK8   BANK9  BANK10  BANK1
      +1  BANK12  BANK13  BANK14  BANK15
  4500 ;;      Params:         2       0       0       0       0       0       0       0       0       0       0       0       
      +0       0       0       0       0
  4501 ;;      Locals:         0       0       0       0       0       0       0       0       0       0       0       0       
      +0       0       0       0       0
  4502 ;;      Temps:          1       0       0       0       0       0       0       0       0       0       0       0       
      +0       0       0       0       0
  4503 ;;      Totals:         3       0       0       0       0       0       0       0       0       0       0       0       
      +0       0       0       0       0
  4504 ;;Total ram usage:        3 bytes
  4505 ;; Hardware stack levels used: 1
  4506 ;; Hardware stack levels required when called: 12
  4507 ;; This function calls:
  4508 ;;		Nothing
  4509 ;; This function is called by:
  4510 ;;		_EUSART_ASYNC_Init
  4511 ;; This function uses a non-reentrant model
  4512 ;;
  4513                           
  4514                           	psect	text13
  4515   002AA8                     __ptext13:
  4516                           	callstack 0
  4517   002AA8                     _EUSART_ASYNC_RX_Init:
  4518                           	callstack 16
  4519   002AA8                     
  4520                           ;MCAL_Layer/USART/hal_usart.c: 198:     if( 1 == _eusart->usart_rx_cfg.usart_rx_enable)
  4521   002AA8  EE20 F008          	lfsr	2,8
  4522   002AAC  5026               	movf	EUSART_ASYNC_RX_Init@_eusart^0,w,c
  4523   002AAE  26D9               	addwf	fsr2l,f,c
  4524   002AB0  5027               	movf	(EUSART_ASYNC_RX_Init@_eusart+1)^0,w,c
  4525   002AB2  22DA               	addwfc	fsr2h,f,c
  4526   002AB4  A0DF               	btfss	indf2,0,c
  4527   002AB6  EF5F  F015         	goto	u9151
  4528   002ABA  EF61  F015         	goto	u9150
  4529   002ABE                     u9151:
  4530   002ABE  EFBB  F015         	goto	l1438
  4531   002AC2                     u9150:
  4532   002AC2                     
  4533                           ;MCAL_Layer/USART/hal_usart.c: 199:     {;MCAL_Layer/USART/hal_usart.c: 201:         (RC
      +                          STAbits.CREN = 1);
  4534   002AC2  88AB               	bsf	171,4,c	;volatile
  4535   002AC4                     
  4536                           ;MCAL_Layer/USART/hal_usart.c: 203:         (RCSTAbits.RX9 = _eusart->usart_rx_cfg.usart
      +                          _rx_9bit_enable);
  4537   002AC4  EE20 F008          	lfsr	2,8
  4538   002AC8  5026               	movf	EUSART_ASYNC_RX_Init@_eusart^0,w,c
  4539   002ACA  26D9               	addwf	fsr2l,f,c
  4540   002ACC  5027               	movf	(EUSART_ASYNC_RX_Init@_eusart+1)^0,w,c
  4541   002ACE  22DA               	addwfc	fsr2h,f,c
  4542   002AD0  A4DF               	btfss	indf2,2,c
  4543   002AD2  D002               	bra	u9165
  4544   002AD4  8CAB               	bsf	171,6,c	;volatile
  4545   002AD6  D001               	bra	u9167
  4546   002AD8                     u9165:
  4547   002AD8  9CAB               	bcf	171,6,c	;volatile
  4548   002ADA                     u9167:
  4549                           
  4550                           ;MCAL_Layer/USART/hal_usart.c: 206:         (PIE1bits.RCIE = _eusart->usart_rx_cfg.usart
      +                          _rx_interrupt_enable);
  4551   002ADA  EE20 F008          	lfsr	2,8
  4552   002ADE  5026               	movf	EUSART_ASYNC_RX_Init@_eusart^0,w,c
  4553   002AE0  26D9               	addwf	fsr2l,f,c
  4554   002AE2  5027               	movf	(EUSART_ASYNC_RX_Init@_eusart+1)^0,w,c
  4555   002AE4  22DA               	addwfc	fsr2h,f,c
  4556   002AE6  A2DF               	btfss	indf2,1,c
  4557   002AE8  D002               	bra	u9175
  4558   002AEA  8A9D               	bsf	157,5,c	;volatile
  4559   002AEC  D001               	bra	u9177
  4560   002AEE                     u9175:
  4561   002AEE  9A9D               	bcf	157,5,c	;volatile
  4562   002AF0                     u9177:
  4563                           
  4564                           ;MCAL_Layer/USART/hal_usart.c: 207:         EUSART_Rx_InterruptHandler = _eusart->EUSART
      +                          _RxDefailtInterruptHandler;
  4565   002AF0  EE20 F00D          	lfsr	2,13
  4566   002AF4  5026               	movf	EUSART_ASYNC_RX_Init@_eusart^0,w,c
  4567   002AF6  26D9               	addwf	fsr2l,f,c
  4568   002AF8  5027               	movf	(EUSART_ASYNC_RX_Init@_eusart+1)^0,w,c
  4569   002AFA  22DA               	addwfc	fsr2h,f,c
  4570   002AFC  CFDE F09E          	movff	postinc2,_EUSART_Rx_InterruptHandler
  4571   002B00  CFDD F09F          	movff	postdec2,_EUSART_Rx_InterruptHandler+1
  4572                           
  4573                           ;MCAL_Layer/USART/hal_usart.c: 208:         EUSART_FramingErrorHandler = _eusart->EUSART
      +                          _FramingErrorHandler;
  4574   002B04  EE20 F00F          	lfsr	2,15
  4575   002B08  5026               	movf	EUSART_ASYNC_RX_Init@_eusart^0,w,c
  4576   002B0A  26D9               	addwf	fsr2l,f,c
  4577   002B0C  5027               	movf	(EUSART_ASYNC_RX_Init@_eusart+1)^0,w,c
  4578   002B0E  22DA               	addwfc	fsr2h,f,c
  4579   002B10  CFDE F09C          	movff	postinc2,_EUSART_FramingErrorHandler
  4580   002B14  CFDD F09D          	movff	postdec2,_EUSART_FramingErrorHandler+1
  4581                           
  4582                           ;MCAL_Layer/USART/hal_usart.c: 209:         EUSART_OverrunErrorHandler = _eusart->EUSART
      +                          _OverrunErrorHandler;
  4583   002B18  EE20 F011          	lfsr	2,17
  4584   002B1C  5026               	movf	EUSART_ASYNC_RX_Init@_eusart^0,w,c
  4585   002B1E  26D9               	addwf	fsr2l,f,c
  4586   002B20  5027               	movf	(EUSART_ASYNC_RX_Init@_eusart+1)^0,w,c
  4587   002B22  22DA               	addwfc	fsr2h,f,c
  4588   002B24  CFDE F09A          	movff	postinc2,_EUSART_OverrunErrorHandler
  4589   002B28  CFDD F09B          	movff	postdec2,_EUSART_OverrunErrorHandler+1
  4590   002B2C                     
  4591                           ;MCAL_Layer/USART/hal_usart.c: 211:         (RCONbits.IPEN = 1);
  4592   002B2C  8ED0               	bsf	208,7,c	;volatile
  4593                           
  4594                           ;MCAL_Layer/USART/hal_usart.c: 212:         if(INTERRUPT_HIGH_PRIORITY == _eusart->usart
      +                          _rx_cfg.usart_rx_priority){
  4595   002B2E  EE20 F007          	lfsr	2,7
  4596   002B32  5026               	movf	EUSART_ASYNC_RX_Init@_eusart^0,w,c
  4597   002B34  26D9               	addwf	fsr2l,f,c
  4598   002B36  5027               	movf	(EUSART_ASYNC_RX_Init@_eusart+1)^0,w,c
  4599   002B38  22DA               	addwfc	fsr2h,f,c
  4600   002B3A  04DE               	decf	postinc2,w,c
  4601   002B3C  A4D8               	btfss	status,2,c
  4602   002B3E  EFA3  F015         	goto	u9181
  4603   002B42  EFA5  F015         	goto	u9180
  4604   002B46                     u9181:
  4605   002B46  EFA9  F015         	goto	l8237
  4606   002B4A                     u9180:
  4607   002B4A                     
  4608                           ;MCAL_Layer/USART/hal_usart.c: 213:             (INTCONbits.GIEH = 1);
  4609   002B4A  8EF2               	bsf	242,7,c	;volatile
  4610                           
  4611                           ;MCAL_Layer/USART/hal_usart.c: 214:             (IPR1bits.RCIP = 1);
  4612   002B4C  8A9F               	bsf	159,5,c	;volatile
  4613                           
  4614                           ;MCAL_Layer/USART/hal_usart.c: 215:         }else if(INTERRUPT_LOW_PRIORITY == _eusart->
      +                          usart_rx_cfg.usart_rx_priority){
  4615   002B4E  EFBB  F015         	goto	l1438
  4616   002B52                     l8237:
  4617   002B52  EE20 F007          	lfsr	2,7
  4618   002B56  5026               	movf	EUSART_ASYNC_RX_Init@_eusart^0,w,c
  4619   002B58  26D9               	addwf	fsr2l,f,c
  4620   002B5A  5027               	movf	(EUSART_ASYNC_RX_Init@_eusart+1)^0,w,c
  4621   002B5C  22DA               	addwfc	fsr2h,f,c
  4622   002B5E  50DF               	movf	indf2,w,c
  4623   002B60  A4D8               	btfss	status,2,c
  4624   002B62  EFB5  F015         	goto	u9191
  4625   002B66  EFB7  F015         	goto	u9190
  4626   002B6A                     u9191:
  4627   002B6A  EFBB  F015         	goto	l1434
  4628   002B6E                     u9190:
  4629   002B6E                     
  4630                           ;MCAL_Layer/USART/hal_usart.c: 216:             (INTCONbits.GIEL = 1);
  4631   002B6E  8CF2               	bsf	242,6,c	;volatile
  4632                           
  4633                           ;MCAL_Layer/USART/hal_usart.c: 217:             (IPR1bits.RCIP = 0);
  4634   002B70  9A9F               	bcf	159,5,c	;volatile
  4635                           
  4636                           ;MCAL_Layer/USART/hal_usart.c: 218:         }else{ }
  4637   002B72  EFBB  F015         	goto	l1438
  4638   002B76                     l1434:
  4639   002B76                     l1438:
  4640   002B76  0012               	return		;funcret
  4641   002B78                     __end_of_EUSART_ASYNC_RX_Init:
  4642                           	callstack 0
  4643                           
  4644 ;; *************** function _EUSART_ASYNC_WriteStringBlocking *****************
  4645 ;; Defined at:
  4646 ;;		line 113 in file "MCAL_Layer/USART/hal_usart.c"
  4647 ;; Parameters:    Size  Location     Type
  4648 ;;  _data           2   38[COMRAM] PTR unsigned char 
  4649 ;;		 -> STR_4(7), 
  4650 ;; Auto vars:     Size  Location     Type
  4651 ;;  ret             1   40[COMRAM] unsigned char 
  4652 ;; Return value:  Size  Location     Type
  4653 ;;                  1    wreg      unsigned char 
  4654 ;; Registers used:
  4655 ;;		wreg, status,2, status,0, tblptrl, tblptrh, tblptru, cstack
  4656 ;; Tracked objects:
  4657 ;;		On entry : 0/0
  4658 ;;		On exit  : 0/0
  4659 ;;		Unchanged: 0/0
  4660 ;; Data sizes:     COMRAM   BANK0   BANK1   BANK2   BANK3   BANK4   BANK5   BANK6   BANK7   BANK8   BANK9  BANK10  BANK1
      +1  BANK12  BANK13  BANK14  BANK15
  4661 ;;      Params:         2       0       0       0       0       0       0       0       0       0       0       0       
      +0       0       0       0       0
  4662 ;;      Locals:         1       0       0       0       0       0       0       0       0       0       0       0       
      +0       0       0       0       0
  4663 ;;      Temps:          0       0       0       0       0       0       0       0       0       0       0       0       
      +0       0       0       0       0
  4664 ;;      Totals:         3       0       0       0       0       0       0       0       0       0       0       0       
      +0       0       0       0       0
  4665 ;;Total ram usage:        3 bytes
  4666 ;; Hardware stack levels used: 1
  4667 ;; Hardware stack levels required when called: 13
  4668 ;; This function calls:
  4669 ;;		_EUSART_ASYNC_WriteByteBlocking
  4670 ;; This function is called by:
  4671 ;;		_main
  4672 ;; This function uses a non-reentrant model
  4673 ;;
  4674                           
  4675                           	psect	text14
  4676   0030C2                     __ptext14:
  4677                           	callstack 0
  4678   0030C2                     _EUSART_ASYNC_WriteStringBlocking:
  4679                           	callstack 17
  4680   0030C2                     
  4681                           ;MCAL_Layer/USART/hal_usart.c: 115:     if(((void*)0) == _data){
  4682   0030C2  5027               	movf	EUSART_ASYNC_WriteStringBlocking@_data^0,w,c
  4683   0030C4  1028               	iorwf	(EUSART_ASYNC_WriteStringBlocking@_data+1)^0,w,c
  4684   0030C6  A4D8               	btfss	status,2,c
  4685   0030C8  EF68  F018         	goto	u6761
  4686   0030CC  EF6A  F018         	goto	u6760
  4687   0030D0                     u6761:
  4688   0030D0  EF79  F018         	goto	l6685
  4689   0030D4                     u6760:
  4690   0030D4                     
  4691                           ;MCAL_Layer/USART/hal_usart.c: 116:         ret = (Std_ReturnType)0x00;
  4692   0030D4  0E00               	movlw	0
  4693   0030D6  6E29               	movwf	EUSART_ASYNC_WriteStringBlocking@ret^0,c
  4694                           
  4695                           ;MCAL_Layer/USART/hal_usart.c: 117:     }else{
  4696   0030D8  EF8A  F018         	goto	l1404
  4697   0030DC                     l6681:
  4698                           
  4699                           ;MCAL_Layer/USART/hal_usart.c: 119:             EUSART_ASYNC_WriteByteBlocking(*_data);
  4700   0030DC  C027  FFF6         	movff	EUSART_ASYNC_WriteStringBlocking@_data,tblptrl
  4701   0030E0  C028  FFF7         	movff	EUSART_ASYNC_WriteStringBlocking@_data+1,tblptrh
  4702   0030E4                     	if	1	;Program memory is < 0x10000, tblptru is always zero
  4703   0030E4  6AF8               	clrf	tblptru,c
  4704   0030E6                     	endif
  4705   0030E6                     	if	0	;tblptru may be non-zero
  4706   0030E6                     	endif
  4707   0030E6  0008               	tblrd		*
  4708   0030E8  50F5               	movf	tablat,w,c
  4709   0030EA  EC25  F01B         	call	_EUSART_ASYNC_WriteByteBlocking
  4710   0030EE                     
  4711                           ;MCAL_Layer/USART/hal_usart.c: 120:             _data++;
  4712   0030EE  4A27               	infsnz	EUSART_ASYNC_WriteStringBlocking@_data^0,f,c
  4713   0030F0  2A28               	incf	(EUSART_ASYNC_WriteStringBlocking@_data+1)^0,f,c
  4714   0030F2                     l6685:
  4715                           
  4716                           ;MCAL_Layer/USART/hal_usart.c: 118:         while(*_data){
  4717   0030F2  C027  FFF6         	movff	EUSART_ASYNC_WriteStringBlocking@_data,tblptrl
  4718   0030F6  C028  FFF7         	movff	EUSART_ASYNC_WriteStringBlocking@_data+1,tblptrh
  4719   0030FA                     	if	1	;Program memory is < 0x10000, tblptru is always zero
  4720   0030FA  6AF8               	clrf	tblptru,c
  4721   0030FC                     	endif
  4722   0030FC                     	if	0	;tblptru may be non-zero
  4723   0030FC                     	endif
  4724   0030FC  0008               	tblrd		*
  4725   0030FE  50F5               	movf	tablat,w,c
  4726   003100  0900               	iorlw	0
  4727   003102  A4D8               	btfss	status,2,c
  4728   003104  EF86  F018         	goto	u6771
  4729   003108  EF88  F018         	goto	u6770
  4730   00310C                     u6771:
  4731   00310C  EF6E  F018         	goto	l6681
  4732   003110                     u6770:
  4733   003110                     
  4734                           ;MCAL_Layer/USART/hal_usart.c: 122:         ret = (Std_ReturnType)0x01;
  4735   003110  0E01               	movlw	1
  4736   003112  6E29               	movwf	EUSART_ASYNC_WriteStringBlocking@ret^0,c
  4737   003114                     l1404:
  4738                           
  4739                           ;MCAL_Layer/USART/hal_usart.c: 124:     return ret;
  4740   003114  5029               	movf	EUSART_ASYNC_WriteStringBlocking@ret^0,w,c
  4741   003116  0012               	return		;funcret
  4742   003118                     __end_of_EUSART_ASYNC_WriteStringBlocking:
  4743                           	callstack 0
  4744                           
  4745 ;; *************** function _EUSART_ASYNC_WriteByteBlocking *****************
  4746 ;; Defined at:
  4747 ;;		line 102 in file "MCAL_Layer/USART/hal_usart.c"
  4748 ;; Parameters:    Size  Location     Type
  4749 ;;  _data           1    wreg     unsigned char 
  4750 ;; Auto vars:     Size  Location     Type
  4751 ;;  _data           1   37[COMRAM] unsigned char 
  4752 ;;  ret             1    0        unsigned char 
  4753 ;; Return value:  Size  Location     Type
  4754 ;;                  1    wreg      unsigned char 
  4755 ;; Registers used:
  4756 ;;		wreg, status,2
  4757 ;; Tracked objects:
  4758 ;;		On entry : 0/0
  4759 ;;		On exit  : 0/0
  4760 ;;		Unchanged: 0/0
  4761 ;; Data sizes:     COMRAM   BANK0   BANK1   BANK2   BANK3   BANK4   BANK5   BANK6   BANK7   BANK8   BANK9  BANK10  BANK1
      +1  BANK12  BANK13  BANK14  BANK15
  4762 ;;      Params:         0       0       0       0       0       0       0       0       0       0       0       0       
      +0       0       0       0       0
  4763 ;;      Locals:         1       0       0       0       0       0       0       0       0       0       0       0       
      +0       0       0       0       0
  4764 ;;      Temps:          0       0       0       0       0       0       0       0       0       0       0       0       
      +0       0       0       0       0
  4765 ;;      Totals:         1       0       0       0       0       0       0       0       0       0       0       0       
      +0       0       0       0       0
  4766 ;;Total ram usage:        1 bytes
  4767 ;; Hardware stack levels used: 1
  4768 ;; Hardware stack levels required when called: 12
  4769 ;; This function calls:
  4770 ;;		Nothing
  4771 ;; This function is called by:
  4772 ;;		_EUSART_ASYNC_WriteStringBlocking
  4773 ;; This function uses a non-reentrant model
  4774 ;;
  4775                           
  4776                           	psect	text15
  4777   00364A                     __ptext15:
  4778                           	callstack 0
  4779   00364A                     _EUSART_ASYNC_WriteByteBlocking:
  4780                           	callstack 17
  4781                           
  4782                           ;incstack = 0
  4783                           ;EUSART_ASYNC_WriteByteBlocking@_data stored from wreg
  4784   00364A  6E26               	movwf	EUSART_ASYNC_WriteByteBlocking@_data^0,c
  4785   00364C                     l1397:
  4786   00364C  A2AC               	btfss	172,1,c	;volatile
  4787   00364E  EF2B  F01B         	goto	u1441
  4788   003652  EF2D  F01B         	goto	u1440
  4789   003656                     u1441:
  4790   003656  EF26  F01B         	goto	l1397
  4791   00365A                     u1440:
  4792   00365A                     
  4793                           ;MCAL_Layer/USART/hal_usart.c: 106:         (PIE1bits.TXIE = 1);
  4794   00365A  889D               	bsf	157,4,c	;volatile
  4795   00365C                     
  4796                           ;MCAL_Layer/USART/hal_usart.c: 108:         TXREG = _data;
  4797   00365C  C026  FFAD         	movff	EUSART_ASYNC_WriteByteBlocking@_data,4013	;volatile
  4798   003660  0012               	return		;funcret
  4799   003662                     __end_of_EUSART_ASYNC_WriteByteBlocking:
  4800                           	callstack 0
  4801                           
  4802 ;; *************** function _InterruptManagerLow *****************
  4803 ;; Defined at:
  4804 ;;		line 20 in file "MCAL_Layer/Interrupt/mcal_interrupt_manager.c"
  4805 ;; Parameters:    Size  Location     Type
  4806 ;;		None
  4807 ;; Auto vars:     Size  Location     Type
  4808 ;;		None
  4809 ;; Return value:  Size  Location     Type
  4810 ;;                  1    wreg      void 
  4811 ;; Registers used:
  4812 ;;		wreg, fsr2l, fsr2h, status,2, status,0, pcl, pclath, pclatu, tosl, prodl, prodh, cstack
  4813 ;; Tracked objects:
  4814 ;;		On entry : 0/0
  4815 ;;		On exit  : 0/0
  4816 ;;		Unchanged: 0/0
  4817 ;; Data sizes:     COMRAM   BANK0   BANK1   BANK2   BANK3   BANK4   BANK5   BANK6   BANK7   BANK8   BANK9  BANK10  BANK1
      +1  BANK12  BANK13  BANK14  BANK15
  4818 ;;      Params:         0       0       0       0       0       0       0       0       0       0       0       0       
      +0       0       0       0       0
  4819 ;;      Locals:         0       0       0       0       0       0       0       0       0       0       0       0       
      +0       0       0       0       0
  4820 ;;      Temps:          9       0       0       0       0       0       0       0       0       0       0       0       
      +0       0       0       0       0
  4821 ;;      Totals:         9       0       0       0       0       0       0       0       0       0       0       0       
      +0       0       0       0       0
  4822 ;;Total ram usage:        9 bytes
  4823 ;; Hardware stack levels used: 1
  4824 ;; Hardware stack levels required when called: 11
  4825 ;; This function calls:
  4826 ;;		_InterruptCheck
  4827 ;; This function is called by:
  4828 ;;		Interrupt level 1
  4829 ;; This function uses a non-reentrant model
  4830 ;;
  4831                           
  4832                           	psect	intcodelo
  4833   000018                     __pintcodelo:
  4834                           	callstack 0
  4835   000018                     _InterruptManagerLow:
  4836                           	callstack 15
  4837                           
  4838                           ;incstack = 0
  4839   000018  805A               	bsf	int$flags,0,c	;set compiler interrupt flag (level 1)
  4840   00001A  CFD8 F01D          	movff	status,??_InterruptManagerLow
  4841   00001E  CFE8 F01E          	movff	wreg,??_InterruptManagerLow+1
  4842   000022  CFE0 F01F          	movff	bsr,??_InterruptManagerLow+2
  4843   000026  CFFA F020          	movff	pclath,??_InterruptManagerLow+3
  4844   00002A  CFFB F021          	movff	pclatu,??_InterruptManagerLow+4
  4845   00002E  CFD9 F022          	movff	fsr2l,??_InterruptManagerLow+5
  4846   000032  CFDA F023          	movff	fsr2h,??_InterruptManagerLow+6
  4847   000036  CFF3 F024          	movff	prodl,??_InterruptManagerLow+7
  4848   00003A  CFF4 F025          	movff	prodh,??_InterruptManagerLow+8
  4849   00003E                     
  4850                           ;MCAL_Layer/Interrupt/mcal_interrupt_manager.c: 21:     InterruptCheck();
  4851   00003E  EC1D  F00F         	call	_InterruptCheck	;wreg free
  4852   000042  C025  FFF4         	movff	??_InterruptManagerLow+8,prodh
  4853   000046  C024  FFF3         	movff	??_InterruptManagerLow+7,prodl
  4854   00004A  C023  FFDA         	movff	??_InterruptManagerLow+6,fsr2h
  4855   00004E  C022  FFD9         	movff	??_InterruptManagerLow+5,fsr2l
  4856   000052  C021  FFFB         	movff	??_InterruptManagerLow+4,pclatu
  4857   000056  C020  FFFA         	movff	??_InterruptManagerLow+3,pclath
  4858   00005A  C01F  FFE0         	movff	??_InterruptManagerLow+2,bsr
  4859   00005E  C01E  FFE8         	movff	??_InterruptManagerLow+1,wreg
  4860   000062  C01D  FFD8         	movff	??_InterruptManagerLow,status
  4861   000066  905A               	bcf	int$flags,0,c	;clear compiler interrupt flag (level 1)
  4862   000068  0010               	retfie	
  4863   00006A                     __end_of_InterruptManagerLow:
  4864                           	callstack 0
  4865                           
  4866 ;; *************** function _InterruptCheck *****************
  4867 ;; Defined at:
  4868 ;;		line 31 in file "MCAL_Layer/Interrupt/mcal_interrupt_manager.c"
  4869 ;; Parameters:    Size  Location     Type
  4870 ;;		None
  4871 ;; Auto vars:     Size  Location     Type
  4872 ;;		None
  4873 ;; Return value:  Size  Location     Type
  4874 ;;                  1    wreg      void 
  4875 ;; Registers used:
  4876 ;;		wreg, fsr2l, fsr2h, status,2, status,0, pcl, pclath, pclatu, tosl, prodl, prodh, cstack
  4877 ;; Tracked objects:
  4878 ;;		On entry : 0/0
  4879 ;;		On exit  : 0/0
  4880 ;;		Unchanged: 0/0
  4881 ;; Data sizes:     COMRAM   BANK0   BANK1   BANK2   BANK3   BANK4   BANK5   BANK6   BANK7   BANK8   BANK9  BANK10  BANK1
      +1  BANK12  BANK13  BANK14  BANK15
  4882 ;;      Params:         0       0       0       0       0       0       0       0       0       0       0       0       
      +0       0       0       0       0
  4883 ;;      Locals:         0       0       0       0       0       0       0       0       0       0       0       0       
      +0       0       0       0       0
  4884 ;;      Temps:          0       0       0       0       0       0       0       0       0       0       0       0       
      +0       0       0       0       0
  4885 ;;      Totals:         0       0       0       0       0       0       0       0       0       0       0       0       
      +0       0       0       0       0
  4886 ;;Total ram usage:        0 bytes
  4887 ;; Hardware stack levels used: 1
  4888 ;; Hardware stack levels required when called: 10
  4889 ;; This function calls:
  4890 ;;		_ADC_ISR
  4891 ;;		_CCP1_ISR
  4892 ;;		_CCP2_ISR
  4893 ;;		_EUSART_RX_ISR
  4894 ;;		_EUSART_TX_ISR
  4895 ;;		_INT0_ISR
  4896 ;;		_INT1_ISR
  4897 ;;		_INT2_ISR
  4898 ;;		_RB4_ISR
  4899 ;;		_RB5_ISR
  4900 ;;		_RB6_ISR
  4901 ;;		_RB7_ISR
  4902 ;;		_TMR1_ISR
  4903 ;;		_TMR2_ISR
  4904 ;;		_TMR3_ISR
  4905 ;;		_TMRO_ISR
  4906 ;; This function is called by:
  4907 ;;		_InterruptManagerLow
  4908 ;; This function uses a non-reentrant model
  4909 ;;
  4910                           
  4911                           	psect	text17
  4912   001E3A                     __ptext17:
  4913                           	callstack 0
  4914   001E3A                     _InterruptCheck:
  4915                           	callstack 15
  4916   001E3A                     
  4917                           ;MCAL_Layer/Interrupt/mcal_interrupt_manager.c: 33:     if((1 == INTCONbits.INT0IE)&&(1 
      +                          == INTCONbits.INT0IF)){
  4918   001E3A  A8F2               	btfss	242,4,c	;volatile
  4919   001E3C  EF22  F00F         	goto	i1u617_21
  4920   001E40  EF24  F00F         	goto	i1u617_20
  4921   001E44                     i1u617_21:
  4922   001E44  EF2D  F00F         	goto	i1l603
  4923   001E48                     i1u617_20:
  4924   001E48  A2F2               	btfss	242,1,c	;volatile
  4925   001E4A  EF29  F00F         	goto	i1u618_21
  4926   001E4E  EF2B  F00F         	goto	i1u618_20
  4927   001E52                     i1u618_21:
  4928   001E52  EF2D  F00F         	goto	i1l603
  4929   001E56                     i1u618_20:
  4930   001E56                     
  4931                           ;MCAL_Layer/Interrupt/mcal_interrupt_manager.c: 34:         INT0_ISR();
  4932   001E56  EC67  F01B         	call	_INT0_ISR	;wreg free
  4933   001E5A                     i1l603:
  4934                           
  4935                           ;MCAL_Layer/Interrupt/mcal_interrupt_manager.c: 38:     if((1 == INTCON3bits.INT1IE)&&(1
      +                           == INTCON3bits.INT1IF)){
  4936   001E5A  A6F0               	btfss	240,3,c	;volatile
  4937   001E5C  EF32  F00F         	goto	i1u619_21
  4938   001E60  EF34  F00F         	goto	i1u619_20
  4939   001E64                     i1u619_21:
  4940   001E64  EF3D  F00F         	goto	i1l605
  4941   001E68                     i1u619_20:
  4942   001E68  A0F0               	btfss	240,0,c	;volatile
  4943   001E6A  EF39  F00F         	goto	i1u620_21
  4944   001E6E  EF3B  F00F         	goto	i1u620_20
  4945   001E72                     i1u620_21:
  4946   001E72  EF3D  F00F         	goto	i1l605
  4947   001E76                     i1u620_20:
  4948   001E76                     
  4949                           ;MCAL_Layer/Interrupt/mcal_interrupt_manager.c: 39:         INT1_ISR();
  4950   001E76  EC65  F01B         	call	_INT1_ISR	;wreg free
  4951   001E7A                     i1l605:
  4952                           
  4953                           ;MCAL_Layer/Interrupt/mcal_interrupt_manager.c: 43:     if((1 == INTCON3bits.INT2IE)&&(1
      +                           == INTCON3bits.INT2IF)){
  4954   001E7A  A8F0               	btfss	240,4,c	;volatile
  4955   001E7C  EF42  F00F         	goto	i1u621_21
  4956   001E80  EF44  F00F         	goto	i1u621_20
  4957   001E84                     i1u621_21:
  4958   001E84  EF4D  F00F         	goto	i1l607
  4959   001E88                     i1u621_20:
  4960   001E88  A2F0               	btfss	240,1,c	;volatile
  4961   001E8A  EF49  F00F         	goto	i1u622_21
  4962   001E8E  EF4B  F00F         	goto	i1u622_20
  4963   001E92                     i1u622_21:
  4964   001E92  EF4D  F00F         	goto	i1l607
  4965   001E96                     i1u622_20:
  4966   001E96                     
  4967                           ;MCAL_Layer/Interrupt/mcal_interrupt_manager.c: 44:         INT2_ISR();
  4968   001E96  EC63  F01B         	call	_INT2_ISR	;wreg free
  4969   001E9A                     i1l607:
  4970                           
  4971                           ;MCAL_Layer/Interrupt/mcal_interrupt_manager.c: 49:     if((1 == INTCONbits.RBIE)&&(1 ==
      +                           INTCONbits.RBIF)&&(PORTBbits.RB4 == GPIO_HIGH) && (RB4_Flag ==1)){
  4972   001E9A  A6F2               	btfss	242,3,c	;volatile
  4973   001E9C  EF52  F00F         	goto	i1u623_21
  4974   001EA0  EF54  F00F         	goto	i1u623_20
  4975   001EA4                     i1u623_21:
  4976   001EA4  EF6F  F00F         	goto	i1l609
  4977   001EA8                     i1u623_20:
  4978   001EA8  A0F2               	btfss	242,0,c	;volatile
  4979   001EAA  EF59  F00F         	goto	i1u624_21
  4980   001EAE  EF5B  F00F         	goto	i1u624_20
  4981   001EB2                     i1u624_21:
  4982   001EB2  EF6F  F00F         	goto	i1l609
  4983   001EB6                     i1u624_20:
  4984   001EB6  A881               	btfss	129,4,c	;volatile
  4985   001EB8  EF60  F00F         	goto	i1u625_21
  4986   001EBC  EF62  F00F         	goto	i1u625_20
  4987   001EC0                     i1u625_21:
  4988   001EC0  EF6F  F00F         	goto	i1l609
  4989   001EC4                     i1u625_20:
  4990   001EC4  0458               	decf	_RB4_Flag^0,w,c	;volatile
  4991   001EC6  A4D8               	btfss	status,2,c
  4992   001EC8  EF68  F00F         	goto	i1u626_21
  4993   001ECC  EF6A  F00F         	goto	i1u626_20
  4994   001ED0                     i1u626_21:
  4995   001ED0  EF6F  F00F         	goto	i1l609
  4996   001ED4                     i1u626_20:
  4997   001ED4                     
  4998                           ;MCAL_Layer/Interrupt/mcal_interrupt_manager.c: 50:         RB4_Flag = 0;
  4999   001ED4  0E00               	movlw	0
  5000   001ED6  6E58               	movwf	_RB4_Flag^0,c	;volatile
  5001   001ED8                     
  5002                           ;MCAL_Layer/Interrupt/mcal_interrupt_manager.c: 51:         RB4_ISR(1);
  5003   001ED8  0E01               	movlw	1
  5004   001EDA  ECD8  F01A         	call	_RB4_ISR
  5005   001EDE                     i1l609:
  5006                           
  5007                           ;MCAL_Layer/Interrupt/mcal_interrupt_manager.c: 54:     if((1 == INTCONbits.RBIE)&&(1 ==
      +                           INTCONbits.RBIF)&&(PORTBbits.RB4 == GPIO_LOW)&& (RB4_Flag ==0)){
  5008   001EDE  A6F2               	btfss	242,3,c	;volatile
  5009   001EE0  EF74  F00F         	goto	i1u627_21
  5010   001EE4  EF76  F00F         	goto	i1u627_20
  5011   001EE8                     i1u627_21:
  5012   001EE8  EF91  F00F         	goto	i1l611
  5013   001EEC                     i1u627_20:
  5014   001EEC  A0F2               	btfss	242,0,c	;volatile
  5015   001EEE  EF7B  F00F         	goto	i1u628_21
  5016   001EF2  EF7D  F00F         	goto	i1u628_20
  5017   001EF6                     i1u628_21:
  5018   001EF6  EF91  F00F         	goto	i1l611
  5019   001EFA                     i1u628_20:
  5020   001EFA  B881               	btfsc	129,4,c	;volatile
  5021   001EFC  EF82  F00F         	goto	i1u629_21
  5022   001F00  EF84  F00F         	goto	i1u629_20
  5023   001F04                     i1u629_21:
  5024   001F04  EF91  F00F         	goto	i1l611
  5025   001F08                     i1u629_20:
  5026   001F08  5058               	movf	_RB4_Flag^0,w,c	;volatile
  5027   001F0A  A4D8               	btfss	status,2,c
  5028   001F0C  EF8A  F00F         	goto	i1u630_21
  5029   001F10  EF8C  F00F         	goto	i1u630_20
  5030   001F14                     i1u630_21:
  5031   001F14  EF91  F00F         	goto	i1l611
  5032   001F18                     i1u630_20:
  5033   001F18                     
  5034                           ;MCAL_Layer/Interrupt/mcal_interrupt_manager.c: 55:         RB4_Flag = 1;
  5035   001F18  0E01               	movlw	1
  5036   001F1A  6E58               	movwf	_RB4_Flag^0,c	;volatile
  5037   001F1C                     
  5038                           ;MCAL_Layer/Interrupt/mcal_interrupt_manager.c: 56:         RB4_ISR(0);
  5039   001F1C  0E00               	movlw	0
  5040   001F1E  ECD8  F01A         	call	_RB4_ISR
  5041   001F22                     i1l611:
  5042                           
  5043                           ;MCAL_Layer/Interrupt/mcal_interrupt_manager.c: 60:     if((1 == INTCONbits.RBIE)&&(1 ==
      +                           INTCONbits.RBIF)&&(PORTBbits.RB5 == GPIO_HIGH) && (RB5_Flag ==1)){
  5044   001F22  A6F2               	btfss	242,3,c	;volatile
  5045   001F24  EF96  F00F         	goto	i1u631_21
  5046   001F28  EF98  F00F         	goto	i1u631_20
  5047   001F2C                     i1u631_21:
  5048   001F2C  EFB3  F00F         	goto	i1l613
  5049   001F30                     i1u631_20:
  5050   001F30  A0F2               	btfss	242,0,c	;volatile
  5051   001F32  EF9D  F00F         	goto	i1u632_21
  5052   001F36  EF9F  F00F         	goto	i1u632_20
  5053   001F3A                     i1u632_21:
  5054   001F3A  EFB3  F00F         	goto	i1l613
  5055   001F3E                     i1u632_20:
  5056   001F3E  AA81               	btfss	129,5,c	;volatile
  5057   001F40  EFA4  F00F         	goto	i1u633_21
  5058   001F44  EFA6  F00F         	goto	i1u633_20
  5059   001F48                     i1u633_21:
  5060   001F48  EFB3  F00F         	goto	i1l613
  5061   001F4C                     i1u633_20:
  5062   001F4C  0457               	decf	_RB5_Flag^0,w,c	;volatile
  5063   001F4E  A4D8               	btfss	status,2,c
  5064   001F50  EFAC  F00F         	goto	i1u634_21
  5065   001F54  EFAE  F00F         	goto	i1u634_20
  5066   001F58                     i1u634_21:
  5067   001F58  EFB3  F00F         	goto	i1l613
  5068   001F5C                     i1u634_20:
  5069   001F5C                     
  5070                           ;MCAL_Layer/Interrupt/mcal_interrupt_manager.c: 61:         RB5_Flag = 0;
  5071   001F5C  0E00               	movlw	0
  5072   001F5E  6E57               	movwf	_RB5_Flag^0,c	;volatile
  5073   001F60                     
  5074                           ;MCAL_Layer/Interrupt/mcal_interrupt_manager.c: 62:         RB5_ISR(1);
  5075   001F60  0E01               	movlw	1
  5076   001F62  ECCB  F01A         	call	_RB5_ISR
  5077   001F66                     i1l613:
  5078                           
  5079                           ;MCAL_Layer/Interrupt/mcal_interrupt_manager.c: 65:     if((1 == INTCONbits.RBIE)&&(1 ==
      +                           INTCONbits.RBIF)&&(PORTBbits.RB5 == GPIO_LOW)&& (RB5_Flag ==0)){
  5080   001F66  A6F2               	btfss	242,3,c	;volatile
  5081   001F68  EFB8  F00F         	goto	i1u635_21
  5082   001F6C  EFBA  F00F         	goto	i1u635_20
  5083   001F70                     i1u635_21:
  5084   001F70  EFD5  F00F         	goto	i1l615
  5085   001F74                     i1u635_20:
  5086   001F74  A0F2               	btfss	242,0,c	;volatile
  5087   001F76  EFBF  F00F         	goto	i1u636_21
  5088   001F7A  EFC1  F00F         	goto	i1u636_20
  5089   001F7E                     i1u636_21:
  5090   001F7E  EFD5  F00F         	goto	i1l615
  5091   001F82                     i1u636_20:
  5092   001F82  BA81               	btfsc	129,5,c	;volatile
  5093   001F84  EFC6  F00F         	goto	i1u637_21
  5094   001F88  EFC8  F00F         	goto	i1u637_20
  5095   001F8C                     i1u637_21:
  5096   001F8C  EFD5  F00F         	goto	i1l615
  5097   001F90                     i1u637_20:
  5098   001F90  5057               	movf	_RB5_Flag^0,w,c	;volatile
  5099   001F92  A4D8               	btfss	status,2,c
  5100   001F94  EFCE  F00F         	goto	i1u638_21
  5101   001F98  EFD0  F00F         	goto	i1u638_20
  5102   001F9C                     i1u638_21:
  5103   001F9C  EFD5  F00F         	goto	i1l615
  5104   001FA0                     i1u638_20:
  5105   001FA0                     
  5106                           ;MCAL_Layer/Interrupt/mcal_interrupt_manager.c: 66:         RB5_Flag = 1;
  5107   001FA0  0E01               	movlw	1
  5108   001FA2  6E57               	movwf	_RB5_Flag^0,c	;volatile
  5109   001FA4                     
  5110                           ;MCAL_Layer/Interrupt/mcal_interrupt_manager.c: 67:         RB5_ISR(0);
  5111   001FA4  0E00               	movlw	0
  5112   001FA6  ECCB  F01A         	call	_RB5_ISR
  5113   001FAA                     i1l615:
  5114                           
  5115                           ;MCAL_Layer/Interrupt/mcal_interrupt_manager.c: 71:     if((1 == INTCONbits.RBIE)&&(1 ==
      +                           INTCONbits.RBIF)&&(PORTBbits.RB6 == GPIO_HIGH) && (RB6_Flag ==1)){
  5116   001FAA  A6F2               	btfss	242,3,c	;volatile
  5117   001FAC  EFDA  F00F         	goto	i1u639_21
  5118   001FB0  EFDC  F00F         	goto	i1u639_20
  5119   001FB4                     i1u639_21:
  5120   001FB4  EFF7  F00F         	goto	i1l617
  5121   001FB8                     i1u639_20:
  5122   001FB8  A0F2               	btfss	242,0,c	;volatile
  5123   001FBA  EFE1  F00F         	goto	i1u640_21
  5124   001FBE  EFE3  F00F         	goto	i1u640_20
  5125   001FC2                     i1u640_21:
  5126   001FC2  EFF7  F00F         	goto	i1l617
  5127   001FC6                     i1u640_20:
  5128   001FC6  AC81               	btfss	129,6,c	;volatile
  5129   001FC8  EFE8  F00F         	goto	i1u641_21
  5130   001FCC  EFEA  F00F         	goto	i1u641_20
  5131   001FD0                     i1u641_21:
  5132   001FD0  EFF7  F00F         	goto	i1l617
  5133   001FD4                     i1u641_20:
  5134   001FD4  0456               	decf	_RB6_Flag^0,w,c	;volatile
  5135   001FD6  A4D8               	btfss	status,2,c
  5136   001FD8  EFF0  F00F         	goto	i1u642_21
  5137   001FDC  EFF2  F00F         	goto	i1u642_20
  5138   001FE0                     i1u642_21:
  5139   001FE0  EFF7  F00F         	goto	i1l617
  5140   001FE4                     i1u642_20:
  5141   001FE4                     
  5142                           ;MCAL_Layer/Interrupt/mcal_interrupt_manager.c: 72:         RB6_Flag = 0;
  5143   001FE4  0E00               	movlw	0
  5144   001FE6  6E56               	movwf	_RB6_Flag^0,c	;volatile
  5145   001FE8                     
  5146                           ;MCAL_Layer/Interrupt/mcal_interrupt_manager.c: 73:         RB6_ISR(1);
  5147   001FE8  0E01               	movlw	1
  5148   001FEA  ECBE  F01A         	call	_RB6_ISR
  5149   001FEE                     i1l617:
  5150                           
  5151                           ;MCAL_Layer/Interrupt/mcal_interrupt_manager.c: 76:     if((1 == INTCONbits.RBIE)&&(1 ==
      +                           INTCONbits.RBIF)&&(PORTBbits.RB6 == GPIO_LOW)&& (RB6_Flag ==0)){
  5152   001FEE  A6F2               	btfss	242,3,c	;volatile
  5153   001FF0  EFFC  F00F         	goto	i1u643_21
  5154   001FF4  EFFE  F00F         	goto	i1u643_20
  5155   001FF8                     i1u643_21:
  5156   001FF8  EF19  F010         	goto	i1l619
  5157   001FFC                     i1u643_20:
  5158   001FFC  A0F2               	btfss	242,0,c	;volatile
  5159   001FFE  EF03  F010         	goto	i1u644_21
  5160   002002  EF05  F010         	goto	i1u644_20
  5161   002006                     i1u644_21:
  5162   002006  EF19  F010         	goto	i1l619
  5163   00200A                     i1u644_20:
  5164   00200A  BC81               	btfsc	129,6,c	;volatile
  5165   00200C  EF0A  F010         	goto	i1u645_21
  5166   002010  EF0C  F010         	goto	i1u645_20
  5167   002014                     i1u645_21:
  5168   002014  EF19  F010         	goto	i1l619
  5169   002018                     i1u645_20:
  5170   002018  5056               	movf	_RB6_Flag^0,w,c	;volatile
  5171   00201A  A4D8               	btfss	status,2,c
  5172   00201C  EF12  F010         	goto	i1u646_21
  5173   002020  EF14  F010         	goto	i1u646_20
  5174   002024                     i1u646_21:
  5175   002024  EF19  F010         	goto	i1l619
  5176   002028                     i1u646_20:
  5177   002028                     
  5178                           ;MCAL_Layer/Interrupt/mcal_interrupt_manager.c: 77:         RB6_Flag = 1;
  5179   002028  0E01               	movlw	1
  5180   00202A  6E56               	movwf	_RB6_Flag^0,c	;volatile
  5181   00202C                     
  5182                           ;MCAL_Layer/Interrupt/mcal_interrupt_manager.c: 78:         RB6_ISR(0);
  5183   00202C  0E00               	movlw	0
  5184   00202E  ECBE  F01A         	call	_RB6_ISR
  5185   002032                     i1l619:
  5186                           
  5187                           ;MCAL_Layer/Interrupt/mcal_interrupt_manager.c: 82:     if((1 == INTCONbits.RBIE)&&(1 ==
      +                           INTCONbits.RBIF)&&(PORTBbits.RB7 == GPIO_HIGH) && (RB7_Flag ==1)){
  5188   002032  A6F2               	btfss	242,3,c	;volatile
  5189   002034  EF1E  F010         	goto	i1u647_21
  5190   002038  EF20  F010         	goto	i1u647_20
  5191   00203C                     i1u647_21:
  5192   00203C  EF3B  F010         	goto	i1l621
  5193   002040                     i1u647_20:
  5194   002040  A0F2               	btfss	242,0,c	;volatile
  5195   002042  EF25  F010         	goto	i1u648_21
  5196   002046  EF27  F010         	goto	i1u648_20
  5197   00204A                     i1u648_21:
  5198   00204A  EF3B  F010         	goto	i1l621
  5199   00204E                     i1u648_20:
  5200   00204E  AE81               	btfss	129,7,c	;volatile
  5201   002050  EF2C  F010         	goto	i1u649_21
  5202   002054  EF2E  F010         	goto	i1u649_20
  5203   002058                     i1u649_21:
  5204   002058  EF3B  F010         	goto	i1l621
  5205   00205C                     i1u649_20:
  5206   00205C  0455               	decf	_RB7_Flag^0,w,c	;volatile
  5207   00205E  A4D8               	btfss	status,2,c
  5208   002060  EF34  F010         	goto	i1u650_21
  5209   002064  EF36  F010         	goto	i1u650_20
  5210   002068                     i1u650_21:
  5211   002068  EF3B  F010         	goto	i1l621
  5212   00206C                     i1u650_20:
  5213   00206C                     
  5214                           ;MCAL_Layer/Interrupt/mcal_interrupt_manager.c: 83:         RB7_Flag = 0;
  5215   00206C  0E00               	movlw	0
  5216   00206E  6E55               	movwf	_RB7_Flag^0,c	;volatile
  5217   002070                     
  5218                           ;MCAL_Layer/Interrupt/mcal_interrupt_manager.c: 84:         RB7_ISR(1);
  5219   002070  0E01               	movlw	1
  5220   002072  ECB1  F01A         	call	_RB7_ISR
  5221   002076                     i1l621:
  5222                           
  5223                           ;MCAL_Layer/Interrupt/mcal_interrupt_manager.c: 87:     if((1 == INTCONbits.RBIE)&&(1 ==
      +                           INTCONbits.RBIF)&&(PORTBbits.RB7 == GPIO_LOW)&& (RB7_Flag ==0)){
  5224   002076  A6F2               	btfss	242,3,c	;volatile
  5225   002078  EF40  F010         	goto	i1u651_21
  5226   00207C  EF42  F010         	goto	i1u651_20
  5227   002080                     i1u651_21:
  5228   002080  EF5D  F010         	goto	i1l623
  5229   002084                     i1u651_20:
  5230   002084  A0F2               	btfss	242,0,c	;volatile
  5231   002086  EF47  F010         	goto	i1u652_21
  5232   00208A  EF49  F010         	goto	i1u652_20
  5233   00208E                     i1u652_21:
  5234   00208E  EF5D  F010         	goto	i1l623
  5235   002092                     i1u652_20:
  5236   002092  BE81               	btfsc	129,7,c	;volatile
  5237   002094  EF4E  F010         	goto	i1u653_21
  5238   002098  EF50  F010         	goto	i1u653_20
  5239   00209C                     i1u653_21:
  5240   00209C  EF5D  F010         	goto	i1l623
  5241   0020A0                     i1u653_20:
  5242   0020A0  5055               	movf	_RB7_Flag^0,w,c	;volatile
  5243   0020A2  A4D8               	btfss	status,2,c
  5244   0020A4  EF56  F010         	goto	i1u654_21
  5245   0020A8  EF58  F010         	goto	i1u654_20
  5246   0020AC                     i1u654_21:
  5247   0020AC  EF5D  F010         	goto	i1l623
  5248   0020B0                     i1u654_20:
  5249   0020B0                     
  5250                           ;MCAL_Layer/Interrupt/mcal_interrupt_manager.c: 88:         RB7_Flag = 1;
  5251   0020B0  0E01               	movlw	1
  5252   0020B2  6E55               	movwf	_RB7_Flag^0,c	;volatile
  5253   0020B4                     
  5254                           ;MCAL_Layer/Interrupt/mcal_interrupt_manager.c: 89:         RB7_ISR(0);
  5255   0020B4  0E00               	movlw	0
  5256   0020B6  ECB1  F01A         	call	_RB7_ISR
  5257   0020BA                     i1l623:
  5258                           
  5259                           ;MCAL_Layer/Interrupt/mcal_interrupt_manager.c: 95:     if((1 == PIE1bits.ADIE)&&(1 == P
      +                          IR1bits.ADIF)){
  5260   0020BA  AC9D               	btfss	157,6,c	;volatile
  5261   0020BC  EF62  F010         	goto	i1u655_21
  5262   0020C0  EF64  F010         	goto	i1u655_20
  5263   0020C4                     i1u655_21:
  5264   0020C4  EF6D  F010         	goto	i1l625
  5265   0020C8                     i1u655_20:
  5266   0020C8  AC9E               	btfss	158,6,c	;volatile
  5267   0020CA  EF69  F010         	goto	i1u656_21
  5268   0020CE  EF6B  F010         	goto	i1u656_20
  5269   0020D2                     i1u656_21:
  5270   0020D2  EF6D  F010         	goto	i1l625
  5271   0020D6                     i1u656_20:
  5272   0020D6                     
  5273                           ;MCAL_Layer/Interrupt/mcal_interrupt_manager.c: 96:         ADC_ISR();
  5274   0020D6  EC6B  F01B         	call	_ADC_ISR	;wreg free
  5275   0020DA                     i1l625:
  5276                           
  5277                           ;MCAL_Layer/Interrupt/mcal_interrupt_manager.c: 102:     if((1 == INTCONbits.TMR0IE)&&(1
      +                           == INTCONbits.TMR0IF)){
  5278   0020DA  AAF2               	btfss	242,5,c	;volatile
  5279   0020DC  EF72  F010         	goto	i1u657_21
  5280   0020E0  EF74  F010         	goto	i1u657_20
  5281   0020E4                     i1u657_21:
  5282   0020E4  EF7D  F010         	goto	i1l627
  5283   0020E8                     i1u657_20:
  5284   0020E8  A4F2               	btfss	242,2,c	;volatile
  5285   0020EA  EF79  F010         	goto	i1u658_21
  5286   0020EE  EF7B  F010         	goto	i1u658_20
  5287   0020F2                     i1u658_21:
  5288   0020F2  EF7D  F010         	goto	i1l627
  5289   0020F6                     i1u658_20:
  5290   0020F6                     
  5291                           ;MCAL_Layer/Interrupt/mcal_interrupt_manager.c: 103:         TMRO_ISR();
  5292   0020F6  EC2F  F019         	call	_TMRO_ISR	;wreg free
  5293   0020FA                     i1l627:
  5294                           
  5295                           ;MCAL_Layer/Interrupt/mcal_interrupt_manager.c: 109:     if((1 == PIE1bits.TMR1IE)&&(1 =
      +                          = PIR1bits.TMR1IF)){
  5296   0020FA  A09D               	btfss	157,0,c	;volatile
  5297   0020FC  EF82  F010         	goto	i1u659_21
  5298   002100  EF84  F010         	goto	i1u659_20
  5299   002104                     i1u659_21:
  5300   002104  EF8D  F010         	goto	i1l629
  5301   002108                     i1u659_20:
  5302   002108  A09E               	btfss	158,0,c	;volatile
  5303   00210A  EF89  F010         	goto	i1u660_21
  5304   00210E  EF8B  F010         	goto	i1u660_20
  5305   002112                     i1u660_21:
  5306   002112  EF8D  F010         	goto	i1l629
  5307   002116                     i1u660_20:
  5308   002116                     
  5309                           ;MCAL_Layer/Interrupt/mcal_interrupt_manager.c: 110:         TMR1_ISR();
  5310   002116  EC4C  F01B         	call	_TMR1_ISR	;wreg free
  5311   00211A                     i1l629:
  5312                           
  5313                           ;MCAL_Layer/Interrupt/mcal_interrupt_manager.c: 116:     if((1 == PIE1bits.TMR2IE)&&(1 =
      +                          = PIR1bits.TMR2IF)){
  5314   00211A  A29D               	btfss	157,1,c	;volatile
  5315   00211C  EF92  F010         	goto	i1u661_21
  5316   002120  EF94  F010         	goto	i1u661_20
  5317   002124                     i1u661_21:
  5318   002124  EF9D  F010         	goto	i1l631
  5319   002128                     i1u661_20:
  5320   002128  A29E               	btfss	158,1,c	;volatile
  5321   00212A  EF99  F010         	goto	i1u662_21
  5322   00212E  EF9B  F010         	goto	i1u662_20
  5323   002132                     i1u662_21:
  5324   002132  EF9D  F010         	goto	i1l631
  5325   002136                     i1u662_20:
  5326   002136                     
  5327                           ;MCAL_Layer/Interrupt/mcal_interrupt_manager.c: 117:         TMR2_ISR();
  5328   002136  EC58  F01B         	call	_TMR2_ISR	;wreg free
  5329   00213A                     i1l631:
  5330                           
  5331                           ;MCAL_Layer/Interrupt/mcal_interrupt_manager.c: 123:     if((1 == PIE2bits.TMR3IE)&&(1 =
      +                          = PIR2bits.TMR3IF)){
  5332   00213A  A2A0               	btfss	160,1,c	;volatile
  5333   00213C  EFA2  F010         	goto	i1u663_21
  5334   002140  EFA4  F010         	goto	i1u663_20
  5335   002144                     i1u663_21:
  5336   002144  EFAD  F010         	goto	i1l633
  5337   002148                     i1u663_20:
  5338   002148  A2A1               	btfss	161,1,c	;volatile
  5339   00214A  EFA9  F010         	goto	i1u664_21
  5340   00214E  EFAB  F010         	goto	i1u664_20
  5341   002152                     i1u664_21:
  5342   002152  EFAD  F010         	goto	i1l633
  5343   002156                     i1u664_20:
  5344   002156                     
  5345                           ;MCAL_Layer/Interrupt/mcal_interrupt_manager.c: 124:         TMR3_ISR();
  5346   002156  EC4A  F019         	call	_TMR3_ISR	;wreg free
  5347   00215A                     i1l633:
  5348                           
  5349                           ;MCAL_Layer/Interrupt/mcal_interrupt_manager.c: 130:     if((1 == PIE1bits.CCP1IE )&&(1 
      +                          == PIR1bits.CCP1IF )){
  5350   00215A  A49D               	btfss	157,2,c	;volatile
  5351   00215C  EFB2  F010         	goto	i1u665_21
  5352   002160  EFB4  F010         	goto	i1u665_20
  5353   002164                     i1u665_21:
  5354   002164  EFBD  F010         	goto	i1l635
  5355   002168                     i1u665_20:
  5356   002168  A49E               	btfss	158,2,c	;volatile
  5357   00216A  EFB9  F010         	goto	i1u666_21
  5358   00216E  EFBB  F010         	goto	i1u666_20
  5359   002172                     i1u666_21:
  5360   002172  EFBD  F010         	goto	i1l635
  5361   002176                     i1u666_20:
  5362   002176                     
  5363                           ;MCAL_Layer/Interrupt/mcal_interrupt_manager.c: 131:         CCP1_ISR();
  5364   002176  ECFC  F019         	call	_CCP1_ISR	;wreg free
  5365   00217A                     i1l635:
  5366                           
  5367                           ;MCAL_Layer/Interrupt/mcal_interrupt_manager.c: 137:     if((1 == PIE2bits.CCP2IE )&&(1 
      +                          == PIR2bits.CCP2IF )){
  5368   00217A  A0A0               	btfss	160,0,c	;volatile
  5369   00217C  EFC2  F010         	goto	i1u667_21
  5370   002180  EFC4  F010         	goto	i1u667_20
  5371   002184                     i1u667_21:
  5372   002184  EFCD  F010         	goto	i1l637
  5373   002188                     i1u667_20:
  5374   002188  A0A1               	btfss	161,0,c	;volatile
  5375   00218A  EFC9  F010         	goto	i1u668_21
  5376   00218E  EFCB  F010         	goto	i1u668_20
  5377   002192                     i1u668_21:
  5378   002192  EFCD  F010         	goto	i1l637
  5379   002196                     i1u668_20:
  5380   002196                     
  5381                           ;MCAL_Layer/Interrupt/mcal_interrupt_manager.c: 138:         CCP2_ISR();
  5382   002196  EC69  F01B         	call	_CCP2_ISR	;wreg free
  5383   00219A                     i1l637:
  5384                           
  5385                           ;MCAL_Layer/Interrupt/mcal_interrupt_manager.c: 144:     if((1 == PIE1bits.TXIE )&&(1 ==
      +                           PIR1bits.TXIF )){
  5386   00219A  A89D               	btfss	157,4,c	;volatile
  5387   00219C  EFD2  F010         	goto	i1u669_21
  5388   0021A0  EFD4  F010         	goto	i1u669_20
  5389   0021A4                     i1u669_21:
  5390   0021A4  EFDD  F010         	goto	i1l639
  5391   0021A8                     i1u669_20:
  5392   0021A8  A89E               	btfss	158,4,c	;volatile
  5393   0021AA  EFD9  F010         	goto	i1u670_21
  5394   0021AE  EFDB  F010         	goto	i1u670_20
  5395   0021B2                     i1u670_21:
  5396   0021B2  EFDD  F010         	goto	i1l639
  5397   0021B6                     i1u670_20:
  5398   0021B6                     
  5399                           ;MCAL_Layer/Interrupt/mcal_interrupt_manager.c: 145:         EUSART_TX_ISR();
  5400   0021B6  ECE5  F019         	call	_EUSART_TX_ISR	;wreg free
  5401   0021BA                     i1l639:
  5402                           
  5403                           ;MCAL_Layer/Interrupt/mcal_interrupt_manager.c: 151:     if((1 == PIE1bits.RCIE )&&(1 ==
      +                           PIR1bits.RCIF )){
  5404   0021BA  AA9D               	btfss	157,5,c	;volatile
  5405   0021BC  EFE2  F010         	goto	i1u671_21
  5406   0021C0  EFE4  F010         	goto	i1u671_20
  5407   0021C4                     i1u671_21:
  5408   0021C4  EFED  F010         	goto	i1l642
  5409   0021C8                     i1u671_20:
  5410   0021C8  AA9E               	btfss	158,5,c	;volatile
  5411   0021CA  EFE9  F010         	goto	i1u672_21
  5412   0021CE  EFEB  F010         	goto	i1u672_20
  5413   0021D2                     i1u672_21:
  5414   0021D2  EFED  F010         	goto	i1l642
  5415   0021D6                     i1u672_20:
  5416   0021D6                     
  5417                           ;MCAL_Layer/Interrupt/mcal_interrupt_manager.c: 152:         EUSART_RX_ISR();
  5418   0021D6  EC77  F01B         	call	_EUSART_RX_ISR	;wreg free
  5419   0021DA                     i1l642:
  5420   0021DA  0012               	return		;funcret
  5421   0021DC                     __end_of_InterruptCheck:
  5422                           	callstack 0
  5423                           
  5424 ;; *************** function _TMRO_ISR *****************
  5425 ;; Defined at:
  5426 ;;		line 134 in file "MCAL_Layer/Timer/Timer0/hal_timer0.c"
  5427 ;; Parameters:    Size  Location     Type
  5428 ;;		None
  5429 ;; Auto vars:     Size  Location     Type
  5430 ;;		None
  5431 ;; Return value:  Size  Location     Type
  5432 ;;                  1    wreg      void 
  5433 ;; Registers used:
  5434 ;;		wreg, fsr2l, fsr2h, status,2, status,0, pcl, pclath, pclatu, tosl, cstack
  5435 ;; Tracked objects:
  5436 ;;		On entry : 0/0
  5437 ;;		On exit  : 0/0
  5438 ;;		Unchanged: 0/0
  5439 ;; Data sizes:     COMRAM   BANK0   BANK1   BANK2   BANK3   BANK4   BANK5   BANK6   BANK7   BANK8   BANK9  BANK10  BANK1
      +1  BANK12  BANK13  BANK14  BANK15
  5440 ;;      Params:         0       0       0       0       0       0       0       0       0       0       0       0       
      +0       0       0       0       0
  5441 ;;      Locals:         0       0       0       0       0       0       0       0       0       0       0       0       
      +0       0       0       0       0
  5442 ;;      Temps:          0       0       0       0       0       0       0       0       0       0       0       0       
      +0       0       0       0       0
  5443 ;;      Totals:         0       0       0       0       0       0       0       0       0       0       0       0       
      +0       0       0       0       0
  5444 ;;Total ram usage:        0 bytes
  5445 ;; Hardware stack levels used: 1
  5446 ;; Hardware stack levels required when called: 8
  5447 ;; This function calls:
  5448 ;;		NULL
  5449 ;;		_timer0_interruptHundler
  5450 ;; This function is called by:
  5451 ;;		_InterruptCheck
  5452 ;; This function uses a non-reentrant model
  5453 ;;
  5454                           
  5455                           	psect	text18
  5456   00325E                     __ptext18:
  5457                           	callstack 0
  5458   00325E                     _TMRO_ISR:
  5459                           	callstack 16
  5460   00325E                     
  5461                           ;MCAL_Layer/Timer/Timer0/hal_timer0.c: 135:     (INTCONbits.TMR0IF = 0);
  5462   00325E  94F2               	bcf	242,2,c	;volatile
  5463   003260                     
  5464                           ;MCAL_Layer/Timer/Timer0/hal_timer0.c: 136:     TMR0H = timer0_preload >>8;
  5465   003260  5041               	movf	(_timer0_preload+1)^0,w,c
  5466   003262  6ED7               	movwf	215,c	;volatile
  5467   003264                     
  5468                           ;MCAL_Layer/Timer/Timer0/hal_timer0.c: 137:     TMR0L = (uint8)timer0_preload;
  5469   003264  C040  FFD6         	movff	_timer0_preload,4054	;volatile
  5470   003268                     
  5471                           ;MCAL_Layer/Timer/Timer0/hal_timer0.c: 138:     if(TMR0_InterruptHandler){
  5472   003268  5042               	movf	_TMR0_InterruptHandler^0,w,c
  5473   00326A  1043               	iorwf	(_TMR0_InterruptHandler+1)^0,w,c
  5474   00326C  B4D8               	btfsc	status,2,c
  5475   00326E  EF3B  F019         	goto	i1u590_21
  5476   003272  EF3D  F019         	goto	i1u590_20
  5477   003276                     i1u590_21:
  5478   003276  EF49  F019         	goto	i1l969
  5479   00327A                     i1u590_20:
  5480   00327A                     
  5481                           ;MCAL_Layer/Timer/Timer0/hal_timer0.c: 139:         TMR0_InterruptHandler();
  5482   00327A  D802               	call	i1u591_28
  5483   00327C  EF49  F019         	goto	i1u591_29
  5484   003280                     i1u591_28:
  5485   003280  0005               	push	
  5486   003282  6EFA               	movwf	pclath,c
  5487   003284  5042               	movf	_TMR0_InterruptHandler^0,w,c
  5488   003286  6EFD               	movwf	tosl,c
  5489   003288  5043               	movf	(_TMR0_InterruptHandler+1)^0,w,c
  5490   00328A  6EFE               	movwf	tosh,c
  5491   00328C  6AFF               	clrf	tosu,c
  5492   00328E  50FA               	movf	pclath,w,c
  5493   003290  0012               	return		;indir
  5494   003292                     i1u591_29:
  5495   003292                     i1l969:
  5496   003292  0012               	return		;funcret
  5497   003294                     __end_of_TMRO_ISR:
  5498                           	callstack 0
  5499                           
  5500 ;; *************** function _timer0_interruptHundler *****************
  5501 ;; Defined at:
  5502 ;;		line 130 in file "application.c"
  5503 ;; Parameters:    Size  Location     Type
  5504 ;;		None
  5505 ;; Auto vars:     Size  Location     Type
  5506 ;;		None
  5507 ;; Return value:  Size  Location     Type
  5508 ;;                  1    wreg      void 
  5509 ;; Registers used:
  5510 ;;		wreg, fsr2l, fsr2h, status,2, status,0, cstack
  5511 ;; Tracked objects:
  5512 ;;		On entry : 0/0
  5513 ;;		On exit  : 0/0
  5514 ;;		Unchanged: 0/0
  5515 ;; Data sizes:     COMRAM   BANK0   BANK1   BANK2   BANK3   BANK4   BANK5   BANK6   BANK7   BANK8   BANK9  BANK10  BANK1
      +1  BANK12  BANK13  BANK14  BANK15
  5516 ;;      Params:         0       0       0       0       0       0       0       0       0       0       0       0       
      +0       0       0       0       0
  5517 ;;      Locals:         0       0       0       0       0       0       0       0       0       0       0       0       
      +0       0       0       0       0
  5518 ;;      Temps:          0       0       0       0       0       0       0       0       0       0       0       0       
      +0       0       0       0       0
  5519 ;;      Totals:         0       0       0       0       0       0       0       0       0       0       0       0       
      +0       0       0       0       0
  5520 ;;Total ram usage:        0 bytes
  5521 ;; Hardware stack levels used: 1
  5522 ;; Hardware stack levels required when called: 7
  5523 ;; This function calls:
  5524 ;;		_Timer1_Read_value
  5525 ;;		_Timer1_Write_value
  5526 ;; This function is called by:
  5527 ;;		_TMRO_ISR
  5528 ;;		i2_TMRO_ISR
  5529 ;; This function uses a non-reentrant model
  5530 ;;
  5531                           
  5532                           	psect	text19
  5533   003336                     __ptext19:
  5534                           	callstack 0
  5535   003336                     _timer0_interruptHundler:
  5536                           	callstack 0
  5537                           
  5538                           ;Skip over the trampoline to the duplicate function for level 2
  5539   003336  A25A               	btfss	int$flags,1,c
  5540   003338  EFA0  F019         	goto	_timer0_interruptHundler$intlevel1
  5541   00333C  EF41  F01A         	goto	i2_timer0_interruptHundler
  5542   003340                     _timer0_interruptHundler$intlevel1:
  5543                           	callstack 16
  5544   003340                     
  5545                           ;application.c: 131:     Timer1_Read_value(&timer1,&timer1_count);
  5546   003340  0EE8               	movlw	low _timer1
  5547   003342  6E12               	movwf	Timer1_Read_value@_timer^0,c
  5548   003344  0E00               	movlw	high _timer1
  5549   003346  6E13               	movwf	(Timer1_Read_value@_timer+1)^0,c
  5550   003348  0E53               	movlw	low _timer1_count
  5551   00334A  6E14               	movwf	Timer1_Read_value@_value^0,c
  5552   00334C  0E00               	movlw	high _timer1_count
  5553   00334E  6E15               	movwf	(Timer1_Read_value@_value+1)^0,c
  5554   003350  EC03  F018         	call	_Timer1_Read_value	;wreg free
  5555   003354                     
  5556                           ;application.c: 132:     Timer1_Write_value(&timer1,0);
  5557   003354  0EE8               	movlw	low _timer1
  5558   003356  6E12               	movwf	Timer1_Write_value@_timer^0,c
  5559   003358  0E00               	movlw	high _timer1
  5560   00335A  6E13               	movwf	(Timer1_Write_value@_timer+1)^0,c
  5561   00335C  0E00               	movlw	0
  5562   00335E  6E15               	movwf	(Timer1_Write_value@_value+1)^0,c
  5563   003360  0E00               	movlw	0
  5564   003362  6E14               	movwf	Timer1_Write_value@_value^0,c
  5565   003364  EC56  F01A         	call	_Timer1_Write_value	;wreg free
  5566   003368  0012               	return		;funcret
  5567   00336A                     __end_of_timer0_interruptHundler:
  5568                           	callstack 0
  5569                           
  5570 ;; *************** function _Timer1_Write_value *****************
  5571 ;; Defined at:
  5572 ;;		line 95 in file "MCAL_Layer/Timer/Timer1/hal_timer1.c"
  5573 ;; Parameters:    Size  Location     Type
  5574 ;;  _timer          2   17[COMRAM] PTR const struct .
  5575 ;;		 -> timer1(6), 
  5576 ;;  _value          2   19[COMRAM] unsigned short 
  5577 ;; Auto vars:     Size  Location     Type
  5578 ;;  ret             1    0        unsigned char 
  5579 ;; Return value:  Size  Location     Type
  5580 ;;                  1    wreg      unsigned char 
  5581 ;; Registers used:
  5582 ;;		wreg, status,2, status,0
  5583 ;; Tracked objects:
  5584 ;;		On entry : 0/0
  5585 ;;		On exit  : 0/0
  5586 ;;		Unchanged: 0/0
  5587 ;; Data sizes:     COMRAM   BANK0   BANK1   BANK2   BANK3   BANK4   BANK5   BANK6   BANK7   BANK8   BANK9  BANK10  BANK1
      +1  BANK12  BANK13  BANK14  BANK15
  5588 ;;      Params:         4       0       0       0       0       0       0       0       0       0       0       0       
      +0       0       0       0       0
  5589 ;;      Locals:         0       0       0       0       0       0       0       0       0       0       0       0       
      +0       0       0       0       0
  5590 ;;      Temps:          0       0       0       0       0       0       0       0       0       0       0       0       
      +0       0       0       0       0
  5591 ;;      Totals:         4       0       0       0       0       0       0       0       0       0       0       0       
      +0       0       0       0       0
  5592 ;;Total ram usage:        4 bytes
  5593 ;; Hardware stack levels used: 1
  5594 ;; Hardware stack levels required when called: 6
  5595 ;; This function calls:
  5596 ;;		Nothing
  5597 ;; This function is called by:
  5598 ;;		_timer0_interruptHundler
  5599 ;; This function uses a non-reentrant model
  5600 ;;
  5601                           
  5602                           	psect	text20
  5603   0034AC                     __ptext20:
  5604                           	callstack 0
  5605   0034AC                     _Timer1_Write_value:
  5606                           	callstack 16
  5607   0034AC                     
  5608                           ;MCAL_Layer/Timer/Timer1/hal_timer1.c: 97:     if(((void*)0) == _timer){
  5609   0034AC  5012               	movf	Timer1_Write_value@_timer^0,w,c
  5610   0034AE  1013               	iorwf	(Timer1_Write_value@_timer+1)^0,w,c
  5611   0034B0  A4D8               	btfss	status,2,c
  5612   0034B2  EF5D  F01A         	goto	i1u474_21
  5613   0034B6  EF5F  F01A         	goto	i1u474_20
  5614   0034BA                     i1u474_21:
  5615   0034BA  EF61  F01A         	goto	i1l5401
  5616   0034BE                     i1u474_20:
  5617   0034BE                     
  5618                           ;MCAL_Layer/Timer/Timer1/hal_timer1.c: 99:     }
  5619   0034BE  EF65  F01A         	goto	i1l1035
  5620   0034C2                     i1l5401:
  5621                           
  5622                           ;MCAL_Layer/Timer/Timer1/hal_timer1.c: 101:     {;MCAL_Layer/Timer/Timer1/hal_timer1.c: 
      +                          102:         TMR1H = (_value) >>8;
  5623   0034C2  5015               	movf	(Timer1_Write_value@_value+1)^0,w,c
  5624   0034C4  6ECF               	movwf	207,c	;volatile
  5625   0034C6                     
  5626                           ;MCAL_Layer/Timer/Timer1/hal_timer1.c: 103:         TMR1L = (uint8)(_value);
  5627   0034C6  C014  FFCE         	movff	Timer1_Write_value@_value,4046	;volatile
  5628   0034CA                     i1l1035:
  5629   0034CA  0012               	return		;funcret
  5630   0034CC                     __end_of_Timer1_Write_value:
  5631                           	callstack 0
  5632                           
  5633 ;; *************** function _Timer1_Read_value *****************
  5634 ;; Defined at:
  5635 ;;		line 117 in file "MCAL_Layer/Timer/Timer1/hal_timer1.c"
  5636 ;; Parameters:    Size  Location     Type
  5637 ;;  _timer          2   17[COMRAM] PTR const struct .
  5638 ;;		 -> timer1(6), 
  5639 ;;  _value          2   19[COMRAM] PTR unsigned short 
  5640 ;;		 -> timer1_count(1), 
  5641 ;; Auto vars:     Size  Location     Type
  5642 ;;  tmr1h           1   24[COMRAM] unsigned char 
  5643 ;;  tmr1l           1   23[COMRAM] unsigned char 
  5644 ;;  ret             1    0        unsigned char 
  5645 ;; Return value:  Size  Location     Type
  5646 ;;                  1    wreg      unsigned char 
  5647 ;; Registers used:
  5648 ;;		wreg, fsr2l, fsr2h, status,2, status,0
  5649 ;; Tracked objects:
  5650 ;;		On entry : 0/0
  5651 ;;		On exit  : 0/0
  5652 ;;		Unchanged: 0/0
  5653 ;; Data sizes:     COMRAM   BANK0   BANK1   BANK2   BANK3   BANK4   BANK5   BANK6   BANK7   BANK8   BANK9  BANK10  BANK1
      +1  BANK12  BANK13  BANK14  BANK15
  5654 ;;      Params:         4       0       0       0       0       0       0       0       0       0       0       0       
      +0       0       0       0       0
  5655 ;;      Locals:         2       0       0       0       0       0       0       0       0       0       0       0       
      +0       0       0       0       0
  5656 ;;      Temps:          2       0       0       0       0       0       0       0       0       0       0       0       
      +0       0       0       0       0
  5657 ;;      Totals:         8       0       0       0       0       0       0       0       0       0       0       0       
      +0       0       0       0       0
  5658 ;;Total ram usage:        8 bytes
  5659 ;; Hardware stack levels used: 1
  5660 ;; Hardware stack levels required when called: 6
  5661 ;; This function calls:
  5662 ;;		Nothing
  5663 ;; This function is called by:
  5664 ;;		_timer0_interruptHundler
  5665 ;; This function uses a non-reentrant model
  5666 ;;
  5667                           
  5668                           	psect	text21
  5669   003006                     __ptext21:
  5670                           	callstack 0
  5671   003006                     _Timer1_Read_value:
  5672                           	callstack 16
  5673   003006                     
  5674                           ;MCAL_Layer/Timer/Timer1/hal_timer1.c: 119:     uint8 tmr1l = 0;
  5675   003006  0E00               	movlw	0
  5676   003008  6E18               	movwf	Timer1_Read_value@tmr1l^0,c
  5677                           
  5678                           ;MCAL_Layer/Timer/Timer1/hal_timer1.c: 120:     uint8 tmr1h = 0;
  5679   00300A  0E00               	movlw	0
  5680   00300C  6E19               	movwf	Timer1_Read_value@tmr1h^0,c
  5681   00300E                     
  5682                           ;MCAL_Layer/Timer/Timer1/hal_timer1.c: 121:     if(((void*)0) == _timer || ((void*)0) ==
      +                           _value){
  5683   00300E  5012               	movf	Timer1_Read_value@_timer^0,w,c
  5684   003010  1013               	iorwf	(Timer1_Read_value@_timer+1)^0,w,c
  5685   003012  B4D8               	btfsc	status,2,c
  5686   003014  EF0E  F018         	goto	i1u475_21
  5687   003018  EF10  F018         	goto	i1u475_20
  5688   00301C                     i1u475_21:
  5689   00301C  EF19  F018         	goto	i1l5413
  5690   003020                     i1u475_20:
  5691   003020  5014               	movf	Timer1_Read_value@_value^0,w,c
  5692   003022  1015               	iorwf	(Timer1_Read_value@_value+1)^0,w,c
  5693   003024  A4D8               	btfss	status,2,c
  5694   003026  EF17  F018         	goto	i1u476_21
  5695   00302A  EF19  F018         	goto	i1u476_20
  5696   00302E                     i1u476_21:
  5697   00302E  EF1B  F018         	goto	i1l1038
  5698   003032                     i1u476_20:
  5699   003032                     i1l5413:
  5700                           
  5701                           ;MCAL_Layer/Timer/Timer1/hal_timer1.c: 123:     }
  5702   003032  EF31  F018         	goto	i1l1042
  5703   003036                     i1l1038:
  5704                           
  5705                           ;MCAL_Layer/Timer/Timer1/hal_timer1.c: 125:     {;MCAL_Layer/Timer/Timer1/hal_timer1.c: 
      +                          126:         tmr1l = TMR1L;
  5706   003036  CFCE F018          	movff	4046,Timer1_Read_value@tmr1l	;volatile
  5707                           
  5708                           ;MCAL_Layer/Timer/Timer1/hal_timer1.c: 127:         tmr1h = TMR1H;
  5709   00303A  CFCF F019          	movff	4047,Timer1_Read_value@tmr1h	;volatile
  5710   00303E                     
  5711                           ;MCAL_Layer/Timer/Timer1/hal_timer1.c: 128:         *_value = (uint16)((256 * tmr1h) + t
      +                          mr1l);
  5712   00303E  5018               	movf	Timer1_Read_value@tmr1l^0,w,c
  5713   003040  C019  F016         	movff	Timer1_Read_value@tmr1h,??_Timer1_Read_value
  5714   003044  6A17               	clrf	(??_Timer1_Read_value+1)^0,c
  5715   003046  C016  F017         	movff	??_Timer1_Read_value,??_Timer1_Read_value+1
  5716   00304A  6A16               	clrf	??_Timer1_Read_value^0,c
  5717   00304C  2616               	addwf	??_Timer1_Read_value^0,f,c
  5718   00304E  0E00               	movlw	0
  5719   003050  2217               	addwfc	(??_Timer1_Read_value+1)^0,f,c
  5720   003052  C014  FFD9         	movff	Timer1_Read_value@_value,fsr2l
  5721   003056  C015  FFDA         	movff	Timer1_Read_value@_value+1,fsr2h
  5722   00305A  C016  FFDE         	movff	??_Timer1_Read_value,postinc2
  5723   00305E  C017  FFDD         	movff	??_Timer1_Read_value+1,postdec2
  5724   003062                     i1l1042:
  5725   003062  0012               	return		;funcret
  5726   003064                     __end_of_Timer1_Read_value:
  5727                           	callstack 0
  5728                           
  5729 ;; *************** function _TMR3_ISR *****************
  5730 ;; Defined at:
  5731 ;;		line 137 in file "MCAL_Layer/Timer/Timer3/hal_timer3.c"
  5732 ;; Parameters:    Size  Location     Type
  5733 ;;		None
  5734 ;; Auto vars:     Size  Location     Type
  5735 ;;		None
  5736 ;; Return value:  Size  Location     Type
  5737 ;;                  1    wreg      void 
  5738 ;; Registers used:
  5739 ;;		wreg, status,2, status,0, pcl, pclath, pclatu, tosl, cstack
  5740 ;; Tracked objects:
  5741 ;;		On entry : 0/0
  5742 ;;		On exit  : 0/0
  5743 ;;		Unchanged: 0/0
  5744 ;; Data sizes:     COMRAM   BANK0   BANK1   BANK2   BANK3   BANK4   BANK5   BANK6   BANK7   BANK8   BANK9  BANK10  BANK1
      +1  BANK12  BANK13  BANK14  BANK15
  5745 ;;      Params:         0       0       0       0       0       0       0       0       0       0       0       0       
      +0       0       0       0       0
  5746 ;;      Locals:         0       0       0       0       0       0       0       0       0       0       0       0       
      +0       0       0       0       0
  5747 ;;      Temps:          0       0       0       0       0       0       0       0       0       0       0       0       
      +0       0       0       0       0
  5748 ;;      Totals:         0       0       0       0       0       0       0       0       0       0       0       0       
      +0       0       0       0       0
  5749 ;;Total ram usage:        0 bytes
  5750 ;; Hardware stack levels used: 1
  5751 ;; Hardware stack levels required when called: 7
  5752 ;; This function calls:
  5753 ;;		NULL
  5754 ;;		_timer3_interruptHundler
  5755 ;; This function is called by:
  5756 ;;		_InterruptCheck
  5757 ;; This function uses a non-reentrant model
  5758 ;;
  5759                           
  5760                           	psect	text22
  5761   003294                     __ptext22:
  5762                           	callstack 0
  5763   003294                     _TMR3_ISR:
  5764                           	callstack 17
  5765   003294                     
  5766                           ;MCAL_Layer/Timer/Timer3/hal_timer3.c: 138:     (PIR2bits.TMR3IF = 0);
  5767   003294  92A1               	bcf	161,1,c	;volatile
  5768   003296                     
  5769                           ;MCAL_Layer/Timer/Timer3/hal_timer3.c: 139:     TMR3H = timer3_preload >>8;
  5770   003296  503B               	movf	(_timer3_preload+1)^0,w,c
  5771   003298  6EB3               	movwf	179,c	;volatile
  5772   00329A                     
  5773                           ;MCAL_Layer/Timer/Timer3/hal_timer3.c: 140:     TMR3L = (uint8)timer3_preload;
  5774   00329A  C03A  FFB2         	movff	_timer3_preload,4018	;volatile
  5775   00329E                     
  5776                           ;MCAL_Layer/Timer/Timer3/hal_timer3.c: 141:     if(TMR3_InterruptHandler){
  5777   00329E  503C               	movf	_TMR3_InterruptHandler^0,w,c
  5778   0032A0  103D               	iorwf	(_TMR3_InterruptHandler+1)^0,w,c
  5779   0032A2  B4D8               	btfsc	status,2,c
  5780   0032A4  EF56  F019         	goto	i1u592_21
  5781   0032A8  EF58  F019         	goto	i1u592_20
  5782   0032AC                     i1u592_21:
  5783   0032AC  EF64  F019         	goto	i1l1253
  5784   0032B0                     i1u592_20:
  5785   0032B0                     
  5786                           ;MCAL_Layer/Timer/Timer3/hal_timer3.c: 142:         TMR3_InterruptHandler();
  5787   0032B0  D802               	call	i1u593_28
  5788   0032B2  EF64  F019         	goto	i1u593_29
  5789   0032B6                     i1u593_28:
  5790   0032B6  0005               	push	
  5791   0032B8  6EFA               	movwf	pclath,c
  5792   0032BA  503C               	movf	_TMR3_InterruptHandler^0,w,c
  5793   0032BC  6EFD               	movwf	tosl,c
  5794   0032BE  503D               	movf	(_TMR3_InterruptHandler+1)^0,w,c
  5795   0032C0  6EFE               	movwf	tosh,c
  5796   0032C2  6AFF               	clrf	tosu,c
  5797   0032C4  50FA               	movf	pclath,w,c
  5798   0032C6  0012               	return		;indir
  5799   0032C8                     i1u593_29:
  5800   0032C8                     i1l1253:
  5801   0032C8  0012               	return		;funcret
  5802   0032CA                     __end_of_TMR3_ISR:
  5803                           	callstack 0
  5804                           
  5805 ;; *************** function _timer3_interruptHundler *****************
  5806 ;; Defined at:
  5807 ;;		line 141 in file "application.c"
  5808 ;; Parameters:    Size  Location     Type
  5809 ;;		None
  5810 ;; Auto vars:     Size  Location     Type
  5811 ;;		None
  5812 ;; Return value:  Size  Location     Type
  5813 ;;                  1    wreg      void 
  5814 ;; Registers used:
  5815 ;;		wreg, status,2, status,0
  5816 ;; Tracked objects:
  5817 ;;		On entry : 0/0
  5818 ;;		On exit  : 0/0
  5819 ;;		Unchanged: 0/0
  5820 ;; Data sizes:     COMRAM   BANK0   BANK1   BANK2   BANK3   BANK4   BANK5   BANK6   BANK7   BANK8   BANK9  BANK10  BANK1
      +1  BANK12  BANK13  BANK14  BANK15
  5821 ;;      Params:         0       0       0       0       0       0       0       0       0       0       0       0       
      +0       0       0       0       0
  5822 ;;      Locals:         0       0       0       0       0       0       0       0       0       0       0       0       
      +0       0       0       0       0
  5823 ;;      Temps:          0       0       0       0       0       0       0       0       0       0       0       0       
      +0       0       0       0       0
  5824 ;;      Totals:         0       0       0       0       0       0       0       0       0       0       0       0       
      +0       0       0       0       0
  5825 ;;Total ram usage:        0 bytes
  5826 ;; Hardware stack levels used: 1
  5827 ;; Hardware stack levels required when called: 6
  5828 ;; This function calls:
  5829 ;;		Nothing
  5830 ;; This function is called by:
  5831 ;;		_TMR3_ISR
  5832 ;;		i2_TMR3_ISR
  5833 ;; This function uses a non-reentrant model
  5834 ;;
  5835                           
  5836                           	psect	text23
  5837   003548                     __ptext23:
  5838                           	callstack 0
  5839   003548                     _timer3_interruptHundler:
  5840                           	callstack 0
  5841                           
  5842                           ;Skip over the trampoline to the duplicate function for level 2
  5843   003548  A25A               	btfss	int$flags,1,c
  5844   00354A  EFA9  F01A         	goto	_timer3_interruptHundler$intlevel1
  5845   00354E  EF3D  F01B         	goto	i2_timer3_interruptHundler
  5846   003552                     _timer3_interruptHundler$intlevel1:
  5847                           	callstack 17
  5848   003552                     
  5849                           ;application.c: 142:     timer3_overflow++;
  5850   003552  0E01               	movlw	1
  5851   003554  0100               	movlb	0	; () banked
  5852   003556  278E               	addwf	_timer3_overflow& (0+255),f,b	;volatile
  5853   003558  0E00               	movlw	0
  5854   00355A  238F               	addwfc	(_timer3_overflow+1)& (0+255),f,b	;volatile
  5855   00355C  2390               	addwfc	(_timer3_overflow+2)& (0+255),f,b	;volatile
  5856   00355E  2391               	addwfc	(_timer3_overflow+3)& (0+255),f,b	;volatile
  5857   003560                     
  5858                           ; BSR set to: 0
  5859   003560  0012               	return		;funcret
  5860   003562                     __end_of_timer3_interruptHundler:
  5861                           	callstack 0
  5862                           
  5863 ;; *************** function _TMR2_ISR *****************
  5864 ;; Defined at:
  5865 ;;		line 123 in file "MCAL_Layer/Timer/Timer2/hal_timer2.c"
  5866 ;; Parameters:    Size  Location     Type
  5867 ;;		None
  5868 ;; Auto vars:     Size  Location     Type
  5869 ;;		None
  5870 ;; Return value:  Size  Location     Type
  5871 ;;                  1    wreg      void 
  5872 ;; Registers used:
  5873 ;;		None
  5874 ;; Tracked objects:
  5875 ;;		On entry : 0/0
  5876 ;;		On exit  : 0/0
  5877 ;;		Unchanged: 0/0
  5878 ;; Data sizes:     COMRAM   BANK0   BANK1   BANK2   BANK3   BANK4   BANK5   BANK6   BANK7   BANK8   BANK9  BANK10  BANK1
      +1  BANK12  BANK13  BANK14  BANK15
  5879 ;;      Params:         0       0       0       0       0       0       0       0       0       0       0       0       
      +0       0       0       0       0
  5880 ;;      Locals:         0       0       0       0       0       0       0       0       0       0       0       0       
      +0       0       0       0       0
  5881 ;;      Temps:          0       0       0       0       0       0       0       0       0       0       0       0       
      +0       0       0       0       0
  5882 ;;      Totals:         0       0       0       0       0       0       0       0       0       0       0       0       
      +0       0       0       0       0
  5883 ;;Total ram usage:        0 bytes
  5884 ;; Hardware stack levels used: 1
  5885 ;; Hardware stack levels required when called: 6
  5886 ;; This function calls:
  5887 ;;		Nothing
  5888 ;; This function is called by:
  5889 ;;		_InterruptCheck
  5890 ;; This function uses a non-reentrant model
  5891 ;;
  5892                           
  5893                           	psect	text24
  5894   0036B0                     __ptext24:
  5895                           	callstack 0
  5896   0036B0                     _TMR2_ISR:
  5897                           	callstack 18
  5898   0036B0                     
  5899                           ;MCAL_Layer/Timer/Timer2/hal_timer2.c: 124:     (PIR1bits.TMR2IF = 0);
  5900   0036B0  929E               	bcf	158,1,c	;volatile
  5901                           
  5902                           ;MCAL_Layer/Timer/Timer2/hal_timer2.c: 125:     TMR2 = timer2_preload;
  5903   0036B2  C046  FFCC         	movff	_timer2_preload,4044	;volatile
  5904   0036B6  0012               	return		;funcret
  5905   0036B8                     __end_of_TMR2_ISR:
  5906                           	callstack 0
  5907                           
  5908 ;; *************** function _TMR1_ISR *****************
  5909 ;; Defined at:
  5910 ;;		line 137 in file "MCAL_Layer/Timer/Timer1/hal_timer1.c"
  5911 ;; Parameters:    Size  Location     Type
  5912 ;;		None
  5913 ;; Auto vars:     Size  Location     Type
  5914 ;;		None
  5915 ;; Return value:  Size  Location     Type
  5916 ;;                  1    wreg      void 
  5917 ;; Registers used:
  5918 ;;		wreg, status,2
  5919 ;; Tracked objects:
  5920 ;;		On entry : 0/0
  5921 ;;		On exit  : 0/0
  5922 ;;		Unchanged: 0/0
  5923 ;; Data sizes:     COMRAM   BANK0   BANK1   BANK2   BANK3   BANK4   BANK5   BANK6   BANK7   BANK8   BANK9  BANK10  BANK1
      +1  BANK12  BANK13  BANK14  BANK15
  5924 ;;      Params:         0       0       0       0       0       0       0       0       0       0       0       0       
      +0       0       0       0       0
  5925 ;;      Locals:         0       0       0       0       0       0       0       0       0       0       0       0       
      +0       0       0       0       0
  5926 ;;      Temps:          0       0       0       0       0       0       0       0       0       0       0       0       
      +0       0       0       0       0
  5927 ;;      Totals:         0       0       0       0       0       0       0       0       0       0       0       0       
      +0       0       0       0       0
  5928 ;;Total ram usage:        0 bytes
  5929 ;; Hardware stack levels used: 1
  5930 ;; Hardware stack levels required when called: 6
  5931 ;; This function calls:
  5932 ;;		Nothing
  5933 ;; This function is called by:
  5934 ;;		_InterruptCheck
  5935 ;; This function uses a non-reentrant model
  5936 ;;
  5937                           
  5938                           	psect	text25
  5939   003698                     __ptext25:
  5940                           	callstack 0
  5941   003698                     _TMR1_ISR:
  5942                           	callstack 18
  5943   003698                     
  5944                           ;MCAL_Layer/Timer/Timer1/hal_timer1.c: 138:     (PIR1bits.TMR1IF = 0);
  5945   003698  909E               	bcf	158,0,c	;volatile
  5946   00369A                     
  5947                           ;MCAL_Layer/Timer/Timer1/hal_timer1.c: 139:     TMR1H = timer1_preload >>8;
  5948   00369A  503F               	movf	(_timer1_preload+1)^0,w,c
  5949   00369C  6ECF               	movwf	207,c	;volatile
  5950   00369E                     
  5951                           ;MCAL_Layer/Timer/Timer1/hal_timer1.c: 140:     TMR1L = (uint8)timer1_preload;
  5952   00369E  C03E  FFCE         	movff	_timer1_preload,4046	;volatile
  5953   0036A2  0012               	return		;funcret
  5954   0036A4                     __end_of_TMR1_ISR:
  5955                           	callstack 0
  5956                           
  5957 ;; *************** function _RB7_ISR *****************
  5958 ;; Defined at:
  5959 ;;		line 605 in file "MCAL_Layer/Interrupt/mcal_external_interrupt.c"
  5960 ;; Parameters:    Size  Location     Type
  5961 ;;  RB7_Source      1    wreg     unsigned char 
  5962 ;; Auto vars:     Size  Location     Type
  5963 ;;  RB7_Source      1   17[COMRAM] unsigned char 
  5964 ;; Return value:  Size  Location     Type
  5965 ;;                  1    wreg      void 
  5966 ;; Registers used:
  5967 ;;		wreg, status,2, status,0
  5968 ;; Tracked objects:
  5969 ;;		On entry : 0/0
  5970 ;;		On exit  : 0/0
  5971 ;;		Unchanged: 0/0
  5972 ;; Data sizes:     COMRAM   BANK0   BANK1   BANK2   BANK3   BANK4   BANK5   BANK6   BANK7   BANK8   BANK9  BANK10  BANK1
      +1  BANK12  BANK13  BANK14  BANK15
  5973 ;;      Params:         0       0       0       0       0       0       0       0       0       0       0       0       
      +0       0       0       0       0
  5974 ;;      Locals:         1       0       0       0       0       0       0       0       0       0       0       0       
      +0       0       0       0       0
  5975 ;;      Temps:          0       0       0       0       0       0       0       0       0       0       0       0       
      +0       0       0       0       0
  5976 ;;      Totals:         1       0       0       0       0       0       0       0       0       0       0       0       
      +0       0       0       0       0
  5977 ;;Total ram usage:        1 bytes
  5978 ;; Hardware stack levels used: 1
  5979 ;; Hardware stack levels required when called: 6
  5980 ;; This function calls:
  5981 ;;		Nothing
  5982 ;; This function is called by:
  5983 ;;		_InterruptCheck
  5984 ;; This function uses a non-reentrant model
  5985 ;;
  5986                           
  5987                           	psect	text26
  5988   003562                     __ptext26:
  5989                           	callstack 0
  5990   003562                     _RB7_ISR:
  5991                           	callstack 18
  5992                           
  5993                           ;incstack = 0
  5994                           ;RB7_ISR@RB7_Source stored from wreg
  5995   003562  6E12               	movwf	RB7_ISR@RB7_Source^0,c
  5996   003564                     
  5997                           ;MCAL_Layer/Interrupt/mcal_external_interrupt.c: 607:     (INTCONbits.RBIF = 0);
  5998   003564  90F2               	bcf	242,0,c	;volatile
  5999   003566                     
  6000                           ;MCAL_Layer/Interrupt/mcal_external_interrupt.c: 611:     if(0 == RB7_Source){
  6001   003566  5012               	movf	RB7_ISR@RB7_Source^0,w,c
  6002   003568  A4D8               	btfss	status,2,c
  6003   00356A  EFB9  F01A         	goto	i1u589_21
  6004   00356E  EFBB  F01A         	goto	i1u589_20
  6005   003572                     i1u589_21:
  6006   003572  EFBD  F01A         	goto	i1l6225
  6007   003576                     i1u589_20:
  6008   003576  EFBD  F01A         	goto	i1l917
  6009   00357A                     i1l6225:
  6010   00357A                     i1l917:
  6011   00357A  0012               	return		;funcret
  6012   00357C                     __end_of_RB7_ISR:
  6013                           	callstack 0
  6014                           
  6015 ;; *************** function _RB6_ISR *****************
  6016 ;; Defined at:
  6017 ;;		line 587 in file "MCAL_Layer/Interrupt/mcal_external_interrupt.c"
  6018 ;; Parameters:    Size  Location     Type
  6019 ;;  RB6_Source      1    wreg     unsigned char 
  6020 ;; Auto vars:     Size  Location     Type
  6021 ;;  RB6_Source      1   17[COMRAM] unsigned char 
  6022 ;; Return value:  Size  Location     Type
  6023 ;;                  1    wreg      void 
  6024 ;; Registers used:
  6025 ;;		wreg, status,2, status,0
  6026 ;; Tracked objects:
  6027 ;;		On entry : 0/0
  6028 ;;		On exit  : 0/0
  6029 ;;		Unchanged: 0/0
  6030 ;; Data sizes:     COMRAM   BANK0   BANK1   BANK2   BANK3   BANK4   BANK5   BANK6   BANK7   BANK8   BANK9  BANK10  BANK1
      +1  BANK12  BANK13  BANK14  BANK15
  6031 ;;      Params:         0       0       0       0       0       0       0       0       0       0       0       0       
      +0       0       0       0       0
  6032 ;;      Locals:         1       0       0       0       0       0       0       0       0       0       0       0       
      +0       0       0       0       0
  6033 ;;      Temps:          0       0       0       0       0       0       0       0       0       0       0       0       
      +0       0       0       0       0
  6034 ;;      Totals:         1       0       0       0       0       0       0       0       0       0       0       0       
      +0       0       0       0       0
  6035 ;;Total ram usage:        1 bytes
  6036 ;; Hardware stack levels used: 1
  6037 ;; Hardware stack levels required when called: 6
  6038 ;; This function calls:
  6039 ;;		Nothing
  6040 ;; This function is called by:
  6041 ;;		_InterruptCheck
  6042 ;; This function uses a non-reentrant model
  6043 ;;
  6044                           
  6045                           	psect	text27
  6046   00357C                     __ptext27:
  6047                           	callstack 0
  6048   00357C                     _RB6_ISR:
  6049                           	callstack 18
  6050                           
  6051                           ;incstack = 0
  6052                           ;RB6_ISR@RB6_Source stored from wreg
  6053   00357C  6E12               	movwf	RB6_ISR@RB6_Source^0,c
  6054   00357E                     
  6055                           ;MCAL_Layer/Interrupt/mcal_external_interrupt.c: 589:     (INTCONbits.RBIF = 0);
  6056   00357E  90F2               	bcf	242,0,c	;volatile
  6057   003580                     
  6058                           ;MCAL_Layer/Interrupt/mcal_external_interrupt.c: 593:     if(0 == RB6_Source){
  6059   003580  5012               	movf	RB6_ISR@RB6_Source^0,w,c
  6060   003582  A4D8               	btfss	status,2,c
  6061   003584  EFC6  F01A         	goto	i1u588_21
  6062   003588  EFC8  F01A         	goto	i1u588_20
  6063   00358C                     i1u588_21:
  6064   00358C  EFCA  F01A         	goto	i1l6211
  6065   003590                     i1u588_20:
  6066   003590  EFCA  F01A         	goto	i1l906
  6067   003594                     i1l6211:
  6068   003594                     i1l906:
  6069   003594  0012               	return		;funcret
  6070   003596                     __end_of_RB6_ISR:
  6071                           	callstack 0
  6072                           
  6073 ;; *************** function _RB5_ISR *****************
  6074 ;; Defined at:
  6075 ;;		line 569 in file "MCAL_Layer/Interrupt/mcal_external_interrupt.c"
  6076 ;; Parameters:    Size  Location     Type
  6077 ;;  RB5_Source      1    wreg     unsigned char 
  6078 ;; Auto vars:     Size  Location     Type
  6079 ;;  RB5_Source      1   17[COMRAM] unsigned char 
  6080 ;; Return value:  Size  Location     Type
  6081 ;;                  1    wreg      void 
  6082 ;; Registers used:
  6083 ;;		wreg, status,2, status,0
  6084 ;; Tracked objects:
  6085 ;;		On entry : 0/0
  6086 ;;		On exit  : 0/0
  6087 ;;		Unchanged: 0/0
  6088 ;; Data sizes:     COMRAM   BANK0   BANK1   BANK2   BANK3   BANK4   BANK5   BANK6   BANK7   BANK8   BANK9  BANK10  BANK1
      +1  BANK12  BANK13  BANK14  BANK15
  6089 ;;      Params:         0       0       0       0       0       0       0       0       0       0       0       0       
      +0       0       0       0       0
  6090 ;;      Locals:         1       0       0       0       0       0       0       0       0       0       0       0       
      +0       0       0       0       0
  6091 ;;      Temps:          0       0       0       0       0       0       0       0       0       0       0       0       
      +0       0       0       0       0
  6092 ;;      Totals:         1       0       0       0       0       0       0       0       0       0       0       0       
      +0       0       0       0       0
  6093 ;;Total ram usage:        1 bytes
  6094 ;; Hardware stack levels used: 1
  6095 ;; Hardware stack levels required when called: 6
  6096 ;; This function calls:
  6097 ;;		Nothing
  6098 ;; This function is called by:
  6099 ;;		_InterruptCheck
  6100 ;; This function uses a non-reentrant model
  6101 ;;
  6102                           
  6103                           	psect	text28
  6104   003596                     __ptext28:
  6105                           	callstack 0
  6106   003596                     _RB5_ISR:
  6107                           	callstack 18
  6108                           
  6109                           ;incstack = 0
  6110                           ;RB5_ISR@RB5_Source stored from wreg
  6111   003596  6E12               	movwf	RB5_ISR@RB5_Source^0,c
  6112   003598                     
  6113                           ;MCAL_Layer/Interrupt/mcal_external_interrupt.c: 571:     (INTCONbits.RBIF = 0);
  6114   003598  90F2               	bcf	242,0,c	;volatile
  6115   00359A                     
  6116                           ;MCAL_Layer/Interrupt/mcal_external_interrupt.c: 575:     if(0 == RB5_Source){
  6117   00359A  5012               	movf	RB5_ISR@RB5_Source^0,w,c
  6118   00359C  A4D8               	btfss	status,2,c
  6119   00359E  EFD3  F01A         	goto	i1u587_21
  6120   0035A2  EFD5  F01A         	goto	i1u587_20
  6121   0035A6                     i1u587_21:
  6122   0035A6  EFD7  F01A         	goto	i1l6197
  6123   0035AA                     i1u587_20:
  6124   0035AA  EFD7  F01A         	goto	i1l895
  6125   0035AE                     i1l6197:
  6126   0035AE                     i1l895:
  6127   0035AE  0012               	return		;funcret
  6128   0035B0                     __end_of_RB5_ISR:
  6129                           	callstack 0
  6130                           
  6131 ;; *************** function _RB4_ISR *****************
  6132 ;; Defined at:
  6133 ;;		line 551 in file "MCAL_Layer/Interrupt/mcal_external_interrupt.c"
  6134 ;; Parameters:    Size  Location     Type
  6135 ;;  RB4_Source      1    wreg     unsigned char 
  6136 ;; Auto vars:     Size  Location     Type
  6137 ;;  RB4_Source      1   17[COMRAM] unsigned char 
  6138 ;; Return value:  Size  Location     Type
  6139 ;;                  1    wreg      void 
  6140 ;; Registers used:
  6141 ;;		wreg, status,2, status,0
  6142 ;; Tracked objects:
  6143 ;;		On entry : 0/0
  6144 ;;		On exit  : 0/0
  6145 ;;		Unchanged: 0/0
  6146 ;; Data sizes:     COMRAM   BANK0   BANK1   BANK2   BANK3   BANK4   BANK5   BANK6   BANK7   BANK8   BANK9  BANK10  BANK1
      +1  BANK12  BANK13  BANK14  BANK15
  6147 ;;      Params:         0       0       0       0       0       0       0       0       0       0       0       0       
      +0       0       0       0       0
  6148 ;;      Locals:         1       0       0       0       0       0       0       0       0       0       0       0       
      +0       0       0       0       0
  6149 ;;      Temps:          0       0       0       0       0       0       0       0       0       0       0       0       
      +0       0       0       0       0
  6150 ;;      Totals:         1       0       0       0       0       0       0       0       0       0       0       0       
      +0       0       0       0       0
  6151 ;;Total ram usage:        1 bytes
  6152 ;; Hardware stack levels used: 1
  6153 ;; Hardware stack levels required when called: 6
  6154 ;; This function calls:
  6155 ;;		Nothing
  6156 ;; This function is called by:
  6157 ;;		_InterruptCheck
  6158 ;; This function uses a non-reentrant model
  6159 ;;
  6160                           
  6161                           	psect	text29
  6162   0035B0                     __ptext29:
  6163                           	callstack 0
  6164   0035B0                     _RB4_ISR:
  6165                           	callstack 18
  6166                           
  6167                           ;incstack = 0
  6168                           ;RB4_ISR@RB4_Source stored from wreg
  6169   0035B0  6E12               	movwf	RB4_ISR@RB4_Source^0,c
  6170   0035B2                     
  6171                           ;MCAL_Layer/Interrupt/mcal_external_interrupt.c: 553:     (INTCONbits.RBIF = 0);
  6172   0035B2  90F2               	bcf	242,0,c	;volatile
  6173   0035B4                     
  6174                           ;MCAL_Layer/Interrupt/mcal_external_interrupt.c: 557:     if(0 == RB4_Source){
  6175   0035B4  5012               	movf	RB4_ISR@RB4_Source^0,w,c
  6176   0035B6  A4D8               	btfss	status,2,c
  6177   0035B8  EFE0  F01A         	goto	i1u586_21
  6178   0035BC  EFE2  F01A         	goto	i1u586_20
  6179   0035C0                     i1u586_21:
  6180   0035C0  EFE4  F01A         	goto	i1l6183
  6181   0035C4                     i1u586_20:
  6182   0035C4  EFE4  F01A         	goto	i1l884
  6183   0035C8                     i1l6183:
  6184   0035C8                     i1l884:
  6185   0035C8  0012               	return		;funcret
  6186   0035CA                     __end_of_RB4_ISR:
  6187                           	callstack 0
  6188                           
  6189 ;; *************** function _INT2_ISR *****************
  6190 ;; Defined at:
  6191 ;;		line 540 in file "MCAL_Layer/Interrupt/mcal_external_interrupt.c"
  6192 ;; Parameters:    Size  Location     Type
  6193 ;;		None
  6194 ;; Auto vars:     Size  Location     Type
  6195 ;;		None
  6196 ;; Return value:  Size  Location     Type
  6197 ;;                  1    wreg      void 
  6198 ;; Registers used:
  6199 ;;		None
  6200 ;; Tracked objects:
  6201 ;;		On entry : 0/0
  6202 ;;		On exit  : 0/0
  6203 ;;		Unchanged: 0/0
  6204 ;; Data sizes:     COMRAM   BANK0   BANK1   BANK2   BANK3   BANK4   BANK5   BANK6   BANK7   BANK8   BANK9  BANK10  BANK1
      +1  BANK12  BANK13  BANK14  BANK15
  6205 ;;      Params:         0       0       0       0       0       0       0       0       0       0       0       0       
      +0       0       0       0       0
  6206 ;;      Locals:         0       0       0       0       0       0       0       0       0       0       0       0       
      +0       0       0       0       0
  6207 ;;      Temps:          0       0       0       0       0       0       0       0       0       0       0       0       
      +0       0       0       0       0
  6208 ;;      Totals:         0       0       0       0       0       0       0       0       0       0       0       0       
      +0       0       0       0       0
  6209 ;;Total ram usage:        0 bytes
  6210 ;; Hardware stack levels used: 1
  6211 ;; Hardware stack levels required when called: 6
  6212 ;; This function calls:
  6213 ;;		Nothing
  6214 ;; This function is called by:
  6215 ;;		_InterruptCheck
  6216 ;; This function uses a non-reentrant model
  6217 ;;
  6218                           
  6219                           	psect	text30
  6220   0036C6                     __ptext30:
  6221                           	callstack 0
  6222   0036C6                     _INT2_ISR:
  6223                           	callstack 18
  6224   0036C6                     
  6225                           ;MCAL_Layer/Interrupt/mcal_external_interrupt.c: 542:     (INTCON3bits.INT2IF = 0);
  6226   0036C6  92F0               	bcf	240,1,c	;volatile
  6227   0036C8  0012               	return		;funcret
  6228   0036CA                     __end_of_INT2_ISR:
  6229                           	callstack 0
  6230                           
  6231 ;; *************** function _INT1_ISR *****************
  6232 ;; Defined at:
  6233 ;;		line 530 in file "MCAL_Layer/Interrupt/mcal_external_interrupt.c"
  6234 ;; Parameters:    Size  Location     Type
  6235 ;;		None
  6236 ;; Auto vars:     Size  Location     Type
  6237 ;;		None
  6238 ;; Return value:  Size  Location     Type
  6239 ;;                  1    wreg      void 
  6240 ;; Registers used:
  6241 ;;		None
  6242 ;; Tracked objects:
  6243 ;;		On entry : 0/0
  6244 ;;		On exit  : 0/0
  6245 ;;		Unchanged: 0/0
  6246 ;; Data sizes:     COMRAM   BANK0   BANK1   BANK2   BANK3   BANK4   BANK5   BANK6   BANK7   BANK8   BANK9  BANK10  BANK1
      +1  BANK12  BANK13  BANK14  BANK15
  6247 ;;      Params:         0       0       0       0       0       0       0       0       0       0       0       0       
      +0       0       0       0       0
  6248 ;;      Locals:         0       0       0       0       0       0       0       0       0       0       0       0       
      +0       0       0       0       0
  6249 ;;      Temps:          0       0       0       0       0       0       0       0       0       0       0       0       
      +0       0       0       0       0
  6250 ;;      Totals:         0       0       0       0       0       0       0       0       0       0       0       0       
      +0       0       0       0       0
  6251 ;;Total ram usage:        0 bytes
  6252 ;; Hardware stack levels used: 1
  6253 ;; Hardware stack levels required when called: 6
  6254 ;; This function calls:
  6255 ;;		Nothing
  6256 ;; This function is called by:
  6257 ;;		_InterruptCheck
  6258 ;; This function uses a non-reentrant model
  6259 ;;
  6260                           
  6261                           	psect	text31
  6262   0036CA                     __ptext31:
  6263                           	callstack 0
  6264   0036CA                     _INT1_ISR:
  6265                           	callstack 18
  6266   0036CA                     
  6267                           ;MCAL_Layer/Interrupt/mcal_external_interrupt.c: 532:     (INTCON3bits.INT1IF = 0);
  6268   0036CA  90F0               	bcf	240,0,c	;volatile
  6269   0036CC  0012               	return		;funcret
  6270   0036CE                     __end_of_INT1_ISR:
  6271                           	callstack 0
  6272                           
  6273 ;; *************** function _INT0_ISR *****************
  6274 ;; Defined at:
  6275 ;;		line 520 in file "MCAL_Layer/Interrupt/mcal_external_interrupt.c"
  6276 ;; Parameters:    Size  Location     Type
  6277 ;;		None
  6278 ;; Auto vars:     Size  Location     Type
  6279 ;;		None
  6280 ;; Return value:  Size  Location     Type
  6281 ;;                  1    wreg      void 
  6282 ;; Registers used:
  6283 ;;		None
  6284 ;; Tracked objects:
  6285 ;;		On entry : 0/0
  6286 ;;		On exit  : 0/0
  6287 ;;		Unchanged: 0/0
  6288 ;; Data sizes:     COMRAM   BANK0   BANK1   BANK2   BANK3   BANK4   BANK5   BANK6   BANK7   BANK8   BANK9  BANK10  BANK1
      +1  BANK12  BANK13  BANK14  BANK15
  6289 ;;      Params:         0       0       0       0       0       0       0       0       0       0       0       0       
      +0       0       0       0       0
  6290 ;;      Locals:         0       0       0       0       0       0       0       0       0       0       0       0       
      +0       0       0       0       0
  6291 ;;      Temps:          0       0       0       0       0       0       0       0       0       0       0       0       
      +0       0       0       0       0
  6292 ;;      Totals:         0       0       0       0       0       0       0       0       0       0       0       0       
      +0       0       0       0       0
  6293 ;;Total ram usage:        0 bytes
  6294 ;; Hardware stack levels used: 1
  6295 ;; Hardware stack levels required when called: 6
  6296 ;; This function calls:
  6297 ;;		Nothing
  6298 ;; This function is called by:
  6299 ;;		_InterruptCheck
  6300 ;; This function uses a non-reentrant model
  6301 ;;
  6302                           
  6303                           	psect	text32
  6304   0036CE                     __ptext32:
  6305                           	callstack 0
  6306   0036CE                     _INT0_ISR:
  6307                           	callstack 18
  6308   0036CE                     
  6309                           ;MCAL_Layer/Interrupt/mcal_external_interrupt.c: 522:     (INTCONbits.INT0IF = 0);
  6310   0036CE  92F2               	bcf	242,1,c	;volatile
  6311   0036D0  0012               	return		;funcret
  6312   0036D2                     __end_of_INT0_ISR:
  6313                           	callstack 0
  6314                           
  6315 ;; *************** function _EUSART_TX_ISR *****************
  6316 ;; Defined at:
  6317 ;;		line 228 in file "MCAL_Layer/USART/hal_usart.c"
  6318 ;; Parameters:    Size  Location     Type
  6319 ;;		None
  6320 ;; Auto vars:     Size  Location     Type
  6321 ;;		None
  6322 ;; Return value:  Size  Location     Type
  6323 ;;                  1    wreg      void 
  6324 ;; Registers used:
  6325 ;;		wreg, fsr2l, fsr2h, status,2, status,0, pcl, pclath, pclatu, tosl, prodl, prodh, cstack
  6326 ;; Tracked objects:
  6327 ;;		On entry : 0/0
  6328 ;;		On exit  : 0/0
  6329 ;;		Unchanged: 0/0
  6330 ;; Data sizes:     COMRAM   BANK0   BANK1   BANK2   BANK3   BANK4   BANK5   BANK6   BANK7   BANK8   BANK9  BANK10  BANK1
      +1  BANK12  BANK13  BANK14  BANK15
  6331 ;;      Params:         0       0       0       0       0       0       0       0       0       0       0       0       
      +0       0       0       0       0
  6332 ;;      Locals:         0       0       0       0       0       0       0       0       0       0       0       0       
      +0       0       0       0       0
  6333 ;;      Temps:          0       0       0       0       0       0       0       0       0       0       0       0       
      +0       0       0       0       0
  6334 ;;      Totals:         0       0       0       0       0       0       0       0       0       0       0       0       
      +0       0       0       0       0
  6335 ;;Total ram usage:        0 bytes
  6336 ;; Hardware stack levels used: 1
  6337 ;; Hardware stack levels required when called: 9
  6338 ;; This function calls:
  6339 ;;		NULL
  6340 ;;		_EUSART_Tx_InterruptHandler
  6341 ;; This function is called by:
  6342 ;;		_InterruptCheck
  6343 ;; This function uses a non-reentrant model
  6344 ;;
  6345                           
  6346                           	psect	text33
  6347   0033CA                     __ptext33:
  6348                           	callstack 0
  6349   0033CA                     _EUSART_TX_ISR:
  6350                           	callstack 15
  6351   0033CA                     
  6352                           ;MCAL_Layer/USART/hal_usart.c: 229:     (PIE1bits.TXIE = 0);
  6353   0033CA  989D               	bcf	157,4,c	;volatile
  6354   0033CC                     
  6355                           ;MCAL_Layer/USART/hal_usart.c: 230:     if(EUSART_Tx_InterruptHandler){
  6356   0033CC  5036               	movf	_EUSART_Tx_InterruptHandler@hal_usart$F3917^0,w,c
  6357   0033CE  1037               	iorwf	(_EUSART_Tx_InterruptHandler@hal_usart$F3917+1)^0,w,c
  6358   0033D0  B4D8               	btfsc	status,2,c
  6359   0033D2  EFED  F019         	goto	i1u596_21
  6360   0033D6  EFEF  F019         	goto	i1u596_20
  6361   0033DA                     i1u596_21:
  6362   0033DA  EFFB  F019         	goto	i1l1442
  6363   0033DE                     i1u596_20:
  6364   0033DE                     
  6365                           ;MCAL_Layer/USART/hal_usart.c: 231:         EUSART_Tx_InterruptHandler();
  6366   0033DE  D802               	call	i1u597_28
  6367   0033E0  EFFB  F019         	goto	i1u597_29
  6368   0033E4                     i1u597_28:
  6369   0033E4  0005               	push	
  6370   0033E6  6EFA               	movwf	pclath,c
  6371   0033E8  5036               	movf	_EUSART_Tx_InterruptHandler@hal_usart$F3917^0,w,c
  6372   0033EA  6EFD               	movwf	tosl,c
  6373   0033EC  5037               	movf	(_EUSART_Tx_InterruptHandler@hal_usart$F3917+1)^0,w,c
  6374   0033EE  6EFE               	movwf	tosh,c
  6375   0033F0  6AFF               	clrf	tosu,c
  6376   0033F2  50FA               	movf	pclath,w,c
  6377   0033F4  0012               	return		;indir
  6378   0033F6                     i1u597_29:
  6379   0033F6                     i1l1442:
  6380   0033F6  0012               	return		;funcret
  6381   0033F8                     __end_of_EUSART_TX_ISR:
  6382                           	callstack 0
  6383                           
  6384 ;; *************** function _EUSART_Tx_InterruptHandler *****************
  6385 ;; Defined at:
  6386 ;;		line 159 in file "application.c"
  6387 ;; Parameters:    Size  Location     Type
  6388 ;;		None
  6389 ;; Auto vars:     Size  Location     Type
  6390 ;;		None
  6391 ;; Return value:  Size  Location     Type
  6392 ;;                  1    wreg      void 
  6393 ;; Registers used:
  6394 ;;		wreg, fsr2l, fsr2h, status,2, status,0, prodl, prodh, cstack
  6395 ;; Tracked objects:
  6396 ;;		On entry : 0/0
  6397 ;;		On exit  : 0/0
  6398 ;;		Unchanged: 0/0
  6399 ;; Data sizes:     COMRAM   BANK0   BANK1   BANK2   BANK3   BANK4   BANK5   BANK6   BANK7   BANK8   BANK9  BANK10  BANK1
      +1  BANK12  BANK13  BANK14  BANK15
  6400 ;;      Params:         0       0       0       0       0       0       0       0       0       0       0       0       
      +0       0       0       0       0
  6401 ;;      Locals:         0       0       0       0       0       0       0       0       0       0       0       0       
      +0       0       0       0       0
  6402 ;;      Temps:          0       0       0       0       0       0       0       0       0       0       0       0       
      +0       0       0       0       0
  6403 ;;      Totals:         0       0       0       0       0       0       0       0       0       0       0       0       
      +0       0       0       0       0
  6404 ;;Total ram usage:        0 bytes
  6405 ;; Hardware stack levels used: 1
  6406 ;; Hardware stack levels required when called: 8
  6407 ;; This function calls:
  6408 ;;		_led_turn_toggle
  6409 ;; This function is called by:
  6410 ;;		_EUSART_TX_ISR
  6411 ;;		i2_EUSART_TX_ISR
  6412 ;; This function uses a non-reentrant model
  6413 ;;
  6414                           
  6415                           	psect	text34
  6416   003662                     __ptext34:
  6417                           	callstack 0
  6418   003662                     _EUSART_Tx_InterruptHandler:
  6419                           	callstack 0
  6420                           
  6421                           ;Skip over the trampoline to the duplicate function for level 2
  6422   003662  A25A               	btfss	int$flags,1,c
  6423   003664  EF36  F01B         	goto	_EUSART_Tx_InterruptHandler$intlevel1
  6424   003668  EF45  F01B         	goto	i2_EUSART_Tx_InterruptHandler
  6425   00366C                     _EUSART_Tx_InterruptHandler$intlevel1:
  6426                           	callstack 15
  6427   00366C                     
  6428                           ;application.c: 160:     led_turn_toggle(&led1);
  6429   00366C  0E59               	movlw	low _led1
  6430   00366E  6E19               	movwf	led_turn_toggle@led^0,c
  6431   003670  0E00               	movlw	high _led1
  6432   003672  6E1A               	movwf	(led_turn_toggle@led+1)^0,c
  6433   003674  EC2A  F017         	call	_led_turn_toggle	;wreg free
  6434   003678  0012               	return		;funcret
  6435   00367A                     __end_of_EUSART_Tx_InterruptHandler:
  6436                           	callstack 0
  6437                           
  6438 ;; *************** function _led_turn_toggle *****************
  6439 ;; Defined at:
  6440 ;;		line 77 in file "ECU_Layer/LED/ecu_led.c"
  6441 ;; Parameters:    Size  Location     Type
  6442 ;;  led             2   24[COMRAM] PTR const struct .
  6443 ;;		 -> led1(1), 
  6444 ;; Auto vars:     Size  Location     Type
  6445 ;;  pin_obj         1   27[COMRAM] struct .
  6446 ;;  ret             1    0        unsigned char 
  6447 ;; Return value:  Size  Location     Type
  6448 ;;                  1    wreg      unsigned char 
  6449 ;; Registers used:
  6450 ;;		wreg, fsr2l, fsr2h, status,2, status,0, prodl, prodh, cstack
  6451 ;; Tracked objects:
  6452 ;;		On entry : 0/0
  6453 ;;		On exit  : 0/0
  6454 ;;		Unchanged: 0/0
  6455 ;; Data sizes:     COMRAM   BANK0   BANK1   BANK2   BANK3   BANK4   BANK5   BANK6   BANK7   BANK8   BANK9  BANK10  BANK1
      +1  BANK12  BANK13  BANK14  BANK15
  6456 ;;      Params:         2       0       0       0       0       0       0       0       0       0       0       0       
      +0       0       0       0       0
  6457 ;;      Locals:         1       0       0       0       0       0       0       0       0       0       0       0       
      +0       0       0       0       0
  6458 ;;      Temps:          1       0       0       0       0       0       0       0       0       0       0       0       
      +0       0       0       0       0
  6459 ;;      Totals:         4       0       0       0       0       0       0       0       0       0       0       0       
      +0       0       0       0       0
  6460 ;;Total ram usage:        4 bytes
  6461 ;; Hardware stack levels used: 1
  6462 ;; Hardware stack levels required when called: 7
  6463 ;; This function calls:
  6464 ;;		_gpio_pin_toggle_logic
  6465 ;; This function is called by:
  6466 ;;		_EUSART_Tx_InterruptHandler
  6467 ;;		_timer1_interruptHundler
  6468 ;;		_timer2_interruptHundler
  6469 ;; This function uses a non-reentrant model
  6470 ;;
  6471                           
  6472                           	psect	text35
  6473   002E54                     __ptext35:
  6474                           	callstack 0
  6475   002E54                     _led_turn_toggle:
  6476                           	callstack 15
  6477   002E54                     
  6478                           ;ECU_Layer/LED/ecu_led.c: 80:     if(((void*)0) == led){
  6479   002E54  5019               	movf	led_turn_toggle@led^0,w,c
  6480   002E56  101A               	iorwf	(led_turn_toggle@led+1)^0,w,c
  6481   002E58  A4D8               	btfss	status,2,c
  6482   002E5A  EF31  F017         	goto	i1u472_21
  6483   002E5E  EF33  F017         	goto	i1u472_20
  6484   002E62                     i1u472_21:
  6485   002E62  EF35  F017         	goto	i1l247
  6486   002E66                     i1u472_20:
  6487   002E66                     
  6488                           ;ECU_Layer/LED/ecu_led.c: 82:     }
  6489   002E66  EF62  F017         	goto	i1l251
  6490   002E6A                     i1l247:
  6491                           
  6492                           ;ECU_Layer/LED/ecu_led.c: 84:     {;ECU_Layer/LED/ecu_led.c: 85:         pin_config_t pi
      +                          n_obj={.port = led->port_name, .pin = led->pin, .direction = GPIO_OUTPUT, .logic = led->
      +                          led_status};
  6493   002E6A  C04B  F01C         	movff	led_turn_toggle@F3063,led_turn_toggle@pin_obj
  6494   002E6E  C019  FFD9         	movff	led_turn_toggle@led,fsr2l
  6495   002E72  C01A  FFDA         	movff	led_turn_toggle@led+1,fsr2h
  6496   002E76  50DF               	movf	223,w,c
  6497   002E78  0B0F               	andlw	15
  6498   002E7A  6E1B               	movwf	??_led_turn_toggle^0,c
  6499   002E7C  501C               	movf	led_turn_toggle@pin_obj^0,w,c
  6500   002E7E  181B               	xorwf	??_led_turn_toggle^0,w,c
  6501   002E80  0BF8               	andlw	-8
  6502   002E82  181B               	xorwf	??_led_turn_toggle^0,w,c
  6503   002E84  6E1C               	movwf	led_turn_toggle@pin_obj^0,c
  6504   002E86  C019  FFD9         	movff	led_turn_toggle@led,fsr2l
  6505   002E8A  C01A  FFDA         	movff	led_turn_toggle@led+1,fsr2h
  6506   002E8E  38DF               	swapf	223,w,c
  6507   002E90  0B07               	andlw	7
  6508   002E92  6E1B               	movwf	??_led_turn_toggle^0,c
  6509   002E94  461B               	rlncf	??_led_turn_toggle^0,f,c
  6510   002E96  461B               	rlncf	??_led_turn_toggle^0,f,c
  6511   002E98  461B               	rlncf	??_led_turn_toggle^0,f,c
  6512   002E9A  501C               	movf	led_turn_toggle@pin_obj^0,w,c
  6513   002E9C  181B               	xorwf	??_led_turn_toggle^0,w,c
  6514   002E9E  0BC7               	andlw	-57
  6515   002EA0  181B               	xorwf	??_led_turn_toggle^0,w,c
  6516   002EA2  6E1C               	movwf	led_turn_toggle@pin_obj^0,c
  6517   002EA4  9C1C               	bcf	led_turn_toggle@pin_obj^0,6,c
  6518   002EA6  C019  FFD9         	movff	led_turn_toggle@led,fsr2l
  6519   002EAA  C01A  FFDA         	movff	led_turn_toggle@led+1,fsr2h
  6520   002EAE  AEDF               	btfss	indf2,7,c
  6521   002EB0  D002               	bra	i1u473_25
  6522   002EB2  8E1C               	bsf	led_turn_toggle@pin_obj^0,7,c
  6523   002EB4  D001               	bra	i1u473_27
  6524   002EB6                     i1u473_25:
  6525   002EB6  9E1C               	bcf	led_turn_toggle@pin_obj^0,7,c
  6526   002EB8                     i1u473_27:
  6527   002EB8                     
  6528                           ;ECU_Layer/LED/ecu_led.c: 86:         gpio_pin_toggle_logic(&pin_obj);
  6529   002EB8  0E1C               	movlw	low led_turn_toggle@pin_obj
  6530   002EBA  6E12               	movwf	gpio_pin_toggle_logic@_pin_config^0,c
  6531   002EBC  0E00               	movlw	high led_turn_toggle@pin_obj
  6532   002EBE  6E13               	movwf	(gpio_pin_toggle_logic@_pin_config+1)^0,c
  6533   002EC0  EC10  F016         	call	_gpio_pin_toggle_logic	;wreg free
  6534   002EC4                     i1l251:
  6535   002EC4  0012               	return		;funcret
  6536   002EC6                     __end_of_led_turn_toggle:
  6537                           	callstack 0
  6538                           
  6539 ;; *************** function _gpio_pin_toggle_logic *****************
  6540 ;; Defined at:
  6541 ;;		line 136 in file "MCAL_Layer/GPIO/hal_gpio.c"
  6542 ;; Parameters:    Size  Location     Type
  6543 ;;  _pin_config     2   17[COMRAM] PTR const struct .
  6544 ;;		 -> led_turn_toggle@pin_obj(1), 
  6545 ;; Auto vars:     Size  Location     Type
  6546 ;;  ret             1    0        unsigned char 
  6547 ;; Return value:  Size  Location     Type
  6548 ;;                  1    wreg      unsigned char 
  6549 ;; Registers used:
  6550 ;;		wreg, fsr2l, fsr2h, status,2, status,0, prodl, prodh
  6551 ;; Tracked objects:
  6552 ;;		On entry : 0/0
  6553 ;;		On exit  : 0/0
  6554 ;;		Unchanged: 0/0
  6555 ;; Data sizes:     COMRAM   BANK0   BANK1   BANK2   BANK3   BANK4   BANK5   BANK6   BANK7   BANK8   BANK9  BANK10  BANK1
      +1  BANK12  BANK13  BANK14  BANK15
  6556 ;;      Params:         2       0       0       0       0       0       0       0       0       0       0       0       
      +0       0       0       0       0
  6557 ;;      Locals:         0       0       0       0       0       0       0       0       0       0       0       0       
      +0       0       0       0       0
  6558 ;;      Temps:          5       0       0       0       0       0       0       0       0       0       0       0       
      +0       0       0       0       0
  6559 ;;      Totals:         7       0       0       0       0       0       0       0       0       0       0       0       
      +0       0       0       0       0
  6560 ;;Total ram usage:        7 bytes
  6561 ;; Hardware stack levels used: 1
  6562 ;; Hardware stack levels required when called: 6
  6563 ;; This function calls:
  6564 ;;		Nothing
  6565 ;; This function is called by:
  6566 ;;		_led_turn_toggle
  6567 ;; This function uses a non-reentrant model
  6568 ;;
  6569                           
  6570                           	psect	text36
  6571   002C20                     __ptext36:
  6572                           	callstack 0
  6573   002C20                     _gpio_pin_toggle_logic:
  6574                           	callstack 15
  6575   002C20                     
  6576                           ;MCAL_Layer/GPIO/hal_gpio.c: 138:     if(((void*)0) == _pin_config || _pin_config->pin >
      +                           8 -1)
  6577   002C20  5012               	movf	gpio_pin_toggle_logic@_pin_config^0,w,c
  6578   002C22  1013               	iorwf	(gpio_pin_toggle_logic@_pin_config+1)^0,w,c
  6579   002C24  B4D8               	btfsc	status,2,c
  6580   002C26  EF17  F016         	goto	i1u456_21
  6581   002C2A  EF19  F016         	goto	i1u456_20
  6582   002C2E                     i1u456_21:
  6583   002C2E  EF2A  F016         	goto	i1l5313
  6584   002C32                     i1u456_20:
  6585   002C32  C012  FFD9         	movff	gpio_pin_toggle_logic@_pin_config,fsr2l
  6586   002C36  C013  FFDA         	movff	gpio_pin_toggle_logic@_pin_config+1,fsr2h
  6587   002C3A  30DF               	rrcf	223,w,c
  6588   002C3C  32E8               	rrcf	wreg,f,c
  6589   002C3E  32E8               	rrcf	wreg,f,c
  6590   002C40  0B07               	andlw	7
  6591   002C42  6E14               	movwf	??_gpio_pin_toggle_logic^0,c
  6592   002C44  0E07               	movlw	7
  6593   002C46  6414               	cpfsgt	??_gpio_pin_toggle_logic^0,c
  6594   002C48  EF28  F016         	goto	i1u457_21
  6595   002C4C  EF2A  F016         	goto	i1u457_20
  6596   002C50                     i1u457_21:
  6597   002C50  EF2C  F016         	goto	i1l5315
  6598   002C54                     i1u457_20:
  6599   002C54                     i1l5313:
  6600                           
  6601                           ;MCAL_Layer/GPIO/hal_gpio.c: 141:     }
  6602   002C54  EF58  F016         	goto	i1l499
  6603   002C58                     i1l5315:
  6604                           
  6605                           ;MCAL_Layer/GPIO/hal_gpio.c: 143:     {;MCAL_Layer/GPIO/hal_gpio.c: 144:         (*lat_r
      +                          egisters[_pin_config->port] ^= ((uint8)1 << _pin_config->pin));
  6606   002C58  C012  FFD9         	movff	gpio_pin_toggle_logic@_pin_config,fsr2l
  6607   002C5C  C013  FFDA         	movff	gpio_pin_toggle_logic@_pin_config+1,fsr2h
  6608   002C60  30DF               	rrcf	223,w,c
  6609   002C62  32E8               	rrcf	wreg,f,c
  6610   002C64  32E8               	rrcf	wreg,f,c
  6611   002C66  0B07               	andlw	7
  6612   002C68  6E14               	movwf	??_gpio_pin_toggle_logic^0,c
  6613   002C6A  0E01               	movlw	1
  6614   002C6C  6E15               	movwf	(??_gpio_pin_toggle_logic+1)^0,c
  6615   002C6E  2A14               	incf	??_gpio_pin_toggle_logic^0,f,c
  6616   002C70  EF3C  F016         	goto	i1u458_24
  6617   002C74                     i1u458_25:
  6618   002C74  90D8               	bcf	status,0,c
  6619   002C76  3615               	rlcf	(??_gpio_pin_toggle_logic+1)^0,f,c
  6620   002C78                     i1u458_24:
  6621   002C78  2E14               	decfsz	??_gpio_pin_toggle_logic^0,f,c
  6622   002C7A  EF3A  F016         	goto	i1u458_25
  6623   002C7E  C012  FFD9         	movff	gpio_pin_toggle_logic@_pin_config,fsr2l
  6624   002C82  C013  FFDA         	movff	gpio_pin_toggle_logic@_pin_config+1,fsr2h
  6625   002C86  50DF               	movf	223,w,c
  6626   002C88  0B07               	andlw	7
  6627   002C8A  6E16               	movwf	(??_gpio_pin_toggle_logic+2)^0,c
  6628   002C8C  5016               	movf	(??_gpio_pin_toggle_logic+2)^0,w,c
  6629   002C8E  0D02               	mullw	2
  6630   002C90  0EBC               	movlw	low _lat_registers
  6631   002C92  24F3               	addwf	243,w,c
  6632   002C94  6ED9               	movwf	fsr2l,c
  6633   002C96  0E00               	movlw	high _lat_registers
  6634   002C98  20F4               	addwfc	prodh,w,c
  6635   002C9A  6EDA               	movwf	fsr2h,c
  6636   002C9C  CFDE F017          	movff	postinc2,??_gpio_pin_toggle_logic+3
  6637   002CA0  CFDD F018          	movff	postdec2,??_gpio_pin_toggle_logic+4
  6638   002CA4  C017  FFD9         	movff	??_gpio_pin_toggle_logic+3,fsr2l
  6639   002CA8  C018  FFDA         	movff	??_gpio_pin_toggle_logic+4,fsr2h
  6640   002CAC  5015               	movf	(??_gpio_pin_toggle_logic+1)^0,w,c
  6641   002CAE  1ADF               	xorwf	indf2,f,c
  6642   002CB0                     i1l499:
  6643   002CB0  0012               	return		;funcret
  6644   002CB2                     __end_of_gpio_pin_toggle_logic:
  6645                           	callstack 0
  6646                           
  6647 ;; *************** function _EUSART_RX_ISR *****************
  6648 ;; Defined at:
  6649 ;;		line 236 in file "MCAL_Layer/USART/hal_usart.c"
  6650 ;; Parameters:    Size  Location     Type
  6651 ;;		None
  6652 ;; Auto vars:     Size  Location     Type
  6653 ;;		None
  6654 ;; Return value:  Size  Location     Type
  6655 ;;                  1    wreg      void 
  6656 ;; Registers used:
  6657 ;;		wreg, status,2, status,0
  6658 ;; Tracked objects:
  6659 ;;		On entry : 0/0
  6660 ;;		On exit  : 0/0
  6661 ;;		Unchanged: 0/0
  6662 ;; Data sizes:     COMRAM   BANK0   BANK1   BANK2   BANK3   BANK4   BANK5   BANK6   BANK7   BANK8   BANK9  BANK10  BANK1
      +1  BANK12  BANK13  BANK14  BANK15
  6663 ;;      Params:         0       0       0       0       0       0       0       0       0       0       0       0       
      +0       0       0       0       0
  6664 ;;      Locals:         0       0       0       0       0       0       0       0       0       0       0       0       
      +0       0       0       0       0
  6665 ;;      Temps:          0       0       0       0       0       0       0       0       0       0       0       0       
      +0       0       0       0       0
  6666 ;;      Totals:         0       0       0       0       0       0       0       0       0       0       0       0       
      +0       0       0       0       0
  6667 ;;Total ram usage:        0 bytes
  6668 ;; Hardware stack levels used: 1
  6669 ;; Hardware stack levels required when called: 6
  6670 ;; This function calls:
  6671 ;;		Nothing
  6672 ;; This function is called by:
  6673 ;;		_InterruptCheck
  6674 ;; This function uses a non-reentrant model
  6675 ;;
  6676                           
  6677                           	psect	text37
  6678   0036EE                     __ptext37:
  6679                           	callstack 0
  6680   0036EE                     _EUSART_RX_ISR:
  6681                           	callstack 18
  6682   0036EE  0012               	return		;funcret
  6683   0036F0                     __end_of_EUSART_RX_ISR:
  6684                           	callstack 0
  6685                           
  6686 ;; *************** function _CCP2_ISR *****************
  6687 ;; Defined at:
  6688 ;;		line 200 in file "MCAL_Layer/CCP/CCP2/hal_ccp2.c"
  6689 ;; Parameters:    Size  Location     Type
  6690 ;;		None
  6691 ;; Auto vars:     Size  Location     Type
  6692 ;;		None
  6693 ;; Return value:  Size  Location     Type
  6694 ;;                  1    wreg      void 
  6695 ;; Registers used:
  6696 ;;		None
  6697 ;; Tracked objects:
  6698 ;;		On entry : 0/0
  6699 ;;		On exit  : 0/0
  6700 ;;		Unchanged: 0/0
  6701 ;; Data sizes:     COMRAM   BANK0   BANK1   BANK2   BANK3   BANK4   BANK5   BANK6   BANK7   BANK8   BANK9  BANK10  BANK1
      +1  BANK12  BANK13  BANK14  BANK15
  6702 ;;      Params:         0       0       0       0       0       0       0       0       0       0       0       0       
      +0       0       0       0       0
  6703 ;;      Locals:         0       0       0       0       0       0       0       0       0       0       0       0       
      +0       0       0       0       0
  6704 ;;      Temps:          0       0       0       0       0       0       0       0       0       0       0       0       
      +0       0       0       0       0
  6705 ;;      Totals:         0       0       0       0       0       0       0       0       0       0       0       0       
      +0       0       0       0       0
  6706 ;;Total ram usage:        0 bytes
  6707 ;; Hardware stack levels used: 1
  6708 ;; Hardware stack levels required when called: 6
  6709 ;; This function calls:
  6710 ;;		Nothing
  6711 ;; This function is called by:
  6712 ;;		_InterruptCheck
  6713 ;; This function uses a non-reentrant model
  6714 ;;
  6715                           
  6716                           	psect	text38
  6717   0036D2                     __ptext38:
  6718                           	callstack 0
  6719   0036D2                     _CCP2_ISR:
  6720                           	callstack 18
  6721   0036D2                     
  6722                           ;MCAL_Layer/CCP/CCP2/hal_ccp2.c: 201:     (PIR2bits.CCP2IF = 0);
  6723   0036D2  90A1               	bcf	161,0,c	;volatile
  6724   0036D4  0012               	return		;funcret
  6725   0036D6                     __end_of_CCP2_ISR:
  6726                           	callstack 0
  6727                           
  6728 ;; *************** function _CCP1_ISR *****************
  6729 ;; Defined at:
  6730 ;;		line 200 in file "MCAL_Layer/CCP/CCP1/hal_ccp1.c"
  6731 ;; Parameters:    Size  Location     Type
  6732 ;;		None
  6733 ;; Auto vars:     Size  Location     Type
  6734 ;;		None
  6735 ;; Return value:  Size  Location     Type
  6736 ;;                  1    wreg      void 
  6737 ;; Registers used:
  6738 ;;		wreg, fsr2l, fsr2h, status,2, status,0, pcl, pclath, pclatu, tosl, cstack
  6739 ;; Tracked objects:
  6740 ;;		On entry : 0/0
  6741 ;;		On exit  : 0/0
  6742 ;;		Unchanged: 0/0
  6743 ;; Data sizes:     COMRAM   BANK0   BANK1   BANK2   BANK3   BANK4   BANK5   BANK6   BANK7   BANK8   BANK9  BANK10  BANK1
      +1  BANK12  BANK13  BANK14  BANK15
  6744 ;;      Params:         0       0       0       0       0       0       0       0       0       0       0       0       
      +0       0       0       0       0
  6745 ;;      Locals:         0       0       0       0       0       0       0       0       0       0       0       0       
      +0       0       0       0       0
  6746 ;;      Temps:          0       0       0       0       0       0       0       0       0       0       0       0       
      +0       0       0       0       0
  6747 ;;      Totals:         0       0       0       0       0       0       0       0       0       0       0       0       
      +0       0       0       0       0
  6748 ;;Total ram usage:        0 bytes
  6749 ;; Hardware stack levels used: 1
  6750 ;; Hardware stack levels required when called: 8
  6751 ;; This function calls:
  6752 ;;		NULL
  6753 ;;		_CCP1_interruptHundler
  6754 ;; This function is called by:
  6755 ;;		_InterruptCheck
  6756 ;; This function uses a non-reentrant model
  6757 ;;
  6758                           
  6759                           	psect	text39
  6760   0033F8                     __ptext39:
  6761                           	callstack 0
  6762   0033F8                     _CCP1_ISR:
  6763                           	callstack 16
  6764   0033F8                     
  6765                           ;MCAL_Layer/CCP/CCP1/hal_ccp1.c: 201:     (PIR1bits.CCP1IF = 0);
  6766   0033F8  949E               	bcf	158,2,c	;volatile
  6767   0033FA                     
  6768                           ;MCAL_Layer/CCP/CCP1/hal_ccp1.c: 203:     if(CCP1_InterruptHandler){
  6769   0033FA  5038               	movf	_CCP1_InterruptHandler^0,w,c
  6770   0033FC  1039               	iorwf	(_CCP1_InterruptHandler+1)^0,w,c
  6771   0033FE  B4D8               	btfsc	status,2,c
  6772   003400  EF04  F01A         	goto	i1u594_21
  6773   003404  EF06  F01A         	goto	i1u594_20
  6774   003408                     i1u594_21:
  6775   003408  EF12  F01A         	goto	i1l1329
  6776   00340C                     i1u594_20:
  6777   00340C                     
  6778                           ;MCAL_Layer/CCP/CCP1/hal_ccp1.c: 204:         CCP1_InterruptHandler();
  6779   00340C  D802               	call	i1u595_28
  6780   00340E  EF12  F01A         	goto	i1u595_29
  6781   003412                     i1u595_28:
  6782   003412  0005               	push	
  6783   003414  6EFA               	movwf	pclath,c
  6784   003416  5038               	movf	_CCP1_InterruptHandler^0,w,c
  6785   003418  6EFD               	movwf	tosl,c
  6786   00341A  5039               	movf	(_CCP1_InterruptHandler+1)^0,w,c
  6787   00341C  6EFE               	movwf	tosh,c
  6788   00341E  6AFF               	clrf	tosu,c
  6789   003420  50FA               	movf	pclath,w,c
  6790   003422  0012               	return		;indir
  6791   003424                     i1u595_29:
  6792   003424                     i1l1329:
  6793   003424  0012               	return		;funcret
  6794   003426                     __end_of_CCP1_ISR:
  6795                           	callstack 0
  6796                           
  6797 ;; *************** function _CCP1_interruptHundler *****************
  6798 ;; Defined at:
  6799 ;;		line 144 in file "application.c"
  6800 ;; Parameters:    Size  Location     Type
  6801 ;;		None
  6802 ;; Auto vars:     Size  Location     Type
  6803 ;;		None
  6804 ;; Return value:  Size  Location     Type
  6805 ;;                  1    wreg      void 
  6806 ;; Registers used:
  6807 ;;		wreg, fsr2l, fsr2h, status,2, status,0, cstack
  6808 ;; Tracked objects:
  6809 ;;		On entry : 0/0
  6810 ;;		On exit  : 0/0
  6811 ;;		Unchanged: 0/0
  6812 ;; Data sizes:     COMRAM   BANK0   BANK1   BANK2   BANK3   BANK4   BANK5   BANK6   BANK7   BANK8   BANK9  BANK10  BANK1
      +1  BANK12  BANK13  BANK14  BANK15
  6813 ;;      Params:         0       0       0       0       0       0       0       0       0       0       0       0       
      +0       0       0       0       0
  6814 ;;      Locals:         0       0       0       0       0       0       0       0       0       0       0       0       
      +0       0       0       0       0
  6815 ;;      Temps:          0       0       0       0       0       0       0       0       0       0       0       0       
      +0       0       0       0       0
  6816 ;;      Totals:         0       0       0       0       0       0       0       0       0       0       0       0       
      +0       0       0       0       0
  6817 ;;Total ram usage:        0 bytes
  6818 ;; Hardware stack levels used: 1
  6819 ;; Hardware stack levels required when called: 7
  6820 ;; This function calls:
  6821 ;;		_CCP1_Capture_Mode_Read_Value
  6822 ;;		_Timer3_Write_value
  6823 ;; This function is called by:
  6824 ;;		_CCP1_ISR
  6825 ;;		i2_CCP1_ISR
  6826 ;; This function uses a non-reentrant model
  6827 ;;
  6828                           
  6829                           	psect	text40
  6830   002F38                     __ptext40:
  6831                           	callstack 0
  6832   002F38                     _CCP1_interruptHundler:
  6833                           	callstack 0
  6834                           
  6835                           ;Skip over the trampoline to the duplicate function for level 2
  6836   002F38  A25A               	btfss	int$flags,1,c
  6837   002F3A  EFA1  F017         	goto	_CCP1_interruptHundler$intlevel1
  6838   002F3E  EFD2  F017         	goto	i2_CCP1_interruptHundler
  6839   002F42                     _CCP1_interruptHundler$intlevel1:
  6840                           	callstack 16
  6841   002F42                     
  6842                           ;application.c: 145:     CCP1_Interrupt_flag++;
  6843   002F42  2A49               	incf	_CCP1_Interrupt_flag^0,f,c	;volatile
  6844                           
  6845                           ;application.c: 146:     CCP1_Interrupt_flag_2++;
  6846   002F44  2A48               	incf	_CCP1_Interrupt_flag_2^0,f,c	;volatile
  6847   002F46                     
  6848                           ;application.c: 147:     if(CCP1_Interrupt_flag == 1){
  6849   002F46  0449               	decf	_CCP1_Interrupt_flag^0,w,c	;volatile
  6850   002F48  A4D8               	btfss	status,2,c
  6851   002F4A  EFA9  F017         	goto	i1u566_21
  6852   002F4E  EFAB  F017         	goto	i1u566_20
  6853   002F52                     i1u566_21:
  6854   002F52  EFC0  F017         	goto	i1l5971
  6855   002F56                     i1u566_20:
  6856   002F56                     
  6857                           ;application.c: 148:         Timer3_Write_value(&timer3,0);
  6858   002F56  0EE2               	movlw	low _timer3
  6859   002F58  6E12               	movwf	Timer3_Write_value@_timer^0,c
  6860   002F5A  0E00               	movlw	high _timer3
  6861   002F5C  6E13               	movwf	(Timer3_Write_value@_timer+1)^0,c
  6862   002F5E  0E00               	movlw	0
  6863   002F60  6E15               	movwf	(Timer3_Write_value@_value+1)^0,c
  6864   002F62  0E00               	movlw	0
  6865   002F64  6E14               	movwf	Timer3_Write_value@_value^0,c
  6866   002F66  EC66  F01A         	call	_Timer3_Write_value	;wreg free
  6867   002F6A                     
  6868                           ;application.c: 149:         timer3_overflow = 0;
  6869   002F6A  0E00               	movlw	0
  6870   002F6C  0100               	movlb	0	; () banked
  6871   002F6E  6F8E               	movwf	_timer3_overflow& (0+255),b	;volatile
  6872   002F70  0E00               	movlw	0
  6873   002F72  6F8F               	movwf	(_timer3_overflow+1)& (0+255),b	;volatile
  6874   002F74  0E00               	movlw	0
  6875   002F76  6F90               	movwf	(_timer3_overflow+2)& (0+255),b	;volatile
  6876   002F78  0E00               	movlw	0
  6877   002F7A  6F91               	movwf	(_timer3_overflow+3)& (0+255),b	;volatile
  6878                           
  6879                           ;application.c: 150:     }
  6880   002F7C  EFD1  F017         	goto	i1l1146
  6881   002F80                     i1l5971:
  6882   002F80  0E02               	movlw	2
  6883   002F82  1849               	xorwf	_CCP1_Interrupt_flag^0,w,c	;volatile
  6884   002F84  A4D8               	btfss	status,2,c
  6885   002F86  EFC7  F017         	goto	i1u567_21
  6886   002F8A  EFC9  F017         	goto	i1u567_20
  6887   002F8E                     i1u567_21:
  6888   002F8E  EFD1  F017         	goto	i1l1146
  6889   002F92                     i1u567_20:
  6890   002F92                     
  6891                           ;application.c: 153:         CCP1_Interrupt_flag = 0;
  6892   002F92  0E00               	movlw	0
  6893   002F94  6E49               	movwf	_CCP1_Interrupt_flag^0,c	;volatile
  6894   002F96                     
  6895                           ;application.c: 154:         CCP1_Capture_Mode_Read_Value(&ccp1_capature_value);
  6896   002F96  0E4F               	movlw	low _ccp1_capature_value
  6897   002F98  6E12               	movwf	CCP1_Capture_Mode_Read_Value@_capture_value^0,c
  6898   002F9A  0E00               	movlw	high _ccp1_capature_value
  6899   002F9C  6E13               	movwf	(CCP1_Capture_Mode_Read_Value@_capture_value+1)^0,c
  6900   002F9E  ECF7  F018         	call	_CCP1_Capture_Mode_Read_Value	;wreg free
  6901   002FA2                     i1l1146:
  6902   002FA2  0012               	return		;funcret
  6903   002FA4                     __end_of_CCP1_interruptHundler:
  6904                           	callstack 0
  6905                           
  6906 ;; *************** function _Timer3_Write_value *****************
  6907 ;; Defined at:
  6908 ;;		line 95 in file "MCAL_Layer/Timer/Timer3/hal_timer3.c"
  6909 ;; Parameters:    Size  Location     Type
  6910 ;;  _timer          2   17[COMRAM] PTR const struct .
  6911 ;;		 -> timer3(6), 
  6912 ;;  _value          2   19[COMRAM] unsigned short 
  6913 ;; Auto vars:     Size  Location     Type
  6914 ;;  ret             1    0        unsigned char 
  6915 ;; Return value:  Size  Location     Type
  6916 ;;                  1    wreg      unsigned char 
  6917 ;; Registers used:
  6918 ;;		wreg, status,2, status,0
  6919 ;; Tracked objects:
  6920 ;;		On entry : 0/0
  6921 ;;		On exit  : 0/0
  6922 ;;		Unchanged: 0/0
  6923 ;; Data sizes:     COMRAM   BANK0   BANK1   BANK2   BANK3   BANK4   BANK5   BANK6   BANK7   BANK8   BANK9  BANK10  BANK1
      +1  BANK12  BANK13  BANK14  BANK15
  6924 ;;      Params:         4       0       0       0       0       0       0       0       0       0       0       0       
      +0       0       0       0       0
  6925 ;;      Locals:         0       0       0       0       0       0       0       0       0       0       0       0       
      +0       0       0       0       0
  6926 ;;      Temps:          0       0       0       0       0       0       0       0       0       0       0       0       
      +0       0       0       0       0
  6927 ;;      Totals:         4       0       0       0       0       0       0       0       0       0       0       0       
      +0       0       0       0       0
  6928 ;;Total ram usage:        4 bytes
  6929 ;; Hardware stack levels used: 1
  6930 ;; Hardware stack levels required when called: 6
  6931 ;; This function calls:
  6932 ;;		Nothing
  6933 ;; This function is called by:
  6934 ;;		_CCP1_interruptHundler
  6935 ;; This function uses a non-reentrant model
  6936 ;;
  6937                           
  6938                           	psect	text41
  6939   0034CC                     __ptext41:
  6940                           	callstack 0
  6941   0034CC                     _Timer3_Write_value:
  6942                           	callstack 16
  6943   0034CC                     
  6944                           ;MCAL_Layer/Timer/Timer3/hal_timer3.c: 97:     if(((void*)0) == _timer){
  6945   0034CC  5012               	movf	Timer3_Write_value@_timer^0,w,c
  6946   0034CE  1013               	iorwf	(Timer3_Write_value@_timer+1)^0,w,c
  6947   0034D0  A4D8               	btfss	status,2,c
  6948   0034D2  EF6D  F01A         	goto	i1u477_21
  6949   0034D6  EF6F  F01A         	goto	i1u477_20
  6950   0034DA                     i1u477_21:
  6951   0034DA  EF71  F01A         	goto	i1l5427
  6952   0034DE                     i1u477_20:
  6953   0034DE                     
  6954                           ;MCAL_Layer/Timer/Timer3/hal_timer3.c: 99:     }
  6955   0034DE  EF75  F01A         	goto	i1l1242
  6956   0034E2                     i1l5427:
  6957                           
  6958                           ;MCAL_Layer/Timer/Timer3/hal_timer3.c: 101:     {;MCAL_Layer/Timer/Timer3/hal_timer3.c: 
      +                          102:         TMR3H = (_value) >>8;
  6959   0034E2  5015               	movf	(Timer3_Write_value@_value+1)^0,w,c
  6960   0034E4  6EB3               	movwf	179,c	;volatile
  6961   0034E6                     
  6962                           ;MCAL_Layer/Timer/Timer3/hal_timer3.c: 103:         TMR3L = (uint8)(_value);
  6963   0034E6  C014  FFB2         	movff	Timer3_Write_value@_value,4018	;volatile
  6964   0034EA                     i1l1242:
  6965   0034EA  0012               	return		;funcret
  6966   0034EC                     __end_of_Timer3_Write_value:
  6967                           	callstack 0
  6968                           
  6969 ;; *************** function _CCP1_Capture_Mode_Read_Value *****************
  6970 ;; Defined at:
  6971 ;;		line 108 in file "MCAL_Layer/CCP/CCP1/hal_ccp1.c"
  6972 ;; Parameters:    Size  Location     Type
  6973 ;;  _capture_val    2   17[COMRAM] PTR unsigned short 
  6974 ;;		 -> ccp1_capature_value(4), 
  6975 ;; Auto vars:     Size  Location     Type
  6976 ;;  compare_temp    2   19[COMRAM] struct .
  6977 ;;  ret             1    0        unsigned char 
  6978 ;; Return value:  Size  Location     Type
  6979 ;;                  1    wreg      unsigned char 
  6980 ;; Registers used:
  6981 ;;		wreg, fsr2l, fsr2h, status,2, status,0
  6982 ;; Tracked objects:
  6983 ;;		On entry : 0/0
  6984 ;;		On exit  : 0/0
  6985 ;;		Unchanged: 0/0
  6986 ;; Data sizes:     COMRAM   BANK0   BANK1   BANK2   BANK3   BANK4   BANK5   BANK6   BANK7   BANK8   BANK9  BANK10  BANK1
      +1  BANK12  BANK13  BANK14  BANK15
  6987 ;;      Params:         2       0       0       0       0       0       0       0       0       0       0       0       
      +0       0       0       0       0
  6988 ;;      Locals:         2       0       0       0       0       0       0       0       0       0       0       0       
      +0       0       0       0       0
  6989 ;;      Temps:          0       0       0       0       0       0       0       0       0       0       0       0       
      +0       0       0       0       0
  6990 ;;      Totals:         4       0       0       0       0       0       0       0       0       0       0       0       
      +0       0       0       0       0
  6991 ;;Total ram usage:        4 bytes
  6992 ;; Hardware stack levels used: 1
  6993 ;; Hardware stack levels required when called: 6
  6994 ;; This function calls:
  6995 ;;		Nothing
  6996 ;; This function is called by:
  6997 ;;		_CCP1_interruptHundler
  6998 ;; This function uses a non-reentrant model
  6999 ;;
  7000                           
  7001                           	psect	text42
  7002   0031EE                     __ptext42:
  7003                           	callstack 0
  7004   0031EE                     _CCP1_Capture_Mode_Read_Value:
  7005                           	callstack 16
  7006   0031EE                     
  7007                           ;MCAL_Layer/CCP/CCP1/hal_ccp1.c: 110:     CCP1_REG_T compare_temp_value = {.ccpr1_16Bit 
      +                          = 0};
  7008   0031EE  C0A0  F014         	movff	CCP1_Capture_Mode_Read_Value@F3086,CCP1_Capture_Mode_Read_Value@compare_temp_valu
      +                          e
  7009   0031F2  C0A1  F015         	movff	CCP1_Capture_Mode_Read_Value@F3086+1,CCP1_Capture_Mode_Read_Value@compare_temp_va
      +                          lue+1
  7010   0031F6                     
  7011                           ;MCAL_Layer/CCP/CCP1/hal_ccp1.c: 111:     if(((void*)0) == _capture_value){
  7012   0031F6  5012               	movf	CCP1_Capture_Mode_Read_Value@_capture_value^0,w,c
  7013   0031F8  1013               	iorwf	(CCP1_Capture_Mode_Read_Value@_capture_value+1)^0,w,c
  7014   0031FA  A4D8               	btfss	status,2,c
  7015   0031FC  EF02  F019         	goto	i1u478_21
  7016   003200  EF04  F019         	goto	i1u478_20
  7017   003204                     i1u478_21:
  7018   003204  EF06  F019         	goto	i1l1314
  7019   003208                     i1u478_20:
  7020   003208                     
  7021                           ;MCAL_Layer/CCP/CCP1/hal_ccp1.c: 113:     }
  7022   003208  EF12  F019         	goto	i1l1316
  7023   00320C                     i1l1314:
  7024                           
  7025                           ;MCAL_Layer/CCP/CCP1/hal_ccp1.c: 115:     {;MCAL_Layer/CCP/CCP1/hal_ccp1.c: 116:        
      +                           compare_temp_value.ccpr1_low = CCPR1L;
  7026   00320C  CFBE F014          	movff	4030,CCP1_Capture_Mode_Read_Value@compare_temp_value	;volatile
  7027                           
  7028                           ;MCAL_Layer/CCP/CCP1/hal_ccp1.c: 117:         compare_temp_value.ccpr1_high = CCPR1H;
  7029   003210  CFBF F015          	movff	4031,CCP1_Capture_Mode_Read_Value@compare_temp_value+1	;volatile
  7030   003214                     
  7031                           ;MCAL_Layer/CCP/CCP1/hal_ccp1.c: 118:         *_capture_value = compare_temp_value.ccpr1
      +                          _16Bit;
  7032   003214  C012  FFD9         	movff	CCP1_Capture_Mode_Read_Value@_capture_value,fsr2l
  7033   003218  C013  FFDA         	movff	CCP1_Capture_Mode_Read_Value@_capture_value+1,fsr2h
  7034   00321C  C014  FFDE         	movff	CCP1_Capture_Mode_Read_Value@compare_temp_value,postinc2
  7035   003220  C015  FFDD         	movff	CCP1_Capture_Mode_Read_Value@compare_temp_value+1,postdec2
  7036   003224                     i1l1316:
  7037   003224  0012               	return		;funcret
  7038   003226                     __end_of_CCP1_Capture_Mode_Read_Value:
  7039                           	callstack 0
  7040                           
  7041 ;; *************** function _ADC_ISR *****************
  7042 ;; Defined at:
  7043 ;;		line 348 in file "MCAL_Layer/ADC/hal_adc.c"
  7044 ;; Parameters:    Size  Location     Type
  7045 ;;		None
  7046 ;; Auto vars:     Size  Location     Type
  7047 ;;		None
  7048 ;; Return value:  Size  Location     Type
  7049 ;;                  1    wreg      void 
  7050 ;; Registers used:
  7051 ;;		None
  7052 ;; Tracked objects:
  7053 ;;		On entry : 0/0
  7054 ;;		On exit  : 0/0
  7055 ;;		Unchanged: 0/0
  7056 ;; Data sizes:     COMRAM   BANK0   BANK1   BANK2   BANK3   BANK4   BANK5   BANK6   BANK7   BANK8   BANK9  BANK10  BANK1
      +1  BANK12  BANK13  BANK14  BANK15
  7057 ;;      Params:         0       0       0       0       0       0       0       0       0       0       0       0       
      +0       0       0       0       0
  7058 ;;      Locals:         0       0       0       0       0       0       0       0       0       0       0       0       
      +0       0       0       0       0
  7059 ;;      Temps:          0       0       0       0       0       0       0       0       0       0       0       0       
      +0       0       0       0       0
  7060 ;;      Totals:         0       0       0       0       0       0       0       0       0       0       0       0       
      +0       0       0       0       0
  7061 ;;Total ram usage:        0 bytes
  7062 ;; Hardware stack levels used: 1
  7063 ;; Hardware stack levels required when called: 6
  7064 ;; This function calls:
  7065 ;;		Nothing
  7066 ;; This function is called by:
  7067 ;;		_InterruptCheck
  7068 ;; This function uses a non-reentrant model
  7069 ;;
  7070                           
  7071                           	psect	text43
  7072   0036D6                     __ptext43:
  7073                           	callstack 0
  7074   0036D6                     _ADC_ISR:
  7075                           	callstack 18
  7076   0036D6                     
  7077                           ;MCAL_Layer/ADC/hal_adc.c: 349:     (PIR1bits.ADIF = 0);
  7078   0036D6  9C9E               	bcf	158,6,c	;volatile
  7079   0036D8  0012               	return		;funcret
  7080   0036DA                     __end_of_ADC_ISR:
  7081                           	callstack 0
  7082                           
  7083 ;; *************** function _InterruptManagerHigh *****************
  7084 ;; Defined at:
  7085 ;;		line 16 in file "MCAL_Layer/Interrupt/mcal_interrupt_manager.c"
  7086 ;; Parameters:    Size  Location     Type
  7087 ;;		None
  7088 ;; Auto vars:     Size  Location     Type
  7089 ;;		None
  7090 ;; Return value:  Size  Location     Type
  7091 ;;                  1    wreg      void 
  7092 ;; Registers used:
  7093 ;;		wreg, fsr2l, fsr2h, status,2, status,0, pcl, pclath, pclatu, tosl, prodl, prodh, cstack
  7094 ;; Tracked objects:
  7095 ;;		On entry : 0/0
  7096 ;;		On exit  : 0/0
  7097 ;;		Unchanged: 0/0
  7098 ;; Data sizes:     COMRAM   BANK0   BANK1   BANK2   BANK3   BANK4   BANK5   BANK6   BANK7   BANK8   BANK9  BANK10  BANK1
      +1  BANK12  BANK13  BANK14  BANK15
  7099 ;;      Params:         0       0       0       0       0       0       0       0       0       0       0       0       
      +0       0       0       0       0
  7100 ;;      Locals:         0       0       0       0       0       0       0       0       0       0       0       0       
      +0       0       0       0       0
  7101 ;;      Temps:          6       0       0       0       0       0       0       0       0       0       0       0       
      +0       0       0       0       0
  7102 ;;      Totals:         6       0       0       0       0       0       0       0       0       0       0       0       
      +0       0       0       0       0
  7103 ;;Total ram usage:        6 bytes
  7104 ;; Hardware stack levels used: 1
  7105 ;; Hardware stack levels required when called: 5
  7106 ;; This function calls:
  7107 ;;		i2_InterruptCheck
  7108 ;; This function is called by:
  7109 ;;		Interrupt level 2
  7110 ;; This function uses a non-reentrant model
  7111 ;;
  7112                           
  7113                           	psect	intcode
  7114   000008                     __pintcode:
  7115                           	callstack 0
  7116   000008                     _InterruptManagerHigh:
  7117                           	callstack 15
  7118                           
  7119                           ;incstack = 0
  7120   000008  825A               	bsf	int$flags,1,c	;set compiler interrupt flag (level 2)
  7121   00000A  EDDA  F018         	call	int_func,f	;refresh shadow registers
  7122                           
  7123                           	psect	intcode_body
  7124   0031B4                     __pintcode_body:
  7125                           	callstack 15
  7126   0031B4                     int_func:
  7127                           	callstack 15
  7128   0031B4  0006               	pop		; remove dummy address from shadow register refresh
  7129   0031B6  CFFA F00C          	movff	pclath,??_InterruptManagerHigh
  7130   0031BA  CFFB F00D          	movff	pclatu,??_InterruptManagerHigh+1
  7131   0031BE  CFD9 F00E          	movff	fsr2l,??_InterruptManagerHigh+2
  7132   0031C2  CFDA F00F          	movff	fsr2h,??_InterruptManagerHigh+3
  7133   0031C6  CFF3 F010          	movff	prodl,??_InterruptManagerHigh+4
  7134   0031CA  CFF4 F011          	movff	prodh,??_InterruptManagerHigh+5
  7135   0031CE                     
  7136                           ;MCAL_Layer/Interrupt/mcal_interrupt_manager.c: 17:     InterruptCheck();
  7137   0031CE  ECEE  F010         	call	i2_InterruptCheck	;wreg free
  7138   0031D2  C011  FFF4         	movff	??_InterruptManagerHigh+5,prodh
  7139   0031D6  C010  FFF3         	movff	??_InterruptManagerHigh+4,prodl
  7140   0031DA  C00F  FFDA         	movff	??_InterruptManagerHigh+3,fsr2h
  7141   0031DE  C00E  FFD9         	movff	??_InterruptManagerHigh+2,fsr2l
  7142   0031E2  C00D  FFFB         	movff	??_InterruptManagerHigh+1,pclatu
  7143   0031E6  C00C  FFFA         	movff	??_InterruptManagerHigh,pclath
  7144   0031EA  925A               	bcf	int$flags,1,c	;clear compiler interrupt flag (level 2)
  7145   0031EC  0011               	retfie		f
  7146   0031EE                     __end_of_InterruptManagerHigh:
  7147                           	callstack 0
  7148                           
  7149 ;; *************** function i2_InterruptCheck *****************
  7150 ;; Defined at:
  7151 ;;		line 31 in file "MCAL_Layer/Interrupt/mcal_interrupt_manager.c"
  7152 ;; Parameters:    Size  Location     Type
  7153 ;;		None
  7154 ;; Auto vars:     Size  Location     Type
  7155 ;;		None
  7156 ;; Return value:  Size  Location     Type
  7157 ;;                  1    wreg      void 
  7158 ;; Registers used:
  7159 ;;		wreg, fsr2l, fsr2h, status,2, status,0, pcl, pclath, pclatu, tosl, prodl, prodh, cstack
  7160 ;; Tracked objects:
  7161 ;;		On entry : 0/0
  7162 ;;		On exit  : 0/0
  7163 ;;		Unchanged: 0/0
  7164 ;; Data sizes:     COMRAM   BANK0   BANK1   BANK2   BANK3   BANK4   BANK5   BANK6   BANK7   BANK8   BANK9  BANK10  BANK1
      +1  BANK12  BANK13  BANK14  BANK15
  7165 ;;      Params:         0       0       0       0       0       0       0       0       0       0       0       0       
      +0       0       0       0       0
  7166 ;;      Locals:         0       0       0       0       0       0       0       0       0       0       0       0       
      +0       0       0       0       0
  7167 ;;      Temps:          0       0       0       0       0       0       0       0       0       0       0       0       
      +0       0       0       0       0
  7168 ;;      Totals:         0       0       0       0       0       0       0       0       0       0       0       0       
      +0       0       0       0       0
  7169 ;;Total ram usage:        0 bytes
  7170 ;; Hardware stack levels used: 1
  7171 ;; Hardware stack levels required when called: 4
  7172 ;; This function calls:
  7173 ;;		i2_ADC_ISR
  7174 ;;		i2_CCP1_ISR
  7175 ;;		i2_CCP2_ISR
  7176 ;;		i2_EUSART_RX_ISR
  7177 ;;		i2_EUSART_TX_ISR
  7178 ;;		i2_INT0_ISR
  7179 ;;		i2_INT1_ISR
  7180 ;;		i2_INT2_ISR
  7181 ;;		i2_RB4_ISR
  7182 ;;		i2_RB5_ISR
  7183 ;;		i2_RB6_ISR
  7184 ;;		i2_RB7_ISR
  7185 ;;		i2_TMR1_ISR
  7186 ;;		i2_TMR2_ISR
  7187 ;;		i2_TMR3_ISR
  7188 ;;		i2_TMRO_ISR
  7189 ;; This function is called by:
  7190 ;;		_InterruptManagerHigh
  7191 ;; This function uses a non-reentrant model
  7192 ;;
  7193                           
  7194                           	psect	text45
  7195   0021DC                     __ptext45:
  7196                           	callstack 0
  7197   0021DC                     i2_InterruptCheck:
  7198                           	callstack 15
  7199   0021DC                     
  7200                           ;MCAL_Layer/Interrupt/mcal_interrupt_manager.c: 33:     if((1 == INTCONbits.INT0IE)&&(1 
      +                          == INTCONbits.INT0IF)){
  7201   0021DC  A8F2               	btfss	242,4,c	;volatile
  7202   0021DE  EFF3  F010         	goto	i2u678_41
  7203   0021E2  EFF5  F010         	goto	i2u678_40
  7204   0021E6                     i2u678_41:
  7205   0021E6  EFFE  F010         	goto	i2l603
  7206   0021EA                     i2u678_40:
  7207   0021EA  A2F2               	btfss	242,1,c	;volatile
  7208   0021EC  EFFA  F010         	goto	i2u679_41
  7209   0021F0  EFFC  F010         	goto	i2u679_40
  7210   0021F4                     i2u679_41:
  7211   0021F4  EFFE  F010         	goto	i2l603
  7212   0021F8                     i2u679_40:
  7213   0021F8                     
  7214                           ;MCAL_Layer/Interrupt/mcal_interrupt_manager.c: 34:         INT0_ISR();
  7215   0021F8  EC71  F01B         	call	i2_INT0_ISR	;wreg free
  7216   0021FC                     i2l603:
  7217                           
  7218                           ;MCAL_Layer/Interrupt/mcal_interrupt_manager.c: 38:     if((1 == INTCON3bits.INT1IE)&&(1
      +                           == INTCON3bits.INT1IF)){
  7219   0021FC  A6F0               	btfss	240,3,c	;volatile
  7220   0021FE  EF03  F011         	goto	i2u680_41
  7221   002202  EF05  F011         	goto	i2u680_40
  7222   002206                     i2u680_41:
  7223   002206  EF0E  F011         	goto	i2l605
  7224   00220A                     i2u680_40:
  7225   00220A  A0F0               	btfss	240,0,c	;volatile
  7226   00220C  EF0A  F011         	goto	i2u681_41
  7227   002210  EF0C  F011         	goto	i2u681_40
  7228   002214                     i2u681_41:
  7229   002214  EF0E  F011         	goto	i2l605
  7230   002218                     i2u681_40:
  7231   002218                     
  7232                           ;MCAL_Layer/Interrupt/mcal_interrupt_manager.c: 39:         INT1_ISR();
  7233   002218  EC6F  F01B         	call	i2_INT1_ISR	;wreg free
  7234   00221C                     i2l605:
  7235                           
  7236                           ;MCAL_Layer/Interrupt/mcal_interrupt_manager.c: 43:     if((1 == INTCON3bits.INT2IE)&&(1
      +                           == INTCON3bits.INT2IF)){
  7237   00221C  A8F0               	btfss	240,4,c	;volatile
  7238   00221E  EF13  F011         	goto	i2u682_41
  7239   002222  EF15  F011         	goto	i2u682_40
  7240   002226                     i2u682_41:
  7241   002226  EF1E  F011         	goto	i2l607
  7242   00222A                     i2u682_40:
  7243   00222A  A2F0               	btfss	240,1,c	;volatile
  7244   00222C  EF1A  F011         	goto	i2u683_41
  7245   002230  EF1C  F011         	goto	i2u683_40
  7246   002234                     i2u683_41:
  7247   002234  EF1E  F011         	goto	i2l607
  7248   002238                     i2u683_40:
  7249   002238                     
  7250                           ;MCAL_Layer/Interrupt/mcal_interrupt_manager.c: 44:         INT2_ISR();
  7251   002238  EC6D  F01B         	call	i2_INT2_ISR	;wreg free
  7252   00223C                     i2l607:
  7253                           
  7254                           ;MCAL_Layer/Interrupt/mcal_interrupt_manager.c: 49:     if((1 == INTCONbits.RBIE)&&(1 ==
      +                           INTCONbits.RBIF)&&(PORTBbits.RB4 == GPIO_HIGH) && (RB4_Flag ==1)){
  7255   00223C  A6F2               	btfss	242,3,c	;volatile
  7256   00223E  EF23  F011         	goto	i2u684_41
  7257   002242  EF25  F011         	goto	i2u684_40
  7258   002246                     i2u684_41:
  7259   002246  EF40  F011         	goto	i2l609
  7260   00224A                     i2u684_40:
  7261   00224A  A0F2               	btfss	242,0,c	;volatile
  7262   00224C  EF2A  F011         	goto	i2u685_41
  7263   002250  EF2C  F011         	goto	i2u685_40
  7264   002254                     i2u685_41:
  7265   002254  EF40  F011         	goto	i2l609
  7266   002258                     i2u685_40:
  7267   002258  A881               	btfss	129,4,c	;volatile
  7268   00225A  EF31  F011         	goto	i2u686_41
  7269   00225E  EF33  F011         	goto	i2u686_40
  7270   002262                     i2u686_41:
  7271   002262  EF40  F011         	goto	i2l609
  7272   002266                     i2u686_40:
  7273   002266  0458               	decf	_RB4_Flag^0,w,c	;volatile
  7274   002268  A4D8               	btfss	status,2,c
  7275   00226A  EF39  F011         	goto	i2u687_41
  7276   00226E  EF3B  F011         	goto	i2u687_40
  7277   002272                     i2u687_41:
  7278   002272  EF40  F011         	goto	i2l609
  7279   002276                     i2u687_40:
  7280   002276                     
  7281                           ;MCAL_Layer/Interrupt/mcal_interrupt_manager.c: 50:         RB4_Flag = 0;
  7282   002276  0E00               	movlw	0
  7283   002278  6E58               	movwf	_RB4_Flag^0,c	;volatile
  7284   00227A                     
  7285                           ;MCAL_Layer/Interrupt/mcal_interrupt_manager.c: 51:         RB4_ISR(1);
  7286   00227A  0E01               	movlw	1
  7287   00227C  EC0C  F01B         	call	i2_RB4_ISR
  7288   002280                     i2l609:
  7289                           
  7290                           ;MCAL_Layer/Interrupt/mcal_interrupt_manager.c: 54:     if((1 == INTCONbits.RBIE)&&(1 ==
      +                           INTCONbits.RBIF)&&(PORTBbits.RB4 == GPIO_LOW)&& (RB4_Flag ==0)){
  7291   002280  A6F2               	btfss	242,3,c	;volatile
  7292   002282  EF45  F011         	goto	i2u688_41
  7293   002286  EF47  F011         	goto	i2u688_40
  7294   00228A                     i2u688_41:
  7295   00228A  EF62  F011         	goto	i2l611
  7296   00228E                     i2u688_40:
  7297   00228E  A0F2               	btfss	242,0,c	;volatile
  7298   002290  EF4C  F011         	goto	i2u689_41
  7299   002294  EF4E  F011         	goto	i2u689_40
  7300   002298                     i2u689_41:
  7301   002298  EF62  F011         	goto	i2l611
  7302   00229C                     i2u689_40:
  7303   00229C  B881               	btfsc	129,4,c	;volatile
  7304   00229E  EF53  F011         	goto	i2u690_41
  7305   0022A2  EF55  F011         	goto	i2u690_40
  7306   0022A6                     i2u690_41:
  7307   0022A6  EF62  F011         	goto	i2l611
  7308   0022AA                     i2u690_40:
  7309   0022AA  5058               	movf	_RB4_Flag^0,w,c	;volatile
  7310   0022AC  A4D8               	btfss	status,2,c
  7311   0022AE  EF5B  F011         	goto	i2u691_41
  7312   0022B2  EF5D  F011         	goto	i2u691_40
  7313   0022B6                     i2u691_41:
  7314   0022B6  EF62  F011         	goto	i2l611
  7315   0022BA                     i2u691_40:
  7316   0022BA                     
  7317                           ;MCAL_Layer/Interrupt/mcal_interrupt_manager.c: 55:         RB4_Flag = 1;
  7318   0022BA  0E01               	movlw	1
  7319   0022BC  6E58               	movwf	_RB4_Flag^0,c	;volatile
  7320   0022BE                     
  7321                           ;MCAL_Layer/Interrupt/mcal_interrupt_manager.c: 56:         RB4_ISR(0);
  7322   0022BE  0E00               	movlw	0
  7323   0022C0  EC0C  F01B         	call	i2_RB4_ISR
  7324   0022C4                     i2l611:
  7325                           
  7326                           ;MCAL_Layer/Interrupt/mcal_interrupt_manager.c: 60:     if((1 == INTCONbits.RBIE)&&(1 ==
      +                           INTCONbits.RBIF)&&(PORTBbits.RB5 == GPIO_HIGH) && (RB5_Flag ==1)){
  7327   0022C4  A6F2               	btfss	242,3,c	;volatile
  7328   0022C6  EF67  F011         	goto	i2u692_41
  7329   0022CA  EF69  F011         	goto	i2u692_40
  7330   0022CE                     i2u692_41:
  7331   0022CE  EF84  F011         	goto	i2l613
  7332   0022D2                     i2u692_40:
  7333   0022D2  A0F2               	btfss	242,0,c	;volatile
  7334   0022D4  EF6E  F011         	goto	i2u693_41
  7335   0022D8  EF70  F011         	goto	i2u693_40
  7336   0022DC                     i2u693_41:
  7337   0022DC  EF84  F011         	goto	i2l613
  7338   0022E0                     i2u693_40:
  7339   0022E0  AA81               	btfss	129,5,c	;volatile
  7340   0022E2  EF75  F011         	goto	i2u694_41
  7341   0022E6  EF77  F011         	goto	i2u694_40
  7342   0022EA                     i2u694_41:
  7343   0022EA  EF84  F011         	goto	i2l613
  7344   0022EE                     i2u694_40:
  7345   0022EE  0457               	decf	_RB5_Flag^0,w,c	;volatile
  7346   0022F0  A4D8               	btfss	status,2,c
  7347   0022F2  EF7D  F011         	goto	i2u695_41
  7348   0022F6  EF7F  F011         	goto	i2u695_40
  7349   0022FA                     i2u695_41:
  7350   0022FA  EF84  F011         	goto	i2l613
  7351   0022FE                     i2u695_40:
  7352   0022FE                     
  7353                           ;MCAL_Layer/Interrupt/mcal_interrupt_manager.c: 61:         RB5_Flag = 0;
  7354   0022FE  0E00               	movlw	0
  7355   002300  6E57               	movwf	_RB5_Flag^0,c	;volatile
  7356   002302                     
  7357                           ;MCAL_Layer/Interrupt/mcal_interrupt_manager.c: 62:         RB5_ISR(1);
  7358   002302  0E01               	movlw	1
  7359   002304  ECFF  F01A         	call	i2_RB5_ISR
  7360   002308                     i2l613:
  7361                           
  7362                           ;MCAL_Layer/Interrupt/mcal_interrupt_manager.c: 65:     if((1 == INTCONbits.RBIE)&&(1 ==
      +                           INTCONbits.RBIF)&&(PORTBbits.RB5 == GPIO_LOW)&& (RB5_Flag ==0)){
  7363   002308  A6F2               	btfss	242,3,c	;volatile
  7364   00230A  EF89  F011         	goto	i2u696_41
  7365   00230E  EF8B  F011         	goto	i2u696_40
  7366   002312                     i2u696_41:
  7367   002312  EFA6  F011         	goto	i2l615
  7368   002316                     i2u696_40:
  7369   002316  A0F2               	btfss	242,0,c	;volatile
  7370   002318  EF90  F011         	goto	i2u697_41
  7371   00231C  EF92  F011         	goto	i2u697_40
  7372   002320                     i2u697_41:
  7373   002320  EFA6  F011         	goto	i2l615
  7374   002324                     i2u697_40:
  7375   002324  BA81               	btfsc	129,5,c	;volatile
  7376   002326  EF97  F011         	goto	i2u698_41
  7377   00232A  EF99  F011         	goto	i2u698_40
  7378   00232E                     i2u698_41:
  7379   00232E  EFA6  F011         	goto	i2l615
  7380   002332                     i2u698_40:
  7381   002332  5057               	movf	_RB5_Flag^0,w,c	;volatile
  7382   002334  A4D8               	btfss	status,2,c
  7383   002336  EF9F  F011         	goto	i2u699_41
  7384   00233A  EFA1  F011         	goto	i2u699_40
  7385   00233E                     i2u699_41:
  7386   00233E  EFA6  F011         	goto	i2l615
  7387   002342                     i2u699_40:
  7388   002342                     
  7389                           ;MCAL_Layer/Interrupt/mcal_interrupt_manager.c: 66:         RB5_Flag = 1;
  7390   002342  0E01               	movlw	1
  7391   002344  6E57               	movwf	_RB5_Flag^0,c	;volatile
  7392   002346                     
  7393                           ;MCAL_Layer/Interrupt/mcal_interrupt_manager.c: 67:         RB5_ISR(0);
  7394   002346  0E00               	movlw	0
  7395   002348  ECFF  F01A         	call	i2_RB5_ISR
  7396   00234C                     i2l615:
  7397                           
  7398                           ;MCAL_Layer/Interrupt/mcal_interrupt_manager.c: 71:     if((1 == INTCONbits.RBIE)&&(1 ==
      +                           INTCONbits.RBIF)&&(PORTBbits.RB6 == GPIO_HIGH) && (RB6_Flag ==1)){
  7399   00234C  A6F2               	btfss	242,3,c	;volatile
  7400   00234E  EFAB  F011         	goto	i2u700_41
  7401   002352  EFAD  F011         	goto	i2u700_40
  7402   002356                     i2u700_41:
  7403   002356  EFC8  F011         	goto	i2l617
  7404   00235A                     i2u700_40:
  7405   00235A  A0F2               	btfss	242,0,c	;volatile
  7406   00235C  EFB2  F011         	goto	i2u701_41
  7407   002360  EFB4  F011         	goto	i2u701_40
  7408   002364                     i2u701_41:
  7409   002364  EFC8  F011         	goto	i2l617
  7410   002368                     i2u701_40:
  7411   002368  AC81               	btfss	129,6,c	;volatile
  7412   00236A  EFB9  F011         	goto	i2u702_41
  7413   00236E  EFBB  F011         	goto	i2u702_40
  7414   002372                     i2u702_41:
  7415   002372  EFC8  F011         	goto	i2l617
  7416   002376                     i2u702_40:
  7417   002376  0456               	decf	_RB6_Flag^0,w,c	;volatile
  7418   002378  A4D8               	btfss	status,2,c
  7419   00237A  EFC1  F011         	goto	i2u703_41
  7420   00237E  EFC3  F011         	goto	i2u703_40
  7421   002382                     i2u703_41:
  7422   002382  EFC8  F011         	goto	i2l617
  7423   002386                     i2u703_40:
  7424   002386                     
  7425                           ;MCAL_Layer/Interrupt/mcal_interrupt_manager.c: 72:         RB6_Flag = 0;
  7426   002386  0E00               	movlw	0
  7427   002388  6E56               	movwf	_RB6_Flag^0,c	;volatile
  7428   00238A                     
  7429                           ;MCAL_Layer/Interrupt/mcal_interrupt_manager.c: 73:         RB6_ISR(1);
  7430   00238A  0E01               	movlw	1
  7431   00238C  ECF2  F01A         	call	i2_RB6_ISR
  7432   002390                     i2l617:
  7433                           
  7434                           ;MCAL_Layer/Interrupt/mcal_interrupt_manager.c: 76:     if((1 == INTCONbits.RBIE)&&(1 ==
      +                           INTCONbits.RBIF)&&(PORTBbits.RB6 == GPIO_LOW)&& (RB6_Flag ==0)){
  7435   002390  A6F2               	btfss	242,3,c	;volatile
  7436   002392  EFCD  F011         	goto	i2u704_41
  7437   002396  EFCF  F011         	goto	i2u704_40
  7438   00239A                     i2u704_41:
  7439   00239A  EFEA  F011         	goto	i2l619
  7440   00239E                     i2u704_40:
  7441   00239E  A0F2               	btfss	242,0,c	;volatile
  7442   0023A0  EFD4  F011         	goto	i2u705_41
  7443   0023A4  EFD6  F011         	goto	i2u705_40
  7444   0023A8                     i2u705_41:
  7445   0023A8  EFEA  F011         	goto	i2l619
  7446   0023AC                     i2u705_40:
  7447   0023AC  BC81               	btfsc	129,6,c	;volatile
  7448   0023AE  EFDB  F011         	goto	i2u706_41
  7449   0023B2  EFDD  F011         	goto	i2u706_40
  7450   0023B6                     i2u706_41:
  7451   0023B6  EFEA  F011         	goto	i2l619
  7452   0023BA                     i2u706_40:
  7453   0023BA  5056               	movf	_RB6_Flag^0,w,c	;volatile
  7454   0023BC  A4D8               	btfss	status,2,c
  7455   0023BE  EFE3  F011         	goto	i2u707_41
  7456   0023C2  EFE5  F011         	goto	i2u707_40
  7457   0023C6                     i2u707_41:
  7458   0023C6  EFEA  F011         	goto	i2l619
  7459   0023CA                     i2u707_40:
  7460   0023CA                     
  7461                           ;MCAL_Layer/Interrupt/mcal_interrupt_manager.c: 77:         RB6_Flag = 1;
  7462   0023CA  0E01               	movlw	1
  7463   0023CC  6E56               	movwf	_RB6_Flag^0,c	;volatile
  7464   0023CE                     
  7465                           ;MCAL_Layer/Interrupt/mcal_interrupt_manager.c: 78:         RB6_ISR(0);
  7466   0023CE  0E00               	movlw	0
  7467   0023D0  ECF2  F01A         	call	i2_RB6_ISR
  7468   0023D4                     i2l619:
  7469                           
  7470                           ;MCAL_Layer/Interrupt/mcal_interrupt_manager.c: 82:     if((1 == INTCONbits.RBIE)&&(1 ==
      +                           INTCONbits.RBIF)&&(PORTBbits.RB7 == GPIO_HIGH) && (RB7_Flag ==1)){
  7471   0023D4  A6F2               	btfss	242,3,c	;volatile
  7472   0023D6  EFEF  F011         	goto	i2u708_41
  7473   0023DA  EFF1  F011         	goto	i2u708_40
  7474   0023DE                     i2u708_41:
  7475   0023DE  EF0C  F012         	goto	i2l621
  7476   0023E2                     i2u708_40:
  7477   0023E2  A0F2               	btfss	242,0,c	;volatile
  7478   0023E4  EFF6  F011         	goto	i2u709_41
  7479   0023E8  EFF8  F011         	goto	i2u709_40
  7480   0023EC                     i2u709_41:
  7481   0023EC  EF0C  F012         	goto	i2l621
  7482   0023F0                     i2u709_40:
  7483   0023F0  AE81               	btfss	129,7,c	;volatile
  7484   0023F2  EFFD  F011         	goto	i2u710_41
  7485   0023F6  EFFF  F011         	goto	i2u710_40
  7486   0023FA                     i2u710_41:
  7487   0023FA  EF0C  F012         	goto	i2l621
  7488   0023FE                     i2u710_40:
  7489   0023FE  0455               	decf	_RB7_Flag^0,w,c	;volatile
  7490   002400  A4D8               	btfss	status,2,c
  7491   002402  EF05  F012         	goto	i2u711_41
  7492   002406  EF07  F012         	goto	i2u711_40
  7493   00240A                     i2u711_41:
  7494   00240A  EF0C  F012         	goto	i2l621
  7495   00240E                     i2u711_40:
  7496   00240E                     
  7497                           ;MCAL_Layer/Interrupt/mcal_interrupt_manager.c: 83:         RB7_Flag = 0;
  7498   00240E  0E00               	movlw	0
  7499   002410  6E55               	movwf	_RB7_Flag^0,c	;volatile
  7500   002412                     
  7501                           ;MCAL_Layer/Interrupt/mcal_interrupt_manager.c: 84:         RB7_ISR(1);
  7502   002412  0E01               	movlw	1
  7503   002414  ECE5  F01A         	call	i2_RB7_ISR
  7504   002418                     i2l621:
  7505                           
  7506                           ;MCAL_Layer/Interrupt/mcal_interrupt_manager.c: 87:     if((1 == INTCONbits.RBIE)&&(1 ==
      +                           INTCONbits.RBIF)&&(PORTBbits.RB7 == GPIO_LOW)&& (RB7_Flag ==0)){
  7507   002418  A6F2               	btfss	242,3,c	;volatile
  7508   00241A  EF11  F012         	goto	i2u712_41
  7509   00241E  EF13  F012         	goto	i2u712_40
  7510   002422                     i2u712_41:
  7511   002422  EF2E  F012         	goto	i2l623
  7512   002426                     i2u712_40:
  7513   002426  A0F2               	btfss	242,0,c	;volatile
  7514   002428  EF18  F012         	goto	i2u713_41
  7515   00242C  EF1A  F012         	goto	i2u713_40
  7516   002430                     i2u713_41:
  7517   002430  EF2E  F012         	goto	i2l623
  7518   002434                     i2u713_40:
  7519   002434  BE81               	btfsc	129,7,c	;volatile
  7520   002436  EF1F  F012         	goto	i2u714_41
  7521   00243A  EF21  F012         	goto	i2u714_40
  7522   00243E                     i2u714_41:
  7523   00243E  EF2E  F012         	goto	i2l623
  7524   002442                     i2u714_40:
  7525   002442  5055               	movf	_RB7_Flag^0,w,c	;volatile
  7526   002444  A4D8               	btfss	status,2,c
  7527   002446  EF27  F012         	goto	i2u715_41
  7528   00244A  EF29  F012         	goto	i2u715_40
  7529   00244E                     i2u715_41:
  7530   00244E  EF2E  F012         	goto	i2l623
  7531   002452                     i2u715_40:
  7532   002452                     
  7533                           ;MCAL_Layer/Interrupt/mcal_interrupt_manager.c: 88:         RB7_Flag = 1;
  7534   002452  0E01               	movlw	1
  7535   002454  6E55               	movwf	_RB7_Flag^0,c	;volatile
  7536   002456                     
  7537                           ;MCAL_Layer/Interrupt/mcal_interrupt_manager.c: 89:         RB7_ISR(0);
  7538   002456  0E00               	movlw	0
  7539   002458  ECE5  F01A         	call	i2_RB7_ISR
  7540   00245C                     i2l623:
  7541                           
  7542                           ;MCAL_Layer/Interrupt/mcal_interrupt_manager.c: 95:     if((1 == PIE1bits.ADIE)&&(1 == P
      +                          IR1bits.ADIF)){
  7543   00245C  AC9D               	btfss	157,6,c	;volatile
  7544   00245E  EF33  F012         	goto	i2u716_41
  7545   002462  EF35  F012         	goto	i2u716_40
  7546   002466                     i2u716_41:
  7547   002466  EF3E  F012         	goto	i2l625
  7548   00246A                     i2u716_40:
  7549   00246A  AC9E               	btfss	158,6,c	;volatile
  7550   00246C  EF3A  F012         	goto	i2u717_41
  7551   002470  EF3C  F012         	goto	i2u717_40
  7552   002474                     i2u717_41:
  7553   002474  EF3E  F012         	goto	i2l625
  7554   002478                     i2u717_40:
  7555   002478                     
  7556                           ;MCAL_Layer/Interrupt/mcal_interrupt_manager.c: 96:         ADC_ISR();
  7557   002478  EC75  F01B         	call	i2_ADC_ISR	;wreg free
  7558   00247C                     i2l625:
  7559                           
  7560                           ;MCAL_Layer/Interrupt/mcal_interrupt_manager.c: 102:     if((1 == INTCONbits.TMR0IE)&&(1
      +                           == INTCONbits.TMR0IF)){
  7561   00247C  AAF2               	btfss	242,5,c	;volatile
  7562   00247E  EF43  F012         	goto	i2u718_41
  7563   002482  EF45  F012         	goto	i2u718_40
  7564   002486                     i2u718_41:
  7565   002486  EF4E  F012         	goto	i2l627
  7566   00248A                     i2u718_40:
  7567   00248A  A4F2               	btfss	242,2,c	;volatile
  7568   00248C  EF4A  F012         	goto	i2u719_41
  7569   002490  EF4C  F012         	goto	i2u719_40
  7570   002494                     i2u719_41:
  7571   002494  EF4E  F012         	goto	i2l627
  7572   002498                     i2u719_40:
  7573   002498                     
  7574                           ;MCAL_Layer/Interrupt/mcal_interrupt_manager.c: 103:         TMRO_ISR();
  7575   002498  EC65  F019         	call	i2_TMRO_ISR	;wreg free
  7576   00249C                     i2l627:
  7577                           
  7578                           ;MCAL_Layer/Interrupt/mcal_interrupt_manager.c: 109:     if((1 == PIE1bits.TMR1IE)&&(1 =
      +                          = PIR1bits.TMR1IF)){
  7579   00249C  A09D               	btfss	157,0,c	;volatile
  7580   00249E  EF53  F012         	goto	i2u720_41
  7581   0024A2  EF55  F012         	goto	i2u720_40
  7582   0024A6                     i2u720_41:
  7583   0024A6  EF5E  F012         	goto	i2l629
  7584   0024AA                     i2u720_40:
  7585   0024AA  A09E               	btfss	158,0,c	;volatile
  7586   0024AC  EF5A  F012         	goto	i2u721_41
  7587   0024B0  EF5C  F012         	goto	i2u721_40
  7588   0024B4                     i2u721_41:
  7589   0024B4  EF5E  F012         	goto	i2l629
  7590   0024B8                     i2u721_40:
  7591   0024B8                     
  7592                           ;MCAL_Layer/Interrupt/mcal_interrupt_manager.c: 110:         TMR1_ISR();
  7593   0024B8  EC52  F01B         	call	i2_TMR1_ISR	;wreg free
  7594   0024BC                     i2l629:
  7595                           
  7596                           ;MCAL_Layer/Interrupt/mcal_interrupt_manager.c: 116:     if((1 == PIE1bits.TMR2IE)&&(1 =
      +                          = PIR1bits.TMR2IF)){
  7597   0024BC  A29D               	btfss	157,1,c	;volatile
  7598   0024BE  EF63  F012         	goto	i2u722_41
  7599   0024C2  EF65  F012         	goto	i2u722_40
  7600   0024C6                     i2u722_41:
  7601   0024C6  EF6E  F012         	goto	i2l631
  7602   0024CA                     i2u722_40:
  7603   0024CA  A29E               	btfss	158,1,c	;volatile
  7604   0024CC  EF6A  F012         	goto	i2u723_41
  7605   0024D0  EF6C  F012         	goto	i2u723_40
  7606   0024D4                     i2u723_41:
  7607   0024D4  EF6E  F012         	goto	i2l631
  7608   0024D8                     i2u723_40:
  7609   0024D8                     
  7610                           ;MCAL_Layer/Interrupt/mcal_interrupt_manager.c: 117:         TMR2_ISR();
  7611   0024D8  EC5C  F01B         	call	i2_TMR2_ISR	;wreg free
  7612   0024DC                     i2l631:
  7613                           
  7614                           ;MCAL_Layer/Interrupt/mcal_interrupt_manager.c: 123:     if((1 == PIE2bits.TMR3IE)&&(1 =
      +                          = PIR2bits.TMR3IF)){
  7615   0024DC  A2A0               	btfss	160,1,c	;volatile
  7616   0024DE  EF73  F012         	goto	i2u724_41
  7617   0024E2  EF75  F012         	goto	i2u724_40
  7618   0024E6                     i2u724_41:
  7619   0024E6  EF7E  F012         	goto	i2l633
  7620   0024EA                     i2u724_40:
  7621   0024EA  A2A1               	btfss	161,1,c	;volatile
  7622   0024EC  EF7A  F012         	goto	i2u725_41
  7623   0024F0  EF7C  F012         	goto	i2u725_40
  7624   0024F4                     i2u725_41:
  7625   0024F4  EF7E  F012         	goto	i2l633
  7626   0024F8                     i2u725_40:
  7627   0024F8                     
  7628                           ;MCAL_Layer/Interrupt/mcal_interrupt_manager.c: 124:         TMR3_ISR();
  7629   0024F8  EC80  F019         	call	i2_TMR3_ISR	;wreg free
  7630   0024FC                     i2l633:
  7631                           
  7632                           ;MCAL_Layer/Interrupt/mcal_interrupt_manager.c: 130:     if((1 == PIE1bits.CCP1IE )&&(1 
      +                          == PIR1bits.CCP1IF )){
  7633   0024FC  A49D               	btfss	157,2,c	;volatile
  7634   0024FE  EF83  F012         	goto	i2u726_41
  7635   002502  EF85  F012         	goto	i2u726_40
  7636   002506                     i2u726_41:
  7637   002506  EF8E  F012         	goto	i2l635
  7638   00250A                     i2u726_40:
  7639   00250A  A49E               	btfss	158,2,c	;volatile
  7640   00250C  EF8A  F012         	goto	i2u727_41
  7641   002510  EF8C  F012         	goto	i2u727_40
  7642   002514                     i2u727_41:
  7643   002514  EF8E  F012         	goto	i2l635
  7644   002518                     i2u727_40:
  7645   002518                     
  7646                           ;MCAL_Layer/Interrupt/mcal_interrupt_manager.c: 131:         CCP1_ISR();
  7647   002518  EC2A  F01A         	call	i2_CCP1_ISR	;wreg free
  7648   00251C                     i2l635:
  7649                           
  7650                           ;MCAL_Layer/Interrupt/mcal_interrupt_manager.c: 137:     if((1 == PIE2bits.CCP2IE )&&(1 
      +                          == PIR2bits.CCP2IF )){
  7651   00251C  A0A0               	btfss	160,0,c	;volatile
  7652   00251E  EF93  F012         	goto	i2u728_41
  7653   002522  EF95  F012         	goto	i2u728_40
  7654   002526                     i2u728_41:
  7655   002526  EF9E  F012         	goto	i2l637
  7656   00252A                     i2u728_40:
  7657   00252A  A0A1               	btfss	161,0,c	;volatile
  7658   00252C  EF9A  F012         	goto	i2u729_41
  7659   002530  EF9C  F012         	goto	i2u729_40
  7660   002534                     i2u729_41:
  7661   002534  EF9E  F012         	goto	i2l637
  7662   002538                     i2u729_40:
  7663   002538                     
  7664                           ;MCAL_Layer/Interrupt/mcal_interrupt_manager.c: 138:         CCP2_ISR();
  7665   002538  EC73  F01B         	call	i2_CCP2_ISR	;wreg free
  7666   00253C                     i2l637:
  7667                           
  7668                           ;MCAL_Layer/Interrupt/mcal_interrupt_manager.c: 144:     if((1 == PIE1bits.TXIE )&&(1 ==
      +                           PIR1bits.TXIF )){
  7669   00253C  A89D               	btfss	157,4,c	;volatile
  7670   00253E  EFA3  F012         	goto	i2u730_41
  7671   002542  EFA5  F012         	goto	i2u730_40
  7672   002546                     i2u730_41:
  7673   002546  EFAE  F012         	goto	i2l639
  7674   00254A                     i2u730_40:
  7675   00254A  A89E               	btfss	158,4,c	;volatile
  7676   00254C  EFAA  F012         	goto	i2u731_41
  7677   002550  EFAC  F012         	goto	i2u731_40
  7678   002554                     i2u731_41:
  7679   002554  EFAE  F012         	goto	i2l639
  7680   002558                     i2u731_40:
  7681   002558                     
  7682                           ;MCAL_Layer/Interrupt/mcal_interrupt_manager.c: 145:         EUSART_TX_ISR();
  7683   002558  EC13  F01A         	call	i2_EUSART_TX_ISR	;wreg free
  7684   00255C                     i2l639:
  7685                           
  7686                           ;MCAL_Layer/Interrupt/mcal_interrupt_manager.c: 151:     if((1 == PIE1bits.RCIE )&&(1 ==
      +                           PIR1bits.RCIF )){
  7687   00255C  AA9D               	btfss	157,5,c	;volatile
  7688   00255E  EFB3  F012         	goto	i2u732_41
  7689   002562  EFB5  F012         	goto	i2u732_40
  7690   002566                     i2u732_41:
  7691   002566  EFBE  F012         	goto	i2l642
  7692   00256A                     i2u732_40:
  7693   00256A  AA9E               	btfss	158,5,c	;volatile
  7694   00256C  EFBA  F012         	goto	i2u733_41
  7695   002570  EFBC  F012         	goto	i2u733_40
  7696   002574                     i2u733_41:
  7697   002574  EFBE  F012         	goto	i2l642
  7698   002578                     i2u733_40:
  7699   002578                     
  7700                           ;MCAL_Layer/Interrupt/mcal_interrupt_manager.c: 152:         EUSART_RX_ISR();
  7701   002578  EC78  F01B         	call	i2_EUSART_RX_ISR	;wreg free
  7702   00257C                     i2l642:
  7703   00257C  0012               	return		;funcret
  7704   00257E                     __end_ofi2_InterruptCheck:
  7705                           	callstack 0
  7706                           
  7707 ;; *************** function i2_TMRO_ISR *****************
  7708 ;; Defined at:
  7709 ;;		line 134 in file "MCAL_Layer/Timer/Timer0/hal_timer0.c"
  7710 ;; Parameters:    Size  Location     Type
  7711 ;;		None
  7712 ;; Auto vars:     Size  Location     Type
  7713 ;;		None
  7714 ;; Return value:  Size  Location     Type
  7715 ;;                  1    wreg      void 
  7716 ;; Registers used:
  7717 ;;		wreg, fsr2l, fsr2h, status,2, status,0, pcl, pclath, pclatu, tosl, cstack
  7718 ;; Tracked objects:
  7719 ;;		On entry : 0/0
  7720 ;;		On exit  : 0/0
  7721 ;;		Unchanged: 0/0
  7722 ;; Data sizes:     COMRAM   BANK0   BANK1   BANK2   BANK3   BANK4   BANK5   BANK6   BANK7   BANK8   BANK9  BANK10  BANK1
      +1  BANK12  BANK13  BANK14  BANK15
  7723 ;;      Params:         0       0       0       0       0       0       0       0       0       0       0       0       
      +0       0       0       0       0
  7724 ;;      Locals:         0       0       0       0       0       0       0       0       0       0       0       0       
      +0       0       0       0       0
  7725 ;;      Temps:          0       0       0       0       0       0       0       0       0       0       0       0       
      +0       0       0       0       0
  7726 ;;      Totals:         0       0       0       0       0       0       0       0       0       0       0       0       
      +0       0       0       0       0
  7727 ;;Total ram usage:        0 bytes
  7728 ;; Hardware stack levels used: 1
  7729 ;; Hardware stack levels required when called: 2
  7730 ;; This function calls:
  7731 ;;		NULL
  7732 ;;		i2_timer0_interruptHundler
  7733 ;; This function is called by:
  7734 ;;		i2_InterruptCheck
  7735 ;; This function uses a non-reentrant model
  7736 ;;
  7737                           
  7738                           	psect	text46
  7739   0032CA                     __ptext46:
  7740                           	callstack 0
  7741   0032CA                     i2_TMRO_ISR:
  7742                           	callstack 16
  7743   0032CA                     
  7744                           ;MCAL_Layer/Timer/Timer0/hal_timer0.c: 135:     (INTCONbits.TMR0IF = 0);
  7745   0032CA  94F2               	bcf	242,2,c	;volatile
  7746   0032CC                     
  7747                           ;MCAL_Layer/Timer/Timer0/hal_timer0.c: 136:     TMR0H = timer0_preload >>8;
  7748   0032CC  5041               	movf	(_timer0_preload+1)^0,w,c
  7749   0032CE  6ED7               	movwf	215,c	;volatile
  7750   0032D0                     
  7751                           ;MCAL_Layer/Timer/Timer0/hal_timer0.c: 137:     TMR0L = (uint8)timer0_preload;
  7752   0032D0  C040  FFD6         	movff	_timer0_preload,4054	;volatile
  7753   0032D4                     
  7754                           ;MCAL_Layer/Timer/Timer0/hal_timer0.c: 138:     if(TMR0_InterruptHandler){
  7755   0032D4  5042               	movf	_TMR0_InterruptHandler^0,w,c
  7756   0032D6  1043               	iorwf	(_TMR0_InterruptHandler+1)^0,w,c
  7757   0032D8  B4D8               	btfsc	status,2,c
  7758   0032DA  EF71  F019         	goto	i2u603_41
  7759   0032DE  EF73  F019         	goto	i2u603_40
  7760   0032E2                     i2u603_41:
  7761   0032E2  EF7F  F019         	goto	i2l969
  7762   0032E6                     i2u603_40:
  7763   0032E6                     
  7764                           ;MCAL_Layer/Timer/Timer0/hal_timer0.c: 139:         TMR0_InterruptHandler();
  7765   0032E6  D802               	call	i2u604_48
  7766   0032E8  EF7F  F019         	goto	i2u604_49
  7767   0032EC                     i2u604_48:
  7768   0032EC  0005               	push	
  7769   0032EE  6EFA               	movwf	pclath,c
  7770   0032F0  5042               	movf	_TMR0_InterruptHandler^0,w,c
  7771   0032F2  6EFD               	movwf	tosl,c
  7772   0032F4  5043               	movf	(_TMR0_InterruptHandler+1)^0,w,c
  7773   0032F6  6EFE               	movwf	tosh,c
  7774   0032F8  6AFF               	clrf	tosu,c
  7775   0032FA  50FA               	movf	pclath,w,c
  7776   0032FC  0012               	return		;indir
  7777   0032FE                     i2u604_49:
  7778   0032FE                     i2l969:
  7779   0032FE  0012               	return		;funcret
  7780   003300                     __end_ofi2_TMRO_ISR:
  7781                           	callstack 0
  7782                           
  7783 ;; *************** function i2_timer0_interruptHundler *****************
  7784 ;; Defined at:
  7785 ;;		line 130 in file "application.c"
  7786 ;; Parameters:    Size  Location     Type
  7787 ;;		None
  7788 ;; Auto vars:     Size  Location     Type
  7789 ;;		None
  7790 ;; Return value:  Size  Location     Type
  7791 ;;                  1    wreg      void 
  7792 ;; Registers used:
  7793 ;;		wreg, fsr2l, fsr2h, status,2, status,0, cstack
  7794 ;; Tracked objects:
  7795 ;;		On entry : 0/0
  7796 ;;		On exit  : 0/0
  7797 ;;		Unchanged: 0/0
  7798 ;; Data sizes:     COMRAM   BANK0   BANK1   BANK2   BANK3   BANK4   BANK5   BANK6   BANK7   BANK8   BANK9  BANK10  BANK1
      +1  BANK12  BANK13  BANK14  BANK15
  7799 ;;      Params:         0       0       0       0       0       0       0       0       0       0       0       0       
      +0       0       0       0       0
  7800 ;;      Locals:         0       0       0       0       0       0       0       0       0       0       0       0       
      +0       0       0       0       0
  7801 ;;      Temps:          0       0       0       0       0       0       0       0       0       0       0       0       
      +0       0       0       0       0
  7802 ;;      Totals:         0       0       0       0       0       0       0       0       0       0       0       0       
      +0       0       0       0       0
  7803 ;;Total ram usage:        0 bytes
  7804 ;; Hardware stack levels used: 1
  7805 ;; Hardware stack levels required when called: 1
  7806 ;; This function calls:
  7807 ;;		i2_Timer1_Read_value
  7808 ;;		i2_Timer1_Write_value
  7809 ;; This function is called by:
  7810 ;; This function uses a non-reentrant model
  7811 ;;
  7812                           
  7813                           	psect	text47
  7814   003482                     __ptext47:
  7815                           	callstack 0
  7816   003482                     i2_timer0_interruptHundler:
  7817                           	callstack 16
  7818   003482                     
  7819                           ;application.c: 131:     Timer1_Read_value(&timer1,&timer1_count);
  7820   003482  0EE8               	movlw	low _timer1
  7821   003484  6E01               	movwf	i2Timer1_Read_value@_timer^0,c
  7822   003486  0E00               	movlw	high _timer1
  7823   003488  6E02               	movwf	(i2Timer1_Read_value@_timer+1)^0,c
  7824   00348A  0E53               	movlw	low _timer1_count
  7825   00348C  6E03               	movwf	i2Timer1_Read_value@_value^0,c
  7826   00348E  0E00               	movlw	high _timer1_count
  7827   003490  6E04               	movwf	(i2Timer1_Read_value@_value+1)^0,c
  7828   003492  EC32  F018         	call	i2_Timer1_Read_value	;wreg free
  7829   003496                     
  7830                           ;application.c: 132:     Timer1_Write_value(&timer1,0);
  7831   003496  0EE8               	movlw	low _timer1
  7832   003498  6E01               	movwf	i2Timer1_Write_value@_timer^0,c
  7833   00349A  0E00               	movlw	high _timer1
  7834   00349C  6E02               	movwf	(i2Timer1_Write_value@_timer+1)^0,c
  7835   00349E  0E00               	movlw	0
  7836   0034A0  6E04               	movwf	(i2Timer1_Write_value@_value+1)^0,c
  7837   0034A2  0E00               	movlw	0
  7838   0034A4  6E03               	movwf	i2Timer1_Write_value@_value^0,c
  7839   0034A6  EC76  F01A         	call	i2_Timer1_Write_value	;wreg free
  7840   0034AA  0012               	return		;funcret
  7841   0034AC                     __end_ofi2_timer0_interruptHundler:
  7842                           	callstack 0
  7843                           
  7844 ;; *************** function i2_Timer1_Write_value *****************
  7845 ;; Defined at:
  7846 ;;		line 95 in file "MCAL_Layer/Timer/Timer1/hal_timer1.c"
  7847 ;; Parameters:    Size  Location     Type
  7848 ;;  _timer          2    0[COMRAM] PTR const struct .
  7849 ;;		 -> timer1(6), 
  7850 ;;  _value          2    2[COMRAM] unsigned short 
  7851 ;; Auto vars:     Size  Location     Type
  7852 ;;  ret             1    0        unsigned char 
  7853 ;; Return value:  Size  Location     Type
  7854 ;;                  1    wreg      unsigned char 
  7855 ;; Registers used:
  7856 ;;		wreg, status,2, status,0
  7857 ;; Tracked objects:
  7858 ;;		On entry : 0/0
  7859 ;;		On exit  : 0/0
  7860 ;;		Unchanged: 0/0
  7861 ;; Data sizes:     COMRAM   BANK0   BANK1   BANK2   BANK3   BANK4   BANK5   BANK6   BANK7   BANK8   BANK9  BANK10  BANK1
      +1  BANK12  BANK13  BANK14  BANK15
  7862 ;;      Params:         4       0       0       0       0       0       0       0       0       0       0       0       
      +0       0       0       0       0
  7863 ;;      Locals:         0       0       0       0       0       0       0       0       0       0       0       0       
      +0       0       0       0       0
  7864 ;;      Temps:          0       0       0       0       0       0       0       0       0       0       0       0       
      +0       0       0       0       0
  7865 ;;      Totals:         4       0       0       0       0       0       0       0       0       0       0       0       
      +0       0       0       0       0
  7866 ;;Total ram usage:        4 bytes
  7867 ;; Hardware stack levels used: 1
  7868 ;; This function calls:
  7869 ;;		Nothing
  7870 ;; This function is called by:
  7871 ;;		i2_timer0_interruptHundler
  7872 ;; This function uses a non-reentrant model
  7873 ;;
  7874                           
  7875                           	psect	text48
  7876   0034EC                     __ptext48:
  7877                           	callstack 0
  7878   0034EC                     i2_Timer1_Write_value:
  7879                           	callstack 16
  7880   0034EC                     
  7881                           ;MCAL_Layer/Timer/Timer1/hal_timer1.c: 97:     if(((void*)0) == _timer){
  7882   0034EC  5001               	movf	i2Timer1_Write_value@_timer^0,w,c
  7883   0034EE  1002               	iorwf	(i2Timer1_Write_value@_timer+1)^0,w,c
  7884   0034F0  A4D8               	btfss	status,2,c
  7885   0034F2  EF7D  F01A         	goto	i2u560_41
  7886   0034F6  EF7F  F01A         	goto	i2u560_40
  7887   0034FA                     i2u560_41:
  7888   0034FA  EF81  F01A         	goto	i2l5899
  7889   0034FE                     i2u560_40:
  7890   0034FE                     
  7891                           ;MCAL_Layer/Timer/Timer1/hal_timer1.c: 99:     }
  7892   0034FE  EF85  F01A         	goto	i2l1035
  7893   003502                     i2l5899:
  7894                           
  7895                           ;MCAL_Layer/Timer/Timer1/hal_timer1.c: 101:     {;MCAL_Layer/Timer/Timer1/hal_timer1.c: 
      +                          102:         TMR1H = (_value) >>8;
  7896   003502  5004               	movf	(i2Timer1_Write_value@_value+1)^0,w,c
  7897   003504  6ECF               	movwf	207,c	;volatile
  7898   003506                     
  7899                           ;MCAL_Layer/Timer/Timer1/hal_timer1.c: 103:         TMR1L = (uint8)(_value);
  7900   003506  C003  FFCE         	movff	i2Timer1_Write_value@_value,4046	;volatile
  7901   00350A                     i2l1035:
  7902   00350A  0012               	return		;funcret
  7903   00350C                     __end_ofi2_Timer1_Write_value:
  7904                           	callstack 0
  7905                           
  7906 ;; *************** function i2_Timer1_Read_value *****************
  7907 ;; Defined at:
  7908 ;;		line 117 in file "MCAL_Layer/Timer/Timer1/hal_timer1.c"
  7909 ;; Parameters:    Size  Location     Type
  7910 ;;  _timer          2    0[COMRAM] PTR const struct .
  7911 ;;		 -> timer1(6), 
  7912 ;;  _value          2    2[COMRAM] PTR unsigned short 
  7913 ;;		 -> timer1_count(1), 
  7914 ;; Auto vars:     Size  Location     Type
  7915 ;;  tmr1h           1    7[COMRAM] unsigned char 
  7916 ;;  tmr1l           1    6[COMRAM] unsigned char 
  7917 ;;  ret             1    0        unsigned char 
  7918 ;; Return value:  Size  Location     Type
  7919 ;;                  1    wreg      unsigned char 
  7920 ;; Registers used:
  7921 ;;		wreg, fsr2l, fsr2h, status,2, status,0
  7922 ;; Tracked objects:
  7923 ;;		On entry : 0/0
  7924 ;;		On exit  : 0/0
  7925 ;;		Unchanged: 0/0
  7926 ;; Data sizes:     COMRAM   BANK0   BANK1   BANK2   BANK3   BANK4   BANK5   BANK6   BANK7   BANK8   BANK9  BANK10  BANK1
      +1  BANK12  BANK13  BANK14  BANK15
  7927 ;;      Params:         4       0       0       0       0       0       0       0       0       0       0       0       
      +0       0       0       0       0
  7928 ;;      Locals:         2       0       0       0       0       0       0       0       0       0       0       0       
      +0       0       0       0       0
  7929 ;;      Temps:          2       0       0       0       0       0       0       0       0       0       0       0       
      +0       0       0       0       0
  7930 ;;      Totals:         8       0       0       0       0       0       0       0       0       0       0       0       
      +0       0       0       0       0
  7931 ;;Total ram usage:        8 bytes
  7932 ;; Hardware stack levels used: 1
  7933 ;; This function calls:
  7934 ;;		Nothing
  7935 ;; This function is called by:
  7936 ;;		i2_timer0_interruptHundler
  7937 ;; This function uses a non-reentrant model
  7938 ;;
  7939                           
  7940                           	psect	text49
  7941   003064                     __ptext49:
  7942                           	callstack 0
  7943   003064                     i2_Timer1_Read_value:
  7944                           	callstack 16
  7945   003064                     
  7946                           ;MCAL_Layer/Timer/Timer1/hal_timer1.c: 119:     uint8 tmr1l = 0;
  7947   003064  0E00               	movlw	0
  7948   003066  6E07               	movwf	i2Timer1_Read_value@tmr1l^0,c
  7949                           
  7950                           ;MCAL_Layer/Timer/Timer1/hal_timer1.c: 120:     uint8 tmr1h = 0;
  7951   003068  0E00               	movlw	0
  7952   00306A  6E08               	movwf	i2Timer1_Read_value@tmr1h^0,c
  7953   00306C                     
  7954                           ;MCAL_Layer/Timer/Timer1/hal_timer1.c: 121:     if(((void*)0) == _timer || ((void*)0) ==
      +                           _value){
  7955   00306C  5001               	movf	i2Timer1_Read_value@_timer^0,w,c
  7956   00306E  1002               	iorwf	(i2Timer1_Read_value@_timer+1)^0,w,c
  7957   003070  B4D8               	btfsc	status,2,c
  7958   003072  EF3D  F018         	goto	i2u561_41
  7959   003076  EF3F  F018         	goto	i2u561_40
  7960   00307A                     i2u561_41:
  7961   00307A  EF48  F018         	goto	i2l5911
  7962   00307E                     i2u561_40:
  7963   00307E  5003               	movf	i2Timer1_Read_value@_value^0,w,c
  7964   003080  1004               	iorwf	(i2Timer1_Read_value@_value+1)^0,w,c
  7965   003082  A4D8               	btfss	status,2,c
  7966   003084  EF46  F018         	goto	i2u562_41
  7967   003088  EF48  F018         	goto	i2u562_40
  7968   00308C                     i2u562_41:
  7969   00308C  EF4A  F018         	goto	i2l1038
  7970   003090                     i2u562_40:
  7971   003090                     i2l5911:
  7972                           
  7973                           ;MCAL_Layer/Timer/Timer1/hal_timer1.c: 123:     }
  7974   003090  EF60  F018         	goto	i2l1042
  7975   003094                     i2l1038:
  7976                           
  7977                           ;MCAL_Layer/Timer/Timer1/hal_timer1.c: 125:     {;MCAL_Layer/Timer/Timer1/hal_timer1.c: 
      +                          126:         tmr1l = TMR1L;
  7978   003094  CFCE F007          	movff	4046,i2Timer1_Read_value@tmr1l	;volatile
  7979                           
  7980                           ;MCAL_Layer/Timer/Timer1/hal_timer1.c: 127:         tmr1h = TMR1H;
  7981   003098  CFCF F008          	movff	4047,i2Timer1_Read_value@tmr1h	;volatile
  7982   00309C                     
  7983                           ;MCAL_Layer/Timer/Timer1/hal_timer1.c: 128:         *_value = (uint16)((256 * tmr1h) + t
      +                          mr1l);
  7984   00309C  5007               	movf	i2Timer1_Read_value@tmr1l^0,w,c
  7985   00309E  C008  F005         	movff	i2Timer1_Read_value@tmr1h,??i2_Timer1_Read_value
  7986   0030A2  6A06               	clrf	(??i2_Timer1_Read_value+1)^0,c
  7987   0030A4  C005  F006         	movff	??i2_Timer1_Read_value,??i2_Timer1_Read_value+1
  7988   0030A8  6A05               	clrf	??i2_Timer1_Read_value^0,c
  7989   0030AA  2605               	addwf	??i2_Timer1_Read_value^0,f,c
  7990   0030AC  0E00               	movlw	0
  7991   0030AE  2206               	addwfc	(??i2_Timer1_Read_value+1)^0,f,c
  7992   0030B0  C003  FFD9         	movff	i2Timer1_Read_value@_value,fsr2l
  7993   0030B4  C004  FFDA         	movff	i2Timer1_Read_value@_value+1,fsr2h
  7994   0030B8  C005  FFDE         	movff	??i2_Timer1_Read_value,postinc2
  7995   0030BC  C006  FFDD         	movff	??i2_Timer1_Read_value+1,postdec2
  7996   0030C0                     i2l1042:
  7997   0030C0  0012               	return		;funcret
  7998   0030C2                     __end_ofi2_Timer1_Read_value:
  7999                           	callstack 0
  8000                           
  8001 ;; *************** function i2_TMR3_ISR *****************
  8002 ;; Defined at:
  8003 ;;		line 137 in file "MCAL_Layer/Timer/Timer3/hal_timer3.c"
  8004 ;; Parameters:    Size  Location     Type
  8005 ;;		None
  8006 ;; Auto vars:     Size  Location     Type
  8007 ;;		None
  8008 ;; Return value:  Size  Location     Type
  8009 ;;                  1    wreg      void 
  8010 ;; Registers used:
  8011 ;;		wreg, status,2, status,0, pcl, pclath, pclatu, tosl, cstack
  8012 ;; Tracked objects:
  8013 ;;		On entry : 0/0
  8014 ;;		On exit  : 0/0
  8015 ;;		Unchanged: 0/0
  8016 ;; Data sizes:     COMRAM   BANK0   BANK1   BANK2   BANK3   BANK4   BANK5   BANK6   BANK7   BANK8   BANK9  BANK10  BANK1
      +1  BANK12  BANK13  BANK14  BANK15
  8017 ;;      Params:         0       0       0       0       0       0       0       0       0       0       0       0       
      +0       0       0       0       0
  8018 ;;      Locals:         0       0       0       0       0       0       0       0       0       0       0       0       
      +0       0       0       0       0
  8019 ;;      Temps:          0       0       0       0       0       0       0       0       0       0       0       0       
      +0       0       0       0       0
  8020 ;;      Totals:         0       0       0       0       0       0       0       0       0       0       0       0       
      +0       0       0       0       0
  8021 ;;Total ram usage:        0 bytes
  8022 ;; Hardware stack levels used: 1
  8023 ;; Hardware stack levels required when called: 1
  8024 ;; This function calls:
  8025 ;;		NULL
  8026 ;;		i2_timer3_interruptHundler
  8027 ;; This function is called by:
  8028 ;;		i2_InterruptCheck
  8029 ;; This function uses a non-reentrant model
  8030 ;;
  8031                           
  8032                           	psect	text50
  8033   003300                     __ptext50:
  8034                           	callstack 0
  8035   003300                     i2_TMR3_ISR:
  8036                           	callstack 17
  8037   003300                     
  8038                           ;MCAL_Layer/Timer/Timer3/hal_timer3.c: 138:     (PIR2bits.TMR3IF = 0);
  8039   003300  92A1               	bcf	161,1,c	;volatile
  8040   003302                     
  8041                           ;MCAL_Layer/Timer/Timer3/hal_timer3.c: 139:     TMR3H = timer3_preload >>8;
  8042   003302  503B               	movf	(_timer3_preload+1)^0,w,c
  8043   003304  6EB3               	movwf	179,c	;volatile
  8044   003306                     
  8045                           ;MCAL_Layer/Timer/Timer3/hal_timer3.c: 140:     TMR3L = (uint8)timer3_preload;
  8046   003306  C03A  FFB2         	movff	_timer3_preload,4018	;volatile
  8047   00330A                     
  8048                           ;MCAL_Layer/Timer/Timer3/hal_timer3.c: 141:     if(TMR3_InterruptHandler){
  8049   00330A  503C               	movf	_TMR3_InterruptHandler^0,w,c
  8050   00330C  103D               	iorwf	(_TMR3_InterruptHandler+1)^0,w,c
  8051   00330E  B4D8               	btfsc	status,2,c
  8052   003310  EF8C  F019         	goto	i2u605_41
  8053   003314  EF8E  F019         	goto	i2u605_40
  8054   003318                     i2u605_41:
  8055   003318  EF9A  F019         	goto	i2l1253
  8056   00331C                     i2u605_40:
  8057   00331C                     
  8058                           ;MCAL_Layer/Timer/Timer3/hal_timer3.c: 142:         TMR3_InterruptHandler();
  8059   00331C  D802               	call	i2u606_48
  8060   00331E  EF9A  F019         	goto	i2u606_49
  8061   003322                     i2u606_48:
  8062   003322  0005               	push	
  8063   003324  6EFA               	movwf	pclath,c
  8064   003326  503C               	movf	_TMR3_InterruptHandler^0,w,c
  8065   003328  6EFD               	movwf	tosl,c
  8066   00332A  503D               	movf	(_TMR3_InterruptHandler+1)^0,w,c
  8067   00332C  6EFE               	movwf	tosh,c
  8068   00332E  6AFF               	clrf	tosu,c
  8069   003330  50FA               	movf	pclath,w,c
  8070   003332  0012               	return		;indir
  8071   003334                     i2u606_49:
  8072   003334                     i2l1253:
  8073   003334  0012               	return		;funcret
  8074   003336                     __end_ofi2_TMR3_ISR:
  8075                           	callstack 0
  8076                           
  8077 ;; *************** function i2_timer3_interruptHundler *****************
  8078 ;; Defined at:
  8079 ;;		line 141 in file "application.c"
  8080 ;; Parameters:    Size  Location     Type
  8081 ;;		None
  8082 ;; Auto vars:     Size  Location     Type
  8083 ;;		None
  8084 ;; Return value:  Size  Location     Type
  8085 ;;                  1    wreg      void 
  8086 ;; Registers used:
  8087 ;;		wreg, status,2, status,0
  8088 ;; Tracked objects:
  8089 ;;		On entry : 0/0
  8090 ;;		On exit  : 0/0
  8091 ;;		Unchanged: 0/0
  8092 ;; Data sizes:     COMRAM   BANK0   BANK1   BANK2   BANK3   BANK4   BANK5   BANK6   BANK7   BANK8   BANK9  BANK10  BANK1
      +1  BANK12  BANK13  BANK14  BANK15
  8093 ;;      Params:         0       0       0       0       0       0       0       0       0       0       0       0       
      +0       0       0       0       0
  8094 ;;      Locals:         0       0       0       0       0       0       0       0       0       0       0       0       
      +0       0       0       0       0
  8095 ;;      Temps:          0       0       0       0       0       0       0       0       0       0       0       0       
      +0       0       0       0       0
  8096 ;;      Totals:         0       0       0       0       0       0       0       0       0       0       0       0       
      +0       0       0       0       0
  8097 ;;Total ram usage:        0 bytes
  8098 ;; Hardware stack levels used: 1
  8099 ;; This function calls:
  8100 ;;		Nothing
  8101 ;; This function is called by:
  8102 ;; This function uses a non-reentrant model
  8103 ;;
  8104                           
  8105                           	psect	text51
  8106   00367A                     __ptext51:
  8107                           	callstack 0
  8108   00367A                     i2_timer3_interruptHundler:
  8109                           	callstack 17
  8110   00367A                     
  8111                           ;application.c: 142:     timer3_overflow++;
  8112   00367A  0E01               	movlw	1
  8113   00367C  0100               	movlb	0	; () banked
  8114   00367E  278E               	addwf	_timer3_overflow& (0+255),f,b	;volatile
  8115   003680  0E00               	movlw	0
  8116   003682  238F               	addwfc	(_timer3_overflow+1)& (0+255),f,b	;volatile
  8117   003684  2390               	addwfc	(_timer3_overflow+2)& (0+255),f,b	;volatile
  8118   003686  2391               	addwfc	(_timer3_overflow+3)& (0+255),f,b	;volatile
  8119   003688                     
  8120                           ; BSR set to: 0
  8121   003688  0012               	return		;funcret
  8122   00368A                     __end_ofi2_timer3_interruptHundler:
  8123                           	callstack 0
  8124                           
  8125 ;; *************** function i2_TMR2_ISR *****************
  8126 ;; Defined at:
  8127 ;;		line 123 in file "MCAL_Layer/Timer/Timer2/hal_timer2.c"
  8128 ;; Parameters:    Size  Location     Type
  8129 ;;		None
  8130 ;; Auto vars:     Size  Location     Type
  8131 ;;		None
  8132 ;; Return value:  Size  Location     Type
  8133 ;;                  1    wreg      void 
  8134 ;; Registers used:
  8135 ;;		None
  8136 ;; Tracked objects:
  8137 ;;		On entry : 0/0
  8138 ;;		On exit  : 0/0
  8139 ;;		Unchanged: 0/0
  8140 ;; Data sizes:     COMRAM   BANK0   BANK1   BANK2   BANK3   BANK4   BANK5   BANK6   BANK7   BANK8   BANK9  BANK10  BANK1
      +1  BANK12  BANK13  BANK14  BANK15
  8141 ;;      Params:         0       0       0       0       0       0       0       0       0       0       0       0       
      +0       0       0       0       0
  8142 ;;      Locals:         0       0       0       0       0       0       0       0       0       0       0       0       
      +0       0       0       0       0
  8143 ;;      Temps:          0       0       0       0       0       0       0       0       0       0       0       0       
      +0       0       0       0       0
  8144 ;;      Totals:         0       0       0       0       0       0       0       0       0       0       0       0       
      +0       0       0       0       0
  8145 ;;Total ram usage:        0 bytes
  8146 ;; Hardware stack levels used: 1
  8147 ;; This function calls:
  8148 ;;		Nothing
  8149 ;; This function is called by:
  8150 ;;		i2_InterruptCheck
  8151 ;; This function uses a non-reentrant model
  8152 ;;
  8153                           
  8154                           	psect	text52
  8155   0036B8                     __ptext52:
  8156                           	callstack 0
  8157   0036B8                     i2_TMR2_ISR:
  8158                           	callstack 18
  8159   0036B8                     
  8160                           ;MCAL_Layer/Timer/Timer2/hal_timer2.c: 124:     (PIR1bits.TMR2IF = 0);
  8161   0036B8  929E               	bcf	158,1,c	;volatile
  8162                           
  8163                           ;MCAL_Layer/Timer/Timer2/hal_timer2.c: 125:     TMR2 = timer2_preload;
  8164   0036BA  C046  FFCC         	movff	_timer2_preload,4044	;volatile
  8165   0036BE  0012               	return		;funcret
  8166   0036C0                     __end_ofi2_TMR2_ISR:
  8167                           	callstack 0
  8168                           
  8169 ;; *************** function i2_TMR1_ISR *****************
  8170 ;; Defined at:
  8171 ;;		line 137 in file "MCAL_Layer/Timer/Timer1/hal_timer1.c"
  8172 ;; Parameters:    Size  Location     Type
  8173 ;;		None
  8174 ;; Auto vars:     Size  Location     Type
  8175 ;;		None
  8176 ;; Return value:  Size  Location     Type
  8177 ;;                  1    wreg      void 
  8178 ;; Registers used:
  8179 ;;		wreg, status,2
  8180 ;; Tracked objects:
  8181 ;;		On entry : 0/0
  8182 ;;		On exit  : 0/0
  8183 ;;		Unchanged: 0/0
  8184 ;; Data sizes:     COMRAM   BANK0   BANK1   BANK2   BANK3   BANK4   BANK5   BANK6   BANK7   BANK8   BANK9  BANK10  BANK1
      +1  BANK12  BANK13  BANK14  BANK15
  8185 ;;      Params:         0       0       0       0       0       0       0       0       0       0       0       0       
      +0       0       0       0       0
  8186 ;;      Locals:         0       0       0       0       0       0       0       0       0       0       0       0       
      +0       0       0       0       0
  8187 ;;      Temps:          0       0       0       0       0       0       0       0       0       0       0       0       
      +0       0       0       0       0
  8188 ;;      Totals:         0       0       0       0       0       0       0       0       0       0       0       0       
      +0       0       0       0       0
  8189 ;;Total ram usage:        0 bytes
  8190 ;; Hardware stack levels used: 1
  8191 ;; This function calls:
  8192 ;;		Nothing
  8193 ;; This function is called by:
  8194 ;;		i2_InterruptCheck
  8195 ;; This function uses a non-reentrant model
  8196 ;;
  8197                           
  8198                           	psect	text53
  8199   0036A4                     __ptext53:
  8200                           	callstack 0
  8201   0036A4                     i2_TMR1_ISR:
  8202                           	callstack 18
  8203   0036A4                     
  8204                           ;MCAL_Layer/Timer/Timer1/hal_timer1.c: 138:     (PIR1bits.TMR1IF = 0);
  8205   0036A4  909E               	bcf	158,0,c	;volatile
  8206   0036A6                     
  8207                           ;MCAL_Layer/Timer/Timer1/hal_timer1.c: 139:     TMR1H = timer1_preload >>8;
  8208   0036A6  503F               	movf	(_timer1_preload+1)^0,w,c
  8209   0036A8  6ECF               	movwf	207,c	;volatile
  8210   0036AA                     
  8211                           ;MCAL_Layer/Timer/Timer1/hal_timer1.c: 140:     TMR1L = (uint8)timer1_preload;
  8212   0036AA  C03E  FFCE         	movff	_timer1_preload,4046	;volatile
  8213   0036AE  0012               	return		;funcret
  8214   0036B0                     __end_ofi2_TMR1_ISR:
  8215                           	callstack 0
  8216                           
  8217 ;; *************** function i2_RB7_ISR *****************
  8218 ;; Defined at:
  8219 ;;		line 605 in file "MCAL_Layer/Interrupt/mcal_external_interrupt.c"
  8220 ;; Parameters:    Size  Location     Type
  8221 ;;  RB7_Source      1    wreg     unsigned char 
  8222 ;; Auto vars:     Size  Location     Type
  8223 ;;  RB7_Source      1    0[COMRAM] unsigned char 
  8224 ;; Return value:  Size  Location     Type
  8225 ;;                  1    wreg      void 
  8226 ;; Registers used:
  8227 ;;		wreg, status,2, status,0
  8228 ;; Tracked objects:
  8229 ;;		On entry : 0/0
  8230 ;;		On exit  : 0/0
  8231 ;;		Unchanged: 0/0
  8232 ;; Data sizes:     COMRAM   BANK0   BANK1   BANK2   BANK3   BANK4   BANK5   BANK6   BANK7   BANK8   BANK9  BANK10  BANK1
      +1  BANK12  BANK13  BANK14  BANK15
  8233 ;;      Params:         0       0       0       0       0       0       0       0       0       0       0       0       
      +0       0       0       0       0
  8234 ;;      Locals:         1       0       0       0       0       0       0       0       0       0       0       0       
      +0       0       0       0       0
  8235 ;;      Temps:          0       0       0       0       0       0       0       0       0       0       0       0       
      +0       0       0       0       0
  8236 ;;      Totals:         1       0       0       0       0       0       0       0       0       0       0       0       
      +0       0       0       0       0
  8237 ;;Total ram usage:        1 bytes
  8238 ;; Hardware stack levels used: 1
  8239 ;; This function calls:
  8240 ;;		Nothing
  8241 ;; This function is called by:
  8242 ;;		i2_InterruptCheck
  8243 ;; This function uses a non-reentrant model
  8244 ;;
  8245                           
  8246                           	psect	text54
  8247   0035CA                     __ptext54:
  8248                           	callstack 0
  8249   0035CA                     i2_RB7_ISR:
  8250                           	callstack 18
  8251                           
  8252                           ;incstack = 0
  8253                           ;i2RB7_ISR@RB7_Source stored from wreg
  8254   0035CA  6E01               	movwf	i2RB7_ISR@RB7_Source^0,c
  8255   0035CC                     
  8256                           ;MCAL_Layer/Interrupt/mcal_external_interrupt.c: 607:     (INTCONbits.RBIF = 0);
  8257   0035CC  90F2               	bcf	242,0,c	;volatile
  8258   0035CE                     
  8259                           ;MCAL_Layer/Interrupt/mcal_external_interrupt.c: 611:     if(0 == RB7_Source){
  8260   0035CE  5001               	movf	i2RB7_ISR@RB7_Source^0,w,c
  8261   0035D0  A4D8               	btfss	status,2,c
  8262   0035D2  EFED  F01A         	goto	i2u602_41
  8263   0035D6  EFEF  F01A         	goto	i2u602_40
  8264   0035DA                     i2u602_41:
  8265   0035DA  EFF1  F01A         	goto	i2l6375
  8266   0035DE                     i2u602_40:
  8267   0035DE  EFF1  F01A         	goto	i2l917
  8268   0035E2                     i2l6375:
  8269   0035E2                     i2l917:
  8270   0035E2  0012               	return		;funcret
  8271   0035E4                     __end_ofi2_RB7_ISR:
  8272                           	callstack 0
  8273                           
  8274 ;; *************** function i2_RB6_ISR *****************
  8275 ;; Defined at:
  8276 ;;		line 587 in file "MCAL_Layer/Interrupt/mcal_external_interrupt.c"
  8277 ;; Parameters:    Size  Location     Type
  8278 ;;  RB6_Source      1    wreg     unsigned char 
  8279 ;; Auto vars:     Size  Location     Type
  8280 ;;  RB6_Source      1    0[COMRAM] unsigned char 
  8281 ;; Return value:  Size  Location     Type
  8282 ;;                  1    wreg      void 
  8283 ;; Registers used:
  8284 ;;		wreg, status,2, status,0
  8285 ;; Tracked objects:
  8286 ;;		On entry : 0/0
  8287 ;;		On exit  : 0/0
  8288 ;;		Unchanged: 0/0
  8289 ;; Data sizes:     COMRAM   BANK0   BANK1   BANK2   BANK3   BANK4   BANK5   BANK6   BANK7   BANK8   BANK9  BANK10  BANK1
      +1  BANK12  BANK13  BANK14  BANK15
  8290 ;;      Params:         0       0       0       0       0       0       0       0       0       0       0       0       
      +0       0       0       0       0
  8291 ;;      Locals:         1       0       0       0       0       0       0       0       0       0       0       0       
      +0       0       0       0       0
  8292 ;;      Temps:          0       0       0       0       0       0       0       0       0       0       0       0       
      +0       0       0       0       0
  8293 ;;      Totals:         1       0       0       0       0       0       0       0       0       0       0       0       
      +0       0       0       0       0
  8294 ;;Total ram usage:        1 bytes
  8295 ;; Hardware stack levels used: 1
  8296 ;; This function calls:
  8297 ;;		Nothing
  8298 ;; This function is called by:
  8299 ;;		i2_InterruptCheck
  8300 ;; This function uses a non-reentrant model
  8301 ;;
  8302                           
  8303                           	psect	text55
  8304   0035E4                     __ptext55:
  8305                           	callstack 0
  8306   0035E4                     i2_RB6_ISR:
  8307                           	callstack 18
  8308                           
  8309                           ;incstack = 0
  8310                           ;i2RB6_ISR@RB6_Source stored from wreg
  8311   0035E4  6E01               	movwf	i2RB6_ISR@RB6_Source^0,c
  8312   0035E6                     
  8313                           ;MCAL_Layer/Interrupt/mcal_external_interrupt.c: 589:     (INTCONbits.RBIF = 0);
  8314   0035E6  90F2               	bcf	242,0,c	;volatile
  8315   0035E8                     
  8316                           ;MCAL_Layer/Interrupt/mcal_external_interrupt.c: 593:     if(0 == RB6_Source){
  8317   0035E8  5001               	movf	i2RB6_ISR@RB6_Source^0,w,c
  8318   0035EA  A4D8               	btfss	status,2,c
  8319   0035EC  EFFA  F01A         	goto	i2u601_41
  8320   0035F0  EFFC  F01A         	goto	i2u601_40
  8321   0035F4                     i2u601_41:
  8322   0035F4  EFFE  F01A         	goto	i2l6361
  8323   0035F8                     i2u601_40:
  8324   0035F8  EFFE  F01A         	goto	i2l906
  8325   0035FC                     i2l6361:
  8326   0035FC                     i2l906:
  8327   0035FC  0012               	return		;funcret
  8328   0035FE                     __end_ofi2_RB6_ISR:
  8329                           	callstack 0
  8330                           
  8331 ;; *************** function i2_RB5_ISR *****************
  8332 ;; Defined at:
  8333 ;;		line 569 in file "MCAL_Layer/Interrupt/mcal_external_interrupt.c"
  8334 ;; Parameters:    Size  Location     Type
  8335 ;;  RB5_Source      1    wreg     unsigned char 
  8336 ;; Auto vars:     Size  Location     Type
  8337 ;;  RB5_Source      1    0[COMRAM] unsigned char 
  8338 ;; Return value:  Size  Location     Type
  8339 ;;                  1    wreg      void 
  8340 ;; Registers used:
  8341 ;;		wreg, status,2, status,0
  8342 ;; Tracked objects:
  8343 ;;		On entry : 0/0
  8344 ;;		On exit  : 0/0
  8345 ;;		Unchanged: 0/0
  8346 ;; Data sizes:     COMRAM   BANK0   BANK1   BANK2   BANK3   BANK4   BANK5   BANK6   BANK7   BANK8   BANK9  BANK10  BANK1
      +1  BANK12  BANK13  BANK14  BANK15
  8347 ;;      Params:         0       0       0       0       0       0       0       0       0       0       0       0       
      +0       0       0       0       0
  8348 ;;      Locals:         1       0       0       0       0       0       0       0       0       0       0       0       
      +0       0       0       0       0
  8349 ;;      Temps:          0       0       0       0       0       0       0       0       0       0       0       0       
      +0       0       0       0       0
  8350 ;;      Totals:         1       0       0       0       0       0       0       0       0       0       0       0       
      +0       0       0       0       0
  8351 ;;Total ram usage:        1 bytes
  8352 ;; Hardware stack levels used: 1
  8353 ;; This function calls:
  8354 ;;		Nothing
  8355 ;; This function is called by:
  8356 ;;		i2_InterruptCheck
  8357 ;; This function uses a non-reentrant model
  8358 ;;
  8359                           
  8360                           	psect	text56
  8361   0035FE                     __ptext56:
  8362                           	callstack 0
  8363   0035FE                     i2_RB5_ISR:
  8364                           	callstack 18
  8365                           
  8366                           ;incstack = 0
  8367                           ;i2RB5_ISR@RB5_Source stored from wreg
  8368   0035FE  6E01               	movwf	i2RB5_ISR@RB5_Source^0,c
  8369   003600                     
  8370                           ;MCAL_Layer/Interrupt/mcal_external_interrupt.c: 571:     (INTCONbits.RBIF = 0);
  8371   003600  90F2               	bcf	242,0,c	;volatile
  8372   003602                     
  8373                           ;MCAL_Layer/Interrupt/mcal_external_interrupt.c: 575:     if(0 == RB5_Source){
  8374   003602  5001               	movf	i2RB5_ISR@RB5_Source^0,w,c
  8375   003604  A4D8               	btfss	status,2,c
  8376   003606  EF07  F01B         	goto	i2u600_41
  8377   00360A  EF09  F01B         	goto	i2u600_40
  8378   00360E                     i2u600_41:
  8379   00360E  EF0B  F01B         	goto	i2l6347
  8380   003612                     i2u600_40:
  8381   003612  EF0B  F01B         	goto	i2l895
  8382   003616                     i2l6347:
  8383   003616                     i2l895:
  8384   003616  0012               	return		;funcret
  8385   003618                     __end_ofi2_RB5_ISR:
  8386                           	callstack 0
  8387                           
  8388 ;; *************** function i2_RB4_ISR *****************
  8389 ;; Defined at:
  8390 ;;		line 551 in file "MCAL_Layer/Interrupt/mcal_external_interrupt.c"
  8391 ;; Parameters:    Size  Location     Type
  8392 ;;  RB4_Source      1    wreg     unsigned char 
  8393 ;; Auto vars:     Size  Location     Type
  8394 ;;  RB4_Source      1    0[COMRAM] unsigned char 
  8395 ;; Return value:  Size  Location     Type
  8396 ;;                  1    wreg      void 
  8397 ;; Registers used:
  8398 ;;		wreg, status,2, status,0
  8399 ;; Tracked objects:
  8400 ;;		On entry : 0/0
  8401 ;;		On exit  : 0/0
  8402 ;;		Unchanged: 0/0
  8403 ;; Data sizes:     COMRAM   BANK0   BANK1   BANK2   BANK3   BANK4   BANK5   BANK6   BANK7   BANK8   BANK9  BANK10  BANK1
      +1  BANK12  BANK13  BANK14  BANK15
  8404 ;;      Params:         0       0       0       0       0       0       0       0       0       0       0       0       
      +0       0       0       0       0
  8405 ;;      Locals:         1       0       0       0       0       0       0       0       0       0       0       0       
      +0       0       0       0       0
  8406 ;;      Temps:          0       0       0       0       0       0       0       0       0       0       0       0       
      +0       0       0       0       0
  8407 ;;      Totals:         1       0       0       0       0       0       0       0       0       0       0       0       
      +0       0       0       0       0
  8408 ;;Total ram usage:        1 bytes
  8409 ;; Hardware stack levels used: 1
  8410 ;; This function calls:
  8411 ;;		Nothing
  8412 ;; This function is called by:
  8413 ;;		i2_InterruptCheck
  8414 ;; This function uses a non-reentrant model
  8415 ;;
  8416                           
  8417                           	psect	text57
  8418   003618                     __ptext57:
  8419                           	callstack 0
  8420   003618                     i2_RB4_ISR:
  8421                           	callstack 18
  8422                           
  8423                           ;incstack = 0
  8424                           ;i2RB4_ISR@RB4_Source stored from wreg
  8425   003618  6E01               	movwf	i2RB4_ISR@RB4_Source^0,c
  8426   00361A                     
  8427                           ;MCAL_Layer/Interrupt/mcal_external_interrupt.c: 553:     (INTCONbits.RBIF = 0);
  8428   00361A  90F2               	bcf	242,0,c	;volatile
  8429   00361C                     
  8430                           ;MCAL_Layer/Interrupt/mcal_external_interrupt.c: 557:     if(0 == RB4_Source){
  8431   00361C  5001               	movf	i2RB4_ISR@RB4_Source^0,w,c
  8432   00361E  A4D8               	btfss	status,2,c
  8433   003620  EF14  F01B         	goto	i2u599_41
  8434   003624  EF16  F01B         	goto	i2u599_40
  8435   003628                     i2u599_41:
  8436   003628  EF18  F01B         	goto	i2l6333
  8437   00362C                     i2u599_40:
  8438   00362C  EF18  F01B         	goto	i2l884
  8439   003630                     i2l6333:
  8440   003630                     i2l884:
  8441   003630  0012               	return		;funcret
  8442   003632                     __end_ofi2_RB4_ISR:
  8443                           	callstack 0
  8444                           
  8445 ;; *************** function i2_INT2_ISR *****************
  8446 ;; Defined at:
  8447 ;;		line 540 in file "MCAL_Layer/Interrupt/mcal_external_interrupt.c"
  8448 ;; Parameters:    Size  Location     Type
  8449 ;;		None
  8450 ;; Auto vars:     Size  Location     Type
  8451 ;;		None
  8452 ;; Return value:  Size  Location     Type
  8453 ;;                  1    wreg      void 
  8454 ;; Registers used:
  8455 ;;		None
  8456 ;; Tracked objects:
  8457 ;;		On entry : 0/0
  8458 ;;		On exit  : 0/0
  8459 ;;		Unchanged: 0/0
  8460 ;; Data sizes:     COMRAM   BANK0   BANK1   BANK2   BANK3   BANK4   BANK5   BANK6   BANK7   BANK8   BANK9  BANK10  BANK1
      +1  BANK12  BANK13  BANK14  BANK15
  8461 ;;      Params:         0       0       0       0       0       0       0       0       0       0       0       0       
      +0       0       0       0       0
  8462 ;;      Locals:         0       0       0       0       0       0       0       0       0       0       0       0       
      +0       0       0       0       0
  8463 ;;      Temps:          0       0       0       0       0       0       0       0       0       0       0       0       
      +0       0       0       0       0
  8464 ;;      Totals:         0       0       0       0       0       0       0       0       0       0       0       0       
      +0       0       0       0       0
  8465 ;;Total ram usage:        0 bytes
  8466 ;; Hardware stack levels used: 1
  8467 ;; This function calls:
  8468 ;;		Nothing
  8469 ;; This function is called by:
  8470 ;;		i2_InterruptCheck
  8471 ;; This function uses a non-reentrant model
  8472 ;;
  8473                           
  8474                           	psect	text58
  8475   0036DA                     __ptext58:
  8476                           	callstack 0
  8477   0036DA                     i2_INT2_ISR:
  8478                           	callstack 18
  8479   0036DA                     
  8480                           ;MCAL_Layer/Interrupt/mcal_external_interrupt.c: 542:     (INTCON3bits.INT2IF = 0);
  8481   0036DA  92F0               	bcf	240,1,c	;volatile
  8482   0036DC  0012               	return		;funcret
  8483   0036DE                     __end_ofi2_INT2_ISR:
  8484                           	callstack 0
  8485                           
  8486 ;; *************** function i2_INT1_ISR *****************
  8487 ;; Defined at:
  8488 ;;		line 530 in file "MCAL_Layer/Interrupt/mcal_external_interrupt.c"
  8489 ;; Parameters:    Size  Location     Type
  8490 ;;		None
  8491 ;; Auto vars:     Size  Location     Type
  8492 ;;		None
  8493 ;; Return value:  Size  Location     Type
  8494 ;;                  1    wreg      void 
  8495 ;; Registers used:
  8496 ;;		None
  8497 ;; Tracked objects:
  8498 ;;		On entry : 0/0
  8499 ;;		On exit  : 0/0
  8500 ;;		Unchanged: 0/0
  8501 ;; Data sizes:     COMRAM   BANK0   BANK1   BANK2   BANK3   BANK4   BANK5   BANK6   BANK7   BANK8   BANK9  BANK10  BANK1
      +1  BANK12  BANK13  BANK14  BANK15
  8502 ;;      Params:         0       0       0       0       0       0       0       0       0       0       0       0       
      +0       0       0       0       0
  8503 ;;      Locals:         0       0       0       0       0       0       0       0       0       0       0       0       
      +0       0       0       0       0
  8504 ;;      Temps:          0       0       0       0       0       0       0       0       0       0       0       0       
      +0       0       0       0       0
  8505 ;;      Totals:         0       0       0       0       0       0       0       0       0       0       0       0       
      +0       0       0       0       0
  8506 ;;Total ram usage:        0 bytes
  8507 ;; Hardware stack levels used: 1
  8508 ;; This function calls:
  8509 ;;		Nothing
  8510 ;; This function is called by:
  8511 ;;		i2_InterruptCheck
  8512 ;; This function uses a non-reentrant model
  8513 ;;
  8514                           
  8515                           	psect	text59
  8516   0036DE                     __ptext59:
  8517                           	callstack 0
  8518   0036DE                     i2_INT1_ISR:
  8519                           	callstack 18
  8520   0036DE                     
  8521                           ;MCAL_Layer/Interrupt/mcal_external_interrupt.c: 532:     (INTCON3bits.INT1IF = 0);
  8522   0036DE  90F0               	bcf	240,0,c	;volatile
  8523   0036E0  0012               	return		;funcret
  8524   0036E2                     __end_ofi2_INT1_ISR:
  8525                           	callstack 0
  8526                           
  8527 ;; *************** function i2_INT0_ISR *****************
  8528 ;; Defined at:
  8529 ;;		line 520 in file "MCAL_Layer/Interrupt/mcal_external_interrupt.c"
  8530 ;; Parameters:    Size  Location     Type
  8531 ;;		None
  8532 ;; Auto vars:     Size  Location     Type
  8533 ;;		None
  8534 ;; Return value:  Size  Location     Type
  8535 ;;                  1    wreg      void 
  8536 ;; Registers used:
  8537 ;;		None
  8538 ;; Tracked objects:
  8539 ;;		On entry : 0/0
  8540 ;;		On exit  : 0/0
  8541 ;;		Unchanged: 0/0
  8542 ;; Data sizes:     COMRAM   BANK0   BANK1   BANK2   BANK3   BANK4   BANK5   BANK6   BANK7   BANK8   BANK9  BANK10  BANK1
      +1  BANK12  BANK13  BANK14  BANK15
  8543 ;;      Params:         0       0       0       0       0       0       0       0       0       0       0       0       
      +0       0       0       0       0
  8544 ;;      Locals:         0       0       0       0       0       0       0       0       0       0       0       0       
      +0       0       0       0       0
  8545 ;;      Temps:          0       0       0       0       0       0       0       0       0       0       0       0       
      +0       0       0       0       0
  8546 ;;      Totals:         0       0       0       0       0       0       0       0       0       0       0       0       
      +0       0       0       0       0
  8547 ;;Total ram usage:        0 bytes
  8548 ;; Hardware stack levels used: 1
  8549 ;; This function calls:
  8550 ;;		Nothing
  8551 ;; This function is called by:
  8552 ;;		i2_InterruptCheck
  8553 ;; This function uses a non-reentrant model
  8554 ;;
  8555                           
  8556                           	psect	text60
  8557   0036E2                     __ptext60:
  8558                           	callstack 0
  8559   0036E2                     i2_INT0_ISR:
  8560                           	callstack 18
  8561   0036E2                     
  8562                           ;MCAL_Layer/Interrupt/mcal_external_interrupt.c: 522:     (INTCONbits.INT0IF = 0);
  8563   0036E2  92F2               	bcf	242,1,c	;volatile
  8564   0036E4  0012               	return		;funcret
  8565   0036E6                     __end_ofi2_INT0_ISR:
  8566                           	callstack 0
  8567                           
  8568 ;; *************** function i2_EUSART_TX_ISR *****************
  8569 ;; Defined at:
  8570 ;;		line 228 in file "MCAL_Layer/USART/hal_usart.c"
  8571 ;; Parameters:    Size  Location     Type
  8572 ;;		None
  8573 ;; Auto vars:     Size  Location     Type
  8574 ;;		None
  8575 ;; Return value:  Size  Location     Type
  8576 ;;                  1    wreg      void 
  8577 ;; Registers used:
  8578 ;;		wreg, fsr2l, fsr2h, status,2, status,0, pcl, pclath, pclatu, tosl, prodl, prodh, cstack
  8579 ;; Tracked objects:
  8580 ;;		On entry : 0/0
  8581 ;;		On exit  : 0/0
  8582 ;;		Unchanged: 0/0
  8583 ;; Data sizes:     COMRAM   BANK0   BANK1   BANK2   BANK3   BANK4   BANK5   BANK6   BANK7   BANK8   BANK9  BANK10  BANK1
      +1  BANK12  BANK13  BANK14  BANK15
  8584 ;;      Params:         0       0       0       0       0       0       0       0       0       0       0       0       
      +0       0       0       0       0
  8585 ;;      Locals:         0       0       0       0       0       0       0       0       0       0       0       0       
      +0       0       0       0       0
  8586 ;;      Temps:          0       0       0       0       0       0       0       0       0       0       0       0       
      +0       0       0       0       0
  8587 ;;      Totals:         0       0       0       0       0       0       0       0       0       0       0       0       
      +0       0       0       0       0
  8588 ;;Total ram usage:        0 bytes
  8589 ;; Hardware stack levels used: 1
  8590 ;; Hardware stack levels required when called: 3
  8591 ;; This function calls:
  8592 ;;		NULL
  8593 ;;		i2_EUSART_Tx_InterruptHandler
  8594 ;; This function is called by:
  8595 ;;		i2_InterruptCheck
  8596 ;; This function uses a non-reentrant model
  8597 ;;
  8598                           
  8599                           	psect	text61
  8600   003426                     __ptext61:
  8601                           	callstack 0
  8602   003426                     i2_EUSART_TX_ISR:
  8603                           	callstack 15
  8604   003426                     
  8605                           ;MCAL_Layer/USART/hal_usart.c: 229:     (PIE1bits.TXIE = 0);
  8606   003426  989D               	bcf	157,4,c	;volatile
  8607   003428                     
  8608                           ;MCAL_Layer/USART/hal_usart.c: 230:     if(EUSART_Tx_InterruptHandler){
  8609   003428  5036               	movf	_EUSART_Tx_InterruptHandler@hal_usart$F3917^0,w,c
  8610   00342A  1037               	iorwf	(_EUSART_Tx_InterruptHandler@hal_usart$F3917+1)^0,w,c
  8611   00342C  B4D8               	btfsc	status,2,c
  8612   00342E  EF1B  F01A         	goto	i2u609_41
  8613   003432  EF1D  F01A         	goto	i2u609_40
  8614   003436                     i2u609_41:
  8615   003436  EF29  F01A         	goto	i2l1442
  8616   00343A                     i2u609_40:
  8617   00343A                     
  8618                           ;MCAL_Layer/USART/hal_usart.c: 231:         EUSART_Tx_InterruptHandler();
  8619   00343A  D802               	call	i2u610_48
  8620   00343C  EF29  F01A         	goto	i2u610_49
  8621   003440                     i2u610_48:
  8622   003440  0005               	push	
  8623   003442  6EFA               	movwf	pclath,c
  8624   003444  5036               	movf	_EUSART_Tx_InterruptHandler@hal_usart$F3917^0,w,c
  8625   003446  6EFD               	movwf	tosl,c
  8626   003448  5037               	movf	(_EUSART_Tx_InterruptHandler@hal_usart$F3917+1)^0,w,c
  8627   00344A  6EFE               	movwf	tosh,c
  8628   00344C  6AFF               	clrf	tosu,c
  8629   00344E  50FA               	movf	pclath,w,c
  8630   003450  0012               	return		;indir
  8631   003452                     i2u610_49:
  8632   003452                     i2l1442:
  8633   003452  0012               	return		;funcret
  8634   003454                     __end_ofi2_EUSART_TX_ISR:
  8635                           	callstack 0
  8636                           
  8637 ;; *************** function i2_EUSART_Tx_InterruptHandler *****************
  8638 ;; Defined at:
  8639 ;;		line 159 in file "application.c"
  8640 ;; Parameters:    Size  Location     Type
  8641 ;;		None
  8642 ;; Auto vars:     Size  Location     Type
  8643 ;;		None
  8644 ;; Return value:  Size  Location     Type
  8645 ;;                  1    wreg      void 
  8646 ;; Registers used:
  8647 ;;		wreg, fsr2l, fsr2h, status,2, status,0, prodl, prodh, cstack
  8648 ;; Tracked objects:
  8649 ;;		On entry : 0/0
  8650 ;;		On exit  : 0/0
  8651 ;;		Unchanged: 0/0
  8652 ;; Data sizes:     COMRAM   BANK0   BANK1   BANK2   BANK3   BANK4   BANK5   BANK6   BANK7   BANK8   BANK9  BANK10  BANK1
      +1  BANK12  BANK13  BANK14  BANK15
  8653 ;;      Params:         0       0       0       0       0       0       0       0       0       0       0       0       
      +0       0       0       0       0
  8654 ;;      Locals:         0       0       0       0       0       0       0       0       0       0       0       0       
      +0       0       0       0       0
  8655 ;;      Temps:          0       0       0       0       0       0       0       0       0       0       0       0       
      +0       0       0       0       0
  8656 ;;      Totals:         0       0       0       0       0       0       0       0       0       0       0       0       
      +0       0       0       0       0
  8657 ;;Total ram usage:        0 bytes
  8658 ;; Hardware stack levels used: 1
  8659 ;; Hardware stack levels required when called: 2
  8660 ;; This function calls:
  8661 ;;		i2_led_turn_toggle
  8662 ;; This function is called by:
  8663 ;;		_EUSART_TX_ISR
  8664 ;;		i2_EUSART_TX_ISR
  8665 ;; This function uses a non-reentrant model
  8666 ;;
  8667                           
  8668                           	psect	text62
  8669   00368A                     __ptext62:
  8670                           	callstack 0
  8671   00368A                     i2_EUSART_Tx_InterruptHandler:
  8672                           	callstack 15
  8673   00368A                     
  8674                           ;application.c: 160:     led_turn_toggle(&led1);
  8675   00368A  0E59               	movlw	low _led1
  8676   00368C  6E08               	movwf	i2led_turn_toggle@led^0,c
  8677   00368E  0E00               	movlw	high _led1
  8678   003690  6E09               	movwf	(i2led_turn_toggle@led+1)^0,c
  8679   003692  EC63  F017         	call	i2_led_turn_toggle	;wreg free
  8680   003696  0012               	return		;funcret
  8681   003698                     __end_ofi2_EUSART_Tx_InterruptHandler:
  8682                           	callstack 0
  8683                           
  8684 ;; *************** function i2_led_turn_toggle *****************
  8685 ;; Defined at:
  8686 ;;		line 77 in file "ECU_Layer/LED/ecu_led.c"
  8687 ;; Parameters:    Size  Location     Type
  8688 ;;  led             2    7[COMRAM] PTR const struct .
  8689 ;;		 -> led1(1), 
  8690 ;; Auto vars:     Size  Location     Type
  8691 ;;  pin_obj         1   10[COMRAM] struct .
  8692 ;;  ret             1    0        unsigned char 
  8693 ;; Return value:  Size  Location     Type
  8694 ;;                  1    wreg      unsigned char 
  8695 ;; Registers used:
  8696 ;;		wreg, fsr2l, fsr2h, status,2, status,0, prodl, prodh, cstack
  8697 ;; Tracked objects:
  8698 ;;		On entry : 0/0
  8699 ;;		On exit  : 0/0
  8700 ;;		Unchanged: 0/0
  8701 ;; Data sizes:     COMRAM   BANK0   BANK1   BANK2   BANK3   BANK4   BANK5   BANK6   BANK7   BANK8   BANK9  BANK10  BANK1
      +1  BANK12  BANK13  BANK14  BANK15
  8702 ;;      Params:         2       0       0       0       0       0       0       0       0       0       0       0       
      +0       0       0       0       0
  8703 ;;      Locals:         1       0       0       0       0       0       0       0       0       0       0       0       
      +0       0       0       0       0
  8704 ;;      Temps:          1       0       0       0       0       0       0       0       0       0       0       0       
      +0       0       0       0       0
  8705 ;;      Totals:         4       0       0       0       0       0       0       0       0       0       0       0       
      +0       0       0       0       0
  8706 ;;Total ram usage:        4 bytes
  8707 ;; Hardware stack levels used: 1
  8708 ;; Hardware stack levels required when called: 1
  8709 ;; This function calls:
  8710 ;;		i2_gpio_pin_toggle_logic
  8711 ;; This function is called by:
  8712 ;;		i2_EUSART_Tx_InterruptHandler
  8713 ;; This function uses a non-reentrant model
  8714 ;;
  8715                           
  8716                           	psect	text63
  8717   002EC6                     __ptext63:
  8718                           	callstack 0
  8719   002EC6                     i2_led_turn_toggle:
  8720                           	callstack 15
  8721   002EC6                     
  8722                           ;ECU_Layer/LED/ecu_led.c: 80:     if(((void*)0) == led){
  8723   002EC6  5008               	movf	i2led_turn_toggle@led^0,w,c
  8724   002EC8  1009               	iorwf	(i2led_turn_toggle@led+1)^0,w,c
  8725   002ECA  A4D8               	btfss	status,2,c
  8726   002ECC  EF6A  F017         	goto	i2u558_41
  8727   002ED0  EF6C  F017         	goto	i2u558_40
  8728   002ED4                     i2u558_41:
  8729   002ED4  EF6E  F017         	goto	i2l247
  8730   002ED8                     i2u558_40:
  8731   002ED8                     
  8732                           ;ECU_Layer/LED/ecu_led.c: 82:     }
  8733   002ED8  EF9B  F017         	goto	i2l251
  8734   002EDC                     i2l247:
  8735                           
  8736                           ;ECU_Layer/LED/ecu_led.c: 84:     {;ECU_Layer/LED/ecu_led.c: 85:         pin_config_t pi
      +                          n_obj={.port = led->port_name, .pin = led->pin, .direction = GPIO_OUTPUT, .logic = led->
      +                          led_status};
  8737   002EDC  C04B  F00B         	movff	led_turn_toggle@F3063,i2led_turn_toggle@pin_obj
  8738   002EE0  C008  FFD9         	movff	i2led_turn_toggle@led,fsr2l
  8739   002EE4  C009  FFDA         	movff	i2led_turn_toggle@led+1,fsr2h
  8740   002EE8  50DF               	movf	223,w,c
  8741   002EEA  0B0F               	andlw	15
  8742   002EEC  6E0A               	movwf	??i2_led_turn_toggle^0,c
  8743   002EEE  500B               	movf	i2led_turn_toggle@pin_obj^0,w,c
  8744   002EF0  180A               	xorwf	??i2_led_turn_toggle^0,w,c
  8745   002EF2  0BF8               	andlw	-8
  8746   002EF4  180A               	xorwf	??i2_led_turn_toggle^0,w,c
  8747   002EF6  6E0B               	movwf	i2led_turn_toggle@pin_obj^0,c
  8748   002EF8  C008  FFD9         	movff	i2led_turn_toggle@led,fsr2l
  8749   002EFC  C009  FFDA         	movff	i2led_turn_toggle@led+1,fsr2h
  8750   002F00  38DF               	swapf	223,w,c
  8751   002F02  0B07               	andlw	7
  8752   002F04  6E0A               	movwf	??i2_led_turn_toggle^0,c
  8753   002F06  460A               	rlncf	??i2_led_turn_toggle^0,f,c
  8754   002F08  460A               	rlncf	??i2_led_turn_toggle^0,f,c
  8755   002F0A  460A               	rlncf	??i2_led_turn_toggle^0,f,c
  8756   002F0C  500B               	movf	i2led_turn_toggle@pin_obj^0,w,c
  8757   002F0E  180A               	xorwf	??i2_led_turn_toggle^0,w,c
  8758   002F10  0BC7               	andlw	-57
  8759   002F12  180A               	xorwf	??i2_led_turn_toggle^0,w,c
  8760   002F14  6E0B               	movwf	i2led_turn_toggle@pin_obj^0,c
  8761   002F16  9C0B               	bcf	i2led_turn_toggle@pin_obj^0,6,c
  8762   002F18  C008  FFD9         	movff	i2led_turn_toggle@led,fsr2l
  8763   002F1C  C009  FFDA         	movff	i2led_turn_toggle@led+1,fsr2h
  8764   002F20  AEDF               	btfss	indf2,7,c
  8765   002F22  D002               	bra	i2u559_45
  8766   002F24  8E0B               	bsf	i2led_turn_toggle@pin_obj^0,7,c
  8767   002F26  D001               	bra	i2u559_47
  8768   002F28                     i2u559_45:
  8769   002F28  9E0B               	bcf	i2led_turn_toggle@pin_obj^0,7,c
  8770   002F2A                     i2u559_47:
  8771   002F2A                     
  8772                           ;ECU_Layer/LED/ecu_led.c: 86:         gpio_pin_toggle_logic(&pin_obj);
  8773   002F2A  0E0B               	movlw	low i2led_turn_toggle@pin_obj
  8774   002F2C  6E01               	movwf	i2gpio_pin_toggle_logic@_pin_config^0,c
  8775   002F2E  0E00               	movlw	high i2led_turn_toggle@pin_obj
  8776   002F30  6E02               	movwf	(i2gpio_pin_toggle_logic@_pin_config+1)^0,c
  8777   002F32  EC59  F016         	call	i2_gpio_pin_toggle_logic	;wreg free
  8778   002F36                     i2l251:
  8779   002F36  0012               	return		;funcret
  8780   002F38                     __end_ofi2_led_turn_toggle:
  8781                           	callstack 0
  8782                           
  8783 ;; *************** function i2_gpio_pin_toggle_logic *****************
  8784 ;; Defined at:
  8785 ;;		line 136 in file "MCAL_Layer/GPIO/hal_gpio.c"
  8786 ;; Parameters:    Size  Location     Type
  8787 ;;  _pin_config     2    0[COMRAM] PTR const struct .
  8788 ;;		 -> i2led_turn_toggle@pin_obj(1), led_turn_toggle@pin_obj(1), 
  8789 ;; Auto vars:     Size  Location     Type
  8790 ;;  ret             1    0        unsigned char 
  8791 ;; Return value:  Size  Location     Type
  8792 ;;                  1    wreg      unsigned char 
  8793 ;; Registers used:
  8794 ;;		wreg, fsr2l, fsr2h, status,2, status,0, prodl, prodh
  8795 ;; Tracked objects:
  8796 ;;		On entry : 0/0
  8797 ;;		On exit  : 0/0
  8798 ;;		Unchanged: 0/0
  8799 ;; Data sizes:     COMRAM   BANK0   BANK1   BANK2   BANK3   BANK4   BANK5   BANK6   BANK7   BANK8   BANK9  BANK10  BANK1
      +1  BANK12  BANK13  BANK14  BANK15
  8800 ;;      Params:         2       0       0       0       0       0       0       0       0       0       0       0       
      +0       0       0       0       0
  8801 ;;      Locals:         0       0       0       0       0       0       0       0       0       0       0       0       
      +0       0       0       0       0
  8802 ;;      Temps:          5       0       0       0       0       0       0       0       0       0       0       0       
      +0       0       0       0       0
  8803 ;;      Totals:         7       0       0       0       0       0       0       0       0       0       0       0       
      +0       0       0       0       0
  8804 ;;Total ram usage:        7 bytes
  8805 ;; Hardware stack levels used: 1
  8806 ;; This function calls:
  8807 ;;		Nothing
  8808 ;; This function is called by:
  8809 ;;		i2_led_turn_toggle
  8810 ;; This function uses a non-reentrant model
  8811 ;;
  8812                           
  8813                           	psect	text64
  8814   002CB2                     __ptext64:
  8815                           	callstack 0
  8816   002CB2                     i2_gpio_pin_toggle_logic:
  8817                           	callstack 15
  8818   002CB2                     
  8819                           ;MCAL_Layer/GPIO/hal_gpio.c: 138:     if(((void*)0) == _pin_config || _pin_config->pin >
      +                           8 -1)
  8820   002CB2  5001               	movf	i2gpio_pin_toggle_logic@_pin_config^0,w,c
  8821   002CB4  1002               	iorwf	(i2gpio_pin_toggle_logic@_pin_config+1)^0,w,c
  8822   002CB6  B4D8               	btfsc	status,2,c
  8823   002CB8  EF60  F016         	goto	i2u459_41
  8824   002CBC  EF62  F016         	goto	i2u459_40
  8825   002CC0                     i2u459_41:
  8826   002CC0  EF73  F016         	goto	i2l5325
  8827   002CC4                     i2u459_40:
  8828   002CC4  C001  FFD9         	movff	i2gpio_pin_toggle_logic@_pin_config,fsr2l
  8829   002CC8  C002  FFDA         	movff	i2gpio_pin_toggle_logic@_pin_config+1,fsr2h
  8830   002CCC  30DF               	rrcf	223,w,c
  8831   002CCE  32E8               	rrcf	wreg,f,c
  8832   002CD0  32E8               	rrcf	wreg,f,c
  8833   002CD2  0B07               	andlw	7
  8834   002CD4  6E03               	movwf	??i2_gpio_pin_toggle_logic^0,c
  8835   002CD6  0E07               	movlw	7
  8836   002CD8  6403               	cpfsgt	??i2_gpio_pin_toggle_logic^0,c
  8837   002CDA  EF71  F016         	goto	i2u460_41
  8838   002CDE  EF73  F016         	goto	i2u460_40
  8839   002CE2                     i2u460_41:
  8840   002CE2  EF75  F016         	goto	i2l5327
  8841   002CE6                     i2u460_40:
  8842   002CE6                     i2l5325:
  8843                           
  8844                           ;MCAL_Layer/GPIO/hal_gpio.c: 141:     }
  8845   002CE6  EFA1  F016         	goto	i2l499
  8846   002CEA                     i2l5327:
  8847                           
  8848                           ;MCAL_Layer/GPIO/hal_gpio.c: 143:     {;MCAL_Layer/GPIO/hal_gpio.c: 144:         (*lat_r
      +                          egisters[_pin_config->port] ^= ((uint8)1 << _pin_config->pin));
  8849   002CEA  C001  FFD9         	movff	i2gpio_pin_toggle_logic@_pin_config,fsr2l
  8850   002CEE  C002  FFDA         	movff	i2gpio_pin_toggle_logic@_pin_config+1,fsr2h
  8851   002CF2  30DF               	rrcf	223,w,c
  8852   002CF4  32E8               	rrcf	wreg,f,c
  8853   002CF6  32E8               	rrcf	wreg,f,c
  8854   002CF8  0B07               	andlw	7
  8855   002CFA  6E03               	movwf	??i2_gpio_pin_toggle_logic^0,c
  8856   002CFC  0E01               	movlw	1
  8857   002CFE  6E04               	movwf	(??i2_gpio_pin_toggle_logic+1)^0,c
  8858   002D00  2A03               	incf	??i2_gpio_pin_toggle_logic^0,f,c
  8859   002D02  EF85  F016         	goto	i2u461_44
  8860   002D06                     i2u461_45:
  8861   002D06  90D8               	bcf	status,0,c
  8862   002D08  3604               	rlcf	(??i2_gpio_pin_toggle_logic+1)^0,f,c
  8863   002D0A                     i2u461_44:
  8864   002D0A  2E03               	decfsz	??i2_gpio_pin_toggle_logic^0,f,c
  8865   002D0C  EF83  F016         	goto	i2u461_45
  8866   002D10  C001  FFD9         	movff	i2gpio_pin_toggle_logic@_pin_config,fsr2l
  8867   002D14  C002  FFDA         	movff	i2gpio_pin_toggle_logic@_pin_config+1,fsr2h
  8868   002D18  50DF               	movf	223,w,c
  8869   002D1A  0B07               	andlw	7
  8870   002D1C  6E05               	movwf	(??i2_gpio_pin_toggle_logic+2)^0,c
  8871   002D1E  5005               	movf	(??i2_gpio_pin_toggle_logic+2)^0,w,c
  8872   002D20  0D02               	mullw	2
  8873   002D22  0EBC               	movlw	low _lat_registers
  8874   002D24  24F3               	addwf	243,w,c
  8875   002D26  6ED9               	movwf	fsr2l,c
  8876   002D28  0E00               	movlw	high _lat_registers
  8877   002D2A  20F4               	addwfc	prodh,w,c
  8878   002D2C  6EDA               	movwf	fsr2h,c
  8879   002D2E  CFDE F006          	movff	postinc2,??i2_gpio_pin_toggle_logic+3
  8880   002D32  CFDD F007          	movff	postdec2,??i2_gpio_pin_toggle_logic+4
  8881   002D36  C006  FFD9         	movff	??i2_gpio_pin_toggle_logic+3,fsr2l
  8882   002D3A  C007  FFDA         	movff	??i2_gpio_pin_toggle_logic+4,fsr2h
  8883   002D3E  5004               	movf	(??i2_gpio_pin_toggle_logic+1)^0,w,c
  8884   002D40  1ADF               	xorwf	indf2,f,c
  8885   002D42                     i2l499:
  8886   002D42  0012               	return		;funcret
  8887   002D44                     __end_ofi2_gpio_pin_toggle_logic:
  8888                           	callstack 0
  8889                           
  8890 ;; *************** function i2_EUSART_RX_ISR *****************
  8891 ;; Defined at:
  8892 ;;		line 236 in file "MCAL_Layer/USART/hal_usart.c"
  8893 ;; Parameters:    Size  Location     Type
  8894 ;;		None
  8895 ;; Auto vars:     Size  Location     Type
  8896 ;;		None
  8897 ;; Return value:  Size  Location     Type
  8898 ;;                  1    wreg      void 
  8899 ;; Registers used:
  8900 ;;		wreg, status,2, status,0
  8901 ;; Tracked objects:
  8902 ;;		On entry : 0/0
  8903 ;;		On exit  : 0/0
  8904 ;;		Unchanged: 0/0
  8905 ;; Data sizes:     COMRAM   BANK0   BANK1   BANK2   BANK3   BANK4   BANK5   BANK6   BANK7   BANK8   BANK9  BANK10  BANK1
      +1  BANK12  BANK13  BANK14  BANK15
  8906 ;;      Params:         0       0       0       0       0       0       0       0       0       0       0       0       
      +0       0       0       0       0
  8907 ;;      Locals:         0       0       0       0       0       0       0       0       0       0       0       0       
      +0       0       0       0       0
  8908 ;;      Temps:          0       0       0       0       0       0       0       0       0       0       0       0       
      +0       0       0       0       0
  8909 ;;      Totals:         0       0       0       0       0       0       0       0       0       0       0       0       
      +0       0       0       0       0
  8910 ;;Total ram usage:        0 bytes
  8911 ;; Hardware stack levels used: 1
  8912 ;; This function calls:
  8913 ;;		Nothing
  8914 ;; This function is called by:
  8915 ;;		i2_InterruptCheck
  8916 ;; This function uses a non-reentrant model
  8917 ;;
  8918                           
  8919                           	psect	text65
  8920   0036F0                     __ptext65:
  8921                           	callstack 0
  8922   0036F0                     i2_EUSART_RX_ISR:
  8923                           	callstack 18
  8924   0036F0  0012               	return		;funcret
  8925   0036F2                     __end_ofi2_EUSART_RX_ISR:
  8926                           	callstack 0
  8927                           
  8928 ;; *************** function i2_CCP2_ISR *****************
  8929 ;; Defined at:
  8930 ;;		line 200 in file "MCAL_Layer/CCP/CCP2/hal_ccp2.c"
  8931 ;; Parameters:    Size  Location     Type
  8932 ;;		None
  8933 ;; Auto vars:     Size  Location     Type
  8934 ;;		None
  8935 ;; Return value:  Size  Location     Type
  8936 ;;                  1    wreg      void 
  8937 ;; Registers used:
  8938 ;;		None
  8939 ;; Tracked objects:
  8940 ;;		On entry : 0/0
  8941 ;;		On exit  : 0/0
  8942 ;;		Unchanged: 0/0
  8943 ;; Data sizes:     COMRAM   BANK0   BANK1   BANK2   BANK3   BANK4   BANK5   BANK6   BANK7   BANK8   BANK9  BANK10  BANK1
      +1  BANK12  BANK13  BANK14  BANK15
  8944 ;;      Params:         0       0       0       0       0       0       0       0       0       0       0       0       
      +0       0       0       0       0
  8945 ;;      Locals:         0       0       0       0       0       0       0       0       0       0       0       0       
      +0       0       0       0       0
  8946 ;;      Temps:          0       0       0       0       0       0       0       0       0       0       0       0       
      +0       0       0       0       0
  8947 ;;      Totals:         0       0       0       0       0       0       0       0       0       0       0       0       
      +0       0       0       0       0
  8948 ;;Total ram usage:        0 bytes
  8949 ;; Hardware stack levels used: 1
  8950 ;; This function calls:
  8951 ;;		Nothing
  8952 ;; This function is called by:
  8953 ;;		i2_InterruptCheck
  8954 ;; This function uses a non-reentrant model
  8955 ;;
  8956                           
  8957                           	psect	text66
  8958   0036E6                     __ptext66:
  8959                           	callstack 0
  8960   0036E6                     i2_CCP2_ISR:
  8961                           	callstack 18
  8962   0036E6                     
  8963                           ;MCAL_Layer/CCP/CCP2/hal_ccp2.c: 201:     (PIR2bits.CCP2IF = 0);
  8964   0036E6  90A1               	bcf	161,0,c	;volatile
  8965   0036E8  0012               	return		;funcret
  8966   0036EA                     __end_ofi2_CCP2_ISR:
  8967                           	callstack 0
  8968                           
  8969 ;; *************** function i2_CCP1_ISR *****************
  8970 ;; Defined at:
  8971 ;;		line 200 in file "MCAL_Layer/CCP/CCP1/hal_ccp1.c"
  8972 ;; Parameters:    Size  Location     Type
  8973 ;;		None
  8974 ;; Auto vars:     Size  Location     Type
  8975 ;;		None
  8976 ;; Return value:  Size  Location     Type
  8977 ;;                  1    wreg      void 
  8978 ;; Registers used:
  8979 ;;		wreg, fsr2l, fsr2h, status,2, status,0, pcl, pclath, pclatu, tosl, cstack
  8980 ;; Tracked objects:
  8981 ;;		On entry : 0/0
  8982 ;;		On exit  : 0/0
  8983 ;;		Unchanged: 0/0
  8984 ;; Data sizes:     COMRAM   BANK0   BANK1   BANK2   BANK3   BANK4   BANK5   BANK6   BANK7   BANK8   BANK9  BANK10  BANK1
      +1  BANK12  BANK13  BANK14  BANK15
  8985 ;;      Params:         0       0       0       0       0       0       0       0       0       0       0       0       
      +0       0       0       0       0
  8986 ;;      Locals:         0       0       0       0       0       0       0       0       0       0       0       0       
      +0       0       0       0       0
  8987 ;;      Temps:          0       0       0       0       0       0       0       0       0       0       0       0       
      +0       0       0       0       0
  8988 ;;      Totals:         0       0       0       0       0       0       0       0       0       0       0       0       
      +0       0       0       0       0
  8989 ;;Total ram usage:        0 bytes
  8990 ;; Hardware stack levels used: 1
  8991 ;; Hardware stack levels required when called: 2
  8992 ;; This function calls:
  8993 ;;		NULL
  8994 ;;		i2_CCP1_interruptHundler
  8995 ;; This function is called by:
  8996 ;;		i2_InterruptCheck
  8997 ;; This function uses a non-reentrant model
  8998 ;;
  8999                           
  9000                           	psect	text67
  9001   003454                     __ptext67:
  9002                           	callstack 0
  9003   003454                     i2_CCP1_ISR:
  9004                           	callstack 16
  9005   003454                     
  9006                           ;MCAL_Layer/CCP/CCP1/hal_ccp1.c: 201:     (PIR1bits.CCP1IF = 0);
  9007   003454  949E               	bcf	158,2,c	;volatile
  9008   003456                     
  9009                           ;MCAL_Layer/CCP/CCP1/hal_ccp1.c: 203:     if(CCP1_InterruptHandler){
  9010   003456  5038               	movf	_CCP1_InterruptHandler^0,w,c
  9011   003458  1039               	iorwf	(_CCP1_InterruptHandler+1)^0,w,c
  9012   00345A  B4D8               	btfsc	status,2,c
  9013   00345C  EF32  F01A         	goto	i2u607_41
  9014   003460  EF34  F01A         	goto	i2u607_40
  9015   003464                     i2u607_41:
  9016   003464  EF40  F01A         	goto	i2l1329
  9017   003468                     i2u607_40:
  9018   003468                     
  9019                           ;MCAL_Layer/CCP/CCP1/hal_ccp1.c: 204:         CCP1_InterruptHandler();
  9020   003468  D802               	call	i2u608_48
  9021   00346A  EF40  F01A         	goto	i2u608_49
  9022   00346E                     i2u608_48:
  9023   00346E  0005               	push	
  9024   003470  6EFA               	movwf	pclath,c
  9025   003472  5038               	movf	_CCP1_InterruptHandler^0,w,c
  9026   003474  6EFD               	movwf	tosl,c
  9027   003476  5039               	movf	(_CCP1_InterruptHandler+1)^0,w,c
  9028   003478  6EFE               	movwf	tosh,c
  9029   00347A  6AFF               	clrf	tosu,c
  9030   00347C  50FA               	movf	pclath,w,c
  9031   00347E  0012               	return		;indir
  9032   003480                     i2u608_49:
  9033   003480                     i2l1329:
  9034   003480  0012               	return		;funcret
  9035   003482                     __end_ofi2_CCP1_ISR:
  9036                           	callstack 0
  9037                           
  9038 ;; *************** function i2_CCP1_interruptHundler *****************
  9039 ;; Defined at:
  9040 ;;		line 144 in file "application.c"
  9041 ;; Parameters:    Size  Location     Type
  9042 ;;		None
  9043 ;; Auto vars:     Size  Location     Type
  9044 ;;		None
  9045 ;; Return value:  Size  Location     Type
  9046 ;;                  1    wreg      void 
  9047 ;; Registers used:
  9048 ;;		wreg, fsr2l, fsr2h, status,2, status,0, cstack
  9049 ;; Tracked objects:
  9050 ;;		On entry : 0/0
  9051 ;;		On exit  : 0/0
  9052 ;;		Unchanged: 0/0
  9053 ;; Data sizes:     COMRAM   BANK0   BANK1   BANK2   BANK3   BANK4   BANK5   BANK6   BANK7   BANK8   BANK9  BANK10  BANK1
      +1  BANK12  BANK13  BANK14  BANK15
  9054 ;;      Params:         0       0       0       0       0       0       0       0       0       0       0       0       
      +0       0       0       0       0
  9055 ;;      Locals:         0       0       0       0       0       0       0       0       0       0       0       0       
      +0       0       0       0       0
  9056 ;;      Temps:          0       0       0       0       0       0       0       0       0       0       0       0       
      +0       0       0       0       0
  9057 ;;      Totals:         0       0       0       0       0       0       0       0       0       0       0       0       
      +0       0       0       0       0
  9058 ;;Total ram usage:        0 bytes
  9059 ;; Hardware stack levels used: 1
  9060 ;; Hardware stack levels required when called: 1
  9061 ;; This function calls:
  9062 ;;		i2_CCP1_Capture_Mode_Read_Value
  9063 ;;		i2_Timer3_Write_value
  9064 ;; This function is called by:
  9065 ;; This function uses a non-reentrant model
  9066 ;;
  9067                           
  9068                           	psect	text68
  9069   002FA4                     __ptext68:
  9070                           	callstack 0
  9071   002FA4                     i2_CCP1_interruptHundler:
  9072                           	callstack 16
  9073   002FA4                     
  9074                           ;application.c: 145:     CCP1_Interrupt_flag++;
  9075   002FA4  2A49               	incf	_CCP1_Interrupt_flag^0,f,c	;volatile
  9076                           
  9077                           ;application.c: 146:     CCP1_Interrupt_flag_2++;
  9078   002FA6  2A48               	incf	_CCP1_Interrupt_flag_2^0,f,c	;volatile
  9079   002FA8                     
  9080                           ;application.c: 147:     if(CCP1_Interrupt_flag == 1){
  9081   002FA8  0449               	decf	_CCP1_Interrupt_flag^0,w,c	;volatile
  9082   002FAA  A4D8               	btfss	status,2,c
  9083   002FAC  EFDA  F017         	goto	i2u578_41
  9084   002FB0  EFDC  F017         	goto	i2u578_40
  9085   002FB4                     i2u578_41:
  9086   002FB4  EFF1  F017         	goto	i2l6057
  9087   002FB8                     i2u578_40:
  9088   002FB8                     
  9089                           ;application.c: 148:         Timer3_Write_value(&timer3,0);
  9090   002FB8  0EE2               	movlw	low _timer3
  9091   002FBA  6E01               	movwf	i2Timer3_Write_value@_timer^0,c
  9092   002FBC  0E00               	movlw	high _timer3
  9093   002FBE  6E02               	movwf	(i2Timer3_Write_value@_timer+1)^0,c
  9094   002FC0  0E00               	movlw	0
  9095   002FC2  6E04               	movwf	(i2Timer3_Write_value@_value+1)^0,c
  9096   002FC4  0E00               	movlw	0
  9097   002FC6  6E03               	movwf	i2Timer3_Write_value@_value^0,c
  9098   002FC8  EC86  F01A         	call	i2_Timer3_Write_value	;wreg free
  9099   002FCC                     
  9100                           ;application.c: 149:         timer3_overflow = 0;
  9101   002FCC  0E00               	movlw	0
  9102   002FCE  0100               	movlb	0	; () banked
  9103   002FD0  6F8E               	movwf	_timer3_overflow& (0+255),b	;volatile
  9104   002FD2  0E00               	movlw	0
  9105   002FD4  6F8F               	movwf	(_timer3_overflow+1)& (0+255),b	;volatile
  9106   002FD6  0E00               	movlw	0
  9107   002FD8  6F90               	movwf	(_timer3_overflow+2)& (0+255),b	;volatile
  9108   002FDA  0E00               	movlw	0
  9109   002FDC  6F91               	movwf	(_timer3_overflow+3)& (0+255),b	;volatile
  9110                           
  9111                           ;application.c: 150:     }
  9112   002FDE  EF02  F018         	goto	i2l1146
  9113   002FE2                     i2l6057:
  9114   002FE2  0E02               	movlw	2
  9115   002FE4  1849               	xorwf	_CCP1_Interrupt_flag^0,w,c	;volatile
  9116   002FE6  A4D8               	btfss	status,2,c
  9117   002FE8  EFF8  F017         	goto	i2u579_41
  9118   002FEC  EFFA  F017         	goto	i2u579_40
  9119   002FF0                     i2u579_41:
  9120   002FF0  EF02  F018         	goto	i2l1146
  9121   002FF4                     i2u579_40:
  9122   002FF4                     
  9123                           ;application.c: 153:         CCP1_Interrupt_flag = 0;
  9124   002FF4  0E00               	movlw	0
  9125   002FF6  6E49               	movwf	_CCP1_Interrupt_flag^0,c	;volatile
  9126   002FF8                     
  9127                           ;application.c: 154:         CCP1_Capture_Mode_Read_Value(&ccp1_capature_value);
  9128   002FF8  0E4F               	movlw	low _ccp1_capature_value
  9129   002FFA  6E01               	movwf	i2CCP1_Capture_Mode_Read_Value@_capture_value^0,c
  9130   002FFC  0E00               	movlw	high _ccp1_capature_value
  9131   002FFE  6E02               	movwf	(i2CCP1_Capture_Mode_Read_Value@_capture_value+1)^0,c
  9132   003000  EC13  F019         	call	i2_CCP1_Capture_Mode_Read_Value	;wreg free
  9133   003004                     i2l1146:
  9134   003004  0012               	return		;funcret
  9135   003006                     __end_ofi2_CCP1_interruptHundler:
  9136                           	callstack 0
  9137                           
  9138 ;; *************** function i2_Timer3_Write_value *****************
  9139 ;; Defined at:
  9140 ;;		line 95 in file "MCAL_Layer/Timer/Timer3/hal_timer3.c"
  9141 ;; Parameters:    Size  Location     Type
  9142 ;;  _timer          2    0[COMRAM] PTR const struct .
  9143 ;;		 -> timer3(6), 
  9144 ;;  _value          2    2[COMRAM] unsigned short 
  9145 ;; Auto vars:     Size  Location     Type
  9146 ;;  ret             1    0        unsigned char 
  9147 ;; Return value:  Size  Location     Type
  9148 ;;                  1    wreg      unsigned char 
  9149 ;; Registers used:
  9150 ;;		wreg, status,2, status,0
  9151 ;; Tracked objects:
  9152 ;;		On entry : 0/0
  9153 ;;		On exit  : 0/0
  9154 ;;		Unchanged: 0/0
  9155 ;; Data sizes:     COMRAM   BANK0   BANK1   BANK2   BANK3   BANK4   BANK5   BANK6   BANK7   BANK8   BANK9  BANK10  BANK1
      +1  BANK12  BANK13  BANK14  BANK15
  9156 ;;      Params:         4       0       0       0       0       0       0       0       0       0       0       0       
      +0       0       0       0       0
  9157 ;;      Locals:         0       0       0       0       0       0       0       0       0       0       0       0       
      +0       0       0       0       0
  9158 ;;      Temps:          0       0       0       0       0       0       0       0       0       0       0       0       
      +0       0       0       0       0
  9159 ;;      Totals:         4       0       0       0       0       0       0       0       0       0       0       0       
      +0       0       0       0       0
  9160 ;;Total ram usage:        4 bytes
  9161 ;; Hardware stack levels used: 1
  9162 ;; This function calls:
  9163 ;;		Nothing
  9164 ;; This function is called by:
  9165 ;;		i2_CCP1_interruptHundler
  9166 ;; This function uses a non-reentrant model
  9167 ;;
  9168                           
  9169                           	psect	text69
  9170   00350C                     __ptext69:
  9171                           	callstack 0
  9172   00350C                     i2_Timer3_Write_value:
  9173                           	callstack 16
  9174   00350C                     
  9175                           ;MCAL_Layer/Timer/Timer3/hal_timer3.c: 97:     if(((void*)0) == _timer){
  9176   00350C  5001               	movf	i2Timer3_Write_value@_timer^0,w,c
  9177   00350E  1002               	iorwf	(i2Timer3_Write_value@_timer+1)^0,w,c
  9178   003510  A4D8               	btfss	status,2,c
  9179   003512  EF8D  F01A         	goto	i2u563_41
  9180   003516  EF8F  F01A         	goto	i2u563_40
  9181   00351A                     i2u563_41:
  9182   00351A  EF91  F01A         	goto	i2l5925
  9183   00351E                     i2u563_40:
  9184   00351E                     
  9185                           ;MCAL_Layer/Timer/Timer3/hal_timer3.c: 99:     }
  9186   00351E  EF95  F01A         	goto	i2l1242
  9187   003522                     i2l5925:
  9188                           
  9189                           ;MCAL_Layer/Timer/Timer3/hal_timer3.c: 101:     {;MCAL_Layer/Timer/Timer3/hal_timer3.c: 
      +                          102:         TMR3H = (_value) >>8;
  9190   003522  5004               	movf	(i2Timer3_Write_value@_value+1)^0,w,c
  9191   003524  6EB3               	movwf	179,c	;volatile
  9192   003526                     
  9193                           ;MCAL_Layer/Timer/Timer3/hal_timer3.c: 103:         TMR3L = (uint8)(_value);
  9194   003526  C003  FFB2         	movff	i2Timer3_Write_value@_value,4018	;volatile
  9195   00352A                     i2l1242:
  9196   00352A  0012               	return		;funcret
  9197   00352C                     __end_ofi2_Timer3_Write_value:
  9198                           	callstack 0
  9199                           
  9200 ;; *************** function i2_CCP1_Capture_Mode_Read_Value *****************
  9201 ;; Defined at:
  9202 ;;		line 108 in file "MCAL_Layer/CCP/CCP1/hal_ccp1.c"
  9203 ;; Parameters:    Size  Location     Type
  9204 ;;  _capture_val    2    0[COMRAM] PTR unsigned short 
  9205 ;;		 -> ccp1_capature_value(4), 
  9206 ;; Auto vars:     Size  Location     Type
  9207 ;;  compare_temp    2    2[COMRAM] struct .
  9208 ;;  ret             1    0        unsigned char 
  9209 ;; Return value:  Size  Location     Type
  9210 ;;                  1    wreg      unsigned char 
  9211 ;; Registers used:
  9212 ;;		wreg, fsr2l, fsr2h, status,2, status,0
  9213 ;; Tracked objects:
  9214 ;;		On entry : 0/0
  9215 ;;		On exit  : 0/0
  9216 ;;		Unchanged: 0/0
  9217 ;; Data sizes:     COMRAM   BANK0   BANK1   BANK2   BANK3   BANK4   BANK5   BANK6   BANK7   BANK8   BANK9  BANK10  BANK1
      +1  BANK12  BANK13  BANK14  BANK15
  9218 ;;      Params:         2       0       0       0       0       0       0       0       0       0       0       0       
      +0       0       0       0       0
  9219 ;;      Locals:         2       0       0       0       0       0       0       0       0       0       0       0       
      +0       0       0       0       0
  9220 ;;      Temps:          0       0       0       0       0       0       0       0       0       0       0       0       
      +0       0       0       0       0
  9221 ;;      Totals:         4       0       0       0       0       0       0       0       0       0       0       0       
      +0       0       0       0       0
  9222 ;;Total ram usage:        4 bytes
  9223 ;; Hardware stack levels used: 1
  9224 ;; This function calls:
  9225 ;;		Nothing
  9226 ;; This function is called by:
  9227 ;;		i2_CCP1_interruptHundler
  9228 ;; This function uses a non-reentrant model
  9229 ;;
  9230                           
  9231                           	psect	text70
  9232   003226                     __ptext70:
  9233                           	callstack 0
  9234   003226                     i2_CCP1_Capture_Mode_Read_Value:
  9235                           	callstack 16
  9236   003226                     
  9237                           ;MCAL_Layer/CCP/CCP1/hal_ccp1.c: 110:     CCP1_REG_T compare_temp_value = {.ccpr1_16Bit 
      +                          = 0};
  9238   003226  C0A0  F003         	movff	CCP1_Capture_Mode_Read_Value@F3086,i2CCP1_Capture_Mode_Read_Value@compare_temp_va
      +                          lue
  9239   00322A  C0A1  F004         	movff	CCP1_Capture_Mode_Read_Value@F3086+1,i2CCP1_Capture_Mode_Read_Value@compare_temp_
      +                          value+1
  9240   00322E                     
  9241                           ;MCAL_Layer/CCP/CCP1/hal_ccp1.c: 111:     if(((void*)0) == _capture_value){
  9242   00322E  5001               	movf	i2CCP1_Capture_Mode_Read_Value@_capture_value^0,w,c
  9243   003230  1002               	iorwf	(i2CCP1_Capture_Mode_Read_Value@_capture_value+1)^0,w,c
  9244   003232  A4D8               	btfss	status,2,c
  9245   003234  EF1E  F019         	goto	i2u564_41
  9246   003238  EF20  F019         	goto	i2u564_40
  9247   00323C                     i2u564_41:
  9248   00323C  EF22  F019         	goto	i2l1314
  9249   003240                     i2u564_40:
  9250   003240                     
  9251                           ;MCAL_Layer/CCP/CCP1/hal_ccp1.c: 113:     }
  9252   003240  EF2E  F019         	goto	i2l1316
  9253   003244                     i2l1314:
  9254                           
  9255                           ;MCAL_Layer/CCP/CCP1/hal_ccp1.c: 115:     {;MCAL_Layer/CCP/CCP1/hal_ccp1.c: 116:        
      +                           compare_temp_value.ccpr1_low = CCPR1L;
  9256   003244  CFBE F003          	movff	4030,i2CCP1_Capture_Mode_Read_Value@compare_temp_value	;volatile
  9257                           
  9258                           ;MCAL_Layer/CCP/CCP1/hal_ccp1.c: 117:         compare_temp_value.ccpr1_high = CCPR1H;
  9259   003248  CFBF F004          	movff	4031,i2CCP1_Capture_Mode_Read_Value@compare_temp_value+1	;volatile
  9260   00324C                     
  9261                           ;MCAL_Layer/CCP/CCP1/hal_ccp1.c: 118:         *_capture_value = compare_temp_value.ccpr1
      +                          _16Bit;
  9262   00324C  C001  FFD9         	movff	i2CCP1_Capture_Mode_Read_Value@_capture_value,fsr2l
  9263   003250  C002  FFDA         	movff	i2CCP1_Capture_Mode_Read_Value@_capture_value+1,fsr2h
  9264   003254  C003  FFDE         	movff	i2CCP1_Capture_Mode_Read_Value@compare_temp_value,postinc2
  9265   003258  C004  FFDD         	movff	i2CCP1_Capture_Mode_Read_Value@compare_temp_value+1,postdec2
  9266   00325C                     i2l1316:
  9267   00325C  0012               	return		;funcret
  9268   00325E                     __end_ofi2_CCP1_Capture_Mode_Read_Value:
  9269                           	callstack 0
  9270                           
  9271 ;; *************** function i2_ADC_ISR *****************
  9272 ;; Defined at:
  9273 ;;		line 348 in file "MCAL_Layer/ADC/hal_adc.c"
  9274 ;; Parameters:    Size  Location     Type
  9275 ;;		None
  9276 ;; Auto vars:     Size  Location     Type
  9277 ;;		None
  9278 ;; Return value:  Size  Location     Type
  9279 ;;                  1    wreg      void 
  9280 ;; Registers used:
  9281 ;;		None
  9282 ;; Tracked objects:
  9283 ;;		On entry : 0/0
  9284 ;;		On exit  : 0/0
  9285 ;;		Unchanged: 0/0
  9286 ;; Data sizes:     COMRAM   BANK0   BANK1   BANK2   BANK3   BANK4   BANK5   BANK6   BANK7   BANK8   BANK9  BANK10  BANK1
      +1  BANK12  BANK13  BANK14  BANK15
  9287 ;;      Params:         0       0       0       0       0       0       0       0       0       0       0       0       
      +0       0       0       0       0
  9288 ;;      Locals:         0       0       0       0       0       0       0       0       0       0       0       0       
      +0       0       0       0       0
  9289 ;;      Temps:          0       0       0       0       0       0       0       0       0       0       0       0       
      +0       0       0       0       0
  9290 ;;      Totals:         0       0       0       0       0       0       0       0       0       0       0       0       
      +0       0       0       0       0
  9291 ;;Total ram usage:        0 bytes
  9292 ;; Hardware stack levels used: 1
  9293 ;; This function calls:
  9294 ;;		Nothing
  9295 ;; This function is called by:
  9296 ;;		i2_InterruptCheck
  9297 ;; This function uses a non-reentrant model
  9298 ;;
  9299                           
  9300                           	psect	text71
  9301   0036EA                     __ptext71:
  9302                           	callstack 0
  9303   0036EA                     i2_ADC_ISR:
  9304                           	callstack 18
  9305   0036EA                     
  9306                           ;MCAL_Layer/ADC/hal_adc.c: 349:     (PIR1bits.ADIF = 0);
  9307   0036EA  9C9E               	bcf	158,6,c	;volatile
  9308   0036EC  0012               	return		;funcret
  9309   0036EE                     __end_ofi2_ADC_ISR:
  9310                           	callstack 0
  9311                           
  9312                           	psect	text72
  9313   000000                     __ptext72:
  9314                           	callstack 0
  9315   000000                     
  9316                           	psect	rparam
  9317   000000                     
  9318                           	psect	temp
  9319   00005A                     btemp:
  9320                           	callstack 0
  9321   00005A                     	ds	1
  9322   000000                     int$flags	set	btemp
  9323   000000                     wtemp8	set	btemp+1
  9324   000000                     ttemp5	set	btemp+1
  9325   000000                     ttemp6	set	btemp+4
  9326   000000                     ttemp7	set	btemp+8
  9327                           
  9328                           	psect	idloc
  9329                           
  9330                           ;Config register IDLOC0 @ 0x200000
  9331                           ;	unspecified, using default values
  9332   200000                     	org	2097152
  9333   200000  FF                 	db	255
  9334                           
  9335                           ;Config register IDLOC1 @ 0x200001
  9336                           ;	unspecified, using default values
  9337   200001                     	org	2097153
  9338   200001  FF                 	db	255
  9339                           
  9340                           ;Config register IDLOC2 @ 0x200002
  9341                           ;	unspecified, using default values
  9342   200002                     	org	2097154
  9343   200002  FF                 	db	255
  9344                           
  9345                           ;Config register IDLOC3 @ 0x200003
  9346                           ;	unspecified, using default values
  9347   200003                     	org	2097155
  9348   200003  FF                 	db	255
  9349                           
  9350                           ;Config register IDLOC4 @ 0x200004
  9351                           ;	unspecified, using default values
  9352   200004                     	org	2097156
  9353   200004  FF                 	db	255
  9354                           
  9355                           ;Config register IDLOC5 @ 0x200005
  9356                           ;	unspecified, using default values
  9357   200005                     	org	2097157
  9358   200005  FF                 	db	255
  9359                           
  9360                           ;Config register IDLOC6 @ 0x200006
  9361                           ;	unspecified, using default values
  9362   200006                     	org	2097158
  9363   200006  FF                 	db	255
  9364                           
  9365                           ;Config register IDLOC7 @ 0x200007
  9366                           ;	unspecified, using default values
  9367   200007                     	org	2097159
  9368   200007  FF                 	db	255
  9369                           
  9370                           	psect	config
  9371                           
  9372                           ; Padding undefined space
  9373   300000                     	org	3145728
  9374   300000  FF                 	db	255
  9375                           
  9376                           ;Config register CONFIG1H @ 0x300001
  9377                           ;	Oscillator Selection bits
  9378                           ;	OSC = HS, HS oscillator
  9379                           ;	Fail-Safe Clock Monitor Enable bit
  9380                           ;	FCMEN = OFF, Fail-Safe Clock Monitor disabled
  9381                           ;	Internal/External Oscillator Switchover bit
  9382                           ;	IESO = OFF, Oscillator Switchover mode disabled
  9383   300001                     	org	3145729
  9384   300001  02                 	db	2
  9385                           
  9386                           ;Config register CONFIG2L @ 0x300002
  9387                           ;	Power-up Timer Enable bit
  9388                           ;	PWRT = OFF, PWRT disabled
  9389                           ;	Brown-out Reset Enable bits
  9390                           ;	BOREN = OFF, Brown-out Reset disabled in hardware and software
  9391                           ;	Brown Out Reset Voltage bits
  9392                           ;	BORV = 1, 
  9393   300002                     	org	3145730
  9394   300002  09                 	db	9
  9395                           
  9396                           ;Config register CONFIG2H @ 0x300003
  9397                           ;	Watchdog Timer Enable bit
  9398                           ;	WDT = OFF, WDT disabled (control is placed on the SWDTEN bit)
  9399                           ;	Watchdog Timer Postscale Select bits
  9400                           ;	WDTPS = 32768, 1:32768
  9401   300003                     	org	3145731
  9402   300003  1E                 	db	30
  9403                           
  9404                           ; Padding undefined space
  9405   300004                     	org	3145732
  9406   300004  FF                 	db	255
  9407                           
  9408                           ;Config register CONFIG3H @ 0x300005
  9409                           ;	CCP2 MUX bit
  9410                           ;	CCP2MX = PORTC, CCP2 input/output is multiplexed with RC1
  9411                           ;	PORTB A/D Enable bit
  9412                           ;	PBADEN = OFF, PORTB<4:0> pins are configured as digital I/O on Reset
  9413                           ;	Low-Power Timer1 Oscillator Enable bit
  9414                           ;	LPT1OSC = OFF, Timer1 configured for higher power operation
  9415                           ;	MCLR Pin Enable bit
  9416                           ;	MCLRE = ON, MCLR pin enabled; RE3 input pin disabled
  9417   300005                     	org	3145733
  9418   300005  81                 	db	129
  9419                           
  9420                           ;Config register CONFIG4L @ 0x300006
  9421                           ;	Stack Full/Underflow Reset Enable bit
  9422                           ;	STVREN = ON, Stack full/underflow will cause Reset
  9423                           ;	Single-Supply ICSP Enable bit
  9424                           ;	LVP = OFF, Single-Supply ICSP disabled
  9425                           ;	Extended Instruction Set Enable bit
  9426                           ;	XINST = OFF, Instruction set extension and Indexed Addressing mode disabled (Legacy mo
      +                          de)
  9427                           ;	Background Debugger Enable bit
  9428                           ;	DEBUG = 0x1, unprogrammed default
  9429   300006                     	org	3145734
  9430   300006  81                 	db	129
  9431                           
  9432                           ; Padding undefined space
  9433   300007                     	org	3145735
  9434   300007  FF                 	db	255
  9435                           
  9436                           ;Config register CONFIG5L @ 0x300008
  9437                           ;	Code Protection bit
  9438                           ;	CP0 = OFF, Block 0 (000800-003FFFh) not code-protected
  9439                           ;	Code Protection bit
  9440                           ;	CP1 = OFF, Block 1 (004000-007FFFh) not code-protected
  9441                           ;	Code Protection bit
  9442                           ;	CP2 = OFF, Block 2 (008000-00BFFFh) not code-protected
  9443                           ;	Code Protection bit
  9444                           ;	CP3 = OFF, Block 3 (00C000-00FFFFh) not code-protected
  9445   300008                     	org	3145736
  9446   300008  0F                 	db	15
  9447                           
  9448                           ;Config register CONFIG5H @ 0x300009
  9449                           ;	Boot Block Code Protection bit
  9450                           ;	CPB = OFF, Boot block (000000-0007FFh) not code-protected
  9451                           ;	Data EEPROM Code Protection bit
  9452                           ;	CPD = OFF, Data EEPROM not code-protected
  9453   300009                     	org	3145737
  9454   300009  C0                 	db	192
  9455                           
  9456                           ;Config register CONFIG6L @ 0x30000A
  9457                           ;	Write Protection bit
  9458                           ;	WRT0 = OFF, Block 0 (000800-003FFFh) not write-protected
  9459                           ;	Write Protection bit
  9460                           ;	WRT1 = OFF, Block 1 (004000-007FFFh) not write-protected
  9461                           ;	Write Protection bit
  9462                           ;	WRT2 = OFF, Block 2 (008000-00BFFFh) not write-protected
  9463                           ;	Write Protection bit
  9464                           ;	WRT3 = OFF, Block 3 (00C000-00FFFFh) not write-protected
  9465   30000A                     	org	3145738
  9466   30000A  0F                 	db	15
  9467                           
  9468                           ;Config register CONFIG6H @ 0x30000B
  9469                           ;	Configuration Register Write Protection bit
  9470                           ;	WRTC = OFF, Configuration registers (300000-3000FFh) not write-protected
  9471                           ;	Boot Block Write Protection bit
  9472                           ;	WRTB = OFF, Boot Block (000000-0007FFh) not write-protected
  9473                           ;	Data EEPROM Write Protection bit
  9474                           ;	WRTD = OFF, Data EEPROM not write-protected
  9475   30000B                     	org	3145739
  9476   30000B  E0                 	db	224
  9477                           
  9478                           ;Config register CONFIG7L @ 0x30000C
  9479                           ;	Table Read Protection bit
  9480                           ;	EBTR0 = OFF, Block 0 (000800-003FFFh) not protected from table reads executed in other
      +                           blocks
  9481                           ;	Table Read Protection bit
  9482                           ;	EBTR1 = OFF, Block 1 (004000-007FFFh) not protected from table reads executed in other
      +                           blocks
  9483                           ;	Table Read Protection bit
  9484                           ;	EBTR2 = OFF, Block 2 (008000-00BFFFh) not protected from table reads executed in other
      +                           blocks
  9485                           ;	Table Read Protection bit
  9486                           ;	EBTR3 = OFF, Block 3 (00C000-00FFFFh) not protected from table reads executed in other
      +                           blocks
  9487   30000C                     	org	3145740
  9488   30000C  0F                 	db	15
  9489                           
  9490                           ;Config register CONFIG7H @ 0x30000D
  9491                           ;	Boot Block Table Read Protection bit
  9492                           ;	EBTRB = OFF, Boot Block (000000-0007FFh) not protected from table reads executed in ot
      +                          her blocks
  9493   30000D                     	org	3145741
  9494   30000D  40                 	db	64
  9495                           tosu	equ	0xFFF
  9496                           tosh	equ	0xFFE
  9497                           tosl	equ	0xFFD
  9498                           stkptr	equ	0xFFC
  9499                           pclatu	equ	0xFFB
  9500                           pclath	equ	0xFFA
  9501                           pcl	equ	0xFF9
  9502                           tblptru	equ	0xFF8
  9503                           tblptrh	equ	0xFF7
  9504                           tblptrl	equ	0xFF6
  9505                           tablat	equ	0xFF5
  9506                           prodh	equ	0xFF4
  9507                           prodl	equ	0xFF3
  9508                           indf0	equ	0xFEF
  9509                           postinc0	equ	0xFEE
  9510                           postdec0	equ	0xFED
  9511                           preinc0	equ	0xFEC
  9512                           plusw0	equ	0xFEB
  9513                           fsr0h	equ	0xFEA
  9514                           fsr0l	equ	0xFE9
  9515                           wreg	equ	0xFE8
  9516                           indf1	equ	0xFE7
  9517                           postinc1	equ	0xFE6
  9518                           postdec1	equ	0xFE5
  9519                           preinc1	equ	0xFE4
  9520                           plusw1	equ	0xFE3
  9521                           fsr1h	equ	0xFE2
  9522                           fsr1l	equ	0xFE1
  9523                           bsr	equ	0xFE0
  9524                           indf2	equ	0xFDF
  9525                           postinc2	equ	0xFDE
  9526                           postdec2	equ	0xFDD
  9527                           preinc2	equ	0xFDC
  9528                           plusw2	equ	0xFDB
  9529                           fsr2h	equ	0xFDA
  9530                           fsr2l	equ	0xFD9
  9531                           status	equ	0xFD8

Data Sizes:
    Strings     10
    Constant    0
    Data        102
    BSS         101
    Persistent  0
    Stack       0

Auto Spaces:
    Space          Size  Autos    Used
    COMRAM          126     53      89
    BANK0           128     18     128
    BANK1           256     36      93
    BANK2           256      0       0
    BANK3           256      0       0
    BANK4           256      0       0
    BANK5           256      0       0
    BANK6           256      0       0
    BANK7           256      0       0
    BANK8           256      0       0
    BANK9           256      0       0
    BANK10          256      0       0
    BANK11          256      0       0
    BANK12          256      0       0
    BANK13          256      0       0
    BANK14          256      0       0
    BANK15          128      0       0

Pointer List with Targets:

    vfprintf$2	PTR PTR void  size(2) Largest target is 2
		 -> sprintf@ap(COMRAM[2]), 

    vfprintf$1	PTR const unsigned char  size(2) Largest target is 3
		 -> STR_3(CODE[3]), STR_2(CODE[3]), STR_1(CODE[3]), 

    vfprintf$0	PTR struct _IO_FILE size(2) Largest target is 12
		 -> sprintf@f(COMRAM[12]), 

    S4793$source	PTR const unsigned char  size(2) Largest target is 0

    f...source	PTR const unsigned char  size(2) Largest target is 0

    S4793$buffer	PTR unsigned char  size(2) Largest target is 0

    f...buffer	PTR unsigned char  size(2) Largest target is 0

    CCP2_Capture_Mode_Timer_Select@_ccp_obj.CCP2_InterruptHandler	PTR FTN()void  size(2) Largest target is 0

    CCP2_InterruptHandler	PTR FTN()void  size(2) Largest target is 1
		 -> NULL(), 

    S4076$CCP2_InterruptHandler	PTR FTN()void  size(2) Largest target is 0

    CCP2_Init@_ccp.CCP2_InterruptHandler	PTR FTN()void  size(2) Largest target is 0

    EUSART_OverrunErrorHandler	PTR FTN()void  size(2) Largest target is 1
		 -> NULL(), 

    EUSART_FramingErrorHandler	PTR FTN()void  size(2) Largest target is 1
		 -> NULL(), 

    EUSART_Rx_InterruptHandler	PTR FTN()void  size(2) Largest target is 1
		 -> NULL(), 

    EUSART_ASYNC_RX_Init@_eusart.EUSART_OverrunErrorHandler	PTR FTN()void  size(2) Largest target is 1
		 -> NULL(), 

    EUSART_ASYNC_RX_Init@_eusart.EUSART_FramingErrorHandler	PTR FTN()void  size(2) Largest target is 1
		 -> NULL(), 

    EUSART_ASYNC_RX_Init@_eusart.EUSART_RxDefailtInterruptHandler	PTR FTN()void  size(2) Largest target is 1
		 -> NULL(), 

    EUSART_ASYNC_RX_Init@_eusart.EUSART_TxDefailtInterruptHandler	PTR FTN()void  size(2) Largest target is 1
		 -> EUSART_Tx_InterruptHandler(), 

    EUSART_ASYNC_RX_Init@_eusart	PTR const struct . size(2) Largest target is 19
		 -> usart_obj(BANK1[19]), 

    EUSART_Tx_InterruptHandler@hal_usart$F3917	PTR FTN()void  size(2) Largest target is 1
		 -> i2_EUSART_Tx_InterruptHandler(), EUSART_Tx_InterruptHandler(), NULL(), 

    EUSART_ASYNC_TX_Init@_eusart.EUSART_OverrunErrorHandler	PTR FTN()void  size(2) Largest target is 1
		 -> NULL(), 

    EUSART_ASYNC_TX_Init@_eusart.EUSART_FramingErrorHandler	PTR FTN()void  size(2) Largest target is 1
		 -> NULL(), 

    EUSART_ASYNC_TX_Init@_eusart.EUSART_RxDefailtInterruptHandler	PTR FTN()void  size(2) Largest target is 1
		 -> NULL(), 

    EUSART_ASYNC_TX_Init@_eusart.EUSART_TxDefailtInterruptHandler	PTR FTN()void  size(2) Largest target is 1
		 -> EUSART_Tx_InterruptHandler(), 

    EUSART_ASYNC_TX_Init@_eusart	PTR const struct . size(2) Largest target is 19
		 -> usart_obj(BANK1[19]), 

    EUSART_Baud_Rate_Calculation@_eusart.EUSART_OverrunErrorHandler	PTR FTN()void  size(2) Largest target is 1
		 -> NULL(), 

    EUSART_Baud_Rate_Calculation@_eusart.EUSART_FramingErrorHandler	PTR FTN()void  size(2) Largest target is 1
		 -> NULL(), 

    EUSART_Baud_Rate_Calculation@_eusart.EUSART_RxDefailtInterruptHandler	PTR FTN()void  size(2) Largest target is 1
		 -> NULL(), 

    EUSART_Baud_Rate_Calculation@_eusart.EUSART_TxDefailtInterruptHandler	PTR FTN()void  size(2) Largest target is 1
		 -> EUSART_Tx_InterruptHandler(), 

    EUSART_Baud_Rate_Calculation@_eusart	PTR const struct . size(2) Largest target is 19
		 -> usart_obj(BANK1[19]), 

    EUSART_ASYNC_WriteStringBlocking@_data	PTR unsigned char  size(2) Largest target is 7
		 -> STR_4(CODE[7]), 

    EUSART_ASYNC_Init@_eusart	PTR const struct . size(2) Largest target is 19
		 -> usart_obj(BANK1[19]), 

    CCP1_Capture_Mode_Timer_Select@_ccp_obj.CCP1_InterruptHandler	PTR FTN()void  size(2) Largest target is 1
		 -> CCP1_interruptHundler(), 

    CCP1_Capture_Mode_Read_Value@_capture_value	PTR unsigned short  size(2) Largest target is 4
		 -> ccp1_capature_value(COMRAM[4]), 

    CCP1_InterruptHandler	PTR FTN()void  size(2) Largest target is 1
		 -> CCP1_interruptHundler(), NULL(), 

    CCP1_Init@_ccp.CCP1_InterruptHandler	PTR FTN()void  size(2) Largest target is 1
		 -> CCP1_interruptHundler(), 

    Timer3_Mode_Select@_timer.TMR3_InterruptHandler	PTR FTN()void  size(2) Largest target is 1
		 -> timer3_interruptHundler(), 

    Timer3_Write_value@_timer	PTR const struct . size(2) Largest target is 6
		 -> timer3(BANK0[6]), 

    TMR3_InterruptHandler	PTR FTN()void  size(2) Largest target is 1
		 -> timer3_interruptHundler(), NULL(), 

    Timer3_Init@_timer.TMR3_InterruptHandler	PTR FTN()void  size(2) Largest target is 1
		 -> timer3_interruptHundler(), 

    TMR2_InterruptHandler	PTR FTN()void  size(2) Largest target is 1
		 -> NULL(), 

    Timer2_Init@_timer.TMR2_InterruptHandler	PTR FTN()void  size(2) Largest target is 1
		 -> NULL(), 

    S2669$EUSART_OverrunErrorHandler	PTR FTN()void  size(2) Largest target is 1
		 -> NULL(), 

    usart_obj.EUSART_OverrunErrorHandler	PTR FTN()void  size(2) Largest target is 1
		 -> NULL(), 

    S2669$EUSART_FramingErrorHandler	PTR FTN()void  size(2) Largest target is 1
		 -> NULL(), 

    usart_obj.EUSART_FramingErrorHandler	PTR FTN()void  size(2) Largest target is 1
		 -> NULL(), 

    S2669$EUSART_RxDefailtInterruptHandler	PTR FTN()void  size(2) Largest target is 1
		 -> NULL(), 

    usart_obj.EUSART_RxDefailtInterruptHandler	PTR FTN()void  size(2) Largest target is 1
		 -> NULL(), 

    S2669$EUSART_TxDefailtInterruptHandler	PTR FTN()void  size(2) Largest target is 1
		 -> EUSART_Tx_InterruptHandler(), 

    usart_obj.EUSART_TxDefailtInterruptHandler	PTR FTN()void  size(2) Largest target is 1
		 -> i2_EUSART_Tx_InterruptHandler(), EUSART_Tx_InterruptHandler(), 

    S2626$TMR3_InterruptHandler	PTR FTN()void  size(2) Largest target is 1
		 -> timer3_interruptHundler(), 

    timer3.TMR3_InterruptHandler	PTR FTN()void  size(2) Largest target is 1
		 -> i2_timer3_interruptHundler(), timer3_interruptHundler(), 

    S2617$TMR2_InterruptHandler	PTR FTN()void  size(2) Largest target is 1
		 -> NULL(), 

    timer2.TMR2_InterruptHandler	PTR FTN()void  size(2) Largest target is 1
		 -> NULL(), 

    timer1.TMR1_InterruptHandler	PTR FTN()void  size(2) Largest target is 1
		 -> NULL(), 

    timer0.TMR0_InterruptHandler	PTR FTN()void  size(2) Largest target is 1
		 -> i2_timer0_interruptHundler(), timer0_interruptHundler(), 

    S2566$CCP1_InterruptHandler	PTR FTN()void  size(2) Largest target is 1
		 -> CCP1_interruptHundler(), 

    ccp1_obj.CCP1_InterruptHandler	PTR FTN()void  size(2) Largest target is 1
		 -> i2_CCP1_interruptHundler(), CCP1_interruptHundler(), 

    Timer1_Mode_Select@_timer.TMR1_InterruptHandler	PTR FTN()void  size(2) Largest target is 1
		 -> NULL(), 

    Timer1_Read_value@_value	PTR unsigned short  size(2) Largest target is 1
		 -> timer1_count(COMRAM[1]), 

    Timer1_Read_value@_timer	PTR const struct . size(2) Largest target is 6
		 -> timer1(BANK0[6]), 

    Timer1_Write_value@_timer	PTR const struct . size(2) Largest target is 6
		 -> timer1(BANK0[6]), 

    TMR1_InterruptHandler	PTR FTN()void  size(2) Largest target is 1
		 -> NULL(), 

    S2289$TMR1_InterruptHandler	PTR FTN()void  size(2) Largest target is 1
		 -> NULL(), 

    Timer1_Init@_timer.TMR1_InterruptHandler	PTR FTN()void  size(2) Largest target is 1
		 -> NULL(), 

    Timer0_Register_Size@_timer.TMR0_InterruptHandler	PTR FTN()void  size(2) Largest target is 1
		 -> timer0_interruptHundler(), 

    Timer0_Mode_Select@_timer.TMR0_InterruptHandler	PTR FTN()void  size(2) Largest target is 1
		 -> timer0_interruptHundler(), 

    Timer0_prescaler_config@_timer.TMR0_InterruptHandler	PTR FTN()void  size(2) Largest target is 1
		 -> timer0_interruptHundler(), 

    TMR0_InterruptHandler	PTR FTN()void  size(2) Largest target is 1
		 -> timer0_interruptHundler(), NULL(), 

    S2066$TMR0_InterruptHandler	PTR FTN()void  size(2) Largest target is 1
		 -> timer0_interruptHundler(), 

    Timer0_Init@_timer.TMR0_InterruptHandler	PTR FTN()void  size(2) Largest target is 1
		 -> timer0_interruptHundler(), 

    Interrupt_INTx_SetInterruptHandler@int_obj.InterruptHandler	PTR FTN()void  size(2) Largest target is 0

    INT2_InterruptHandler	PTR FTN()void  size(2) Largest target is 1
		 -> NULL(), 

    INT1_InterruptHandler	PTR FTN()void  size(2) Largest target is 1
		 -> NULL(), 

    INT0_InterruptHandler	PTR FTN()void  size(2) Largest target is 1
		 -> NULL(), 

    Interrupt_RBx_Pin_Init@int_obj.InterruptHandler_LOW	PTR FTN()void  size(2) Largest target is 0

    Interrupt_RBx_Pin_Init@int_obj.InterruptHandler_HIGH	PTR FTN()void  size(2) Largest target is 0

    Interrupt_RBx_Priority_Init@int_obj.InterruptHandler_LOW	PTR FTN()void  size(2) Largest target is 0

    Interrupt_RBx_Priority_Init@int_obj.InterruptHandler_HIGH	PTR FTN()void  size(2) Largest target is 0

    Interrupt_INTx_Clear_Flag@int_obj.InterruptHandler	PTR FTN()void  size(2) Largest target is 0

    Interrupt_INTx_Pin_Init@int_obj.InterruptHandler	PTR FTN()void  size(2) Largest target is 0

    Interrupt_INTx_Edge_Init@int_obj.InterruptHandler	PTR FTN()void  size(2) Largest target is 0

    Interrupt_INTx_Priority_Init@int_obj.InterruptHandler	PTR FTN()void  size(2) Largest target is 0

    Interrupt_INTx_Disable@int_obj.InterruptHandler	PTR FTN()void  size(2) Largest target is 0

    S1666$InterruptHandler	PTR FTN()void  size(2) Largest target is 0

    Interrupt_INTx_Enable@int_obj.InterruptHandler	PTR FTN()void  size(2) Largest target is 0

    RB7_InterruptHandler_LOW	PTR FTN()void  size(2) Largest target is 1
		 -> NULL(), 

    RB7_InterruptHandler_HIGH	PTR FTN()void  size(2) Largest target is 1
		 -> NULL(), 

    RB6_InterruptHandler_LOW	PTR FTN()void  size(2) Largest target is 1
		 -> NULL(), 

    RB6_InterruptHandler_HIGH	PTR FTN()void  size(2) Largest target is 1
		 -> NULL(), 

    RB5_InterruptHandler_LOW	PTR FTN()void  size(2) Largest target is 1
		 -> NULL(), 

    RB5_InterruptHandler_HIGH	PTR FTN()void  size(2) Largest target is 1
		 -> NULL(), 

    RB4_InterruptHandler_LOW	PTR FTN()void  size(2) Largest target is 1
		 -> NULL(), 

    RB4_InterruptHandler_HIGH	PTR FTN()void  size(2) Largest target is 1
		 -> NULL(), 

    S1709$InterruptHandler_LOW	PTR FTN()void  size(2) Largest target is 0

    Interrupt_RBx_Init@int_obj.InterruptHandler_LOW	PTR FTN()void  size(2) Largest target is 0

    S1709$InterruptHandler_HIGH	PTR FTN()void  size(2) Largest target is 0

    Interrupt_RBx_Init@int_obj.InterruptHandler_HIGH	PTR FTN()void  size(2) Largest target is 0

    gpio_pin_intialize@_pin_config	PTR const struct . size(2) Largest target is 1
		 -> led_initialize@pin_obj(BANK0[1]), 

    gpio_pin_toggle_logic@_pin_config	PTR const struct . size(2) Largest target is 1
		 -> led_turn_toggle@pin_obj(COMRAM[1]), 

    gpio_pin_write_logic@_pin_config	PTR const struct . size(2) Largest target is 1
		 -> led_turn_off@pin_obj(COMRAM[1]), led_turn_on@pin_obj(COMRAM[1]), led_initialize@pin_obj(BANK0[1]), 

    gpio_pin_direction_intialize@_pin_config	PTR const struct . size(2) Largest target is 1
		 -> led_initialize@pin_obj(BANK0[1]), 

    port_registers	PTR volatile unsigned char [5] size(2) Largest target is 1
		 -> PORTE(BITBIGSFRlllll[1]), PORTD(BITBIGSFRlllll[1]), PORTC(BITBIGSFRlllll[1]), PORTB(BITBIGSFRlllll[1]), 
		 -> PORTA(BITBIGSFRlllll[1]), 

    lat_registers	PTR volatile unsigned char [5] size(2) Largest target is 1
		 -> LATE(BITBIGSFRllllh[1]), LATD(BITBIGSFRllllh[1]), LATC(BITBIGSFRllllh[1]), LATB(BITBIGSFRllllh[1]), 
		 -> LATA(BITBIGSFRlllll[1]), 

    tris_registers	PTR volatile unsigned char [5] size(2) Largest target is 1
		 -> TRISD(ABS[1]), TRISC(ABS[1]), TRISB(ABS[1]), TRISE(ABS[1]), 
		 -> TRISA(BITBIGSFRlllll[1]), 

    select_voltage_referance@_adc.ADC_InterruptHandler	PTR FTN()void  size(2) Largest target is 0

    select_result_format@_adc.ADC_InterruptHandler	PTR FTN()void  size(2) Largest target is 0

    ADC_GetConversionResult@_adc.ADC_InterruptHandler	PTR FTN()void  size(2) Largest target is 0

    ADC_InterruptHandler	PTR FTN()void  size(2) Largest target is 1
		 -> NULL(), 

    S592$ADC_InterruptHandler	PTR FTN()void  size(2) Largest target is 0

    ADC_Init@_adc.ADC_InterruptHandler	PTR FTN()void  size(2) Largest target is 0

    led_turn_toggle@led	PTR const struct . size(2) Largest target is 1
		 -> led1(COMRAM[1]), 

    led_initialize@led	PTR const struct . size(2) Largest target is 1
		 -> led1(COMRAM[1]), 

    sp__memset	PTR void  size(2) Largest target is 0


Critical Paths under _main in COMRAM

    _app_intialize->_led_initialize
    _led_initialize->_gpio_pin_intialize
    _gpio_pin_intialize->_gpio_pin_write_logic
    _EUSART_ASYNC_Init->_EUSART_Baud_Rate_Calculation
    _EUSART_Baud_Rate_Calculation->___xxtofl
    ___fldiv->___xxtofl
    ___fladd->___xxtofl
    _EUSART_ASYNC_WriteStringBlocking->_EUSART_ASYNC_WriteByteBlocking

Critical Paths under _InterruptManagerLow in COMRAM

    _timer0_interruptHundler->_Timer1_Read_value
    _EUSART_Tx_InterruptHandler->_led_turn_toggle
    _led_turn_toggle->_gpio_pin_toggle_logic
    _CCP1_interruptHundler->_CCP1_Capture_Mode_Read_Value
    _CCP1_interruptHundler->_Timer3_Write_value

Critical Paths under _InterruptManagerHigh in COMRAM

    i2_timer0_interruptHundler->i2_Timer1_Read_value
    i2_EUSART_Tx_InterruptHandler->i2_led_turn_toggle
    i2_led_turn_toggle->i2_gpio_pin_toggle_logic
    i2_CCP1_interruptHundler->i2_CCP1_Capture_Mode_Read_Value
    i2_CCP1_interruptHundler->i2_Timer3_Write_value

Critical Paths under _main in BANK0

    _EUSART_ASYNC_Init->_EUSART_Baud_Rate_Calculation
    _EUSART_Baud_Rate_Calculation->___fladd
    ___fladd->___fldiv

Critical Paths under _InterruptManagerLow in BANK0

    None.

Critical Paths under _InterruptManagerHigh in BANK0

    None.

Critical Paths under _main in BANK1

    _app_intialize->_EUSART_ASYNC_Init
    _EUSART_ASYNC_Init->_EUSART_Baud_Rate_Calculation
    _EUSART_Baud_Rate_Calculation->___fladd
    ___fladd->___fldiv

Critical Paths under _InterruptManagerLow in BANK1

    None.

Critical Paths under _InterruptManagerHigh in BANK1

    None.

Critical Paths under _main in BANK2

    None.

Critical Paths under _InterruptManagerLow in BANK2

    None.

Critical Paths under _InterruptManagerHigh in BANK2

    None.

Critical Paths under _main in BANK3

    None.

Critical Paths under _InterruptManagerLow in BANK3

    None.

Critical Paths under _InterruptManagerHigh in BANK3

    None.

Critical Paths under _main in BANK4

    None.

Critical Paths under _InterruptManagerLow in BANK4

    None.

Critical Paths under _InterruptManagerHigh in BANK4

    None.

Critical Paths under _main in BANK5

    None.

Critical Paths under _InterruptManagerLow in BANK5

    None.

Critical Paths under _InterruptManagerHigh in BANK5

    None.

Critical Paths under _main in BANK6

    None.

Critical Paths under _InterruptManagerLow in BANK6

    None.

Critical Paths under _InterruptManagerHigh in BANK6

    None.

Critical Paths under _main in BANK7

    None.

Critical Paths under _InterruptManagerLow in BANK7

    None.

Critical Paths under _InterruptManagerHigh in BANK7

    None.

Critical Paths under _main in BANK8

    None.

Critical Paths under _InterruptManagerLow in BANK8

    None.

Critical Paths under _InterruptManagerHigh in BANK8

    None.

Critical Paths under _main in BANK9

    None.

Critical Paths under _InterruptManagerLow in BANK9

    None.

Critical Paths under _InterruptManagerHigh in BANK9

    None.

Critical Paths under _main in BANK10

    None.

Critical Paths under _InterruptManagerLow in BANK10

    None.

Critical Paths under _InterruptManagerHigh in BANK10

    None.

Critical Paths under _main in BANK11

    None.

Critical Paths under _InterruptManagerLow in BANK11

    None.

Critical Paths under _InterruptManagerHigh in BANK11

    None.

Critical Paths under _main in BANK12

    None.

Critical Paths under _InterruptManagerLow in BANK12

    None.

Critical Paths under _InterruptManagerHigh in BANK12

    None.

Critical Paths under _main in BANK13

    None.

Critical Paths under _InterruptManagerLow in BANK13

    None.

Critical Paths under _InterruptManagerHigh in BANK13

    None.

Critical Paths under _main in BANK14

    None.

Critical Paths under _InterruptManagerLow in BANK14

    None.

Critical Paths under _InterruptManagerHigh in BANK14

    None.

Critical Paths under _main in BANK15

    None.

Critical Paths under _InterruptManagerLow in BANK15

    None.

Critical Paths under _InterruptManagerHigh in BANK15

    None.

Call Graph Tables:

 ---------------------------------------------------------------------------------
 (Depth) Function   	        Calls       Base Space   Used Autos Params    Refs
 ---------------------------------------------------------------------------------
 (0) _main                                                 1     1      0   16637
   _EUSART_ASYNC_WriteStringBlocking
                      _app_intialize
 ---------------------------------------------------------------------------------
 (1) _app_intialize                                        1     1      0   16443
                  _EUSART_ASYNC_Init
                     _led_initialize
 ---------------------------------------------------------------------------------
 (2) _led_initialize                                       5     3      2    6414
                                             50 COMRAM     3     1      2
                                              0 BANK0      2     2      0
                 _gpio_pin_intialize
 ---------------------------------------------------------------------------------
 (3) _gpio_pin_intialize                                   3     1      2    6081
                                             47 COMRAM     3     1      2
       _gpio_pin_direction_intialize
               _gpio_pin_write_logic
 ---------------------------------------------------------------------------------
 (4) _gpio_pin_write_logic                                10     7      3    4037
                                             37 COMRAM    10     7      3
 ---------------------------------------------------------------------------------
 (4) _gpio_pin_direction_intialize                         9     7      2     707
                                             37 COMRAM     9     7      2
 ---------------------------------------------------------------------------------
 (2) _EUSART_ASYNC_Init                                    3     1      2   10020
                                             33 BANK1      3     1      2
               _EUSART_ASYNC_RX_Init
               _EUSART_ASYNC_TX_Init
       _EUSART_Baud_Rate_Calculation
 ---------------------------------------------------------------------------------
 (3) _EUSART_Baud_Rate_Calculation                        12    10      2    9152
                                             51 COMRAM     2     2      0
                                             16 BANK0      2     0      2
                                             25 BANK1      8     8      0
                            ___fladd
                            ___fldiv
                            ___fltol
                           ___xxtofl
 ---------------------------------------------------------------------------------
 (4) ___xxtofl                                            14    10      4     836
                                             37 COMRAM    14    10      4
 ---------------------------------------------------------------------------------
 (4) ___fltol                                             10     6      4     517
                                             37 COMRAM    10     6      4
 ---------------------------------------------------------------------------------
 (4) ___fldiv                                             25    17      8    3263
                                              0 BANK0     12     4      8
                                              0 BANK1     13    13      0
                           ___xxtofl (ARG)
 ---------------------------------------------------------------------------------
 (4) ___fladd                                             16     8      8    3942
                                             12 BANK0      4     4      0
                                             13 BANK1     12     4      8
                            ___fldiv (ARG)
                           ___xxtofl (ARG)
 ---------------------------------------------------------------------------------
 (3) _EUSART_ASYNC_TX_Init                                 3     1      2     276
                                             37 COMRAM     3     1      2
 ---------------------------------------------------------------------------------
 (3) _EUSART_ASYNC_RX_Init                                 3     1      2     338
                                             37 COMRAM     3     1      2
 ---------------------------------------------------------------------------------
 (1) _EUSART_ASYNC_WriteStringBlocking                     3     1      2     188
                                             38 COMRAM     3     1      2
     _EUSART_ASYNC_WriteByteBlocking
 ---------------------------------------------------------------------------------
 (2) _EUSART_ASYNC_WriteByteBlocking                       2     2      0      20
                                             37 COMRAM     1     1      0
 ---------------------------------------------------------------------------------
 Estimated maximum stack depth 4
 ---------------------------------------------------------------------------------
 (Depth) Function   	        Calls       Base Space   Used Autos Params    Refs
 ---------------------------------------------------------------------------------
 (5) _InterruptManagerLow                                  9     9      0    1611
                                             28 COMRAM     9     9      0
                     _InterruptCheck
 ---------------------------------------------------------------------------------
 (6) _InterruptCheck                                       0     0      0    1611
                            _ADC_ISR
                           _CCP1_ISR
                           _CCP2_ISR
                      _EUSART_RX_ISR
                      _EUSART_TX_ISR
                           _INT0_ISR
                           _INT1_ISR
                           _INT2_ISR
                            _RB4_ISR
                            _RB5_ISR
                            _RB6_ISR
                            _RB7_ISR
                           _TMR1_ISR
                           _TMR2_ISR
                           _TMR3_ISR
                           _TMRO_ISR
 ---------------------------------------------------------------------------------
 (7) _TMRO_ISR                                             0     0      0     502
                                NULL *
            _timer0_interruptHundler *
 ---------------------------------------------------------------------------------
 (8) _timer0_interruptHundler                              0     0      0     502
                  _Timer1_Read_value
                 _Timer1_Write_value
 ---------------------------------------------------------------------------------
 (9) _Timer1_Write_value                                   5     1      4     227
                                             17 COMRAM     4     0      4
 ---------------------------------------------------------------------------------
 (9) _Timer1_Read_value                                    9     5      4     275
                                             17 COMRAM     8     4      4
 ---------------------------------------------------------------------------------
 (7) _TMR3_ISR                                             0     0      0       0
                                NULL *
            _timer3_interruptHundler *
 ---------------------------------------------------------------------------------
 (8) _timer3_interruptHundler                              0     0      0       0
 ---------------------------------------------------------------------------------
 (7) _TMR2_ISR                                             0     0      0       0
 ---------------------------------------------------------------------------------
 (7) _TMR1_ISR                                             0     0      0       0
 ---------------------------------------------------------------------------------
 (7) _RB7_ISR                                              1     1      0      44
                                             17 COMRAM     1     1      0
 ---------------------------------------------------------------------------------
 (7) _RB6_ISR                                              1     1      0      44
                                             17 COMRAM     1     1      0
 ---------------------------------------------------------------------------------
 (7) _RB5_ISR                                              1     1      0      44
                                             17 COMRAM     1     1      0
 ---------------------------------------------------------------------------------
 (7) _RB4_ISR                                              1     1      0      44
                                             17 COMRAM     1     1      0
 ---------------------------------------------------------------------------------
 (7) _INT2_ISR                                             0     0      0       0
 ---------------------------------------------------------------------------------
 (7) _INT1_ISR                                             0     0      0       0
 ---------------------------------------------------------------------------------
 (7) _INT0_ISR                                             0     0      0       0
 ---------------------------------------------------------------------------------
 (7) _EUSART_TX_ISR                                        0     0      0     529
                                NULL *
         _EUSART_Tx_InterruptHandler *
 ---------------------------------------------------------------------------------
 (8) _EUSART_Tx_InterruptHandler                           0     0      0     529
                    _led_turn_toggle
 ---------------------------------------------------------------------------------
 (9) _led_turn_toggle                                      5     3      2     529
                                             24 COMRAM     4     2      2
              _gpio_pin_toggle_logic
 ---------------------------------------------------------------------------------
 (10) _gpio_pin_toggle_logic                               8     6      2     172
                                             17 COMRAM     7     5      2
 ---------------------------------------------------------------------------------
 (7) _EUSART_RX_ISR                                        0     0      0       0
 ---------------------------------------------------------------------------------
 (7) _CCP2_ISR                                             0     0      0       0
 ---------------------------------------------------------------------------------
 (7) _CCP1_ISR                                             0     0      0     404
                                NULL *
              _CCP1_interruptHundler *
 ---------------------------------------------------------------------------------
 (8) _CCP1_interruptHundler                                0     0      0     404
       _CCP1_Capture_Mode_Read_Value
                 _Timer3_Write_value
 ---------------------------------------------------------------------------------
 (9) _Timer3_Write_value                                   5     1      4     227
                                             17 COMRAM     4     0      4
 ---------------------------------------------------------------------------------
 (9) _CCP1_Capture_Mode_Read_Value                         5     3      2     177
                                             17 COMRAM     4     2      2
 ---------------------------------------------------------------------------------
 (14) NULL(Fake)                                           0     0      0       0
 ---------------------------------------------------------------------------------
 (7) _ADC_ISR                                              0     0      0       0
 ---------------------------------------------------------------------------------
 Estimated maximum stack depth 14
 ---------------------------------------------------------------------------------
 (Depth) Function   	        Calls       Base Space   Used Autos Params    Refs
 ---------------------------------------------------------------------------------
 (11) _InterruptManagerHigh                                6     6      0    1006
                                             11 COMRAM     6     6      0
                   i2_InterruptCheck
 ---------------------------------------------------------------------------------
 (12) i2_InterruptCheck                                    0     0      0    1006
                          i2_ADC_ISR
                         i2_CCP1_ISR
                         i2_CCP2_ISR
                    i2_EUSART_RX_ISR
                    i2_EUSART_TX_ISR
                         i2_INT0_ISR
                         i2_INT1_ISR
                         i2_INT2_ISR
                          i2_RB4_ISR
                          i2_RB5_ISR
                          i2_RB6_ISR
                          i2_RB7_ISR
                         i2_TMR1_ISR
                         i2_TMR2_ISR
                         i2_TMR3_ISR
                         i2_TMRO_ISR
 ---------------------------------------------------------------------------------
 (13) i2_TMRO_ISR                                          0     0      0     302
                                NULL *
          i2_timer0_interruptHundler *
 ---------------------------------------------------------------------------------
 (14) i2_timer0_interruptHundler                           0     0      0     302
                i2_Timer1_Read_value
               i2_Timer1_Write_value
 ---------------------------------------------------------------------------------
 (15) i2_Timer1_Write_value                                5     1      4     127
                                              0 COMRAM     4     0      4
 ---------------------------------------------------------------------------------
 (15) i2_Timer1_Read_value                                 9     5      4     175
                                              0 COMRAM     8     4      4
 ---------------------------------------------------------------------------------
 (13) i2_TMR3_ISR                                          0     0      0       0
                                NULL *
          i2_timer3_interruptHundler *
 ---------------------------------------------------------------------------------
 (14) i2_timer3_interruptHundler                           0     0      0       0
 ---------------------------------------------------------------------------------
 (13) i2_TMR2_ISR                                          0     0      0       0
 ---------------------------------------------------------------------------------
 (13) i2_TMR1_ISR                                          0     0      0       0
 ---------------------------------------------------------------------------------
 (13) i2_RB7_ISR                                           1     1      0      44
                                              0 COMRAM     1     1      0
 ---------------------------------------------------------------------------------
 (13) i2_RB6_ISR                                           1     1      0      44
                                              0 COMRAM     1     1      0
 ---------------------------------------------------------------------------------
 (13) i2_RB5_ISR                                           1     1      0      44
                                              0 COMRAM     1     1      0
 ---------------------------------------------------------------------------------
 (13) i2_RB4_ISR                                           1     1      0      44
                                              0 COMRAM     1     1      0
 ---------------------------------------------------------------------------------
 (13) i2_INT2_ISR                                          0     0      0       0
 ---------------------------------------------------------------------------------
 (13) i2_INT1_ISR                                          0     0      0       0
 ---------------------------------------------------------------------------------
 (13) i2_INT0_ISR                                          0     0      0       0
 ---------------------------------------------------------------------------------
 (13) i2_EUSART_TX_ISR                                     0     0      0     274
                                NULL *
       i2_EUSART_Tx_InterruptHandler *
 ---------------------------------------------------------------------------------
 (14) i2_EUSART_Tx_InterruptHandler                        0     0      0     274
                  i2_led_turn_toggle
 ---------------------------------------------------------------------------------
 (15) i2_led_turn_toggle                                   5     3      2     274
                                              7 COMRAM     4     2      2
            i2_gpio_pin_toggle_logic
 ---------------------------------------------------------------------------------
 (16) i2_gpio_pin_toggle_logic                             8     6      2     122
                                              0 COMRAM     7     5      2
 ---------------------------------------------------------------------------------
 (13) i2_EUSART_RX_ISR                                     0     0      0       0
 ---------------------------------------------------------------------------------
 (13) i2_CCP2_ISR                                          0     0      0       0
 ---------------------------------------------------------------------------------
 (13) i2_CCP1_ISR                                          0     0      0     254
                                NULL *
            i2_CCP1_interruptHundler *
 ---------------------------------------------------------------------------------
 (14) i2_CCP1_interruptHundler                             0     0      0     254
     i2_CCP1_Capture_Mode_Read_Value
               i2_Timer3_Write_value
 ---------------------------------------------------------------------------------
 (15) i2_Timer3_Write_value                                5     1      4     127
                                              0 COMRAM     4     0      4
 ---------------------------------------------------------------------------------
 (15) i2_CCP1_Capture_Mode_Read_Value                      5     3      2     127
                                              0 COMRAM     4     2      2
 ---------------------------------------------------------------------------------
 (14) NULL(Fake)                                           0     0      0       0
 ---------------------------------------------------------------------------------
 (13) i2_ADC_ISR                                           0     0      0       0
 ---------------------------------------------------------------------------------
 Estimated maximum stack depth 16
 ---------------------------------------------------------------------------------

 Call Graph Graphs:

 _main (ROOT)
   _EUSART_ASYNC_WriteStringBlocking
     _EUSART_ASYNC_WriteByteBlocking
   _app_intialize
     _EUSART_ASYNC_Init
       _EUSART_ASYNC_RX_Init
       _EUSART_ASYNC_TX_Init
       _EUSART_Baud_Rate_Calculation
         ___fladd
           ___fldiv (ARG)
             ___xxtofl (ARG)
           ___xxtofl (ARG)
         ___fldiv
         ___fltol
         ___xxtofl
     _led_initialize
       _gpio_pin_intialize
         _gpio_pin_direction_intialize
         _gpio_pin_write_logic

 _InterruptManagerLow (ROOT)
   _InterruptCheck
     _ADC_ISR
     _CCP1_ISR
       NULL(Fake) *
       _CCP1_interruptHundler *
         _CCP1_Capture_Mode_Read_Value
         _Timer3_Write_value
     _CCP2_ISR
     _EUSART_RX_ISR
     _EUSART_TX_ISR
       NULL(Fake) *
       _EUSART_Tx_InterruptHandler *
         _led_turn_toggle
           _gpio_pin_toggle_logic
     _INT0_ISR
     _INT1_ISR
     _INT2_ISR
     _RB4_ISR
     _RB5_ISR
     _RB6_ISR
     _RB7_ISR
     _TMR1_ISR
     _TMR2_ISR
     _TMR3_ISR
       NULL(Fake) *
       _timer3_interruptHundler *
     _TMRO_ISR
       NULL(Fake) *
       _timer0_interruptHundler *
         _Timer1_Read_value
         _Timer1_Write_value

 _InterruptManagerHigh (ROOT)
   i2_InterruptCheck
     i2_ADC_ISR
     i2_CCP1_ISR
       NULL(Fake) *
       i2_CCP1_interruptHundler *
         i2_CCP1_Capture_Mode_Read_Value
         i2_Timer3_Write_value
     i2_CCP2_ISR
     i2_EUSART_RX_ISR
     i2_EUSART_TX_ISR
       NULL(Fake) *
       i2_EUSART_Tx_InterruptHandler *
         i2_led_turn_toggle
           i2_gpio_pin_toggle_logic
     i2_INT0_ISR
     i2_INT1_ISR
     i2_INT2_ISR
     i2_RB4_ISR
     i2_RB5_ISR
     i2_RB6_ISR
     i2_RB7_ISR
     i2_TMR1_ISR
     i2_TMR2_ISR
     i2_TMR3_ISR
       NULL(Fake) *
       i2_timer3_interruptHundler *
     i2_TMRO_ISR
       NULL(Fake) *
       i2_timer0_interruptHundler *
         i2_Timer1_Read_value
         i2_Timer1_Write_value

 Address spaces:
Name               Size   Autos  Total    Cost      Usage
BIGRAM             F7F      0       0      48        0.0%
EEDATA             400      0       0       0        0.0%
BITBANK14          100      0       0      32        0.0%
BANK14             100      0       0      33        0.0%
BITBANK13          100      0       0      30        0.0%
BANK13             100      0       0      31        0.0%
BITBANK12          100      0       0      28        0.0%
BANK12             100      0       0      29        0.0%
BITBANK11          100      0       0      26        0.0%
BANK11             100      0       0      27        0.0%
BITBANK10          100      0       0      24        0.0%
BANK10             100      0       0      25        0.0%
BITBANK9           100      0       0      22        0.0%
BANK9              100      0       0      23        0.0%
BITBANK8           100      0       0      20        0.0%
BANK8              100      0       0      21        0.0%
BITBANK7           100      0       0      18        0.0%
BANK7              100      0       0      19        0.0%
BITBANK6           100      0       0      16        0.0%
BANK6              100      0       0      17        0.0%
BITBANK5           100      0       0      14        0.0%
BANK5              100      0       0      15        0.0%
BITBANK4           100      0       0      12        0.0%
BANK4              100      0       0      13        0.0%
BITBANK3           100      0       0      10        0.0%
BANK3              100      0       0      11        0.0%
BITBANK2           100      0       0       8        0.0%
BANK2              100      0       0       9        0.0%
BITBANK1           100      0       0       6        0.0%
BANK1              100     24      5D       7       36.3%
BITBANK15           80      0       0      34        0.0%
BANK15              80      0       0      35        0.0%
BITBANK0            80      0       0       4        0.0%
BANK0               80     12      80       5      100.0%
BITCOMRAM           7E      0       0       0        0.0%
COMRAM              7E     35      59       1       70.6%
BITBIGSFRhhllhh     18      0       0      37        0.0%
BITBIGSFRhhh         D      0       0      36        0.0%
BITBIGSFRlllhh       6      0       0      44        0.0%
BITBIGSFRhlhll       5      0       0      40        0.0%
BITBIGSFRllhhhh      4      0       0      42        0.0%
BITBIGSFRllllh       4      0       0      45        0.0%
BITBIGSFRhhlll       4      0       0      38        0.0%
BITBIGSFRlllll       4      0       0      46        0.0%
BITBIGSFRllhll       3      0       0      43        0.0%
BITBIGSFRllhhhh      1      0       0      41        0.0%
BITBIGSFRhlhlh       1      0       0      39        0.0%
BIGSFR               0      0       0     200        0.0%
BITSFR               0      0       0     200        0.0%
SFR                  0      0       0     200        0.0%
STACK                0      0       0       2        0.0%
NULL                 0      0       0       0        0.0%
ABS                  0      0     136      47        0.0%
DATA                 0      0     136       3        0.0%
CODE                 0      0       0       0        0.0%


Microchip Technology PIC18 Macro Assembler V2.41 build 20230208172133 
Symbol Table                                                                                   Mon May 29 13:53:09 2023

                                    ___fldiv@aexp 013A                                      ___fldiv@bexp 0139  
                                    ___fldiv@sign 0132                                                bsr 0FE0  
                           ??_InterruptManagerLow 001D                                 ??_led_turn_toggle 001B  
                                             l230 2E52                                               l226 2DF2  
                                             l504 31B2                                               l466 2874  
                                             l485 29A0                                   ??_app_intialize 0036  
                          ??_InterruptManagerHigh 000C                                       ?i2_CCP1_ISR 0001  
                       _RB5_InterruptHandler_HIGH 00B0                                   __end_of_ADC_ISR 36DA  
                                     ?i2_CCP2_ISR 0001                               led_initialize@F3048 004E  
                                             prod 0FF3                                               tosl 0FFD  
                                             wreg 0FE8                                   __end_of_RB4_ISR 35CA  
                                 __end_of_RB5_ISR 35B0                                   __end_of_RB6_ISR 3596  
                                 __end_of_RB7_ISR 357C                                      ___fltol@exp1 002F  
                                            l2101 1E38                                              l2103 1C66  
                                            l1400 3660                                              l2112 1CB0  
                                            l1128 3546                                              l2114 1D3E  
                                            l2106 1C08                                              l2115 1D2C  
                                            l1404 3114                                              l1420 1512  
                                            l1412 1022                                              l1414 10DC  
                                            l2047 170A                                              l1415 1196  
                                            l1408 3116                                              l2064 184A  
                                            l2056 1A0A                                              l2048 16F6  
                                            l1416 1250                                              l1425 2C1E  
                                            l2073 1920                                              l2049 16BC  
                                            l1417 130A                                              l1434 2B76  
                                            l2074 190C                                              l1418 13C4  
                                            l1372 3134                                              l3213 364C  
                                            l1429 2C1E                                              l2181 266C  
                                            l1438 2B76                                              l2174 25D4  
                                            l1374 3168                                              l3215 365C  
                                            l3217 3660                                              l2177 2730  
                                            l2188 26C8                                              l1397 364C  
                                            l1399 365A                                              l1816 2AA6  
                                            l8001 1BB4                   __end_of_timer3_interruptHundler 3562  
                                            l8011 1C04                                              l8003 1BC6  
                                            l8021 1C76                                              l8013 1C14  
                                            l8005 1BCE                                              l8101 2A46  
                                            l8023 1C8C                                              l8031 1CC2  
                                            l8015 1C42                                              l8007 1BDE  
                                            l8111 2A76                                              l8033 1CD2  
                                            l8025 1C92                                              l8017 1C44  
                                            l8009 1BF4                                              l8113 2A86  
                                            l8121 2590                                              l8201 141C  
                                            l8043 1D50                                              l8051 1D9C  
                                            l8035 1CD8                                              l8027 1C9C  
                                            l8019 1C64                                              l8115 2A96  
                                            l8107 2A5A                                              l8131 260E  
                                            l8123 259E                                              l8203 147C  
                                            l8221 2BF2                                              l8213 2B78  
                                            l8061 1E10                                              l8053 1DB8  
                                            l8045 1D5E                                              l8037 1CE6  
                                            l8029 1CAC                                              l8109 2A66  
                                            l8141 2662                                              l8133 2616  
                                            l8125 25E4                                              l8205 14D4  
                                            l8231 2AC4                                              l8223 2BFA  
                                            l8215 2B92                                              l8063 1E1E  
                                            l8055 1DD0                                              l8047 1D6C  
                                            l8039 1D22                                              l8151 26D8  
                                            l8143 269E                                              l8135 2622  
                                            l8127 25FA                                              l8119 2580  
                                            l8233 2B2C                                              l8225 2C16  
                                            l8217 2B94                                              l8065 1E26  
                                            l8057 1DEC                                              l8049 1D96  
                                            l8081 29CC                                              l8161 2720  
                                            l8153 26DC                                              l8145 26AA  
                                            l8137 2654                                              l8321 2DF6  
                                            l8235 2B4A                                              l8227 2AA8  
                                            l8219 2BD4                                              l8067 1E2A  
                                            l8059 1E0C                                              l8091 2A1A  
                                            l8083 29F6                                              l8075 29A2  
                                            l8155 2700                                              l8147 26B8  
                                            l8139 2656                                              l8171 3184  
                                            l8323 2E2C                                              l8315 2DD2  
                                            l8411 352C                                              l8237 2B52  
                                            l8229 2AC2                                              l8085 29F8  
                                            l8077 29B8                                              l8157 2710  
                                            l8149 26D6                                              l8181 107C  
                                            l8341 315E                                              l8333 3118  
                                            l7701 2974                                              l8173 31B0  
                                            l8165 316A                                              l8325 2E2E  
                                            l8317 2DD8                                              l8413 352C  
                                            l8239 2B6E                                              l8087 2A08  
                                            l8159 271E                                              l8191 1256  
                                            l8183 10E2                                              l8343 3160  
                                            l8335 3118                                              l7711 2732  
                                            l7703 299E                                              l8167 316A  
                                            l8327 2E42                                              l8319 2DEA  
                                            l8415 3538                                              l6681 30DC  
                                            l7801 163E                                              l8097 2A32  
                                            l8089 2A0C                                              l8193 12AA  
                                            l8185 1136                                              l8177 100C  
                                            l8345 3166                                              l8337 312C  
                                            l7721 27D4                                              l7713 2736  
                                            l8169 317C                                              l8329 2E4E  
                                            l6683 30EE                                              l6675 30C2  
                                            l7811 1652                                              l7803 1642  
                                            l8099 2A3C                                              l8195 1310  
                                            l8187 119C                                              l8179 1028  
                                            l8339 313A                                              l7715 2748  
                                            l6685 30F2                                              l6677 30C2  
                                            l7901 1902                                              l7821 16B4  
                                            l7805 1646                                              l7813 1656  
                                            l7741 1532                                              l8197 1364  
                                            l8189 11F0                                              l7725 2830  
                                            l7717 276A                                              l6687 3110  
                                            l6679 30D4                                              l7911 1988  
                                            l7831 16EA                                              l7823 16CA  
                                            l7815 165A                                              l7807 164A  
                                            l7743 1542                                              l7751 156C  
                                            l7735 1514                                              l8199 13C8  
                                            l7719 2772                                              l7727 2872  
                                            l7921 19CE                                              l7905 1930  
                                            l7913 198A                                              l7841 173C  
                                            l7833 16F4                                              l7825 16D6  
                                            l7817 1686                                              l7809 164E  
                                            l7761 159C                                              l7753 157C  
                                            l7745 1552                                              l7737 1522  
                                            l7931 19F8                                              l7923 19DC  
                                            l7915 199A                                              l7907 193C  
                                            l7851 1778                                              l7843 174C  
                                            l7835 1718                                              l7827 16DA  
                                            l7819 16A4                                              l7771 15DC  
                                            l7763 15AA                                              l7755 1582  
                                            l7747 1562                                              l7739 1530  
                                            l7691 288C                                              l7933 19FA  
                                            l7925 19E2                                              l7917 19AA  
                                            l7909 194A                                              l7861 17C4  
                                            l7853 1786                                              l7845 175A  
                                            l7837 1728                                              l7829 16E8  
                                            l7781 1616                                              l7773 15DE  
                                            l7765 15AC                                              l7757 1594  
                                            l7749 1564                                              l7941 1A30  
                                            l7693 28AE                                              l7927 19E4  
                                            l7919 19CA                                              l7871 1860  
                                            l7863 1816                                              l7855 1788  
                                            l7847 1768                                              l7791 162A  
                                            l7783 161A                                              l7767 15BC  
                                            l7775 15E6                                              l7759 1596  
                                            l7951 1A6C                                              l7943 1A34  
                                            l7695 28B6                                              l7687 2876  
                                            l7929 19EA                                              l7881 189C  
                                            l7873 1870                                              l7865 1818  
                                            l7857 1792                                              l7849 1774  
                                            l7793 162E                                              l7785 161E  
                                            l7777 15F6                                              l7769 15CC  
                                            l7961 1AA8                                              l7945 1A46  
                                            l7953 1A74                                              l7937 1A0C  
                                            l7697 2918                                              l7689 287A  
                                            l7891 18C8                                              l7883 189E  
                                            l7867 1828                                              l7859 1798  
                                            l7795 1632                                              l7787 1622  
                                            l7779 1608                                              l7971 1AE4  
                                            l7963 1AAC                                              l7955 1A86  
                                            l7947 1A56                                              l7939 1A20  
                                            l7885 18AC                                              l7877 1884  
                                            l7893 18CA                                              l7869 1838  
                                            l7797 1636                                              l7789 1626  
                                            l7981 1B2C                                              l7965 1ABE  
                                            l7973 1AEC                                              l7957 1A8E  
                                            l7949 1A68                                              l8925 2988  
                                            l7887 18B4                                              l7879 188E  
                                            l7895 18D8                                              l7799 163A  
                                            l7991 1B5A                                              l7983 1B34  
                                            l7975 1AFE                                              l7967 1ACE  
                                            l7959 1A98                                              l8927 285C  
                                            l8791 3632                                              l7897 18DC  
                                            l7889 18B8                                              l7977 1B14  
                                            l7969 1AE0                                              l8929 149E  
                                            l8793 3636                                              l7899 18EA  
                                            l7995 1B70                                              l7979 1B24  
                                            l7987 1B48                                              l7997 1B92  
                                            l7989 1B5A                                              l8789 3632  
                                            l7999 1BA2                                              STR_1 1008  
                                            STR_4 1001                                              _LATA 0F89  
                                            _LATB 0F8A                                              _LATC 0F8B  
                                            u1440 365A                                              _LATD 0F8C  
                                            u1441 3656                                              _LATE 0F8D  
               CCP2_Capture_Mode_Read_Value@F3086 0096                                              u9000 259E  
                                            u8200 288C                                              u9001 259A  
                                            u8201 2888                                              u9010 25FA  
                                            u8210 28AE                                              u9011 25F6  
                                            u8211 28AA                                              u9100 2B92  
                                            u8300 1530                                              u9020 2650  
                                            u9101 2B8E                                              u8301 152C  
                                            u9021 264C                                              u8310 1542  
                                            u9030 269A                                              u8311 153E  
                                            u9031 2696                                              u8400 16A0  
                                            u8320 1552                                              u9040 26B8  
                                            u8240 2748                                              u8224 28D6  
                                            u8401 169A                                              u8321 154E  
                                            u9041 26B4                                              u8241 2744  
                                            u8225 28D2                                              u9130 2BF2  
                                            u8410 16A2                                              u8330 1594  
                                            u9050 26C8                                              u8250 276A  
                                            u8234 2938                                              u9131 2BEE  
                                            u9115 2BA8                                              u8331 1590  
                                            u9051 26C4                                              u8251 2766  
                                            u8235 2934                                              u9140 2C16  
                                            u8500 17C4                                              u8420 16CA  
                                            u8340 15AA                                              u9060 26D6  
                                            u9141 2C12                                              u9125 2BBE  
                                            u9117 2BAA                                              u8501 17C0  
                                            u8421 16C6                                              u8341 15A6  
                                            u9061 26D2                                              u9150 2AC2  
                                            u8510 1828                                              u8430 16E8  
                                            u8350 15BC                                              u9070 2710  
                                            u9151 2ABE                                              u9127 2BC0  
                                            u8511 1824                                              u8431 16E4  
                                            u8351 15B8                                              u9071 270C  
                                            u6760 30D4                                              u8600 191C  
                                            u8520 1860                                              u8440 170A  
                                            u8360 15CC                                              u9080 271E  
                                            u8280 2848                                              u8264 2792  
                                            u9240 2DEA                                              u6761 30D0  
                                            u8601 1918                                              u8521 185C  
                                            u8441 1706                                              u8361 15C8  
                                            u9081 271A                                              u8281 2842  
                                            u8265 278E                                              u9241 2DE6  
                                            u6770 3110                                              u8610 1930  
                                            u8530 1870                                              u8450 1718  
                                            u8370 1608                                              u8290 284A  
                                            u8274 27F4                                              u9090 317C  
                                            u6771 310C                                              u8611 192C  
                                            u8531 186C                                              u8451 1714  
                                            u8371 1604                                              u8275 27F0  
                                            u9091 3178                                              u9180 2B4A  
                                            u8620 194A                                              u8540 189C  
                                            u8460 1728                                              u8380 1616  
                                            u8700 1A46                                              u9260 312C  
                                            u9181 2B46                                              u9165 2AD8  
                                            u8621 1946                                              u8541 1898  
                                            u8461 1724                                              u8381 1612  
                                            u8701 1A42                                              u9261 3128  
                                            u9190 2B6E                                              u8630 1988  
                                            u8550 18AC                                              u8470 175A  
                                            u8390 1686                                              u8710 1A56  
                                            u9191 2B6A                                              u9175 2AEE  
                                            u9167 2ADA                                              u8631 1984  
                                            u8551 18A8                                              u8471 1756  
                                            u8391 1682                                              u8711 1A52  
                                            u9255 2E3E                                              u8640 199A  
                                            u8560 18C8                                              u8480 1768  
                                            u8800 1C76                                              u8720 1AA8  
                                            u9177 2AF0                                              u8641 1996  
                                            u8561 18C4                                              u8481 1764  
                                            u8801 1C72                                              u8721 1AA4  
                                            u9257 2E42                                              u8650 19AA  
                                            u8570 18D8                                              u8490 1786  
                                            u8810 1C8C                                              u8730 1ABE  
                                            u8651 19A6                                              u8571 18D4  
                                            u8491 1782                                              u8811 1C88  
                                            u8731 1ABA                                              u8660 19CA  
                                            u8580 18EA                                              u8900 1DEC  
                                            u8820 1CAC                                              u8740 1ACE  
                                            u8661 19C6                                              u8581 18E6  
                                            u8901 1DE8                                              u8821 1CA8  
                                            u8741 1ACA                                              u8670 19DC  
                                            u8590 1902                                              u8910 1E1E  
                                            u8830 1CD2                                              u8750 1B14  
                                            u8671 19D8                                              u8591 18FE  
                                            u8911 1E1A                                              u8831 1CCE  
                                            u8751 1B10                                              u8680 19F8  
                                            u8840 1CE6                                              u8760 1B5A  
                                            u8920 29B8                                              u8681 19F4  
                                            u8841 1CE2                                              u8761 1B56  
                                            u8921 29B4                                              u8850 1D22  
                                            u8770 1BDE                                              u8690 1A30  
                                            u8930 29EC                                              u8851 1D1E  
                                            u8771 1BDA                                              u8691 1A2C  
                                            u8860 1D3A                                              u8780 1C04  
                                            u8940 2A1A                                              u8861 1D36  
                                            u8781 1C00                                              u8941 2A16  
                                            u8870 1D50                                              u8790 1C42  
                                            u8950 2A2E                                              u8871 1D4C  
                                            u8791 1C3E                                              u8951 2A2A  
                                            u8935 29E2                                              u8880 1D6C  
                                            u8960 2A56                                              u8881 1D68  
                                            u8961 2A52                                              u8890 1DB8  
                                            u8970 2A76                                              u8891 1DB4  
                                            u8971 2A72                                              u8980 2A86  
                                            u8981 2A82                                              u8990 2590  
                                            u8991 258C                                              _TMR2 0FCC  
                        _RB4_InterruptHandler_LOW 00B2                                              _led1 0059  
                                            _led2 0054                                       ?i2_INT0_ISR 0001  
                                            _main 3632                                       ?i2_INT1_ISR 0001  
                                     ?i2_INT2_ISR 0001                                  __end_of_CCP1_ISR 3426  
                                __end_of_CCP2_ISR 36D6                               i2RB7_ISR@RB7_Source 0001  
                        _RB7_InterruptHandler_LOW 00A6                                              fsr2h 0FDA  
                                            indf2 0FDF                                              fsr1l 0FE1  
                                            fsr2l 0FD9                                              btemp 005A  
                          __end_of_led_initialize 2E54                                              prodh 0FF4  
                                            prodl 0FF3                                              start 006A  
                                 ___fldiv@new_exp 0133                                      ___param_bank 0000  
                          ?_gpio_pin_toggle_logic 0012                                       ?i2_TMR1_ISR 0001  
                                     ?i2_TMR2_ISR 0001                                       ?i2_TMR3_ISR 0001  
                            _gpio_pin_write_logic 2876                                  __end_of_INT0_ISR 36D2  
                                __end_of_INT1_ISR 36CE                                  __end_of_INT2_ISR 36CA  
                                     ?i2_TMRO_ISR 0001                                     _EUSART_RX_ISR 36EE  
                                   ___fltol@sign1 002E                                     _EUSART_TX_ISR 33CA  
                                 __end_of___fladd 1A0C                                             ?_main 0001  
                                 __end_of___fldiv 1E3A                                             _EEADR 0FA9  
                                 __end_of___fltol 2AA8                                             i1l251 2EC4  
                     ??i2_timer3_interruptHundler 0001                                             i1l247 2E6A  
                                           i1l611 1F22                                             i1l603 1E5A  
                                           i1l621 2076                                             i1l613 1F66  
                                           i1l605 1E7A                                             i1l631 213A  
                                           i1l623 20BA                                             i1l615 1FAA  
                                           i1l607 1E9A                                             i1l393 36D8  
                                           i1l633 215A                                             i1l625 20DA  
                                           i1l617 1FEE                                             i1l609 1EDE  
                                           i1l642 21DA                                             i2l251 2F36  
                                           i1l635 217A                                             i1l627 20FA  
                                           i1l619 2032                                             i1l637 219A  
                                           i1l629 211A                                             i2l247 2EDC  
                                           i1l639 21BA                                             i1l906 3594  
                                           i2l611 22C4                                             i2l603 21FC  
                                           i1l499 2CB0                                             i2l621 2418  
                                           i2l613 2308                                             i2l605 221C  
                                           i1l917 357A                                             i2l631 24DC  
                                           i2l623 245C                                             i2l615 234C  
                                           i2l607 223C                                             i1l863 36D0  
                                           i1l599 0042                                             i2l393 36EC  
                                           i2l633 24FC                                             i2l625 247C  
                                           i2l617 2390                                             i2l609 2280  
                                           i1l873 36C8                                             i2l642 257C  
                                           i2l635 251C                                             i2l627 249C  
                                           i2l619 23D4                                             i1l868 36CC  
                                           i1l884 35C8                                             i2l637 253C  
                                           i2l629 24BC                                             i2l639 255C  
                                           i1l895 35AE                                             i1l969 3292  
                                           i2l906 35FC                                             i2l594 31D2  
                                           i2l499 2D42                                             i2l917 35E2  
                                           i2l863 36E4                                             i2l873 36DC  
                                           i2l868 36E0                                             i2l884 3630  
                                           i2l895 3616                                             i2l969 32FE  
                                           _RCREG 0FAE                                             _TMR0H 0FD7  
                                           _TMR1H 0FCF                                             _TMR0L 0FD6  
                                           _TMR1L 0FCE                                             _TMR3H 0FB3  
                                           _TMR3L 0FB2                                             _SPBRG 0FAF  
                                           _PORTA 0F80                                             _PORTB 0F81  
                                           _PORTC 0F82                                             _PORTD 0F83  
                                           _PORTE 0F84                                             _TRISA 0F92  
                                           _TRISB 0F93                                             _TRISC 0F94  
                                           _TRISD 0F95                                             _TRISE 0F96  
                      i2Timer1_Write_value@_value 0003                        i2Timer1_Write_value@_timer 0001  
                                           _TXREG 0FAD                      fp_i2_timer0_interruptHundler 0000  
                                __end_of_TMR1_ISR 36A4                                  __end_of_TMR2_ISR 36B8  
                                __end_of_TMR3_ISR 32CA                                             _lcd_1 00D7  
                                           _lcd_2 010A                                  __end_of_TMRO_ISR 3294  
                                           pclath 0FFA                                             pclatu 0FFB  
                                           tablat 0FF5            __end_of_EUSART_ASYNC_WriteByteBlocking 3662  
                  _EUSART_ASYNC_WriteByteBlocking 364A                                             ttemp5 005B  
                                           ttemp6 005E                                             ttemp7 0062  
                                           status 0FD8              __end_ofi2_EUSART_Tx_InterruptHandler 3698  
                    i2_EUSART_Tx_InterruptHandler 368A                                             wtemp8 005B  
                                 ?_led_initialize 0033                                   _timer3_overflow 008E  
                        i2Timer1_Read_value@tmr1h 0008                          i2Timer1_Read_value@tmr1l 0007  
                                 __initialization 2D44                 _timer3_interruptHundler$intlevel1 3552  
                         i2_gpio_pin_toggle_logic 2CB2                                      __end_of_main 364A  
                           ?_gpio_pin_write_logic 0026                               i2_Timer1_Read_value 3064  
                                       ??_ADC_ISR 0012                                    ?_EUSART_RX_ISR 0001  
                                  ?_EUSART_TX_ISR 0001                                     _lat_registers 00BC  
                              _Timer1_Write_value 34AC                                            ??_main 0036  
      _EUSART_Tx_InterruptHandler@hal_usart$F3917 0036                                     __activetblptr 0003  
                           _CCP1_interruptHundler 2F38                             _TMR3_InterruptHandler 003C  
                                led_turn_on@F3053 004D                                         ??_RB4_ISR 0012  
                                       ??_RB5_ISR 0012                                         ??_RB6_ISR 0012  
                                       ??_RB7_ISR 0012                               ?_Timer1_Write_value 0012  
                               __end_ofi2_ADC_ISR 36EE                        _EUSART_OverrunErrorHandler 009A  
                                          _ADRESH 0FC4                                            _EEADRH 0FAA  
                                          _ADRESL 0FC3                                            _EEDATA 0FA8  
                                          _CCPR1H 0FBF                                            _CCPR2H 0FBC  
                                          _CCPR1L 0FBE                                            _CCPR2L 0FBB  
                                          _EECON2 0FA7                              ?i2_Timer1_Read_value 0001  
                               _EUSART_ASYNC_Init 3118                                            i1l1042 3062  
                                          i1l1035 34CA                                            i1l1131 3368  
                                          i1l1140 3560                                            i1l1046 36A2  
                                          i1l1038 3036                                            i1l1314 320C  
                                          i1l1242 34EA                                            i1l1146 2FA2  
                                          i1l1316 3224                                            i1l1149 3678  
                                          i1l1253 32C8                                            i1l1329 3424  
                                          i1l1442 33F6                                            i1l1451 36EE  
                                          i1l1516 36D4                                            i1l1197 36B6  
                                          i1l3057 36D6                                            i2l1042 30C0  
                                          i2l1035 350A                                            i2l1131 34AA  
                                          i2l1140 3688                                            i2l1046 36AE  
                                          i2l1038 3094                                            i1l5311 2C32  
                                          i1l5313 2C54                                            i1l5401 34C2  
                                          i2l1314 3244                                            i2l1242 352A  
                                          i2l1146 3004                                            i1l5315 2C58  
                                          i1l5307 2C20                                            i1l6211 3594  
                                          i1l6203 357E                                            i1l5411 3020  
                                          i1l5403 34C6                                            i2l1316 325C  
                                          i2l1149 3696                                            i2l1253 3334  
                                          i1l5421 34CC                                            i1l5309 2C20  
                                          i1l6205 3580                                            i1l5413 3032  
                                          i1l5423 34CC                                            i1l5415 303E  
                                          i1l5407 3006                                            i1l6231 325E  
                                          i2l1329 3480                                            i1l5441 3214  
                                          i1l5433 31EE                                            i1l5425 34DE  
                                          i1l6225 357A                                            i1l6217 3564  
                                          i1l6241 3698                                            i1l5417 3062  
                                          i1l5409 300E                                            i1l6233 3260  
                                          i2l1442 3452                                            i2l1451 36F0  
                                          i1l5443 3224                                            i1l5435 31EE  
                                          i1l5427 34E2                                            i1l6163 36CA  
                                          i1l6219 3566                                            i1l6243 369A  
                                          i1l6235 3264                                            i2l1516 36E8  
                                          i2l3221 36EA                                            i2l1197 36BE  
                                          i1l5437 31F6                                            i1l5429 34E6  
                                          i1l5381 2E54                                            i1l6157 36CE  
                                          i1l6245 369E                                            i1l6261 32B0  
                                          i1l6253 3294                                            i1l6237 3268  
                                          i1l5439 3208                                            i1l6263 33F8  
                                          i1l5391 2EB8                                            i1l5383 2E66  
                                          i1l6183 35C8                                            i1l6175 35B2  
                                          i1l6191 359A                                            i1l6255 3296  
                                          i1l6239 327A                                            i1l6511 1E76  
                                          i1l6503 1E3A                                            i1l6265 33FA  
                                          i1l5385 2E6E                                            i1l6273 33CA  
                                          i1l6169 36C6                                            i1l6177 35B4  
                                          i1l6249 36B0                                            i1l6257 329A  
                                          i1l6601 20E8                                            i1l6521 1EC4  
                                          i1l6513 1E88                                            i1l6505 1E48  
                                          i1l6267 340C                                            i1l5387 2EA4  
                                          i1l5379 2E54                                            i1l6275 33CC  
                                          i1l6259 329E                                            i1l5395 34AC  
                                          i1l6611 2136                                            i1l6603 20F6  
                                          i1l6531 1F08                                            i1l6523 1ED4  
                                          i1l6515 1E96                                            i1l6507 1E56  
                                          i1l6269 36D2                                            i1l5389 2EA6  
                                          i1l6277 33DE                                            i1l6197 35AE  
                                          i1l6189 3598                                            i1l5397 34AC  
                                          i1l6621 2188                                            i1l6613 2148  
                                          i1l6605 2108                                            i1l6541 1F4C  
                                          i1l6533 1F18                                            i1l6525 1ED8  
                                          i1l6517 1EA8                                            i1l6509 1E68  
                                          i1l6279 36EE                                            i1l5399 34BE  
                                          i1l6631 21D6                                            i1l6623 2196  
                                          i1l6615 2156                                            i1l6607 2116  
                                          i1l6551 1F90                                            i1l6543 1F5C  
                                          i1l6535 1F1C                                            i1l6527 1EEC  
                                          i1l6519 1EB6                                 __end_ofi2_RB4_ISR 3632  
                                          i1l6625 21A8                                            i1l6617 2168  
                                          i1l6609 2128                                            i1l6561 1FD4  
                                          i1l6553 1FA0                                            i1l6545 1F60  
                                          i1l6537 1F30                                            i1l6529 1EFA  
                                          i1l7337 003E                                            i1l6627 21B6  
                                          i1l6619 2176                                            i1l6571 2018  
                                          i1l6563 1FE4                                            i1l6555 1FA4  
                                          i1l6547 1F74                                            i1l6539 1F3E  
                                          i1l6629 21C8                                            i1l6581 205C  
                                          i1l6573 2028                                            i1l6565 1FE8  
                                          i1l6557 1FB8                                            i1l6549 1F82  
                                          i1l6591 20A0                                            i1l6583 206C  
                                          i1l6575 202C                                            i1l6567 1FFC  
                                          i1l6559 1FC6                                            i2l5321 2CB2  
                                          i1l5961 3552                                            i1l6593 20B0  
                                          i1l6585 2070                                            i1l6577 2040  
                                          i1l6569 200A                                            i2l6051 2FA8  
                                          i2l5323 2CC4                                            i2l6043 3482  
                                          i1l5971 2F80                                            i1l5963 2F42  
                                          i1l6595 20B4                                            i1l6587 2084  
                                          i1l6579 204E                                            i2l6061 2FF8  
                                          i2l6053 2FB8                                            i2l5325 2CE6  
                                          i2l6045 3496                                            i1l5973 2F92  
                                          i1l5965 2F46                                            i1l5957 3340  
                                          i1l6597 20C8                                            i1l6589 2092  
                                          i2l6055 2FCC                                            i2l5327 2CEA  
                                          i2l5319 2CB2                                            i2l6063 368A  
                                          i2l6047 367A                                            i1l5975 2F96  
                                          i1l5967 2F56                                            i1l5959 3354  
                                          i1l6599 20D6                                 __end_ofi2_RB5_ISR 3618  
                                          i2l6057 2FE2                                            i2l6049 2FA4  
                                          i2l6313 36DE                                            i1l5969 2F6A  
                                          i1l5977 366C                                            i2l6059 2FF4  
                                          i2l6307 36E2                                            i2l6411 331C  
                                          i2l6403 3300                                            i2l6413 3454  
                                          i2l6421 3428                                            i2l6333 3630  
                                          i2l6325 361A                                            i2l6341 3602  
                                          i2l6405 3302                                            i2l6415 3456  
                                          i2l6423 343A                                            i2l6319 36DA  
                                          i2l6327 361C                                            i2l6407 3306  
                                          i2l6417 3468                                            i2l6425 36F0  
                                          i2l6361 35FC                                            i2l6353 35E6  
                                          i2l6409 330A                                            i2l6419 3426  
                                          i2l6347 3616                                            i2l6339 3600  
                                          i2l6355 35E8                                            i2l6437 36E6  
                                          i2l5901 3506                                            i2l6381 32CA  
                                          i2l6701 222A                                            i2l6375 35E2  
                                          i2l6367 35CC                                            i2l6391 36A4  
                                          i2l5911 3090                                            i2l6383 32CC  
                                          i2l6711 2276                                            i2l6703 2238  
                                          i2l7335 31CE                                 __end_ofi2_RB6_ISR 35FE  
                                          i2l5921 350C                                            i2l6369 35CE  
                                          i2l6393 36A6                                            i2l5913 309C  
                                          i2l5905 3064                                            i2l6385 32D0  
                                          i2l6801 24EA                                            i2l6721 22BA  
                                          i2l6713 227A                                            i2l6705 224A  
                                          i2l5931 3226                                            i2l5923 351E  
                                          i2l6395 36AA                                            i2l5915 30C0  
                                          i2l5907 306C                                            i2l6387 32D4  
                                          i2l6811 2538                                            i2l6803 24F8  
                                          i2l6731 22FE                                            i2l6723 22BE  
                                          i2l6715 228E                                            i2l6707 2258  
                                          i2l5941 325C                                            i2l5933 3226  
                                          i2l5925 3522                                            i2l5909 307E  
                                          i2l6389 32E6                                            i2l6813 254A  
                                          i2l6805 250A                                            i2l6741 2342  
                                          i2l6733 2302                                            i2l6725 22D2  
                                          i2l6717 229C                                            i2l6709 2266  
                                          i2l5935 322E                                            i2l5927 3526  
                                          i2l5919 350C                                            i2l6399 36B8  
                                          i2l6815 2558                                            i2l6807 2518  
                                          i2l6751 2386                                            i2l6743 2346  
                                          i2l6735 2316                                            i2l6727 22E0  
                                          i2l6719 22AA                                            i2l5937 3240  
                                          i2l5881 2ED8                                            i2l6817 256A  
                                          i2l6809 252A                                            i2l6761 23CA  
                                          i2l6753 238A                                            i2l6745 235A  
                                          i2l6737 2324                                            i2l6729 22EE  
                                          i2l5939 324C                                            i2l5883 2EE0  
                                          i2l6819 2578                                            i2l6771 240E  
                                          i2l6763 23CE                                            i2l6755 239E  
                                          i2l6747 2368                                            i2l6739 2332  
                                          i2l6691 21DC                                            i2l5885 2F16  
                                          i2l5877 2EC6                                            i2l5893 34EC  
                                          i2l6781 2452                                            i2l6773 2412  
                                          i2l6765 23E2                                            i2l6757 23AC  
                                          i2l6749 2376                                            i2l6693 21EA  
                                          i2l5887 2F18                                            i2l5879 2EC6  
                                          i2l5895 34EC                                            i2l6791 2498  
                                          i2l6783 2456                                            i2l6775 2426  
                                          i2l6767 23F0                                            i2l6759 23BA  
                                          i2l6695 21F8                                 __end_ofi2_RB7_ISR 35E4  
                                          i2l5889 2F2A                                            i2l5897 34FE  
                                          i2l6793 24AA                                            i2l6785 246A  
                                          i2l6777 2434                                            i2l6769 23FE  
                                          i2l6697 220A                                            i2l5899 3502  
                                          i2l6795 24B8                                            i2l6787 2478  
                                          i2l6779 2442                                            i2l6699 2218  
                                          i2l6797 24CA                                            i2l6789 248A  
                                          i2l6799 24D8                                            _SPBRGH 0FB0  
                              ?_EUSART_ASYNC_Init 014F                         i2_timer3_interruptHundler 367A  
                                __end_of___xxtofl 2732                  gpio_pin_toggle_logic@_pin_config 0012  
              i2gpio_pin_toggle_logic@_pin_config 0001                   fp_i2_EUSART_Tx_InterruptHandler 0000  
              __end_of_EUSART_Tx_InterruptHandler 367A                     ?i2_EUSART_Tx_InterruptHandler 0001  
                      _EUSART_Tx_InterruptHandler 3662                              ??_Timer1_Write_value 0016  
                             ??_EUSART_ASYNC_Init 0036                                         ??___fladd 00FA  
                                       ??___fldiv 00F6                                         ??___fltol 002A  
                                          clear_0 2DAA                                            clear_1 2DB6  
                                          clear_2 2DC2                             led_initialize@pin_obj 00EF  
                                          _timer0 0114                                            _timer1 00E8  
                                          _timer2 00DD                                            _timer3 00E2  
                                          isa$std 0001           gpio_pin_direction_intialize@_pin_config 0026  
                                       ?_CCP1_ISR 0001                                      __pdataCOMRAM 0054  
                                       ?_CCP2_ISR 0001                                      __mediumconst 0000  
                                          tblptrh 0FF7                                            tblptrl 0FF6  
                                          tblptru 0FF8                         __end_of_EUSART_ASYNC_Init 316A  
                  ??_CCP1_Capture_Mode_Read_Value 0014                             ??i2_Timer1_Read_value 0005  
                    __end_of_EUSART_ASYNC_RX_Init 2B78                      __end_of_EUSART_ASYNC_TX_Init 2C20  
                            i2led_turn_toggle@led 0008                                      ___xxtofl@arg 0030  
                                    ___xxtofl@exp 002F                                      ___xxtofl@val 0026  
                                      __accesstop 0080                           __end_of__initialization 2DC8  
                                       ?_INT0_ISR 0001                                         ?_INT1_ISR 0001  
                                       ?_INT2_ISR 0001                                     ___rparam_used 0001  
                       ??i2_gpio_pin_toggle_logic 0003                                        ___fltol@f1 0026  
                               ??i2_EUSART_RX_ISR 0001                                 ??i2_EUSART_TX_ISR 000C  
                               led_initialize@led 0033                                   _led_turn_toggle 2E54  
                               led_initialize@ret 00EE                                 RB5_ISR@RB5_Source 0012  
                          ??_gpio_pin_write_logic 0029                                    __pcstackCOMRAM 0001  
                                    __pidataBANK0 336A                                      __pidataBANK1 339C  
                                 ??_EUSART_RX_ISR 0012                                         ?_TMR1_ISR 0001  
                                       ?_TMR2_ISR 0001                                         ?_TMR3_ISR 0001  
                                 ??_EUSART_TX_ISR 001D                                         ?_TMRO_ISR 0001  
                          ?_CCP1_interruptHundler 0001                                _Timer3_Write_value 34CC  
                                    ??i2_CCP1_ISR 0005                                      ??i2_CCP2_ISR 0001  
                                      ??_CCP1_ISR 0016                                        ??_CCP2_ISR 0012  
                             ?_Timer3_Write_value 0012            __end_ofi2_CCP1_Capture_Mode_Read_Value 325E  
                  i2_CCP1_Capture_Mode_Read_Value 3226                                        __pbssBANK0 0080  
                                      __pbssBANK1 0152                                      ??i2_INT0_ISR 0001  
                                    ??i2_INT1_ISR 0001                             _INT0_InterruptHandler 00BA  
                                      ??_INT0_ISR 0012                                      ??i2_INT2_ISR 0001  
                                      ??_INT1_ISR 0012                                        ??_INT2_ISR 0012  
                      ?i2_timer0_interruptHundler 0001                           _timer0_interruptHundler 3336  
                      fp__timer0_interruptHundler 0000                           ??_gpio_pin_toggle_logic 0014  
                     __end_of_InterruptManagerLow 006A                          ?_timer3_interruptHundler 0001  
                            ??_Timer3_Write_value 0016                                __end_ofi2_CCP1_ISR 3482  
                              __end_ofi2_CCP2_ISR 36EA                                      ??i2_TMR1_ISR 0001  
                                    ??i2_TMR2_ISR 0001                                        ??_TMR1_ISR 0012  
                                    ??i2_TMR3_ISR 0001                                        ??_TMR2_ISR 0012  
                  ??i2_EUSART_Tx_InterruptHandler 000C                                        ??_TMR3_ISR 0012  
                               led_turn_off@F3058 004C                                           _ADC_ISR 36D6  
                     EUSART_ASYNC_TX_Init@_eusart 0026                                      ??i2_TMRO_ISR 0009  
                                      ??_TMRO_ISR 001A                           i2_CCP1_interruptHundler 2FA4  
                      fp_i2_CCP1_interruptHundler 0000                                 RB7_ISR@RB7_Source 0012  
                                         _RB4_ISR 35B0                                           _RB5_ISR 3596  
                                         _RB6_ISR 357C                                           _RB7_ISR 3562  
                              __end_ofi2_INT0_ISR 36E6                                __end_ofi2_INT1_ISR 36E2  
                                       ?___xxtofl 0026                                __end_ofi2_INT2_ISR 36DE  
                       _RB6_InterruptHandler_HIGH 00AC                          Timer1_Write_value@_value 0014  
                        Timer1_Write_value@_timer 0012                             __end_of_app_intialize 3548  
                            led_turn_toggle@F3063 004B                                  ??_led_initialize 0035  
                    __end_ofi2_Timer1_Write_value 350C                           __end_of_led_turn_toggle 2EC6  
                              __end_ofi2_TMR1_ISR 36B0                                __end_ofi2_TMR2_ISR 36C0  
                              __end_ofi2_TMR3_ISR 3336                                    _tris_registers 00C6  
                        _RB6_InterruptHandler_LOW 00AA                                __end_ofi2_TMRO_ISR 3300  
               __end_ofi2_timer0_interruptHundler 34AC                              _ADC_InterruptHandler 0044  
                                         __Hparam 0000                                           __Lparam 0000  
                                         ___fladd 1514                                           ___fldiv 1A0C  
                                         ___fltol 29A2                 _EUSART_Baud_Rate_Calculation$5227 014B  
                            EUSART_ASYNC_Init@ret 0151                  ??_EUSART_ASYNC_WriteByteBlocking 0026  
                 ?_EUSART_ASYNC_WriteByteBlocking 0001                                      __psmallconst 1000  
                            _EUSART_ASYNC_RX_Init 2AA8                              _EUSART_ASYNC_TX_Init 2B78  
                      __end_of_gpio_pin_intialize 31B4                                           __pcinit 2D44  
                                         __ramtop 1000                                     _rec_uart_data 0047  
                                         __ptext0 3632                                           __ptext1 352C  
                                         __ptext2 2DD2                                           __ptext3 316A  
                                         __ptext4 2876                                           __ptext5 2732  
                                         __ptext6 3118                                           __ptext7 100C  
                                         __ptext8 257E                                           __ptext9 29A2  
                                       _T0CONbits 0FD5                               i2RB4_ISR@RB4_Source 0001  
                                       _T1CONbits 0FCD                                         _T2CONbits 0FCA  
                      i2Timer3_Write_value@_value 0003                                        ??___xxtofl 002A  
                      i2Timer3_Write_value@_timer 0001                                         _T3CONbits 0FB1  
      EUSART_Baud_Rate_Calculation@Baud_Rate_Temp 0147                                    __pintcode_body 31B4  
                            end_of_initialization 2DC8                         ??_timer0_interruptHundler 001A  
                               _Timer1_Read_value 3006               EUSART_ASYNC_WriteStringBlocking@ret 0029  
                                       i2_ADC_ISR 36EA                                ?_Timer1_Read_value 0012  
                                         int_func 31B4                          _Total_period_microSecond 008A  
  CCP1_Capture_Mode_Read_Value@compare_temp_value 0014  i2CCP1_Capture_Mode_Read_Value@compare_temp_value 0003  
                                i2_InterruptCheck 21DC                                         i2_RB4_ISR 3618  
                                       i2_RB5_ISR 35FE                                         i2_RB6_ISR 35E4  
                                       i2_RB7_ISR 35CA                       ?_EUSART_Tx_InterruptHandler 0001  
                           gpio_pin_intialize@ret 0032                               ??_Timer1_Read_value 0016  
                                       _RCSTAbits 0FAB                                           postdec1 0FE5  
                                         postdec2 0FDD                                           postinc0 0FEE  
                                         postinc2 0FDE                         ??i2_CCP1_interruptHundler 0005  
                           ?_EUSART_ASYNC_RX_Init 0026        CCP1_Capture_Mode_Read_Value@_capture_value 0012  
    i2CCP1_Capture_Mode_Read_Value@_capture_value 0001                             ?_EUSART_ASYNC_TX_Init 0026  
                         Timer1_Read_value@_value 0014                           Timer1_Read_value@_timer 0012  
                           _INT1_InterruptHandler 00B8                                         _PORTBbits 0F81  
                   gpio_pin_intialize@_pin_config 0030                                       ___fladd@grs 0146  
            __end_of_gpio_pin_direction_intialize 2876                      _gpio_pin_direction_intialize 2732  
                                   ___xxtofl@sign 002E                                         _TRISCbits 0F94  
                       __end_of_Timer1_Read_value 3064                                   i2_EUSART_RX_ISR 36F0  
                                     ___fldiv@grs 0135                                       ___fldiv@rem 012E  
                                 i2_EUSART_TX_ISR 3426                               i2RB6_ISR@RB6_Source 0001  
                                      ?i2_ADC_ISR 0001                      __end_ofi2_Timer3_Write_value 352C  
                                ?_led_turn_toggle 0019                                       _CCP1CONbits 0FBD  
                                     _CCP2CONbits 0FBA                                         _TXSTAbits 0FAC  
                                      ?i2_RB4_ISR 0001                        _EUSART_Rx_InterruptHandler 009E  
                                      ?i2_RB5_ISR 0001                                        ?i2_RB6_ISR 0001  
                                      ?i2_RB7_ISR 0001                           ??_CCP1_interruptHundler 0016  
                        EUSART_ASYNC_Init@_eusart 014F                     convert_uint16_to_string@F3201 0080  
                   convert_uint32_to_string@F3208 0152                   __end_of_timer0_interruptHundler 336A  
                                     _BAUDCONbits 0FB8                                     __pidataCOMRAM 36C0  
                            i2_Timer1_Write_value 34EC                                    _timer0_preload 0040  
                                  _timer1_preload 003E                       __end_ofi2_Timer1_Read_value 30C2  
                                  _timer2_preload 0046                               start_initialization 2D44  
                                  _timer3_preload 003A               EUSART_Baud_Rate_Calculation@_eusart 00FE  
                          led_turn_toggle@pin_obj 001C                     ?_gpio_pin_direction_intialize 0026  
            __end_of_EUSART_Baud_Rate_Calculation 1514                      _EUSART_Baud_Rate_Calculation 100C  
                     ??i2_timer0_interruptHundler 0009                   _CCP1_interruptHundler$intlevel1 2F42  
                   __end_of_gpio_pin_toggle_logic 2CB2                      fp_i2_timer3_interruptHundler 0000  
               CCP1_Capture_Mode_Read_Value@F3086 00A0                        _EUSART_FramingErrorHandler 009C  
                          ??_EUSART_ASYNC_RX_Init 0028                            ??_EUSART_ASYNC_TX_Init 0028  
            __end_of_CCP1_Capture_Mode_Read_Value 3226                  ??i2_CCP1_Capture_Mode_Read_Value 0003  
                 ?i2_CCP1_Capture_Mode_Read_Value 0001                      _CCP1_Capture_Mode_Read_Value 31EE  
                   fp__EUSART_Tx_InterruptHandler 0000                                       __pdataBANK0 00BC  
                                     __pdataBANK1 0100                      convert_uint8_to_string@F3194 0092  
                                        ?_ADC_ISR 0001                             ?i2_Timer1_Write_value 0001  
                           __end_of_EUSART_RX_ISR 36F0                             __end_of_EUSART_TX_ISR 33F8  
                                  _InterruptCheck 1E3A                           __end_ofi2_EUSART_RX_ISR 36F2  
                         __end_ofi2_EUSART_TX_ISR 3454                                         ___fladd@a 013F  
                                       ___fladd@b 013B                                         ___fldiv@a 00F2  
                                       ___fldiv@b 00EE                                          ?_RB4_ISR 0001  
                                        ?_RB5_ISR 0001                                          ?_RB6_ISR 0001  
                                        ?_RB7_ISR 0001                                       __pbssCOMRAM 0036  
                                   __pcstackBANK0 00EE                                     __pcstackBANK1 012E  
                                     ??i2_ADC_ISR 0001                          ?i2_gpio_pin_toggle_logic 0001  
                           _INT2_InterruptHandler 00B6                   gpio_pin_direction_intialize@ret 002E  
                   ?_EUSART_Baud_Rate_Calculation 00FE                             _TMR0_InterruptHandler 0042  
                                     ??i2_RB4_ISR 0001                                       ??i2_RB5_ISR 0001  
                                     ??i2_RB6_ISR 0001                                       ??i2_RB7_ISR 0001  
                    __end_of_InterruptManagerHigh 31EE                                         __pintcode 0008  
                                        ?___fladd 013B                   gpio_pin_write_logic@_pin_config 0026  
                                        ?___fldiv 00EE                                          ?___fltol 0026  
                          __end_of_InterruptCheck 21DC                     ?_CCP1_Capture_Mode_Read_Value 0012  
                                     __pintcodelo 0018                         gpio_pin_write_logic@logic 0028  
                            i2_Timer3_Write_value 350C                         i2_timer0_interruptHundler 3482  
                                     __smallconst 1000                         _RB4_InterruptHandler_HIGH 00B4  
                        __end_ofi2_InterruptCheck 257E                                          _CCP1_ISR 33F8  
                                        _CCP2_ISR 36D2                          Timer3_Write_value@_value 0014  
                        Timer3_Write_value@_timer 0012                         _RB7_InterruptHandler_HIGH 00A8  
                              _gpio_pin_intialize 316A                               _CCP1_Interrupt_flag 0049  
                  ??_gpio_pin_direction_intialize 0028                          _RB5_InterruptHandler_LOW 00AE  
                                        _INT0_ISR 36CE                                          _INT1_ISR 36CA  
                                        _INT2_ISR 36C6                                          _RB4_Flag 0058  
                                        _RB5_Flag 0057                                          _RB6_Flag 0056  
                                        _RB7_Flag 0055                                 RB4_ISR@RB4_Source 0012  
                             ?_gpio_pin_intialize 0030                                          _IPR1bits 0F9F  
                                        _IPR2bits 0FA2                                          _PIE1bits 0F9D  
                                        _PIE2bits 0FA0                                          i1u620_20 1E76  
                                        i1u620_21 1E72                                          i1u621_20 1E88  
                                        i1u621_21 1E84                                          i1u630_20 1F18  
                                        i1u622_20 1E96                                          i1u630_21 1F14  
                                        i1u622_21 1E92                                          i1u631_20 1F30  
                                        i1u623_20 1EA8                                          i1u631_21 1F2C  
                                        i1u623_21 1EA4                                          i1u456_20 2C32  
                                        i1u472_20 2E66                                          i1u640_20 1FC6  
                                        i1u632_20 1F3E                                          i1u624_20 1EB6  
                                        i1u456_21 2C2E                                          i1u472_21 2E62  
                                        i1u640_21 1FC2                                          i1u632_21 1F3A  
                                        i1u624_21 1EB2                                          i1u457_20 2C54  
                                        i1u641_20 1FD4                                          i1u633_20 1F4C  
                                        i1u625_20 1EC4                                          i1u617_20 1E48  
                                        i1u457_21 2C50                                          i1u641_21 1FD0  
                                        i1u633_21 1F48                                          i1u625_21 1EC0  
                                        i1u617_21 1E44                                          i1u473_25 2EB6  
                                        i1u473_27 2EB8                                          i1u474_20 34BE  
                                        i1u650_20 206C                                          i1u642_20 1FE4  
                                        i1u634_20 1F5C                                          i1u626_20 1ED4  
                                        i1u618_20 1E56                                          i1u474_21 34BA  
                                        i1u650_21 2068                                          i1u642_21 1FE0  
                                        i1u634_21 1F58                                          i1u626_21 1ED0  
                                        i1u618_21 1E52                                          i1u458_24 2C78  
                                        i1u458_25 2C74                                          i1u475_20 3020  
                                        i1u651_20 2084                                          i1u643_20 1FFC  
                                        i1u635_20 1F74                                          i1u627_20 1EEC  
                                        i1u619_20 1E68                                          i1u475_21 301C  
                                        i1u651_21 2080                                          i1u643_21 1FF8  
                                        i1u635_21 1F70                                          i1u627_21 1EE8  
                                        i1u619_21 1E64                                          i1u476_20 3032  
                                        i1u660_20 2116                                          i1u652_20 2092  
                                        i1u644_20 200A                                          i1u636_20 1F82  
                                        i1u628_20 1EFA                                          i1u476_21 302E  
                                        i1u660_21 2112                                          i1u652_21 208E  
                                        i1u644_21 2006                                          i1u636_21 1F7E  
                                        i1u628_21 1EF6                                          i1u477_20 34DE  
                                        i1u661_20 2128                                          i1u653_20 20A0  
                                        i1u645_20 2018                                          i1u637_20 1F90  
                                        i1u629_20 1F08                                          i1u477_21 34DA  
                                        i1u661_21 2124                                          i1u653_21 209C  
                                        i1u645_21 2014                                          i1u637_21 1F8C  
                                        i1u629_21 1F04                                          i1u478_20 3208  
                                        i1u566_20 2F56                                          i1u590_20 327A  
                                        i1u670_20 21B6                                          i1u662_20 2136  
                                        i1u654_20 20B0                                          i1u646_20 2028  
                                        i1u638_20 1FA0                                          i1u478_21 3204  
                                        i1u566_21 2F52                                          i1u590_21 3276  
                                        i1u670_21 21B2                                          i1u662_21 2132  
                                        i1u654_21 20AC                                          i1u646_21 2024  
                                        i1u638_21 1F9C                                          i1u567_20 2F92  
                                        i1u671_20 21C8                                          i1u663_20 2148  
                                        i1u655_20 20C8                                          i1u647_20 2040  
                                        i1u639_20 1FB8                                          i1u567_21 2F8E  
                                        i1u671_21 21C4                                          i1u663_21 2144  
                                        i1u655_21 20C4                                          i1u647_21 203C  
                                        i1u639_21 1FB4                                          i1u592_20 32B0  
                                        i1u591_28 3280                                          i1u672_20 21D6  
                                        i1u664_20 2156                                          i1u656_20 20D6  
                                        i1u648_20 204E                                          i1u592_21 32AC  
                                        i1u591_29 3292                                          i1u672_21 21D2  
                                        i1u664_21 2152                                          i1u656_21 20D2  
                                        i1u648_21 204A                                          i2u600_40 3612  
                                        i2u600_41 360E                                          i1u665_20 2168  
                                        i1u657_20 20E8                                          i1u649_20 205C  
                                        i1u665_21 2164                                          i1u657_21 20E4  
                                        i1u649_21 2058                                          i2u601_40 35F8  
                                        i2u601_41 35F4                                          _PIR1bits 0F9E  
                                        i1u594_20 340C                                          i1u586_20 35C4  
                                        i1u593_28 32B6                                          i1u666_20 2176  
                                        i1u658_20 20F6                                          i1u594_21 3408  
                                        i1u586_21 35C0                                          i1u593_29 32C8  
                                        i1u666_21 2172                                          i1u658_21 20F2  
                                        i2u602_40 35DE                                          i2u602_41 35DA  
                                        i1u587_20 35AA                                          i1u667_20 2188  
                                        i1u659_20 2108                                          i1u587_21 35A6  
                                        i1u667_21 2184                                          i1u659_21 2104  
                                        i2u610_48 3440                                          i2u603_40 32E6  
                                        i2u610_49 3452                                          i2u603_41 32E2  
                                        _PIR2bits 0FA1                                          i1u595_28 3412  
                                        i1u596_20 33DE                                          i1u588_20 3590  
                                        i1u668_20 2196                                          i1u595_29 3424  
                                        i1u596_21 33DA                                          i1u588_21 358C  
                                        i1u668_21 2192                                          i2u460_40 2CE6  
                                        i2u700_40 235A                                          i2u460_41 2CE2  
                                        i2u700_41 2356                                          i1u589_20 3576  
                                        i1u669_20 21A8                                          i1u589_21 3572  
                                        i1u669_21 21A4                                          i2u605_40 331C  
                                        i2u604_48 32EC                                          i2u701_40 2368  
                                        i2u605_41 3318                                          i2u604_49 32FE  
                                        i2u701_41 2364                                          i2u461_44 2D0A  
                                        i1u597_28 33E4                                          i2u461_45 2D06  
                                        i1u597_29 33F6                                          i2u710_40 23FE  
                                        i2u702_40 2376                                          i2u710_41 23FA  
                                        i2u702_41 2372                                          i2u607_40 3468  
                                        i2u606_48 3322                                          i2u711_40 240E  
                                        i2u703_40 2386                                          i2u607_41 3464  
                                        i2u606_49 3334                                          i2u711_41 240A  
                                        i2u703_41 2382                                          i2u560_40 34FE  
                                        i2u720_40 24AA                                          i2u712_40 2426  
                                        i2u704_40 239E                                          i2u560_41 34FA  
                                        i2u720_41 24A6                                          i2u712_41 2422  
                                        i2u704_41 239A                                          i2u608_48 346E  
                                        i2u609_40 343A                                          i2u561_40 307E  
                                        i2u721_40 24B8                                          i2u713_40 2434  
                                        i2u705_40 23AC                                          i2u608_49 3480  
                                        i2u609_41 3436                                          i2u561_41 307A  
                                        i2u721_41 24B4                                          i2u713_41 2430  
                                        i2u705_41 23A8                                          i2u562_40 3090  
                                        i2u730_40 254A                                          i2u722_40 24CA  
                                        i2u714_40 2442                                          i2u706_40 23BA  
                                        i2u562_41 308C                                          i2u730_41 2546  
                                        i2u722_41 24C6                                          i2u714_41 243E  
                                        i2u706_41 23B6                                          i2u563_40 351E  
                                        i2u459_40 2CC4                                          i2u731_40 2558  
                                        i2u723_40 24D8                                          i2u715_40 2452  
                                        i2u707_40 23CA                                          i2u563_41 351A  
                                        i2u459_41 2CC0                                          i2u731_41 2554  
                                        i2u723_41 24D4                                          i2u715_41 244E  
                                        i2u707_41 23C6                                          i2u564_40 3240  
                                        i2u732_40 256A                                          i2u724_40 24EA  
                                        i2u716_40 246A                                          i2u708_40 23E2  
                                        i2u564_41 323C                                          i2u732_41 2566  
                                        i2u724_41 24E6                                          i2u716_41 2466  
                                        i2u708_41 23DE                                          i2u733_40 2578  
                                        i2u725_40 24F8                                          i2u717_40 2478  
                                        i2u709_40 23F0                                          i2u733_41 2574  
                                        i2u725_41 24F4                                          i2u717_41 2474  
                                        i2u709_41 23EC                                          i2u558_40 2ED8  
                                        i2u726_40 250A                                          i2u718_40 248A  
                                        i2u558_41 2ED4                                          i2u726_41 2506  
                                        i2u718_41 2486                                          i2u727_40 2518  
                                        i2u719_40 2498                                          i2u727_41 2514  
                                        i2u719_41 2494                                          i2u559_45 2F28  
                                        i2u559_47 2F2A                                          i2u728_40 252A  
                                        i2u680_40 220A                                          i2u728_41 2526  
                                        i2u680_41 2206                                          i2u729_40 2538  
                                        i2u681_40 2218                                          i2u729_41 2534  
                                        i2u681_41 2214                                          i2u578_40 2FB8  
                                        i2u690_40 22AA                                          i2u682_40 222A  
                                        i2u578_41 2FB4                                          i2u690_41 22A6  
                                        i2u682_41 2226                                          i2u579_40 2FF4  
                                        i2u691_40 22BA                                          i2u683_40 2238  
                                        i2u579_41 2FF0                                          i2u691_41 22B6  
                                        i2u683_41 2234                                          i2u692_40 22D2  
                                        i2u684_40 224A                                          i2u692_41 22CE  
                                        i2u684_41 2246                                          i2u693_40 22E0  
                                        i2u685_40 2258                                          i2u693_41 22DC  
                                        i2u685_41 2254                                          i2u694_40 22EE  
                                        i2u686_40 2266                                          i2u678_40 21EA  
                                        i2u694_41 22EA                                          i2u686_41 2262  
                                        i2u678_41 21E6                                          i2u599_40 362C  
                                        i2u695_40 22FE                                          i2u687_40 2276  
                                        i2u679_40 21F8                                          i2u599_41 3628  
                                        i2u695_41 22FA                                          i2u687_41 2272  
                                        i2u679_41 21F4                                          i2u696_40 2316  
                                        i2u688_40 228E                                          i2u696_41 2312  
                                        i2u688_41 228A                                          i2u697_40 2324  
                                        i2u689_40 229C                                          i2u697_41 2320  
                                        i2u689_41 2298                                          i2u698_40 2332  
                                        i2u698_41 232E                                          i2u699_40 2342  
                                        i2u699_41 233E                                          _RCONbits 0FD0  
            _EUSART_Tx_InterruptHandler$intlevel1 366C                                          _TMR1_ISR 3698  
                                        _TMR2_ISR 36B0                                          _TMR3_ISR 3294  
                          ??i2_Timer1_Write_value 0005                            Timer1_Read_value@tmr1h 0019  
                          Timer1_Read_value@tmr1l 0018                                   ?_InterruptCheck 0001  
                                        _TMRO_ISR 325E                             ?i2_Timer3_Write_value 0001  
             EUSART_ASYNC_WriteByteBlocking@_data 0026                                        _ADCON0bits 0FC2  
                                      _ADCON1bits 0FC1                                        _ADCON2bits 0FC0  
                                ?i2_EUSART_RX_ISR 0001                              ??_gpio_pin_intialize 0032  
                                ?i2_EUSART_TX_ISR 0001                                         _usart_obj 011B  
                 __end_ofi2_gpio_pin_toggle_logic 2D44                           gpio_pin_write_logic@ret 002F  
                                     _INTCON2bits 0FF1                                       _INTCON3bits 0FF0  
                                       copy_data0 2D58                                         copy_data1 2D78  
                                       copy_data2 2D98             EUSART_ASYNC_WriteStringBlocking@_data 0027  
                                      _EECON1bits 0FA6                                          __Hrparam 0000  
                                        __Lrparam 0000                    ??_EUSART_Baud_Rate_Calculation 0034  
                     EUSART_ASYNC_RX_Init@_eusart 0026                                 RB6_ISR@RB6_Source 0012  
                           _CCP1_InterruptHandler 0038                     __end_of_CCP1_interruptHundler 2FA4  
                                        _ccp1_obj 00D0                        ?i2_timer3_interruptHundler 0001  
                         _timer3_interruptHundler 3548                        fp__timer3_interruptHundler 0000  
                               _freqenct_measured 0086                             _TMR1_InterruptHandler 00A4  
                             _ccp1_capature_value 004F                                          ___xxtofl 257E  
                        ?_timer0_interruptHundler 0001                                     _app_intialize 352C  
                            _InterruptManagerHigh 0008                             _CCP1_Interrupt_flag_2 0048  
                                        __ptext10 1A0C                                          __ptext11 1514  
                                        __ptext20 34AC                                          __ptext12 2B78  
                                        __ptext21 3006                                          __ptext13 2AA8  
                                        __ptext30 36C6                                          __ptext22 3294  
                                        __ptext14 30C2                                          __ptext31 36CA  
                                        __ptext23 3548                                          __ptext15 364A  
                                        __ptext40 2F38                                          __ptext32 36CE  
                                        __ptext24 36B0                                          __ptext41 34CC  
                                        __ptext33 33CA                                          __ptext25 3698  
                                        __ptext17 1E3A                                          __ptext50 3300  
                                        __ptext42 31EE                                          __ptext34 3662  
                                        __ptext26 3562                                          __ptext18 325E  
                                        __ptext51 367A                                          __ptext43 36D6  
                                        __ptext35 2E54                                          __ptext27 357C  
                                        __ptext19 3336                                          __ptext60 36E2  
                                        __ptext52 36B8                                          __ptext36 2C20  
                                        __ptext28 3596                                          __ptext61 3426  
                                        __ptext53 36A4                                          __ptext45 21DC  
                                        __ptext37 36EE                                          __ptext29 35B0  
                                        __ptext70 3226                                          __ptext62 368A  
                                        __ptext54 35CA                                          __ptext46 32CA  
                                        __ptext38 36D2                                          __ptext71 36EA  
                                        __ptext63 2EC6                                          __ptext55 35E4  
                                        __ptext47 3482                                          __ptext39 33F8  
                                        __ptext72 0000                                          __ptext64 2CB2  
                                        __ptext56 35FE                                          __ptext48 34EC  
                                        __ptext65 36F0                                          __ptext57 3618  
                                        __ptext49 3064                                          __ptext66 36E6  
                                        __ptext58 36DA                                          __ptext67 3454  
                                        __ptext59 36DE                                          __ptext68 2FA4  
                                        __ptext69 350C                                led_turn_toggle@led 0019  
                       i2Timer1_Read_value@_value 0003                         i2Timer1_Read_value@_timer 0001  
                      __end_of_Timer1_Write_value 34CC                          ?i2_CCP1_interruptHundler 0001  
        __end_of_EUSART_ASYNC_WriteStringBlocking 3118                ??_EUSART_ASYNC_WriteStringBlocking 0029  
               ?_EUSART_ASYNC_WriteStringBlocking 0027                  _EUSART_ASYNC_WriteStringBlocking 30C2  
                                        isa$xinst 0000                                          int$flags 005A  
                          ??i2_Timer3_Write_value 0005                                      _timer0_count 004A  
                                    _timer1_count 0053                 __end_ofi2_timer3_interruptHundler 368A  
                                      i2_CCP1_ISR 3454                                        i2_CCP2_ISR 36E6  
                                      _INTCONbits 0FF2                                    ?_app_intialize 0001  
                           ?_InterruptManagerHigh 0001                      __end_of_gpio_pin_write_logic 29A2  
                                        intlevel1 0000                                          intlevel2 0000  
                             _InterruptManagerLow 0018                                        i2_INT0_ISR 36E2  
                                      i2_INT1_ISR 36DE                                        i2_INT2_ISR 36DA  
                               i2_led_turn_toggle 2EC6                 _timer0_interruptHundler$intlevel1 3340  
                                      i2_TMR1_ISR 36A4                                        i2_TMR2_ISR 36B8  
                                      i2_TMR3_ISR 3300                             _gpio_pin_toggle_logic 2C20  
                       ??_timer3_interruptHundler 0012                                ?i2_led_turn_toggle 0008  
                                      i2_TMRO_ISR 32CA                              ?_InterruptManagerLow 0001  
                        i2led_turn_toggle@pin_obj 000B                                    _port_registers 0100  
                               ?i2_InterruptCheck 0001                               ??i2_led_turn_toggle 000A  
                        fp__CCP1_interruptHundler 0000                               i2RB5_ISR@RB5_Source 0001  
                              ??i2_InterruptCheck 000C                                     ___fladd@signs 0143  
                           _CCP2_InterruptHandler 0098                   __end_ofi2_CCP1_interruptHundler 3006  
                                    ___fladd@aexp 0144                                      ___fladd@bexp 0145  
                           _TMR2_InterruptHandler 00A2                        __end_of_Timer3_Write_value 34EC  
                       __end_ofi2_led_turn_toggle 2F38                                    _led_initialize 2DD2  
                                ??_InterruptCheck 001D                      ??_EUSART_Tx_InterruptHandler 001D  
