

Microchip MPLAB XC8 Assembler V2.41 build 20230208172133 
                                                                                               Wed May 31 21:49:18 2023

Microchip MPLAB XC8 C Compiler v2.41 (Free license) build 20230208172133 Og1 
     1                           	processor	18F4620
     2                           	fnconf	rparam,??,?,0
     3                           	pagewidth 120
     4                           	opt	flic
     5                           	psect	idataCOMRAM,global,class=CODE,delta=1,noexec
     6                           	psect	idataBANK0,global,class=CODE,delta=1,noexec
     7                           	psect	idataBANK1,global,class=CODE,delta=1,noexec
     8                           	psect	smallconst,global,reloc=2,class=SMALLCONST,delta=1,noexec
     9                           	psect	cinit,global,reloc=2,class=CODE,delta=1
    10                           	psect	bssCOMRAM,global,class=COMRAM,space=1,delta=1,lowdata,noexec
    11                           	psect	dataCOMRAM,global,class=COMRAM,space=1,delta=1,lowdata,noexec
    12                           	psect	bssBANK0,global,class=BANK0,space=1,delta=1,lowdata,noexec
    13                           	psect	dataBANK0,global,class=BANK0,space=1,delta=1,lowdata,noexec
    14                           	psect	dataBANK1,global,class=BANK1,space=1,delta=1,lowdata,noexec
    15                           	psect	cstackBANK1,global,class=BANK1,space=1,delta=1,lowdata,noexec
    16                           	psect	cstackBANK0,global,class=BANK0,space=1,delta=1,lowdata,noexec
    17                           	psect	cstackCOMRAM,global,class=COMRAM,space=1,delta=1,lowdata,noexec
    18                           	psect	text0,global,reloc=2,class=CODE,delta=1
    19                           	psect	text1,global,reloc=2,class=CODE,delta=1
    20                           	psect	text2,global,reloc=2,class=CODE,delta=1
    21                           	psect	text3,global,reloc=2,class=CODE,delta=1
    22                           	psect	text4,global,reloc=2,class=CODE,delta=1
    23                           	psect	text5,global,reloc=2,class=CODE,delta=1
    24                           	psect	text6,global,reloc=2,class=CODE,delta=1
    25                           	psect	text7,global,reloc=2,class=CODE,delta=1
    26                           	psect	intcodelo,global,reloc=2,class=CODE,delta=1
    27                           	psect	text9,global,reloc=2,class=CODE,delta=1
    28                           	psect	text10,global,reloc=2,class=CODE,delta=1
    29                           	psect	text11,global,reloc=2,class=CODE,delta=1
    30                           	psect	text12,global,reloc=2,class=CODE,delta=1
    31                           	psect	text13,global,reloc=2,class=CODE,delta=1
    32                           	psect	text14,global,reloc=2,class=CODE,delta=1
    33                           	psect	text15,global,reloc=2,class=CODE,delta=1
    34                           	psect	text16,global,reloc=2,class=CODE,delta=1
    35                           	psect	text17,global,reloc=2,class=CODE,delta=1
    36                           	psect	text18,global,reloc=2,class=CODE,delta=1
    37                           	psect	text19,global,reloc=2,class=CODE,delta=1
    38                           	psect	text20,global,reloc=2,class=CODE,delta=1
    39                           	psect	text21,global,reloc=2,class=CODE,delta=1
    40                           	psect	text22,global,reloc=2,class=CODE,delta=1
    41                           	psect	text23,global,reloc=2,class=CODE,delta=1
    42                           	psect	text24,global,reloc=2,class=CODE,delta=1
    43                           	psect	text25,global,reloc=2,class=CODE,delta=1
    44                           	psect	text26,global,reloc=2,class=CODE,delta=1
    45                           	psect	text27,global,reloc=2,class=CODE,delta=1
    46                           	psect	text28,global,reloc=2,class=CODE,delta=1
    47                           	psect	text29,global,reloc=2,class=CODE,delta=1
    48                           	psect	text30,global,reloc=2,class=CODE,delta=1
    49                           	psect	text31,global,reloc=2,class=CODE,delta=1
    50                           	psect	text32,global,reloc=2,class=CODE,delta=1
    51                           	psect	text33,global,reloc=2,class=CODE,delta=1
    52                           	psect	text34,global,reloc=2,class=CODE,delta=1
    53                           	psect	intcode,global,reloc=2,class=CODE,delta=1
    54                           	psect	intcode_body,global,reloc=2,class=CODE,delta=1
    55                           	psect	text36,global,reloc=2,class=CODE,delta=1
    56                           	psect	text37,global,reloc=2,class=CODE,delta=1
    57                           	psect	text38,global,reloc=2,class=CODE,delta=1
    58                           	psect	text39,global,reloc=2,class=CODE,delta=1
    59                           	psect	text40,global,reloc=2,class=CODE,delta=1
    60                           	psect	text41,global,reloc=2,class=CODE,delta=1
    61                           	psect	text42,global,reloc=2,class=CODE,delta=1
    62                           	psect	text43,global,reloc=2,class=CODE,delta=1
    63                           	psect	text44,global,reloc=2,class=CODE,delta=1
    64                           	psect	text45,global,reloc=2,class=CODE,delta=1
    65                           	psect	text46,global,reloc=2,class=CODE,delta=1
    66                           	psect	text47,global,reloc=2,class=CODE,delta=1
    67                           	psect	text48,global,reloc=2,class=CODE,delta=1
    68                           	psect	text49,global,reloc=2,class=CODE,delta=1
    69                           	psect	text50,global,reloc=2,class=CODE,delta=1
    70                           	psect	text51,global,reloc=2,class=CODE,delta=1
    71                           	psect	text52,global,reloc=2,class=CODE,delta=1
    72                           	psect	text53,global,reloc=2,class=CODE,delta=1
    73                           	psect	text54,global,reloc=2,class=CODE,delta=1
    74                           	psect	text55,global,reloc=2,class=CODE,delta=1
    75                           	psect	text56,global,reloc=2,class=CODE,delta=1
    76                           	psect	text57,global,reloc=2,class=CODE,delta=1
    77                           	psect	text58,global,reloc=2,class=CODE,delta=1
    78                           	psect	text59,global,reloc=2,class=CODE,delta=1
    79                           	psect	text60,global,reloc=2,class=CODE,delta=1
    80                           	psect	text61,global,reloc=2,class=CODE,delta=1
    81                           	psect	intsave_regs,global,class=BIGRAM,space=1,delta=1,noexec
    82                           	psect	text62,global,reloc=2,class=CODE,delta=1
    83                           	psect	rparam,global,class=COMRAM,space=1,delta=1,noexec
    84                           	psect	temp,global,ovrld,common,class=COMRAM,space=1,delta=1
    85                           	psect	idloc,global,abs,ovrld,class=IDLOC,space=5,delta=1,noexec
    86                           	psect	config,global,abs,ovrld,class=CONFIG,space=4,delta=1,noexec
    87   000000                     
    88                           ; Version 2.40
    89                           ; Generated 17/11/2021 GMT
    90                           ; 
    91                           ; Copyright © 2021, Microchip Technology Inc. and its subsidiaries ("Microchip")
    92                           ; All rights reserved.
    93                           ; 
    94                           ; This software is developed by Microchip Technology Inc. and its subsidiaries ("Microch
      +                          ip").
    95                           ; 
    96                           ; Redistribution and use in source and binary forms, with or without modification, are
    97                           ; permitted provided that the following conditions are met:
    98                           ; 
    99                           ;     1. Redistributions of source code must retain the above copyright notice, this lis
      +                          t of
   100                           ;        conditions and the following disclaimer.
   101                           ; 
   102                           ;     2. Redistributions in binary form must reproduce the above copyright notice, this 
      +                          list
   103                           ;        of conditions and the following disclaimer in the documentation and/or other
   104                           ;        materials provided with the distribution. Publication is not required when
   105                           ;        this file is used in an embedded application.
   106                           ; 
   107                           ;     3. Microchip's name may not be used to endorse or promote products derived from th
      +                          is
   108                           ;        software without specific prior written permission.
   109                           ; 
   110                           ; THIS SOFTWARE IS PROVIDED BY MICROCHIP "AS IS" AND ANY EXPRESS OR IMPLIED WARRANTIES,
   111                           ; INCLUDING, BUT NOT LIMITED TO, THE IMPLIED WARRANTIES OF MERCHANTABILITY AND FITNESS F
      +                          OR
   112                           ; PURPOSE ARE DISCLAIMED.  IN NO EVENT SHALL MICROCHIP BE LIABLE FOR ANY DIRECT, INDIREC
      +                          T,
   113                           ; INCIDENTAL, SPECIAL, EXEMPLARY, OR CONSEQUENTIAL DAMAGES (INCLUDING BUT NOT LIMITED TO
   114                           ; PROCUREMENT OF SUBSTITUTE GOODS OR SERVICES; LOSS OF USE, DATA OR PROFITS; OR BUSINESS
   115                           ; INTERRUPTION) HOWSOEVER CAUSED AND ON ANY THEORY OF LIABILITY, WHETHER IN CONTRACT, ST
      +                          RICT
   116                           ; LIABILITY, OR TORT (INCLUDING NEGLIGENCE OR OTHERWISE) ARISING IN ANY WAY OUT OF THE U
      +                          SE OF
   117                           ; THIS SOFTWARE, EVEN IF ADVISED OF THE POSSIBILITY OF SUCH DAMAGE.
   118                           ; 
   119                           ; 
   120                           ; Code-generator required, PIC18F4620 Definitions
   121                           ; 
   122                           ; SFR Addresses
   123   000000                     
   124                           	psect	idataCOMRAM
   125   002324                     __pidataCOMRAM:
   126                           	callstack 0
   127                           
   128                           ;initializer for _SPI_Slave_obj
   129   002324  00                 	db	0
   130   002325  00                 	db	0
   131   002326  04                 	db	4
   132                           
   133                           ;initializer for _led2
   134   002327  72                 	db	114
   135                           
   136                           ;initializer for _RB7_Flag
   137   002328  01                 	db	1
   138                           
   139                           ;initializer for _RB6_Flag
   140   002329  01                 	db	1
   141                           
   142                           ;initializer for _RB5_Flag
   143   00232A  01                 	db	1
   144                           
   145                           ;initializer for _RB4_Flag
   146   00232B  01                 	db	1
   147                           
   148                           ;initializer for _timer1
   149   00232C  00                 	db	0
   150   00232D  00                 	db	0
   151   00232E  01                 	db	1
   152   00232F  0000               	dw	0
   153   002331  24                 	db	36
   154                           
   155                           ;initializer for _led1
   156   002332  03                 	db	3
   157                           
   158                           	psect	idataBANK0
   159   001D56                     __pidataBANK0:
   160                           	callstack 0
   161                           
   162                           ;initializer for _port_registers
   163   001D56  80                 	db	128
   164   001D57  0F                 	db	15
   165   001D58  81                 	db	129
   166   001D59  0F                 	db	15
   167   001D5A  82                 	db	130
   168   001D5B  0F                 	db	15
   169   001D5C  83                 	db	131
   170   001D5D  0F                 	db	15
   171   001D5E  84                 	db	132
   172   001D5F  0F                 	db	15
   173                           
   174                           ;initializer for _lat_registers
   175   001D60  89                 	db	137
   176   001D61  0F                 	db	15
   177   001D62  8A                 	db	138
   178   001D63  0F                 	db	15
   179   001D64  8B                 	db	139
   180   001D65  0F                 	db	15
   181   001D66  8C                 	db	140
   182   001D67  0F                 	db	15
   183   001D68  8D                 	db	141
   184   001D69  0F                 	db	15
   185                           
   186                           ;initializer for _tris_registers
   187   001D6A  92                 	db	146
   188   001D6B  0F                 	db	15
   189   001D6C  93                 	db	147
   190   001D6D  0F                 	db	15
   191   001D6E  94                 	db	148
   192   001D6F  0F                 	db	15
   193   001D70  95                 	db	149
   194   001D71  0F                 	db	15
   195   001D72  96                 	db	150
   196   001D73  0F                 	db	15
   197                           
   198                           ;initializer for _lcd_2
   199   001D74  32                 	db	50
   200   001D75  3A                 	db	58
   201   001D76  03                 	db	3
   202   001D77  0B                 	db	11
   203   001D78  13                 	db	19
   204   001D79  1B                 	db	27
   205   001D7A  23                 	db	35
   206   001D7B  2B                 	db	43
   207   001D7C  33                 	db	51
   208   001D7D  3B                 	db	59
   209                           
   210                           ;initializer for _timer0
   211   001D7E  E6                 	db	low _timer0_interruptHundler
   212   001D7F  1E                 	db	high _timer0_interruptHundler
   213   001D80  01                 	db	1
   214   001D81  04                 	db	4
   215   001D82  0BDC               	dw	3036
   216   001D84  07                 	db	7
   217                           
   218                           ;initializer for _ccp1_obj
   219   001D85  00                 	db	0
   220   001D86  52                 	db	82
   221   001D87  2C                 	db	low _CCP1_interruptHundler
   222   001D88  1B                 	db	high _CCP1_interruptHundler
   223   001D89  01                 	db	1
   224   001D8A  05                 	db	5
   225   001D8B  00                 	db	0
   226                           
   227                           ;initializer for _lcd_1
   228   001D8C  02                 	db	2
   229   001D8D  0A                 	db	10
   230   001D8E  12                 	db	18
   231   001D8F  1A                 	db	26
   232   001D90  22                 	db	34
   233   001D91  2A                 	db	42
   234                           
   235                           ;initializer for _timer2
   236   001D92  00                 	db	0
   237   001D93  00                 	db	0
   238   001D94  01                 	db	1
   239   001D95  00                 	db	0
   240   001D96  00                 	db	0
   241                           
   242                           ;initializer for _timer3
   243   001D97  EC                 	db	low _timer3_interruptHundler
   244   001D98  21                 	db	high _timer3_interruptHundler
   245   001D99  00                 	db	0
   246   001D9A  0000               	dw	0
   247   001D9C  00                 	db	0
   248                           
   249                           	psect	idataBANK1
   250   0022F0                     __pidataBANK1:
   251                           	callstack 0
   252                           
   253                           ;initializer for _usart_obj
   254   0022F0  2580               	dw	9600
   255   0022F2  0000               	dw	0
   256   0022F4  00                 	db	0
   257   0022F5  01                 	db	1
   258   0022F6  03                 	db	3
   259   0022F7  00                 	db	0
   260   0022F8  03                 	db	3
   261   0022F9  00                 	db	0
   262   0022FA  00                 	db	0
   263   0022FB  6E                 	db	low _EUSART_Tx_InterruptHandler
   264   0022FC  22                 	db	high _EUSART_Tx_InterruptHandler
   265   0022FD  EA                 	db	low _EUSART_Rx_InterruptHandler
   266   0022FE  20                 	db	high _EUSART_Rx_InterruptHandler
   267   0022FF  00                 	db	0
   268   002300  00                 	db	0
   269   002301  00                 	db	0
   270   002302  00                 	db	0
   271   000000                     _SPBRGH	set	4016
   272   000000                     _SPBRG	set	4015
   273   000000                     _TXREG	set	4013
   274   000000                     _TXSTAbits	set	4012
   275   000000                     _RCREG	set	4014
   276   000000                     _RCSTAbits	set	4011
   277   000000                     _TMR3L	set	4018
   278   000000                     _TMR3H	set	4019
   279   000000                     _TMR1L	set	4046
   280   000000                     _TMR1H	set	4047
   281   000000                     _TMR0L	set	4054
   282   000000                     _TMR0H	set	4055
   283   000000                     _INTCON2bits	set	4081
   284   000000                     _EECON2	set	4007
   285   000000                     _CCPR1H	set	4031
   286   000000                     _CCPR1L	set	4030
   287   000000                     _ADCON1bits	set	4033
   288   000000                     _ADRESL	set	4035
   289   000000                     _ADRESH	set	4036
   290   000000                     _RCONbits	set	4048
   291   000000                     _TRISD	set	3989
   292   000000                     _TRISC	set	3988
   293   000000                     _TRISB	set	3987
   294   000000                     _TRISE	set	3990
   295   000000                     _TRISAbits	set	3986
   296   000000                     _TRISCbits	set	3988
   297   000000                     _PORTBbits	set	3969
   298   000000                     _PIE1bits	set	3997
   299   000000                     _ADCON2bits	set	4032
   300   000000                     _ADCON0bits	set	4034
   301   000000                     _PORTE	set	3972
   302   000000                     _PORTD	set	3971
   303   000000                     _PORTC	set	3970
   304   000000                     _PORTB	set	3969
   305   000000                     _PORTA	set	3968
   306   000000                     _LATA	set	3977
   307   000000                     _TRISA	set	3986
   308   000000                     _PIR2bits	set	4001
   309   000000                     _PIE2bits	set	4000
   310   000000                     _EECON1bits	set	4006
   311   000000                     _EEDATA	set	4008
   312   000000                     _EEADR	set	4009
   313   000000                     _EEADRH	set	4010
   314   000000                     _T3CONbits	set	4017
   315   000000                     _CCP1CONbits	set	4029
   316   000000                     _IPR1bits	set	3999
   317   000000                     _PIR1bits	set	3998
   318   000000                     _T0CONbits	set	4053
   319   000000                     _INTCON3bits	set	4080
   320   000000                     _INTCONbits	set	4082
   321   000000                     _SSPCON1bits	set	4038
   322   000000                     _T2CONbits	set	4042
   323   000000                     _T1CONbits	set	4045
   324   000000                     _LATE	set	3981
   325   000000                     _LATD	set	3980
   326   000000                     _LATC	set	3979
   327   000000                     _LATB	set	3978
   328   000000                     _TMR2	set	4044
   329   000000                     _BAUDCONbits	set	4024
   330   000000                     _SSPBUF	set	4041
   331   000000                     _SSPSTATbits	set	4039
   332                           
   333                           	psect	smallconst
   334   001000                     __psmallconst:
   335                           	callstack 0
   336   001000  00                 	db	0
   337   001001                     STR_1:
   338   001001  25                 	db	37
   339   001002  69                 	db	105	;'i'
   340   001003  00                 	db	0
   341   001004  00                 	db	0	; dummy byte at the end
   342   000000                     
   343                           ; #config settings
   344                           
   345                           	psect	cinit
   346   001AAA                     __pcinit:
   347                           	callstack 0
   348   001AAA                     start_initialization:
   349                           	callstack 0
   350   001AAA                     __initialization:
   351                           	callstack 0
   352                           
   353                           ; Initialize objects allocated to BANK1 (19 bytes)
   354                           ; load TBLPTR registers with __pidataBANK1
   355   001AAA  0EF0               	movlw	low __pidataBANK1
   356   001AAC  6EF6               	movwf	tblptrl,c
   357   001AAE  0E22               	movlw	high __pidataBANK1
   358   001AB0  6EF7               	movwf	tblptrh,c
   359   001AB2  0E00               	movlw	low (__pidataBANK1 shr (0+16))
   360   001AB4  6EF8               	movwf	tblptru,c
   361   001AB6  EE01  F000         	lfsr	0,__pdataBANK1
   362   001ABA  EE10 F013          	lfsr	1,19
   363   001ABE                     copy_data0:
   364   001ABE  0009               	tblrd		*+
   365   001AC0  CFF5 FFEE          	movff	tablat,postinc0
   366   001AC4  50E5               	movf	postdec1,w,c
   367   001AC6  50E1               	movf	fsr1l,w,c
   368   001AC8  E1FA               	bnz	copy_data0
   369                           
   370                           ; Initialize objects allocated to BANK0 (71 bytes)
   371                           ; load TBLPTR registers with __pidataBANK0
   372   001ACA  0E56               	movlw	low __pidataBANK0
   373   001ACC  6EF6               	movwf	tblptrl,c
   374   001ACE  0E1D               	movlw	high __pidataBANK0
   375   001AD0  6EF7               	movwf	tblptrh,c
   376   001AD2  0E00               	movlw	low (__pidataBANK0 shr (0+16))
   377   001AD4  6EF8               	movwf	tblptru,c
   378   001AD6  EE00  F080         	lfsr	0,__pdataBANK0
   379   001ADA  EE10 F047          	lfsr	1,71
   380   001ADE                     copy_data1:
   381   001ADE  0009               	tblrd		*+
   382   001AE0  CFF5 FFEE          	movff	tablat,postinc0
   383   001AE4  50E5               	movf	postdec1,w,c
   384   001AE6  50E1               	movf	fsr1l,w,c
   385   001AE8  E1FA               	bnz	copy_data1
   386                           
   387                           ; Initialize objects allocated to COMRAM (15 bytes)
   388                           ; load TBLPTR registers with __pidataCOMRAM
   389   001AEA  0E24               	movlw	low __pidataCOMRAM
   390   001AEC  6EF6               	movwf	tblptrl,c
   391   001AEE  0E23               	movlw	high __pidataCOMRAM
   392   001AF0  6EF7               	movwf	tblptrh,c
   393   001AF2  0E00               	movlw	low (__pidataCOMRAM shr (0+16))
   394   001AF4  6EF8               	movwf	tblptru,c
   395   001AF6  EE00  F05C         	lfsr	0,__pdataCOMRAM
   396   001AFA  EE10 F00F          	lfsr	1,15
   397   001AFE                     copy_data2:
   398   001AFE  0009               	tblrd		*+
   399   001B00  CFF5 FFEE          	movff	tablat,postinc0
   400   001B04  50E5               	movf	postdec1,w,c
   401   001B06  50E1               	movf	fsr1l,w,c
   402   001B08  E1FA               	bnz	copy_data2
   403                           
   404                           ; Clear objects allocated to BANK0 (45 bytes)
   405   001B0A  EE00  F0C7         	lfsr	0,__pbssBANK0
   406   001B0E  0E2D               	movlw	45
   407   001B10                     clear_0:
   408   001B10  6AEE               	clrf	postinc0,c
   409   001B12  06E8               	decf	wreg,f,c
   410   001B14  E1FD               	bnz	clear_0
   411                           
   412                           ; Clear objects allocated to COMRAM (64 bytes)
   413   001B16  EE00  F001         	lfsr	0,__pbssCOMRAM
   414   001B1A  0E40               	movlw	64
   415   001B1C                     clear_1:
   416   001B1C  6AEE               	clrf	postinc0,c
   417   001B1E  06E8               	decf	wreg,f,c
   418   001B20  E1FD               	bnz	clear_1
   419   001B22                     end_of_initialization:
   420                           	callstack 0
   421   001B22                     __end_of__initialization:
   422                           	callstack 0
   423   001B22  906B               	bcf	int$flags,0,c	;clear compiler interrupt flag (level 1)
   424   001B24  926B               	bcf	int$flags,1,c	;clear compiler interrupt flag (level 2)
   425   001B26  0100               	movlb	0
   426   001B28  EF85  F00E         	goto	_main	;jump to C main() function
   427                           
   428                           	psect	bssCOMRAM
   429   000001                     __pbssCOMRAM:
   430                           	callstack 0
   431   000001                     _EUSART_OverrunErrorHandler:
   432                           	callstack 0
   433   000001                     	ds	2
   434   000003                     _EUSART_FramingErrorHandler:
   435                           	callstack 0
   436   000003                     	ds	2
   437   000005                     _EUSART_Rx_InterruptHandler@hal_usart$F3613:
   438                           	callstack 0
   439   000005                     	ds	2
   440   000007                     _EUSART_Tx_InterruptHandler@hal_usart$F3612:
   441                           	callstack 0
   442   000007                     	ds	2
   443   000009                     _timer3_preload:
   444                           	callstack 0
   445   000009                     	ds	2
   446   00000B                     _TMR3_InterruptHandler:
   447                           	callstack 0
   448   00000B                     	ds	2
   449   00000D                     _TMR2_InterruptHandler:
   450                           	callstack 0
   451   00000D                     	ds	2
   452   00000F                     _timer1_preload:
   453                           	callstack 0
   454   00000F                     	ds	2
   455   000011                     _TMR1_InterruptHandler:
   456                           	callstack 0
   457   000011                     	ds	2
   458   000013                     _timer0_preload:
   459                           	callstack 0
   460   000013                     	ds	2
   461   000015                     _TMR0_InterruptHandler:
   462                           	callstack 0
   463   000015                     	ds	2
   464   000017                     _RB7_InterruptHandler_LOW:
   465                           	callstack 0
   466   000017                     	ds	2
   467   000019                     _RB7_InterruptHandler_HIGH:
   468                           	callstack 0
   469   000019                     	ds	2
   470   00001B                     _RB6_InterruptHandler_LOW:
   471                           	callstack 0
   472   00001B                     	ds	2
   473   00001D                     _RB6_InterruptHandler_HIGH:
   474                           	callstack 0
   475   00001D                     	ds	2
   476   00001F                     _RB5_InterruptHandler_LOW:
   477                           	callstack 0
   478   00001F                     	ds	2
   479   000021                     _RB5_InterruptHandler_HIGH:
   480                           	callstack 0
   481   000021                     	ds	2
   482   000023                     _RB4_InterruptHandler_LOW:
   483                           	callstack 0
   484   000023                     	ds	2
   485   000025                     _RB4_InterruptHandler_HIGH:
   486                           	callstack 0
   487   000025                     	ds	2
   488   000027                     _INT2_InterruptHandler:
   489                           	callstack 0
   490   000027                     	ds	2
   491   000029                     _INT1_InterruptHandler:
   492                           	callstack 0
   493   000029                     	ds	2
   494   00002B                     _INT0_InterruptHandler:
   495                           	callstack 0
   496   00002B                     	ds	2
   497   00002D                     CCP1_Capture_Mode_Read_Value@F3086:
   498                           	callstack 0
   499   00002D                     	ds	2
   500   00002F                     _CCP1_InterruptHandler:
   501                           	callstack 0
   502   00002F                     	ds	2
   503   000031                     _ADC_InterruptHandler:
   504                           	callstack 0
   505   000031                     	ds	2
   506   000033                     _CCP1_Interrupt_flag_2:
   507                           	callstack 0
   508   000033                     	ds	1
   509   000034                     _CCP1_Interrupt_flag:
   510                           	callstack 0
   511   000034                     	ds	1
   512   000035                     _timer0_count:
   513                           	callstack 0
   514   000035                     	ds	1
   515   000036                     _timer2_preload:
   516                           	callstack 0
   517   000036                     	ds	1
   518   000037                     led_turn_toggle@F3063:
   519                           	callstack 0
   520   000037                     	ds	1
   521   000038                     led_turn_off@F3058:
   522                           	callstack 0
   523   000038                     	ds	1
   524   000039                     led_turn_on@F3053:
   525                           	callstack 0
   526   000039                     	ds	1
   527   00003A                     led_initialize@F3048:
   528                           	callstack 0
   529   00003A                     	ds	1
   530   00003B                     _ccp1_capature_value:
   531                           	callstack 0
   532   00003B                     	ds	4
   533   00003F                     _rec_uart_data:
   534                           	callstack 0
   535   00003F                     	ds	1
   536   000040                     _timer1_count:
   537                           	callstack 0
   538   000040                     	ds	1
   539                           
   540                           	psect	dataCOMRAM
   541   00005C                     __pdataCOMRAM:
   542                           	callstack 0
   543   00005C                     _SPI_Slave_obj:
   544                           	callstack 0
   545   00005C                     	ds	3
   546   00005F                     _led2:
   547                           	callstack 0
   548   00005F                     	ds	1
   549   000060                     _RB7_Flag:
   550                           	callstack 0
   551   000060                     	ds	1
   552   000061                     _RB6_Flag:
   553                           	callstack 0
   554   000061                     	ds	1
   555   000062                     _RB5_Flag:
   556                           	callstack 0
   557   000062                     	ds	1
   558   000063                     _RB4_Flag:
   559                           	callstack 0
   560   000063                     	ds	1
   561   000064                     _timer1:
   562                           	callstack 0
   563   000064                     	ds	6
   564   00006A                     _led1:
   565                           	callstack 0
   566   00006A                     	ds	1
   567                           
   568                           	psect	bssBANK0
   569   0000C7                     __pbssBANK0:
   570                           	callstack 0
   571   0000C7                     	ds	11
   572   0000D2                     	ds	6
   573   0000D8                     _freqenct_measured:
   574                           	callstack 0
   575   0000D8                     	ds	4
   576   0000DC                     _Total_period_microSecond:
   577                           	callstack 0
   578   0000DC                     	ds	4
   579   0000E0                     _usart_tx_valid:
   580                           	callstack 0
   581   0000E0                     	ds	4
   582   0000E4                     _usart_rx_valid:
   583                           	callstack 0
   584   0000E4                     	ds	4
   585   0000E8                     _timer3_overflow:
   586                           	callstack 0
   587   0000E8                     	ds	4
   588   0000EC                     	ds	4
   589   0000F0                     _SPI_Master_obj:
   590                           	callstack 0
   591   0000F0                     	ds	4
   592                           
   593                           	psect	dataBANK0
   594   000080                     __pdataBANK0:
   595                           	callstack 0
   596   000080                     _port_registers:
   597                           	callstack 0
   598   000080                     	ds	10
   599   00008A                     _lat_registers:
   600                           	callstack 0
   601   00008A                     	ds	10
   602   000094                     _tris_registers:
   603                           	callstack 0
   604   000094                     	ds	10
   605   00009E                     _lcd_2:
   606                           	callstack 0
   607   00009E                     	ds	10
   608   0000A8                     _timer0:
   609                           	callstack 0
   610   0000A8                     	ds	7
   611   0000AF                     _ccp1_obj:
   612                           	callstack 0
   613   0000AF                     	ds	7
   614   0000B6                     _lcd_1:
   615                           	callstack 0
   616   0000B6                     	ds	6
   617   0000BC                     _timer2:
   618                           	callstack 0
   619   0000BC                     	ds	5
   620   0000C1                     _timer3:
   621                           	callstack 0
   622   0000C1                     	ds	6
   623                           
   624                           	psect	dataBANK1
   625   000100                     __pdataBANK1:
   626                           	callstack 0
   627   000100                     _usart_obj:
   628                           	callstack 0
   629   000100                     	ds	19
   630                           
   631                           	psect	cstackBANK1
   632   000113                     __pcstackBANK1:
   633                           	callstack 0
   634   000113                     gpio_pin_intialize@ret:
   635                           	callstack 0
   636                           
   637                           ; 1 bytes @ 0x0
   638   000113                     	ds	1
   639   000114                     led_initialize@led:
   640                           	callstack 0
   641                           
   642                           ; 2 bytes @ 0x1
   643   000114                     	ds	2
   644   000116                     ??_led_initialize:
   645                           
   646                           ; 1 bytes @ 0x3
   647   000116                     	ds	1
   648   000117                     led_initialize@ret:
   649                           	callstack 0
   650                           
   651                           ; 1 bytes @ 0x4
   652   000117                     	ds	1
   653   000118                     led_initialize@pin_obj:
   654                           	callstack 0
   655                           
   656                           ; 1 bytes @ 0x5
   657   000118                     	ds	1
   658   000119                     ??_main:
   659                           
   660                           ; 1 bytes @ 0x6
   661   000119                     	ds	2
   662                           
   663                           	psect	cstackBANK0
   664   0000F4                     __pcstackBANK0:
   665                           	callstack 0
   666   0000F4                     SPI_WriteByteBlocking@buff_removed:
   667                           	callstack 0
   668   0000F4                     gpio_pin_direction_intialize@_pin_config:
   669                           	callstack 0
   670   0000F4                     gpio_pin_write_logic@_pin_config:
   671                           	callstack 0
   672   0000F4                     SPI_Init_Master@_spi:
   673                           	callstack 0
   674                           
   675                           ; 2 bytes @ 0x0
   676   0000F4                     	ds	1
   677   0000F5                     SPI_WriteByteBlocking@_data:
   678                           	callstack 0
   679                           
   680                           ; 1 bytes @ 0x1
   681   0000F5                     	ds	1
   682   0000F6                     ??_gpio_pin_direction_intialize:
   683   0000F6                     ??_SPI_Init_Master:
   684   0000F6                     gpio_pin_write_logic@logic:
   685                           	callstack 0
   686                           
   687                           ; 1 bytes @ 0x2
   688   0000F6                     	ds	1
   689   0000F7                     ??_gpio_pin_write_logic:
   690   0000F7                     SPI_Init_Master@ret:
   691                           	callstack 0
   692                           
   693                           ; 1 bytes @ 0x3
   694   0000F7                     	ds	5
   695   0000FC                     gpio_pin_direction_intialize@ret:
   696                           	callstack 0
   697                           
   698                           ; 1 bytes @ 0x8
   699   0000FC                     	ds	1
   700   0000FD                     gpio_pin_write_logic@ret:
   701                           	callstack 0
   702                           
   703                           ; 1 bytes @ 0x9
   704   0000FD                     	ds	1
   705   0000FE                     gpio_pin_intialize@_pin_config:
   706                           	callstack 0
   707                           
   708                           ; 2 bytes @ 0xA
   709   0000FE                     	ds	2
   710   000100                     
   711                           ; 1 bytes @ 0xC
   712                           
   713                           	psect	cstackCOMRAM
   714   000041                     __pcstackCOMRAM:
   715                           	callstack 0
   716   000041                     i2RB4_ISR@RB4_Source:
   717                           	callstack 0
   718   000041                     i2RB5_ISR@RB5_Source:
   719                           	callstack 0
   720   000041                     i2RB6_ISR@RB6_Source:
   721                           	callstack 0
   722   000041                     i2RB7_ISR@RB7_Source:
   723                           	callstack 0
   724   000041                     i2CCP1_Capture_Mode_Read_Value@_capture_value:
   725                           	callstack 0
   726   000041                     i2Timer1_Write_value@_timer:
   727                           	callstack 0
   728   000041                     i2Timer1_Read_value@_timer:
   729                           	callstack 0
   730   000041                     i2Timer3_Write_value@_timer:
   731                           	callstack 0
   732   000041                     i2EUSART_ASYNC_ReadByteNonBlocking@_data:
   733                           	callstack 0
   734                           
   735                           ; 2 bytes @ 0x0
   736   000041                     	ds	2
   737   000043                     i2CCP1_Capture_Mode_Read_Value@compare_temp_value:
   738                           	callstack 0
   739   000043                     i2Timer1_Write_value@_value:
   740                           	callstack 0
   741   000043                     i2Timer1_Read_value@_value:
   742                           	callstack 0
   743   000043                     i2Timer3_Write_value@_value:
   744                           	callstack 0
   745                           
   746                           ; 2 bytes @ 0x2
   747   000043                     	ds	2
   748   000045                     ??i2_Timer1_Read_value:
   749   000045                     
   750                           ; 1 bytes @ 0x4
   751   000045                     	ds	2
   752   000047                     i2Timer1_Read_value@tmr1l:
   753                           	callstack 0
   754                           
   755                           ; 1 bytes @ 0x6
   756   000047                     	ds	1
   757   000048                     i2Timer1_Read_value@tmr1h:
   758                           	callstack 0
   759                           
   760                           ; 1 bytes @ 0x7
   761   000048                     	ds	1
   762   000049                     ??_InterruptManagerHigh:
   763   000049                     
   764                           ; 1 bytes @ 0x8
   765   000049                     	ds	4
   766   00004D                     RB4_ISR@RB4_Source:
   767                           	callstack 0
   768   00004D                     RB5_ISR@RB5_Source:
   769                           	callstack 0
   770   00004D                     RB6_ISR@RB6_Source:
   771                           	callstack 0
   772   00004D                     RB7_ISR@RB7_Source:
   773                           	callstack 0
   774   00004D                     CCP1_Capture_Mode_Read_Value@_capture_value:
   775                           	callstack 0
   776   00004D                     Timer1_Write_value@_timer:
   777                           	callstack 0
   778   00004D                     Timer1_Read_value@_timer:
   779                           	callstack 0
   780   00004D                     Timer3_Write_value@_timer:
   781                           	callstack 0
   782   00004D                     EUSART_ASYNC_ReadByteNonBlocking@_data:
   783                           	callstack 0
   784                           
   785                           ; 2 bytes @ 0xC
   786   00004D                     	ds	2
   787   00004F                     CCP1_Capture_Mode_Read_Value@compare_temp_value:
   788                           	callstack 0
   789   00004F                     Timer1_Write_value@_value:
   790                           	callstack 0
   791   00004F                     Timer1_Read_value@_value:
   792                           	callstack 0
   793   00004F                     Timer3_Write_value@_value:
   794                           	callstack 0
   795                           
   796                           ; 2 bytes @ 0xE
   797   00004F                     	ds	2
   798   000051                     ??_Timer1_Read_value:
   799   000051                     
   800                           ; 1 bytes @ 0x10
   801   000051                     	ds	2
   802   000053                     Timer1_Read_value@tmr1l:
   803                           	callstack 0
   804                           
   805                           ; 1 bytes @ 0x12
   806   000053                     	ds	1
   807   000054                     Timer1_Read_value@tmr1h:
   808                           	callstack 0
   809                           
   810                           ; 1 bytes @ 0x13
   811   000054                     	ds	1
   812   000055                     ??_InterruptManagerLow:
   813                           
   814                           ; 1 bytes @ 0x14
   815   000055                     	ds	7
   816                           
   817 ;;
   818 ;;Main: autosize = 0, tempsize = 2, incstack = 0, save=0
   819 ;;
   820 ;; *************** function _main *****************
   821 ;; Defined at:
   822 ;;		line 109 in file "application.c"
   823 ;; Parameters:    Size  Location     Type
   824 ;;		None
   825 ;; Auto vars:     Size  Location     Type
   826 ;;  ret             1    0        unsigned char 
   827 ;; Return value:  Size  Location     Type
   828 ;;                  2  1433[None  ] int 
   829 ;; Registers used:
   830 ;;		wreg, fsr2l, fsr2h, status,2, status,0, prodl, prodh, cstack
   831 ;; Tracked objects:
   832 ;;		On entry : 0/0
   833 ;;		On exit  : 0/0
   834 ;;		Unchanged: 0/0
   835 ;; Data sizes:     COMRAM   BANK0   BANK1   BANK2   BANK3   BANK4   BANK5   BANK6   BANK7   BANK8   BANK9  BANK10  BANK1
      +1  BANK12  BANK13  BANK14  BANK15
   836 ;;      Params:         0       0       0       0       0       0       0       0       0       0       0       0       
      +0       0       0       0       0
   837 ;;      Locals:         0       0       0       0       0       0       0       0       0       0       0       0       
      +0       0       0       0       0
   838 ;;      Temps:          0       0       2       0       0       0       0       0       0       0       0       0       
      +0       0       0       0       0
   839 ;;      Totals:         0       0       2       0       0       0       0       0       0       0       0       0       
      +0       0       0       0       0
   840 ;;Total ram usage:        2 bytes
   841 ;; Hardware stack levels required when called: 14
   842 ;; This function calls:
   843 ;;		_SPI_WriteByteBlocking
   844 ;;		_app_intialize
   845 ;; This function is called by:
   846 ;;		Startup code after reset
   847 ;; This function uses a non-reentrant model
   848 ;;
   849                           
   850                           	psect	text0
   851   001D0A                     __ptext0:
   852                           	callstack 0
   853   001D0A                     _main:
   854                           	callstack 17
   855   001D0A                     
   856                           ;application.c: 111:     app_intialize();
   857   001D0A  ECD9  F010         	call	_app_intialize	;wreg free
   858   001D0E                     l7082:
   859   001D0E  0E41               	movlw	65
   860   001D10  EC88  F010         	call	_SPI_WriteByteBlocking
   861   001D14                     
   862                           ;application.c: 120:         _delay((unsigned long)((5000)*(8000000UL/4000.0)));
   863   001D14  0E33               	movlw	51
   864   001D16  0101               	movlb	1	; () banked
   865   001D18  6F1A               	movwf	(??_main+1)& (0+255),b
   866   001D1A  0EBB               	movlw	187
   867   001D1C  6F19               	movwf	??_main& (0+255),b
   868   001D1E  0EDF               	movlw	223
   869   001D20                     u6857:
   870   001D20  2EE8               	decfsz	wreg,f,c
   871   001D22  D7FE               	bra	u6857
   872   001D24  2F19               	decfsz	??_main& (0+255),f,b
   873   001D26  D7FC               	bra	u6857
   874   001D28  2F1A               	decfsz	(??_main+1)& (0+255),f,b
   875   001D2A  D7FA               	bra	u6857
   876   001D2C  D000               	nop2	
   877   001D2E  0E42               	movlw	66
   878   001D30  EC88  F010         	call	_SPI_WriteByteBlocking
   879   001D34                     
   880                           ;application.c: 122:         _delay((unsigned long)((5000)*(8000000UL/4000.0)));
   881   001D34  0E33               	movlw	51
   882   001D36  0101               	movlb	1	; () banked
   883   001D38  6F1A               	movwf	(??_main+1)& (0+255),b
   884   001D3A  0EBB               	movlw	187
   885   001D3C  6F19               	movwf	??_main& (0+255),b
   886   001D3E  0EDF               	movlw	223
   887   001D40                     u6867:
   888   001D40  2EE8               	decfsz	wreg,f,c
   889   001D42  D7FE               	bra	u6867
   890   001D44  2F19               	decfsz	??_main& (0+255),f,b
   891   001D46  D7FC               	bra	u6867
   892   001D48  2F1A               	decfsz	(??_main+1)& (0+255),f,b
   893   001D4A  D7FA               	bra	u6867
   894   001D4C  D000               	nop2	
   895   001D4E  EF87  F00E         	goto	l7082
   896   001D52  EF2D  F000         	goto	start
   897   001D56                     __end_of_main:
   898                           	callstack 0
   899                           
   900 ;; *************** function _app_intialize *****************
   901 ;; Defined at:
   902 ;;		line 136 in file "application.c"
   903 ;; Parameters:    Size  Location     Type
   904 ;;		None
   905 ;; Auto vars:     Size  Location     Type
   906 ;;  ret             1    0        unsigned char 
   907 ;; Return value:  Size  Location     Type
   908 ;;                  1    wreg      void 
   909 ;; Registers used:
   910 ;;		wreg, fsr2l, fsr2h, status,2, status,0, prodl, prodh, cstack
   911 ;; Tracked objects:
   912 ;;		On entry : 0/0
   913 ;;		On exit  : 0/0
   914 ;;		Unchanged: 0/0
   915 ;; Data sizes:     COMRAM   BANK0   BANK1   BANK2   BANK3   BANK4   BANK5   BANK6   BANK7   BANK8   BANK9  BANK10  BANK1
      +1  BANK12  BANK13  BANK14  BANK15
   916 ;;      Params:         0       0       0       0       0       0       0       0       0       0       0       0       
      +0       0       0       0       0
   917 ;;      Locals:         0       0       0       0       0       0       0       0       0       0       0       0       
      +0       0       0       0       0
   918 ;;      Temps:          0       0       0       0       0       0       0       0       0       0       0       0       
      +0       0       0       0       0
   919 ;;      Totals:         0       0       0       0       0       0       0       0       0       0       0       0       
      +0       0       0       0       0
   920 ;;Total ram usage:        0 bytes
   921 ;; Hardware stack levels used: 1
   922 ;; Hardware stack levels required when called: 13
   923 ;; This function calls:
   924 ;;		_SPI_Init_Master
   925 ;;		_led_initialize
   926 ;; This function is called by:
   927 ;;		_main
   928 ;; This function uses a non-reentrant model
   929 ;;
   930                           
   931                           	psect	text1
   932   0021B2                     __ptext1:
   933                           	callstack 0
   934   0021B2                     _app_intialize:
   935                           	callstack 17
   936   0021B2  0E6A               	movlw	low _led1
   937   0021B4  0101               	movlb	1	; () banked
   938   0021B6  6F14               	movwf	led_initialize@led& (0+255),b
   939   0021B8  0E00               	movlw	high _led1
   940   0021BA  6F15               	movwf	(led_initialize@led+1)& (0+255),b
   941   0021BC  EC13  F00D         	call	_led_initialize	;wreg free
   942   0021C0  0EF0               	movlw	low _SPI_Master_obj
   943   0021C2  0100               	movlb	0	; () banked
   944   0021C4  6FF4               	movwf	SPI_Init_Master@_spi& (0+255),b
   945   0021C6  0E00               	movlw	high _SPI_Master_obj
   946   0021C8  6FF5               	movwf	(SPI_Init_Master@_spi+1)& (0+255),b
   947   0021CA  ECC3  F00C         	call	_SPI_Init_Master	;wreg free
   948   0021CE  0012               	return		;funcret
   949   0021D0                     __end_of_app_intialize:
   950                           	callstack 0
   951                           
   952 ;; *************** function _led_initialize *****************
   953 ;; Defined at:
   954 ;;		line 17 in file "ECU_Layer/LED/ecu_led.c"
   955 ;; Parameters:    Size  Location     Type
   956 ;;  led             2    1[BANK1 ] PTR const struct .
   957 ;;		 -> led1(1), 
   958 ;; Auto vars:     Size  Location     Type
   959 ;;  pin_obj         1    5[BANK1 ] struct .
   960 ;;  ret             1    4[BANK1 ] unsigned char 
   961 ;; Return value:  Size  Location     Type
   962 ;;                  1    wreg      unsigned char 
   963 ;; Registers used:
   964 ;;		wreg, fsr2l, fsr2h, status,2, status,0, prodl, prodh, cstack
   965 ;; Tracked objects:
   966 ;;		On entry : 0/0
   967 ;;		On exit  : 0/0
   968 ;;		Unchanged: 0/0
   969 ;; Data sizes:     COMRAM   BANK0   BANK1   BANK2   BANK3   BANK4   BANK5   BANK6   BANK7   BANK8   BANK9  BANK10  BANK1
      +1  BANK12  BANK13  BANK14  BANK15
   970 ;;      Params:         0       0       2       0       0       0       0       0       0       0       0       0       
      +0       0       0       0       0
   971 ;;      Locals:         0       0       2       0       0       0       0       0       0       0       0       0       
      +0       0       0       0       0
   972 ;;      Temps:          0       0       1       0       0       0       0       0       0       0       0       0       
      +0       0       0       0       0
   973 ;;      Totals:         0       0       5       0       0       0       0       0       0       0       0       0       
      +0       0       0       0       0
   974 ;;Total ram usage:        5 bytes
   975 ;; Hardware stack levels used: 1
   976 ;; Hardware stack levels required when called: 12
   977 ;; This function calls:
   978 ;;		_gpio_pin_intialize
   979 ;; This function is called by:
   980 ;;		_app_intialize
   981 ;; This function uses a non-reentrant model
   982 ;;
   983                           
   984                           	psect	text2
   985   001A26                     __ptext2:
   986                           	callstack 0
   987   001A26                     _led_initialize:
   988                           	callstack 17
   989   001A26                     
   990                           ;ECU_Layer/LED/ecu_led.c: 18:     Std_ReturnType ret = (Std_ReturnType)0x01;
   991   001A26  0E01               	movlw	1
   992   001A28  0101               	movlb	1	; () banked
   993   001A2A  6F17               	movwf	led_initialize@ret& (0+255),b
   994   001A2C                     
   995                           ; BSR set to: 1
   996                           ;ECU_Layer/LED/ecu_led.c: 19:     if(((void*)0) == led){
   997   001A2C  5114               	movf	led_initialize@led& (0+255),w,b
   998   001A2E  1115               	iorwf	(led_initialize@led+1)& (0+255),w,b
   999   001A30  A4D8               	btfss	status,2,c
  1000   001A32  EF1D  F00D         	goto	u6401
  1001   001A36  EF1F  F00D         	goto	u6400
  1002   001A3A                     u6401:
  1003   001A3A  EF23  F00D         	goto	l226
  1004   001A3E                     u6400:
  1005   001A3E                     
  1006                           ; BSR set to: 1
  1007                           ;ECU_Layer/LED/ecu_led.c: 20:         ret = (Std_ReturnType)0x00;
  1008   001A3E  0E00               	movlw	0
  1009   001A40  6F17               	movwf	led_initialize@ret& (0+255),b
  1010                           
  1011                           ;ECU_Layer/LED/ecu_led.c: 21:     }
  1012   001A42  EF52  F00D         	goto	l6582
  1013   001A46                     l226:
  1014                           
  1015                           ; BSR set to: 1
  1016                           ;ECU_Layer/LED/ecu_led.c: 23:     {;ECU_Layer/LED/ecu_led.c: 24:         pin_config_t pi
      +                          n_obj={.port = led->port_name, .pin = led->pin, .direction = GPIO_OUTPUT, .logic = led->
      +                          led_status};
  1017   001A46  C03A  F118         	movff	led_initialize@F3048,led_initialize@pin_obj
  1018   001A4A                     
  1019                           ; BSR set to: 1
  1020   001A4A  C114  FFD9         	movff	led_initialize@led,fsr2l
  1021   001A4E  C115  FFDA         	movff	led_initialize@led+1,fsr2h
  1022   001A52  50DF               	movf	223,w,c
  1023   001A54  0B0F               	andlw	15
  1024   001A56  6F16               	movwf	??_led_initialize& (0+255),b
  1025   001A58  5118               	movf	led_initialize@pin_obj& (0+255),w,b
  1026   001A5A  1916               	xorwf	??_led_initialize& (0+255),w,b
  1027   001A5C  0BF8               	andlw	-8
  1028   001A5E  1916               	xorwf	??_led_initialize& (0+255),w,b
  1029   001A60  6F18               	movwf	led_initialize@pin_obj& (0+255),b
  1030   001A62  C114  FFD9         	movff	led_initialize@led,fsr2l
  1031   001A66  C115  FFDA         	movff	led_initialize@led+1,fsr2h
  1032   001A6A  38DF               	swapf	223,w,c
  1033   001A6C  0B07               	andlw	7
  1034   001A6E  6F16               	movwf	??_led_initialize& (0+255),b
  1035   001A70  4716               	rlncf	??_led_initialize& (0+255),f,b
  1036   001A72  4716               	rlncf	??_led_initialize& (0+255),f,b
  1037   001A74  4716               	rlncf	??_led_initialize& (0+255),f,b
  1038   001A76  5118               	movf	led_initialize@pin_obj& (0+255),w,b
  1039   001A78  1916               	xorwf	??_led_initialize& (0+255),w,b
  1040   001A7A  0BC7               	andlw	-57
  1041   001A7C  1916               	xorwf	??_led_initialize& (0+255),w,b
  1042   001A7E  6F18               	movwf	led_initialize@pin_obj& (0+255),b
  1043   001A80                     
  1044                           ; BSR set to: 1
  1045   001A80  9D18               	bcf	led_initialize@pin_obj& (0+255),6,b
  1046   001A82                     
  1047                           ; BSR set to: 1
  1048   001A82  C114  FFD9         	movff	led_initialize@led,fsr2l
  1049   001A86  C115  FFDA         	movff	led_initialize@led+1,fsr2h
  1050   001A8A  AEDF               	btfss	indf2,7,c
  1051   001A8C  D002               	bra	u6415
  1052   001A8E  8F18               	bsf	led_initialize@pin_obj& (0+255),7,b
  1053   001A90  D002               	bra	u6417
  1054   001A92                     u6415:
  1055   001A92  0101               	movlb	1	; () banked
  1056   001A94  9F18               	bcf	led_initialize@pin_obj& (0+255),7,b
  1057   001A96                     u6417:
  1058   001A96                     
  1059                           ; BSR set to: 1
  1060                           ;ECU_Layer/LED/ecu_led.c: 25:         gpio_pin_intialize(&pin_obj);
  1061   001A96  0E18               	movlw	low led_initialize@pin_obj
  1062   001A98  0100               	movlb	0	; () banked
  1063   001A9A  6FFE               	movwf	gpio_pin_intialize@_pin_config& (0+255),b
  1064   001A9C  0E01               	movlw	high led_initialize@pin_obj
  1065   001A9E  6FFF               	movwf	(gpio_pin_intialize@_pin_config+1)& (0+255),b
  1066   001AA0  EC5B  F00E         	call	_gpio_pin_intialize	;wreg free
  1067   001AA4                     l6582:
  1068                           
  1069                           ;ECU_Layer/LED/ecu_led.c: 27:     return ret;
  1070   001AA4  0101               	movlb	1	; () banked
  1071   001AA6  5117               	movf	led_initialize@ret& (0+255),w,b
  1072   001AA8                     
  1073                           ; BSR set to: 1
  1074   001AA8  0012               	return		;funcret
  1075   001AAA                     __end_of_led_initialize:
  1076                           	callstack 0
  1077                           
  1078 ;; *************** function _gpio_pin_intialize *****************
  1079 ;; Defined at:
  1080 ;;		line 159 in file "MCAL_Layer/GPIO/hal_gpio.c"
  1081 ;; Parameters:    Size  Location     Type
  1082 ;;  _pin_config     2   10[BANK0 ] PTR const struct .
  1083 ;;		 -> led_initialize@pin_obj(1), 
  1084 ;; Auto vars:     Size  Location     Type
  1085 ;;  ret             1    0[BANK1 ] unsigned char 
  1086 ;; Return value:  Size  Location     Type
  1087 ;;                  1    wreg      unsigned char 
  1088 ;; Registers used:
  1089 ;;		wreg, fsr2l, fsr2h, status,2, status,0, prodl, prodh, cstack
  1090 ;; Tracked objects:
  1091 ;;		On entry : 0/0
  1092 ;;		On exit  : 0/0
  1093 ;;		Unchanged: 0/0
  1094 ;; Data sizes:     COMRAM   BANK0   BANK1   BANK2   BANK3   BANK4   BANK5   BANK6   BANK7   BANK8   BANK9  BANK10  BANK1
      +1  BANK12  BANK13  BANK14  BANK15
  1095 ;;      Params:         0       2       0       0       0       0       0       0       0       0       0       0       
      +0       0       0       0       0
  1096 ;;      Locals:         0       0       1       0       0       0       0       0       0       0       0       0       
      +0       0       0       0       0
  1097 ;;      Temps:          0       0       0       0       0       0       0       0       0       0       0       0       
      +0       0       0       0       0
  1098 ;;      Totals:         0       2       1       0       0       0       0       0       0       0       0       0       
      +0       0       0       0       0
  1099 ;;Total ram usage:        3 bytes
  1100 ;; Hardware stack levels used: 1
  1101 ;; Hardware stack levels required when called: 11
  1102 ;; This function calls:
  1103 ;;		_gpio_pin_direction_intialize
  1104 ;;		_gpio_pin_write_logic
  1105 ;; This function is called by:
  1106 ;;		_led_initialize
  1107 ;;		_seven_segement_intialize
  1108 ;;		_lcd_4bit_intialize
  1109 ;;		_lcd_8bit_intialize
  1110 ;;		_CCP1_Init
  1111 ;; This function uses a non-reentrant model
  1112 ;;
  1113                           
  1114                           	psect	text3
  1115   001CB6                     __ptext3:
  1116                           	callstack 0
  1117   001CB6                     _gpio_pin_intialize:
  1118                           	callstack 17
  1119   001CB6                     
  1120                           ;MCAL_Layer/GPIO/hal_gpio.c: 161:     if(((void*)0) == _pin_config)
  1121   001CB6  0100               	movlb	0	; () banked
  1122   001CB8  51FE               	movf	gpio_pin_intialize@_pin_config& (0+255),w,b
  1123   001CBA  11FF               	iorwf	(gpio_pin_intialize@_pin_config+1)& (0+255),w,b
  1124   001CBC  A4D8               	btfss	status,2,c
  1125   001CBE  EF63  F00E         	goto	u6351
  1126   001CC2  EF65  F00E         	goto	u6350
  1127   001CC6                     u6351:
  1128   001CC6  EF6A  F00E         	goto	l6488
  1129   001CCA                     u6350:
  1130   001CCA                     
  1131                           ; BSR set to: 0
  1132                           ;MCAL_Layer/GPIO/hal_gpio.c: 162:     {;MCAL_Layer/GPIO/hal_gpio.c: 163:         ret = (
      +                          Std_ReturnType)0x00;
  1133   001CCA  0E00               	movlw	0
  1134   001CCC  0101               	movlb	1	; () banked
  1135   001CCE  6F13               	movwf	gpio_pin_intialize@ret& (0+255),b
  1136                           
  1137                           ;MCAL_Layer/GPIO/hal_gpio.c: 164:     }
  1138   001CD0  EF83  F00E         	goto	l6490
  1139   001CD4                     l6488:
  1140                           
  1141                           ; BSR set to: 0
  1142                           ;MCAL_Layer/GPIO/hal_gpio.c: 166:     {;MCAL_Layer/GPIO/hal_gpio.c: 167:         ret = g
      +                          pio_pin_direction_intialize(_pin_config);
  1143   001CD4  C0FE  F0F4         	movff	gpio_pin_intialize@_pin_config,gpio_pin_direction_intialize@_pin_config
  1144   001CD8  C0FF  F0F5         	movff	gpio_pin_intialize@_pin_config+1,gpio_pin_direction_intialize@_pin_config+1
  1145   001CDC  EC85  F00B         	call	_gpio_pin_direction_intialize	;wreg free
  1146   001CE0  0101               	movlb	1	; () banked
  1147   001CE2  6F13               	movwf	gpio_pin_intialize@ret& (0+255),b
  1148                           
  1149                           ;MCAL_Layer/GPIO/hal_gpio.c: 168:         ret &= gpio_pin_write_logic(_pin_config ,_pin_
      +                          config->logic);
  1150   001CE4  C0FE  F0F4         	movff	gpio_pin_intialize@_pin_config,gpio_pin_write_logic@_pin_config
  1151   001CE8  C0FF  F0F5         	movff	gpio_pin_intialize@_pin_config+1,gpio_pin_write_logic@_pin_config+1
  1152   001CEC  C0FE  FFD9         	movff	gpio_pin_intialize@_pin_config,fsr2l
  1153   001CF0  C0FF  FFDA         	movff	gpio_pin_intialize@_pin_config+1,fsr2h
  1154   001CF4  0100               	movlb	0	; () banked
  1155   001CF6  0E00               	movlw	0
  1156   001CF8  BEDF               	btfsc	indf2,7,c
  1157   001CFA  0E01               	movlw	1
  1158   001CFC  6FF6               	movwf	gpio_pin_write_logic@logic& (0+255),b
  1159   001CFE  EC2A  F00C         	call	_gpio_pin_write_logic	;wreg free
  1160   001D02  0101               	movlb	1	; () banked
  1161   001D04  1713               	andwf	gpio_pin_intialize@ret& (0+255),f,b
  1162   001D06                     l6490:
  1163                           
  1164                           ; BSR set to: 1
  1165                           ;MCAL_Layer/GPIO/hal_gpio.c: 172:     return ret;
  1166   001D06  5113               	movf	gpio_pin_intialize@ret& (0+255),w,b
  1167   001D08                     
  1168                           ; BSR set to: 1
  1169   001D08  0012               	return		;funcret
  1170   001D0A                     __end_of_gpio_pin_intialize:
  1171                           	callstack 0
  1172                           
  1173 ;; *************** function _gpio_pin_write_logic *****************
  1174 ;; Defined at:
  1175 ;;		line 80 in file "MCAL_Layer/GPIO/hal_gpio.c"
  1176 ;; Parameters:    Size  Location     Type
  1177 ;;  _pin_config     2    0[BANK0 ] PTR const struct .
  1178 ;;		 -> led_turn_off@pin_obj(1), led_turn_on@pin_obj(1), led_initialize@pin_obj(1), 
  1179 ;;  logic           1    2[BANK0 ] enum E2968
  1180 ;; Auto vars:     Size  Location     Type
  1181 ;;  ret             1    9[BANK0 ] unsigned char 
  1182 ;; Return value:  Size  Location     Type
  1183 ;;                  1    wreg      unsigned char 
  1184 ;; Registers used:
  1185 ;;		wreg, fsr2l, fsr2h, status,2, status,0, prodl, prodh
  1186 ;; Tracked objects:
  1187 ;;		On entry : 0/0
  1188 ;;		On exit  : 0/0
  1189 ;;		Unchanged: 0/0
  1190 ;; Data sizes:     COMRAM   BANK0   BANK1   BANK2   BANK3   BANK4   BANK5   BANK6   BANK7   BANK8   BANK9  BANK10  BANK1
      +1  BANK12  BANK13  BANK14  BANK15
  1191 ;;      Params:         0       3       0       0       0       0       0       0       0       0       0       0       
      +0       0       0       0       0
  1192 ;;      Locals:         0       1       0       0       0       0       0       0       0       0       0       0       
      +0       0       0       0       0
  1193 ;;      Temps:          0       6       0       0       0       0       0       0       0       0       0       0       
      +0       0       0       0       0
  1194 ;;      Totals:         0      10       0       0       0       0       0       0       0       0       0       0       
      +0       0       0       0       0
  1195 ;;Total ram usage:       10 bytes
  1196 ;; Hardware stack levels used: 1
  1197 ;; Hardware stack levels required when called: 10
  1198 ;; This function calls:
  1199 ;;		Nothing
  1200 ;; This function is called by:
  1201 ;;		_gpio_pin_intialize
  1202 ;;		_seven_segement_write_number
  1203 ;;		_lcd_4bit_send_command
  1204 ;;		_lcd_4bit_send_char_data
  1205 ;;		_lcd_8bit_send_command
  1206 ;;		_lcd_8bit_send_char_data
  1207 ;;		_lcd_send_4bits
  1208 ;;		_lcd_4bit_send_enable_signal
  1209 ;;		_lcd_8bit_send_enable_signal
  1210 ;;		_led_turn_on
  1211 ;;		_led_turn_off
  1212 ;; This function uses a non-reentrant model
  1213 ;;
  1214                           
  1215                           	psect	text4
  1216   001854                     __ptext4:
  1217                           	callstack 0
  1218   001854                     _gpio_pin_write_logic:
  1219                           	callstack 17
  1220   001854                     
  1221                           ;MCAL_Layer/GPIO/hal_gpio.c: 81:     Std_ReturnType ret = (Std_ReturnType)0x01;
  1222   001854  0E01               	movlw	1
  1223   001856  0100               	movlb	0	; () banked
  1224   001858  6FFD               	movwf	gpio_pin_write_logic@ret& (0+255),b
  1225   00185A                     
  1226                           ; BSR set to: 0
  1227                           ;MCAL_Layer/GPIO/hal_gpio.c: 82:     if(((void*)0) == _pin_config || _pin_config->pin > 
      +                          8 -1)
  1228   00185A  51F4               	movf	gpio_pin_write_logic@_pin_config& (0+255),w,b
  1229   00185C  11F5               	iorwf	(gpio_pin_write_logic@_pin_config+1)& (0+255),w,b
  1230   00185E  B4D8               	btfsc	status,2,c
  1231   001860  EF34  F00C         	goto	u6251
  1232   001864  EF36  F00C         	goto	u6250
  1233   001868                     u6251:
  1234   001868  EF47  F00C         	goto	l6440
  1235   00186C                     u6250:
  1236   00186C                     
  1237                           ; BSR set to: 0
  1238   00186C  C0F4  FFD9         	movff	gpio_pin_write_logic@_pin_config,fsr2l
  1239   001870  C0F5  FFDA         	movff	gpio_pin_write_logic@_pin_config+1,fsr2h
  1240   001874  30DF               	rrcf	223,w,c
  1241   001876  32E8               	rrcf	wreg,f,c
  1242   001878  32E8               	rrcf	wreg,f,c
  1243   00187A  0B07               	andlw	7
  1244   00187C  6FF7               	movwf	??_gpio_pin_write_logic& (0+255),b
  1245   00187E  0E07               	movlw	7
  1246   001880  65F7               	cpfsgt	??_gpio_pin_write_logic& (0+255),b
  1247   001882  EF45  F00C         	goto	u6261
  1248   001886  EF47  F00C         	goto	u6260
  1249   00188A                     u6261:
  1250   00188A  EFAC  F00C         	goto	l6448
  1251   00188E                     u6260:
  1252   00188E                     l6440:
  1253                           
  1254                           ; BSR set to: 0
  1255                           ;MCAL_Layer/GPIO/hal_gpio.c: 83:     {;MCAL_Layer/GPIO/hal_gpio.c: 84:         ret = (St
      +                          d_ReturnType)0x00;
  1256   00188E  0E00               	movlw	0
  1257   001890  6FFD               	movwf	gpio_pin_write_logic@ret& (0+255),b
  1258                           
  1259                           ;MCAL_Layer/GPIO/hal_gpio.c: 85:     }
  1260   001892  EFC1  F00C         	goto	l6450
  1261   001896                     l6442:
  1262                           
  1263                           ; BSR set to: 0
  1264                           ;MCAL_Layer/GPIO/hal_gpio.c: 90:             (*lat_registers[_pin_config->port] &= ~((ui
      +                          nt8)1 << _pin_config->pin));
  1265   001896  C0F4  FFD9         	movff	gpio_pin_write_logic@_pin_config,fsr2l
  1266   00189A  C0F5  FFDA         	movff	gpio_pin_write_logic@_pin_config+1,fsr2h
  1267   00189E  30DF               	rrcf	223,w,c
  1268   0018A0  32E8               	rrcf	wreg,f,c
  1269   0018A2  32E8               	rrcf	wreg,f,c
  1270   0018A4  0B07               	andlw	7
  1271   0018A6  6FF7               	movwf	??_gpio_pin_write_logic& (0+255),b
  1272   0018A8  0E01               	movlw	1
  1273   0018AA  6FF8               	movwf	(??_gpio_pin_write_logic+1)& (0+255),b
  1274   0018AC  2BF7               	incf	??_gpio_pin_write_logic& (0+255),f,b
  1275   0018AE  EF5B  F00C         	goto	u6274
  1276   0018B2                     u6275:
  1277   0018B2  90D8               	bcf	status,0,c
  1278   0018B4  37F8               	rlcf	(??_gpio_pin_write_logic+1)& (0+255),f,b
  1279   0018B6                     u6274:
  1280   0018B6  2FF7               	decfsz	??_gpio_pin_write_logic& (0+255),f,b
  1281   0018B8  EF59  F00C         	goto	u6275
  1282   0018BC  0100               	movlb	0	; () banked
  1283   0018BE  51F8               	movf	(??_gpio_pin_write_logic+1)& (0+255),w,b
  1284   0018C0  0AFF               	xorlw	255
  1285   0018C2  6FF9               	movwf	(??_gpio_pin_write_logic+2)& (0+255),b
  1286   0018C4  C0F4  FFD9         	movff	gpio_pin_write_logic@_pin_config,fsr2l
  1287   0018C8  C0F5  FFDA         	movff	gpio_pin_write_logic@_pin_config+1,fsr2h
  1288   0018CC  50DF               	movf	223,w,c
  1289   0018CE  0B07               	andlw	7
  1290   0018D0  6FFA               	movwf	(??_gpio_pin_write_logic+3)& (0+255),b
  1291   0018D2  51FA               	movf	(??_gpio_pin_write_logic+3)& (0+255),w,b
  1292   0018D4  0D02               	mullw	2
  1293   0018D6  0E8A               	movlw	low _lat_registers
  1294   0018D8  24F3               	addwf	243,w,c
  1295   0018DA  6ED9               	movwf	fsr2l,c
  1296   0018DC  0E00               	movlw	high _lat_registers
  1297   0018DE  20F4               	addwfc	prodh,w,c
  1298   0018E0  6EDA               	movwf	fsr2h,c
  1299   0018E2  CFDE F0FB          	movff	postinc2,??_gpio_pin_write_logic+4
  1300   0018E6  CFDD F0FC          	movff	postdec2,??_gpio_pin_write_logic+5
  1301   0018EA  C0FB  FFD9         	movff	??_gpio_pin_write_logic+4,fsr2l
  1302   0018EE  C0FC  FFDA         	movff	??_gpio_pin_write_logic+5,fsr2h
  1303   0018F2  51F9               	movf	(??_gpio_pin_write_logic+2)& (0+255),w,b
  1304   0018F4  16DF               	andwf	indf2,f,c
  1305                           
  1306                           ;MCAL_Layer/GPIO/hal_gpio.c: 91:             break;
  1307   0018F6  EFC1  F00C         	goto	l6450
  1308   0018FA                     l6444:
  1309                           
  1310                           ; BSR set to: 0
  1311                           ;MCAL_Layer/GPIO/hal_gpio.c: 93:             (*lat_registers[_pin_config->port] |= ((uin
      +                          t8)1 << _pin_config->pin));
  1312   0018FA  C0F4  FFD9         	movff	gpio_pin_write_logic@_pin_config,fsr2l
  1313   0018FE  C0F5  FFDA         	movff	gpio_pin_write_logic@_pin_config+1,fsr2h
  1314   001902  30DF               	rrcf	223,w,c
  1315   001904  32E8               	rrcf	wreg,f,c
  1316   001906  32E8               	rrcf	wreg,f,c
  1317   001908  0B07               	andlw	7
  1318   00190A  6FF7               	movwf	??_gpio_pin_write_logic& (0+255),b
  1319   00190C  0E01               	movlw	1
  1320   00190E  6FF8               	movwf	(??_gpio_pin_write_logic+1)& (0+255),b
  1321   001910  2BF7               	incf	??_gpio_pin_write_logic& (0+255),f,b
  1322   001912  EF8D  F00C         	goto	u6284
  1323   001916                     u6285:
  1324   001916  90D8               	bcf	status,0,c
  1325   001918  37F8               	rlcf	(??_gpio_pin_write_logic+1)& (0+255),f,b
  1326   00191A                     u6284:
  1327   00191A  2FF7               	decfsz	??_gpio_pin_write_logic& (0+255),f,b
  1328   00191C  EF8B  F00C         	goto	u6285
  1329   001920  C0F4  FFD9         	movff	gpio_pin_write_logic@_pin_config,fsr2l
  1330   001924  C0F5  FFDA         	movff	gpio_pin_write_logic@_pin_config+1,fsr2h
  1331   001928  50DF               	movf	223,w,c
  1332   00192A  0B07               	andlw	7
  1333   00192C  0100               	movlb	0	; () banked
  1334   00192E  6FF9               	movwf	(??_gpio_pin_write_logic+2)& (0+255),b
  1335   001930  51F9               	movf	(??_gpio_pin_write_logic+2)& (0+255),w,b
  1336   001932  0D02               	mullw	2
  1337   001934  0E8A               	movlw	low _lat_registers
  1338   001936  24F3               	addwf	243,w,c
  1339   001938  6ED9               	movwf	fsr2l,c
  1340   00193A  0E00               	movlw	high _lat_registers
  1341   00193C  20F4               	addwfc	prodh,w,c
  1342   00193E  6EDA               	movwf	fsr2h,c
  1343   001940  CFDE F0FA          	movff	postinc2,??_gpio_pin_write_logic+3
  1344   001944  CFDD F0FB          	movff	postdec2,??_gpio_pin_write_logic+4
  1345   001948  C0FA  FFD9         	movff	??_gpio_pin_write_logic+3,fsr2l
  1346   00194C  C0FB  FFDA         	movff	??_gpio_pin_write_logic+4,fsr2h
  1347   001950  51F8               	movf	(??_gpio_pin_write_logic+1)& (0+255),w,b
  1348   001952  12DF               	iorwf	indf2,f,c
  1349                           
  1350                           ;MCAL_Layer/GPIO/hal_gpio.c: 94:             break;
  1351   001954  EFC1  F00C         	goto	l6450
  1352   001958                     l6448:
  1353                           
  1354                           ; BSR set to: 0
  1355   001958  51F6               	movf	gpio_pin_write_logic@logic& (0+255),w,b
  1356   00195A  6FF7               	movwf	??_gpio_pin_write_logic& (0+255),b
  1357   00195C  6BF8               	clrf	(??_gpio_pin_write_logic+1)& (0+255),b
  1358                           
  1359                           ; Switch on 2 bytes has been partitioned into a top level switch of size 1, and 1 sub-sw
      +                          itches
  1360                           ; Switch size 1, requested type "simple"
  1361                           ; Number of cases is 1, Range of values is 0 to 0
  1362                           ; switch strategies available:
  1363                           ; Name         Instructions Cycles
  1364                           ; simple_byte            4     3 (average)
  1365                           ;	Chosen strategy is simple_byte
  1366   00195E  51F8               	movf	(??_gpio_pin_write_logic+1)& (0+255),w,b
  1367   001960  0A00               	xorlw	0	; case 0
  1368   001962  B4D8               	btfsc	status,2,c
  1369   001964  EFB6  F00C         	goto	l7146
  1370   001968  EF47  F00C         	goto	l6440
  1371   00196C                     l7146:
  1372                           
  1373                           ; BSR set to: 0
  1374                           ; Switch size 1, requested type "simple"
  1375                           ; Number of cases is 2, Range of values is 0 to 1
  1376                           ; switch strategies available:
  1377                           ; Name         Instructions Cycles
  1378                           ; simple_byte            7     4 (average)
  1379                           ;	Chosen strategy is simple_byte
  1380   00196C  51F7               	movf	??_gpio_pin_write_logic& (0+255),w,b
  1381   00196E  0A00               	xorlw	0	; case 0
  1382   001970  B4D8               	btfsc	status,2,c
  1383   001972  EF4B  F00C         	goto	l6442
  1384   001976  0A01               	xorlw	1	; case 1
  1385   001978  B4D8               	btfsc	status,2,c
  1386   00197A  EF7D  F00C         	goto	l6444
  1387   00197E  EF47  F00C         	goto	l6440
  1388   001982                     l6450:
  1389                           
  1390                           ; BSR set to: 0
  1391                           ;MCAL_Layer/GPIO/hal_gpio.c: 100:     return ret;
  1392   001982  51FD               	movf	gpio_pin_write_logic@ret& (0+255),w,b
  1393   001984                     
  1394                           ; BSR set to: 0
  1395   001984  0012               	return		;funcret
  1396   001986                     __end_of_gpio_pin_write_logic:
  1397                           	callstack 0
  1398                           
  1399 ;; *************** function _gpio_pin_direction_intialize *****************
  1400 ;; Defined at:
  1401 ;;		line 22 in file "MCAL_Layer/GPIO/hal_gpio.c"
  1402 ;; Parameters:    Size  Location     Type
  1403 ;;  _pin_config     2    0[BANK0 ] PTR const struct .
  1404 ;;		 -> led_initialize@pin_obj(1), 
  1405 ;; Auto vars:     Size  Location     Type
  1406 ;;  ret             1    8[BANK0 ] unsigned char 
  1407 ;; Return value:  Size  Location     Type
  1408 ;;                  1    wreg      unsigned char 
  1409 ;; Registers used:
  1410 ;;		wreg, fsr2l, fsr2h, status,2, status,0, prodl, prodh
  1411 ;; Tracked objects:
  1412 ;;		On entry : 0/0
  1413 ;;		On exit  : 0/0
  1414 ;;		Unchanged: 0/0
  1415 ;; Data sizes:     COMRAM   BANK0   BANK1   BANK2   BANK3   BANK4   BANK5   BANK6   BANK7   BANK8   BANK9  BANK10  BANK1
      +1  BANK12  BANK13  BANK14  BANK15
  1416 ;;      Params:         0       2       0       0       0       0       0       0       0       0       0       0       
      +0       0       0       0       0
  1417 ;;      Locals:         0       1       0       0       0       0       0       0       0       0       0       0       
      +0       0       0       0       0
  1418 ;;      Temps:          0       6       0       0       0       0       0       0       0       0       0       0       
      +0       0       0       0       0
  1419 ;;      Totals:         0       9       0       0       0       0       0       0       0       0       0       0       
      +0       0       0       0       0
  1420 ;;Total ram usage:        9 bytes
  1421 ;; Hardware stack levels used: 1
  1422 ;; Hardware stack levels required when called: 10
  1423 ;; This function calls:
  1424 ;;		Nothing
  1425 ;; This function is called by:
  1426 ;;		_gpio_pin_intialize
  1427 ;;		_button_initialize
  1428 ;;		_Interrupt_RBx_Init
  1429 ;;		_Interrupt_INTx_Pin_Init
  1430 ;;		_Interrupt_RBx_Pin_Init
  1431 ;; This function uses a non-reentrant model
  1432 ;;
  1433                           
  1434                           	psect	text5
  1435   00170A                     __ptext5:
  1436                           	callstack 0
  1437   00170A                     _gpio_pin_direction_intialize:
  1438                           	callstack 17
  1439   00170A                     
  1440                           ;MCAL_Layer/GPIO/hal_gpio.c: 23:     Std_ReturnType ret = (Std_ReturnType)0x01;
  1441   00170A  0E01               	movlw	1
  1442   00170C  0100               	movlb	0	; () banked
  1443   00170E  6FFC               	movwf	gpio_pin_direction_intialize@ret& (0+255),b
  1444   001710                     
  1445                           ; BSR set to: 0
  1446                           ;MCAL_Layer/GPIO/hal_gpio.c: 24:     if(((void*)0) == _pin_config || _pin_config->pin > 
      +                          8 -1)
  1447   001710  51F4               	movf	gpio_pin_direction_intialize@_pin_config& (0+255),w,b
  1448   001712  11F5               	iorwf	(gpio_pin_direction_intialize@_pin_config+1)& (0+255),w,b
  1449   001714  B4D8               	btfsc	status,2,c
  1450   001716  EF8F  F00B         	goto	u6291
  1451   00171A  EF91  F00B         	goto	u6290
  1452   00171E                     u6291:
  1453   00171E  EFA2  F00B         	goto	l6464
  1454   001722                     u6290:
  1455   001722                     
  1456                           ; BSR set to: 0
  1457   001722  C0F4  FFD9         	movff	gpio_pin_direction_intialize@_pin_config,fsr2l
  1458   001726  C0F5  FFDA         	movff	gpio_pin_direction_intialize@_pin_config+1,fsr2h
  1459   00172A  30DF               	rrcf	223,w,c
  1460   00172C  32E8               	rrcf	wreg,f,c
  1461   00172E  32E8               	rrcf	wreg,f,c
  1462   001730  0B07               	andlw	7
  1463   001732  6FF6               	movwf	??_gpio_pin_direction_intialize& (0+255),b
  1464   001734  0E07               	movlw	7
  1465   001736  65F6               	cpfsgt	??_gpio_pin_direction_intialize& (0+255),b
  1466   001738  EFA0  F00B         	goto	u6301
  1467   00173C  EFA2  F00B         	goto	u6300
  1468   001740                     u6301:
  1469   001740  EF07  F00C         	goto	l6472
  1470   001744                     u6300:
  1471   001744                     l6464:
  1472                           
  1473                           ; BSR set to: 0
  1474                           ;MCAL_Layer/GPIO/hal_gpio.c: 25:     {;MCAL_Layer/GPIO/hal_gpio.c: 26:         ret = (St
      +                          d_ReturnType)0x00;
  1475   001744  0E00               	movlw	0
  1476   001746  6FFC               	movwf	gpio_pin_direction_intialize@ret& (0+255),b
  1477                           
  1478                           ;MCAL_Layer/GPIO/hal_gpio.c: 27:     }
  1479   001748  EF28  F00C         	goto	l6474
  1480   00174C                     l6466:
  1481                           
  1482                           ; BSR set to: 0
  1483                           ;MCAL_Layer/GPIO/hal_gpio.c: 32:             (*tris_registers[_pin_config->port] &= ~((u
      +                          int8)1 << _pin_config->pin));
  1484   00174C  C0F4  FFD9         	movff	gpio_pin_direction_intialize@_pin_config,fsr2l
  1485   001750  C0F5  FFDA         	movff	gpio_pin_direction_intialize@_pin_config+1,fsr2h
  1486   001754  30DF               	rrcf	223,w,c
  1487   001756  32E8               	rrcf	wreg,f,c
  1488   001758  32E8               	rrcf	wreg,f,c
  1489   00175A  0B07               	andlw	7
  1490   00175C  6FF6               	movwf	??_gpio_pin_direction_intialize& (0+255),b
  1491   00175E  0E01               	movlw	1
  1492   001760  6FF7               	movwf	(??_gpio_pin_direction_intialize+1)& (0+255),b
  1493   001762  2BF6               	incf	??_gpio_pin_direction_intialize& (0+255),f,b
  1494   001764  EFB6  F00B         	goto	u6314
  1495   001768                     u6315:
  1496   001768  90D8               	bcf	status,0,c
  1497   00176A  37F7               	rlcf	(??_gpio_pin_direction_intialize+1)& (0+255),f,b
  1498   00176C                     u6314:
  1499   00176C  2FF6               	decfsz	??_gpio_pin_direction_intialize& (0+255),f,b
  1500   00176E  EFB4  F00B         	goto	u6315
  1501   001772  0100               	movlb	0	; () banked
  1502   001774  51F7               	movf	(??_gpio_pin_direction_intialize+1)& (0+255),w,b
  1503   001776  0AFF               	xorlw	255
  1504   001778  6FF8               	movwf	(??_gpio_pin_direction_intialize+2)& (0+255),b
  1505   00177A  C0F4  FFD9         	movff	gpio_pin_direction_intialize@_pin_config,fsr2l
  1506   00177E  C0F5  FFDA         	movff	gpio_pin_direction_intialize@_pin_config+1,fsr2h
  1507   001782  50DF               	movf	223,w,c
  1508   001784  0B07               	andlw	7
  1509   001786  6FF9               	movwf	(??_gpio_pin_direction_intialize+3)& (0+255),b
  1510   001788  51F9               	movf	(??_gpio_pin_direction_intialize+3)& (0+255),w,b
  1511   00178A  0D02               	mullw	2
  1512   00178C  0E94               	movlw	low _tris_registers
  1513   00178E  24F3               	addwf	243,w,c
  1514   001790  6ED9               	movwf	fsr2l,c
  1515   001792  0E00               	movlw	high _tris_registers
  1516   001794  20F4               	addwfc	prodh,w,c
  1517   001796  6EDA               	movwf	fsr2h,c
  1518   001798  CFDE F0FA          	movff	postinc2,??_gpio_pin_direction_intialize+4
  1519   00179C  CFDD F0FB          	movff	postdec2,??_gpio_pin_direction_intialize+5
  1520   0017A0  C0FA  FFD9         	movff	??_gpio_pin_direction_intialize+4,fsr2l
  1521   0017A4  C0FB  FFDA         	movff	??_gpio_pin_direction_intialize+5,fsr2h
  1522   0017A8  51F8               	movf	(??_gpio_pin_direction_intialize+2)& (0+255),w,b
  1523   0017AA  16DF               	andwf	indf2,f,c
  1524                           
  1525                           ;MCAL_Layer/GPIO/hal_gpio.c: 33:             break;
  1526   0017AC  EF28  F00C         	goto	l6474
  1527   0017B0                     l6468:
  1528                           
  1529                           ; BSR set to: 0
  1530                           ;MCAL_Layer/GPIO/hal_gpio.c: 35:             (*tris_registers[_pin_config->port] |= ((ui
      +                          nt8)1 << _pin_config->pin));
  1531   0017B0  C0F4  FFD9         	movff	gpio_pin_direction_intialize@_pin_config,fsr2l
  1532   0017B4  C0F5  FFDA         	movff	gpio_pin_direction_intialize@_pin_config+1,fsr2h
  1533   0017B8  30DF               	rrcf	223,w,c
  1534   0017BA  32E8               	rrcf	wreg,f,c
  1535   0017BC  32E8               	rrcf	wreg,f,c
  1536   0017BE  0B07               	andlw	7
  1537   0017C0  6FF6               	movwf	??_gpio_pin_direction_intialize& (0+255),b
  1538   0017C2  0E01               	movlw	1
  1539   0017C4  6FF7               	movwf	(??_gpio_pin_direction_intialize+1)& (0+255),b
  1540   0017C6  2BF6               	incf	??_gpio_pin_direction_intialize& (0+255),f,b
  1541   0017C8  EFE8  F00B         	goto	u6324
  1542   0017CC                     u6325:
  1543   0017CC  90D8               	bcf	status,0,c
  1544   0017CE  37F7               	rlcf	(??_gpio_pin_direction_intialize+1)& (0+255),f,b
  1545   0017D0                     u6324:
  1546   0017D0  2FF6               	decfsz	??_gpio_pin_direction_intialize& (0+255),f,b
  1547   0017D2  EFE6  F00B         	goto	u6325
  1548   0017D6  C0F4  FFD9         	movff	gpio_pin_direction_intialize@_pin_config,fsr2l
  1549   0017DA  C0F5  FFDA         	movff	gpio_pin_direction_intialize@_pin_config+1,fsr2h
  1550   0017DE  50DF               	movf	223,w,c
  1551   0017E0  0B07               	andlw	7
  1552   0017E2  0100               	movlb	0	; () banked
  1553   0017E4  6FF8               	movwf	(??_gpio_pin_direction_intialize+2)& (0+255),b
  1554   0017E6  51F8               	movf	(??_gpio_pin_direction_intialize+2)& (0+255),w,b
  1555   0017E8  0D02               	mullw	2
  1556   0017EA  0E94               	movlw	low _tris_registers
  1557   0017EC  24F3               	addwf	243,w,c
  1558   0017EE  6ED9               	movwf	fsr2l,c
  1559   0017F0  0E00               	movlw	high _tris_registers
  1560   0017F2  20F4               	addwfc	prodh,w,c
  1561   0017F4  6EDA               	movwf	fsr2h,c
  1562   0017F6  CFDE F0F9          	movff	postinc2,??_gpio_pin_direction_intialize+3
  1563   0017FA  CFDD F0FA          	movff	postdec2,??_gpio_pin_direction_intialize+4
  1564   0017FE  C0F9  FFD9         	movff	??_gpio_pin_direction_intialize+3,fsr2l
  1565   001802  C0FA  FFDA         	movff	??_gpio_pin_direction_intialize+4,fsr2h
  1566   001806  51F7               	movf	(??_gpio_pin_direction_intialize+1)& (0+255),w,b
  1567   001808  12DF               	iorwf	indf2,f,c
  1568                           
  1569                           ;MCAL_Layer/GPIO/hal_gpio.c: 36:             break;
  1570   00180A  EF28  F00C         	goto	l6474
  1571   00180E                     l6472:
  1572                           
  1573                           ; BSR set to: 0
  1574   00180E  C0F4  FFD9         	movff	gpio_pin_direction_intialize@_pin_config,fsr2l
  1575   001812  C0F5  FFDA         	movff	gpio_pin_direction_intialize@_pin_config+1,fsr2h
  1576   001816  BCDF               	btfsc	indf2,6,c
  1577   001818  EF10  F00C         	goto	u6331
  1578   00181C  EF13  F00C         	goto	u6330
  1579   001820                     u6331:
  1580   001820  0E01               	movlw	1
  1581   001822  EF14  F00C         	goto	u6340
  1582   001826                     u6330:
  1583   001826  0E00               	movlw	0
  1584   001828                     u6340:
  1585   001828  6FF6               	movwf	??_gpio_pin_direction_intialize& (0+255),b
  1586   00182A  6BF7               	clrf	(??_gpio_pin_direction_intialize+1)& (0+255),b
  1587                           
  1588                           ; Switch on 2 bytes has been partitioned into a top level switch of size 1, and 1 sub-sw
      +                          itches
  1589                           ; Switch size 1, requested type "simple"
  1590                           ; Number of cases is 1, Range of values is 0 to 0
  1591                           ; switch strategies available:
  1592                           ; Name         Instructions Cycles
  1593                           ; simple_byte            4     3 (average)
  1594                           ;	Chosen strategy is simple_byte
  1595   00182C  51F7               	movf	(??_gpio_pin_direction_intialize+1)& (0+255),w,b
  1596   00182E  0A00               	xorlw	0	; case 0
  1597   001830  B4D8               	btfsc	status,2,c
  1598   001832  EF1D  F00C         	goto	l7148
  1599   001836  EFA2  F00B         	goto	l6464
  1600   00183A                     l7148:
  1601                           
  1602                           ; BSR set to: 0
  1603                           ; Switch size 1, requested type "simple"
  1604                           ; Number of cases is 2, Range of values is 0 to 1
  1605                           ; switch strategies available:
  1606                           ; Name         Instructions Cycles
  1607                           ; simple_byte            7     4 (average)
  1608                           ;	Chosen strategy is simple_byte
  1609   00183A  51F6               	movf	??_gpio_pin_direction_intialize& (0+255),w,b
  1610   00183C  0A00               	xorlw	0	; case 0
  1611   00183E  B4D8               	btfsc	status,2,c
  1612   001840  EFA6  F00B         	goto	l6466
  1613   001844  0A01               	xorlw	1	; case 1
  1614   001846  B4D8               	btfsc	status,2,c
  1615   001848  EFD8  F00B         	goto	l6468
  1616   00184C  EFA2  F00B         	goto	l6464
  1617   001850                     l6474:
  1618                           
  1619                           ; BSR set to: 0
  1620                           ;MCAL_Layer/GPIO/hal_gpio.c: 43:     return ret;
  1621   001850  51FC               	movf	gpio_pin_direction_intialize@ret& (0+255),w,b
  1622   001852                     
  1623                           ; BSR set to: 0
  1624   001852  0012               	return		;funcret
  1625   001854                     __end_of_gpio_pin_direction_intialize:
  1626                           	callstack 0
  1627                           
  1628 ;; *************** function _SPI_Init_Master *****************
  1629 ;; Defined at:
  1630 ;;		line 20 in file "MCAL_Layer/SPI/hal_SPI.c"
  1631 ;; Parameters:    Size  Location     Type
  1632 ;;  _spi            2    0[BANK0 ] PTR const struct .
  1633 ;;		 -> SPI_Master_obj(4), 
  1634 ;; Auto vars:     Size  Location     Type
  1635 ;;  ret             1    3[BANK0 ] unsigned char 
  1636 ;; Return value:  Size  Location     Type
  1637 ;;                  1    wreg      unsigned char 
  1638 ;; Registers used:
  1639 ;;		wreg, fsr2l, fsr2h, status,2, status,0
  1640 ;; Tracked objects:
  1641 ;;		On entry : 0/0
  1642 ;;		On exit  : 0/0
  1643 ;;		Unchanged: 0/0
  1644 ;; Data sizes:     COMRAM   BANK0   BANK1   BANK2   BANK3   BANK4   BANK5   BANK6   BANK7   BANK8   BANK9  BANK10  BANK1
      +1  BANK12  BANK13  BANK14  BANK15
  1645 ;;      Params:         0       2       0       0       0       0       0       0       0       0       0       0       
      +0       0       0       0       0
  1646 ;;      Locals:         0       1       0       0       0       0       0       0       0       0       0       0       
      +0       0       0       0       0
  1647 ;;      Temps:          0       1       0       0       0       0       0       0       0       0       0       0       
      +0       0       0       0       0
  1648 ;;      Totals:         0       4       0       0       0       0       0       0       0       0       0       0       
      +0       0       0       0       0
  1649 ;;Total ram usage:        4 bytes
  1650 ;; Hardware stack levels used: 1
  1651 ;; Hardware stack levels required when called: 10
  1652 ;; This function calls:
  1653 ;;		Nothing
  1654 ;; This function is called by:
  1655 ;;		_app_intialize
  1656 ;; This function uses a non-reentrant model
  1657 ;;
  1658                           
  1659                           	psect	text6
  1660   001986                     __ptext6:
  1661                           	callstack 0
  1662   001986                     _SPI_Init_Master:
  1663                           	callstack 19
  1664   001986                     
  1665                           ;MCAL_Layer/SPI/hal_SPI.c: 22:     if(((void*)0) == _spi){
  1666   001986  0100               	movlb	0	; () banked
  1667   001988  51F4               	movf	SPI_Init_Master@_spi& (0+255),w,b
  1668   00198A  11F5               	iorwf	(SPI_Init_Master@_spi+1)& (0+255),w,b
  1669   00198C  A4D8               	btfss	status,2,c
  1670   00198E  EFCB  F00C         	goto	u6421
  1671   001992  EFCD  F00C         	goto	u6420
  1672   001996                     u6421:
  1673   001996  EFD1  F00C         	goto	l1479
  1674   00199A                     u6420:
  1675   00199A                     
  1676                           ; BSR set to: 0
  1677                           ;MCAL_Layer/SPI/hal_SPI.c: 23:         ret = (Std_ReturnType)0x00;
  1678   00199A  0E00               	movlw	0
  1679   00199C  6FF7               	movwf	SPI_Init_Master@ret& (0+255),b
  1680                           
  1681                           ;MCAL_Layer/SPI/hal_SPI.c: 24:     }
  1682   00199E  EF11  F00D         	goto	l6598
  1683   0019A2                     l1479:
  1684                           
  1685                           ; BSR set to: 0
  1686                           ;MCAL_Layer/SPI/hal_SPI.c: 27:         (SSPCON1bits.SSPEN = 0);
  1687   0019A2  9AC6               	bcf	198,5,c	;volatile
  1688                           
  1689                           ;MCAL_Layer/SPI/hal_SPI.c: 29:         TRISCbits.RC4 = 1;
  1690   0019A4  8894               	bsf	148,4,c	;volatile
  1691                           
  1692                           ;MCAL_Layer/SPI/hal_SPI.c: 30:         TRISCbits.RC3 = 0;
  1693   0019A6  9694               	bcf	148,3,c	;volatile
  1694                           
  1695                           ;MCAL_Layer/SPI/hal_SPI.c: 31:         TRISAbits.RA5 = 0;
  1696   0019A8  9A92               	bcf	146,5,c	;volatile
  1697                           
  1698                           ;MCAL_Layer/SPI/hal_SPI.c: 32:         TRISCbits.RC5 = 0;
  1699   0019AA  9A94               	bcf	148,5,c	;volatile
  1700   0019AC                     
  1701                           ; BSR set to: 0
  1702                           ;MCAL_Layer/SPI/hal_SPI.c: 38:         (SSPCON1bits.CKP = _spi->clock_idle);
  1703   0019AC  C0F4  FFD9         	movff	SPI_Init_Master@_spi,fsr2l
  1704   0019B0  C0F5  FFDA         	movff	SPI_Init_Master@_spi+1,fsr2h
  1705   0019B4  50DF               	movf	indf2,w,c
  1706   0019B6  6FF6               	movwf	??_SPI_Init_Master& (0+255),b
  1707   0019B8  3BF6               	swapf	??_SPI_Init_Master& (0+255),f,b
  1708   0019BA  50C6               	movf	198,w,c	;volatile
  1709   0019BC  19F6               	xorwf	??_SPI_Init_Master& (0+255),w,b
  1710   0019BE  0BEF               	andlw	-17
  1711   0019C0  19F6               	xorwf	??_SPI_Init_Master& (0+255),w,b
  1712   0019C2  6EC6               	movwf	198,c	;volatile
  1713                           
  1714                           ;MCAL_Layer/SPI/hal_SPI.c: 40:         (SSPSTATbits.CKE = _spi->clock_phase);
  1715   0019C4  EE20 F001          	lfsr	2,1
  1716   0019C8  51F4               	movf	SPI_Init_Master@_spi& (0+255),w,b
  1717   0019CA  26D9               	addwf	fsr2l,f,c
  1718   0019CC  51F5               	movf	(SPI_Init_Master@_spi+1)& (0+255),w,b
  1719   0019CE  22DA               	addwfc	fsr2h,f,c
  1720   0019D0  50DF               	movf	indf2,w,c
  1721   0019D2  6FF6               	movwf	??_SPI_Init_Master& (0+255),b
  1722   0019D4  3BF6               	swapf	??_SPI_Init_Master& (0+255),f,b
  1723   0019D6  47F6               	rlncf	??_SPI_Init_Master& (0+255),f,b
  1724   0019D8  47F6               	rlncf	??_SPI_Init_Master& (0+255),f,b
  1725   0019DA  50C7               	movf	199,w,c	;volatile
  1726   0019DC  19F6               	xorwf	??_SPI_Init_Master& (0+255),w,b
  1727   0019DE  0BBF               	andlw	-65
  1728   0019E0  19F6               	xorwf	??_SPI_Init_Master& (0+255),w,b
  1729   0019E2  6EC7               	movwf	199,c	;volatile
  1730                           
  1731                           ;MCAL_Layer/SPI/hal_SPI.c: 42:         (SSPSTATbits.SMP = _spi->sample_data);
  1732   0019E4  EE20 F002          	lfsr	2,2
  1733   0019E8  51F4               	movf	SPI_Init_Master@_spi& (0+255),w,b
  1734   0019EA  26D9               	addwf	fsr2l,f,c
  1735   0019EC  51F5               	movf	(SPI_Init_Master@_spi+1)& (0+255),w,b
  1736   0019EE  22DA               	addwfc	fsr2h,f,c
  1737   0019F0  50DF               	movf	indf2,w,c
  1738   0019F2  6FF6               	movwf	??_SPI_Init_Master& (0+255),b
  1739   0019F4  33F6               	rrcf	??_SPI_Init_Master& (0+255),f,b
  1740   0019F6  33F6               	rrcf	??_SPI_Init_Master& (0+255),f,b
  1741   0019F8  50C7               	movf	199,w,c	;volatile
  1742   0019FA  19F6               	xorwf	??_SPI_Init_Master& (0+255),w,b
  1743   0019FC  0B7F               	andlw	-129
  1744   0019FE  19F6               	xorwf	??_SPI_Init_Master& (0+255),w,b
  1745   001A00  6EC7               	movwf	199,c	;volatile
  1746                           
  1747                           ;MCAL_Layer/SPI/hal_SPI.c: 44:         (SSPCON1bits.SSPM = _spi->master_clk_rate);
  1748   001A02  EE20 F003          	lfsr	2,3
  1749   001A06  51F4               	movf	SPI_Init_Master@_spi& (0+255),w,b
  1750   001A08  26D9               	addwf	fsr2l,f,c
  1751   001A0A  51F5               	movf	(SPI_Init_Master@_spi+1)& (0+255),w,b
  1752   001A0C  22DA               	addwfc	fsr2h,f,c
  1753   001A0E  50DF               	movf	indf2,w,c
  1754   001A10  6FF6               	movwf	??_SPI_Init_Master& (0+255),b
  1755   001A12  50C6               	movf	198,w,c	;volatile
  1756   001A14  19F6               	xorwf	??_SPI_Init_Master& (0+255),w,b
  1757   001A16  0BF0               	andlw	-16
  1758   001A18  19F6               	xorwf	??_SPI_Init_Master& (0+255),w,b
  1759   001A1A  6EC6               	movwf	198,c	;volatile
  1760   001A1C                     
  1761                           ; BSR set to: 0
  1762                           ;MCAL_Layer/SPI/hal_SPI.c: 46:         (SSPCON1bits.SSPEN = 1);
  1763   001A1C  8AC6               	bsf	198,5,c	;volatile
  1764   001A1E                     
  1765                           ; BSR set to: 0
  1766                           ;MCAL_Layer/SPI/hal_SPI.c: 47:         ret = (Std_ReturnType)0x01;
  1767   001A1E  0E01               	movlw	1
  1768   001A20  6FF7               	movwf	SPI_Init_Master@ret& (0+255),b
  1769   001A22                     l6598:
  1770                           
  1771                           ; BSR set to: 0
  1772                           ;MCAL_Layer/SPI/hal_SPI.c: 49:     return ret;
  1773   001A22  51F7               	movf	SPI_Init_Master@ret& (0+255),w,b
  1774   001A24                     
  1775                           ; BSR set to: 0
  1776   001A24  0012               	return		;funcret
  1777   001A26                     __end_of_SPI_Init_Master:
  1778                           	callstack 0
  1779                           
  1780 ;; *************** function _SPI_WriteByteBlocking *****************
  1781 ;; Defined at:
  1782 ;;		line 175 in file "MCAL_Layer/SPI/hal_SPI.c"
  1783 ;; Parameters:    Size  Location     Type
  1784 ;;  _data           1    wreg     unsigned char 
  1785 ;; Auto vars:     Size  Location     Type
  1786 ;;  _data           1    1[BANK0 ] unsigned char 
  1787 ;;  buff_removed    1    0[BANK0 ] unsigned char 
  1788 ;;  ret             1    0        unsigned char 
  1789 ;; Return value:  Size  Location     Type
  1790 ;;                  1    wreg      unsigned char 
  1791 ;; Registers used:
  1792 ;;		wreg, status,2
  1793 ;; Tracked objects:
  1794 ;;		On entry : 0/0
  1795 ;;		On exit  : 0/0
  1796 ;;		Unchanged: 0/0
  1797 ;; Data sizes:     COMRAM   BANK0   BANK1   BANK2   BANK3   BANK4   BANK5   BANK6   BANK7   BANK8   BANK9  BANK10  BANK1
      +1  BANK12  BANK13  BANK14  BANK15
  1798 ;;      Params:         0       0       0       0       0       0       0       0       0       0       0       0       
      +0       0       0       0       0
  1799 ;;      Locals:         0       2       0       0       0       0       0       0       0       0       0       0       
      +0       0       0       0       0
  1800 ;;      Temps:          0       0       0       0       0       0       0       0       0       0       0       0       
      +0       0       0       0       0
  1801 ;;      Totals:         0       2       0       0       0       0       0       0       0       0       0       0       
      +0       0       0       0       0
  1802 ;;Total ram usage:        2 bytes
  1803 ;; Hardware stack levels used: 1
  1804 ;; Hardware stack levels required when called: 10
  1805 ;; This function calls:
  1806 ;;		Nothing
  1807 ;; This function is called by:
  1808 ;;		_main
  1809 ;;		_SPI_WriteStringBlocking
  1810 ;; This function uses a non-reentrant model
  1811 ;;
  1812                           
  1813                           	psect	text7
  1814   002110                     __ptext7:
  1815                           	callstack 0
  1816   002110                     _SPI_WriteByteBlocking:
  1817                           	callstack 20
  1818                           
  1819                           ; BSR set to: 0
  1820                           ;incstack = 0
  1821                           ;SPI_WriteByteBlocking@_data stored from wreg
  1822   002110  0100               	movlb	0	; () banked
  1823   002112  6FF5               	movwf	SPI_WriteByteBlocking@_data& (0+255),b
  1824   002114                     
  1825                           ;MCAL_Layer/SPI/hal_SPI.c: 177:     uint8 buff_removed = 0;
  1826   002114  0E00               	movlw	0
  1827   002116  0100               	movlb	0	; () banked
  1828   002118  6FF4               	movwf	SPI_WriteByteBlocking@buff_removed& (0+255),b
  1829   00211A                     
  1830                           ; BSR set to: 0
  1831                           ;MCAL_Layer/SPI/hal_SPI.c: 178:     SSPBUF = _data;
  1832   00211A  C0F5  FFC9         	movff	SPI_WriteByteBlocking@_data,4041	;volatile
  1833   00211E                     l1514:
  1834   00211E  A0C7               	btfss	199,0,c	;volatile
  1835   002120  EF94  F010         	goto	u6491
  1836   002124  EF96  F010         	goto	u6490
  1837   002128                     u6491:
  1838   002128  EF8F  F010         	goto	l1514
  1839   00212C                     u6490:
  1840   00212C                     
  1841                           ;MCAL_Layer/SPI/hal_SPI.c: 180:     PIR1bits.SSPIF = 0;
  1842   00212C  969E               	bcf	158,3,c	;volatile
  1843   00212E  50C9               	movf	201,w,c	;volatile
  1844   002130  0012               	return		;funcret
  1845   002132                     __end_of_SPI_WriteByteBlocking:
  1846                           	callstack 0
  1847                           
  1848 ;; *************** function _InterruptManagerLow *****************
  1849 ;; Defined at:
  1850 ;;		line 20 in file "MCAL_Layer/Interrupt/mcal_interrupt_manager.c"
  1851 ;; Parameters:    Size  Location     Type
  1852 ;;		None
  1853 ;; Auto vars:     Size  Location     Type
  1854 ;;		None
  1855 ;; Return value:  Size  Location     Type
  1856 ;;                  1    wreg      void 
  1857 ;; Registers used:
  1858 ;;		wreg, fsr2l, fsr2h, status,2, status,0, pcl, pclath, pclatu, tosl, cstack
  1859 ;; Tracked objects:
  1860 ;;		On entry : 0/0
  1861 ;;		On exit  : 0/0
  1862 ;;		Unchanged: 0/0
  1863 ;; Data sizes:     COMRAM   BANK0   BANK1   BANK2   BANK3   BANK4   BANK5   BANK6   BANK7   BANK8   BANK9  BANK10  BANK1
      +1  BANK12  BANK13  BANK14  BANK15
  1864 ;;      Params:         0       0       0       0       0       0       0       0       0       0       0       0       
      +0       0       0       0       0
  1865 ;;      Locals:         0       0       0       0       0       0       0       0       0       0       0       0       
      +0       0       0       0       0
  1866 ;;      Temps:          7       0       0       0       0       0       0       0       0       0       0       0       
      +0       0       0       0       0
  1867 ;;      Totals:         7       0       0       0       0       0       0       0       0       0       0       0       
      +0       0       0       0       0
  1868 ;;Total ram usage:        7 bytes
  1869 ;; Hardware stack levels used: 1
  1870 ;; Hardware stack levels required when called: 9
  1871 ;; This function calls:
  1872 ;;		_InterruptCheck
  1873 ;; This function is called by:
  1874 ;;		Interrupt level 1
  1875 ;; This function uses a non-reentrant model
  1876 ;;
  1877                           
  1878                           	psect	intcodelo
  1879   000018                     __pintcodelo:
  1880                           	callstack 0
  1881   000018                     _InterruptManagerLow:
  1882                           	callstack 17
  1883                           
  1884                           ;incstack = 0
  1885   000018  806B               	bsf	int$flags,0,c	;set compiler interrupt flag (level 1)
  1886   00001A  CFD8 F055          	movff	status,??_InterruptManagerLow
  1887   00001E  CFE8 F056          	movff	wreg,??_InterruptManagerLow+1
  1888   000022  CFE0 F057          	movff	bsr,??_InterruptManagerLow+2
  1889   000026  CFFA F058          	movff	pclath,??_InterruptManagerLow+3
  1890   00002A  CFFB F059          	movff	pclatu,??_InterruptManagerLow+4
  1891   00002E  CFD9 F05A          	movff	fsr2l,??_InterruptManagerLow+5
  1892   000032  CFDA F05B          	movff	fsr2h,??_InterruptManagerLow+6
  1893   000036                     
  1894                           ;MCAL_Layer/Interrupt/mcal_interrupt_manager.c: 21:     InterruptCheck();
  1895   000036  EC03  F008         	call	_InterruptCheck	;wreg free
  1896   00003A  C05B  FFDA         	movff	??_InterruptManagerLow+6,fsr2h
  1897   00003E  C05A  FFD9         	movff	??_InterruptManagerLow+5,fsr2l
  1898   000042  C059  FFFB         	movff	??_InterruptManagerLow+4,pclatu
  1899   000046  C058  FFFA         	movff	??_InterruptManagerLow+3,pclath
  1900   00004A  C057  FFE0         	movff	??_InterruptManagerLow+2,bsr
  1901   00004E  C056  FFE8         	movff	??_InterruptManagerLow+1,wreg
  1902   000052  C055  FFD8         	movff	??_InterruptManagerLow,status
  1903   000056  906B               	bcf	int$flags,0,c	;clear compiler interrupt flag (level 1)
  1904   000058  0010               	retfie	
  1905   00005A                     __end_of_InterruptManagerLow:
  1906                           	callstack 0
  1907                           
  1908 ;; *************** function _InterruptCheck *****************
  1909 ;; Defined at:
  1910 ;;		line 31 in file "MCAL_Layer/Interrupt/mcal_interrupt_manager.c"
  1911 ;; Parameters:    Size  Location     Type
  1912 ;;		None
  1913 ;; Auto vars:     Size  Location     Type
  1914 ;;		None
  1915 ;; Return value:  Size  Location     Type
  1916 ;;                  1    wreg      void 
  1917 ;; Registers used:
  1918 ;;		wreg, fsr2l, fsr2h, status,2, status,0, pcl, pclath, pclatu, tosl, cstack
  1919 ;; Tracked objects:
  1920 ;;		On entry : 0/0
  1921 ;;		On exit  : 0/0
  1922 ;;		Unchanged: 0/0
  1923 ;; Data sizes:     COMRAM   BANK0   BANK1   BANK2   BANK3   BANK4   BANK5   BANK6   BANK7   BANK8   BANK9  BANK10  BANK1
      +1  BANK12  BANK13  BANK14  BANK15
  1924 ;;      Params:         0       0       0       0       0       0       0       0       0       0       0       0       
      +0       0       0       0       0
  1925 ;;      Locals:         0       0       0       0       0       0       0       0       0       0       0       0       
      +0       0       0       0       0
  1926 ;;      Temps:          0       0       0       0       0       0       0       0       0       0       0       0       
      +0       0       0       0       0
  1927 ;;      Totals:         0       0       0       0       0       0       0       0       0       0       0       0       
      +0       0       0       0       0
  1928 ;;Total ram usage:        0 bytes
  1929 ;; Hardware stack levels used: 1
  1930 ;; Hardware stack levels required when called: 8
  1931 ;; This function calls:
  1932 ;;		_ADC_ISR
  1933 ;;		_CCP1_ISR
  1934 ;;		_EUSART_RX_ISR
  1935 ;;		_EUSART_TX_ISR
  1936 ;;		_INT0_ISR
  1937 ;;		_INT1_ISR
  1938 ;;		_INT2_ISR
  1939 ;;		_RB4_ISR
  1940 ;;		_RB5_ISR
  1941 ;;		_RB6_ISR
  1942 ;;		_RB7_ISR
  1943 ;;		_TMR1_ISR
  1944 ;;		_TMR2_ISR
  1945 ;;		_TMR3_ISR
  1946 ;;		_TMRO_ISR
  1947 ;; This function is called by:
  1948 ;;		_InterruptManagerLow
  1949 ;; This function uses a non-reentrant model
  1950 ;;
  1951                           
  1952                           	psect	text9
  1953   001006                     __ptext9:
  1954                           	callstack 0
  1955   001006                     _InterruptCheck:
  1956                           	callstack 17
  1957   001006                     
  1958                           ;MCAL_Layer/Interrupt/mcal_interrupt_manager.c: 33:     if((1 == INTCONbits.INT0IE)&&(1 
      +                          == INTCONbits.INT0IF)){
  1959   001006  A8F2               	btfss	242,4,c	;volatile
  1960   001008  EF08  F008         	goto	i1u450_21
  1961   00100C  EF0A  F008         	goto	i1u450_20
  1962   001010                     i1u450_21:
  1963   001010  EF13  F008         	goto	i1l666
  1964   001014                     i1u450_20:
  1965   001014  A2F2               	btfss	242,1,c	;volatile
  1966   001016  EF0F  F008         	goto	i1u451_21
  1967   00101A  EF11  F008         	goto	i1u451_20
  1968   00101E                     i1u451_21:
  1969   00101E  EF13  F008         	goto	i1l666
  1970   001022                     i1u451_20:
  1971   001022                     
  1972                           ;MCAL_Layer/Interrupt/mcal_interrupt_manager.c: 34:         INT0_ISR();
  1973   001022  ECB2  F011         	call	_INT0_ISR	;wreg free
  1974   001026                     i1l666:
  1975                           
  1976                           ;MCAL_Layer/Interrupt/mcal_interrupt_manager.c: 38:     if((1 == INTCON3bits.INT1IE)&&(1
      +                           == INTCON3bits.INT1IF)){
  1977   001026  A6F0               	btfss	240,3,c	;volatile
  1978   001028  EF18  F008         	goto	i1u452_21
  1979   00102C  EF1A  F008         	goto	i1u452_20
  1980   001030                     i1u452_21:
  1981   001030  EF23  F008         	goto	i1l668
  1982   001034                     i1u452_20:
  1983   001034  A0F0               	btfss	240,0,c	;volatile
  1984   001036  EF1F  F008         	goto	i1u453_21
  1985   00103A  EF21  F008         	goto	i1u453_20
  1986   00103E                     i1u453_21:
  1987   00103E  EF23  F008         	goto	i1l668
  1988   001042                     i1u453_20:
  1989   001042                     
  1990                           ;MCAL_Layer/Interrupt/mcal_interrupt_manager.c: 39:         INT1_ISR();
  1991   001042  ECB0  F011         	call	_INT1_ISR	;wreg free
  1992   001046                     i1l668:
  1993                           
  1994                           ;MCAL_Layer/Interrupt/mcal_interrupt_manager.c: 43:     if((1 == INTCON3bits.INT2IE)&&(1
      +                           == INTCON3bits.INT2IF)){
  1995   001046  A8F0               	btfss	240,4,c	;volatile
  1996   001048  EF28  F008         	goto	i1u454_21
  1997   00104C  EF2A  F008         	goto	i1u454_20
  1998   001050                     i1u454_21:
  1999   001050  EF33  F008         	goto	i1l670
  2000   001054                     i1u454_20:
  2001   001054  A2F0               	btfss	240,1,c	;volatile
  2002   001056  EF2F  F008         	goto	i1u455_21
  2003   00105A  EF31  F008         	goto	i1u455_20
  2004   00105E                     i1u455_21:
  2005   00105E  EF33  F008         	goto	i1l670
  2006   001062                     i1u455_20:
  2007   001062                     
  2008                           ;MCAL_Layer/Interrupt/mcal_interrupt_manager.c: 44:         INT2_ISR();
  2009   001062  ECAE  F011         	call	_INT2_ISR	;wreg free
  2010   001066                     i1l670:
  2011                           
  2012                           ;MCAL_Layer/Interrupt/mcal_interrupt_manager.c: 49:     if((1 == INTCONbits.RBIE)&&(1 ==
      +                           INTCONbits.RBIF)&&(PORTBbits.RB4 == GPIO_HIGH) && (RB4_Flag ==1)){
  2013   001066  A6F2               	btfss	242,3,c	;volatile
  2014   001068  EF38  F008         	goto	i1u456_21
  2015   00106C  EF3A  F008         	goto	i1u456_20
  2016   001070                     i1u456_21:
  2017   001070  EF55  F008         	goto	i1l672
  2018   001074                     i1u456_20:
  2019   001074  A0F2               	btfss	242,0,c	;volatile
  2020   001076  EF3F  F008         	goto	i1u457_21
  2021   00107A  EF41  F008         	goto	i1u457_20
  2022   00107E                     i1u457_21:
  2023   00107E  EF55  F008         	goto	i1l672
  2024   001082                     i1u457_20:
  2025   001082  A881               	btfss	129,4,c	;volatile
  2026   001084  EF46  F008         	goto	i1u458_21
  2027   001088  EF48  F008         	goto	i1u458_20
  2028   00108C                     i1u458_21:
  2029   00108C  EF55  F008         	goto	i1l672
  2030   001090                     i1u458_20:
  2031   001090  0463               	decf	_RB4_Flag^0,w,c	;volatile
  2032   001092  A4D8               	btfss	status,2,c
  2033   001094  EF4E  F008         	goto	i1u459_21
  2034   001098  EF50  F008         	goto	i1u459_20
  2035   00109C                     i1u459_21:
  2036   00109C  EF55  F008         	goto	i1l672
  2037   0010A0                     i1u459_20:
  2038   0010A0                     
  2039                           ;MCAL_Layer/Interrupt/mcal_interrupt_manager.c: 50:         RB4_Flag = 0;
  2040   0010A0  0E00               	movlw	0
  2041   0010A2  6E63               	movwf	_RB4_Flag^0,c	;volatile
  2042   0010A4                     
  2043                           ;MCAL_Layer/Interrupt/mcal_interrupt_manager.c: 51:         RB4_ISR(1);
  2044   0010A4  0E01               	movlw	1
  2045   0010A6  EC2A  F011         	call	_RB4_ISR
  2046   0010AA                     i1l672:
  2047                           
  2048                           ;MCAL_Layer/Interrupt/mcal_interrupt_manager.c: 54:     if((1 == INTCONbits.RBIE)&&(1 ==
      +                           INTCONbits.RBIF)&&(PORTBbits.RB4 == GPIO_LOW)&& (RB4_Flag ==0)){
  2049   0010AA  A6F2               	btfss	242,3,c	;volatile
  2050   0010AC  EF5A  F008         	goto	i1u460_21
  2051   0010B0  EF5C  F008         	goto	i1u460_20
  2052   0010B4                     i1u460_21:
  2053   0010B4  EF77  F008         	goto	i1l674
  2054   0010B8                     i1u460_20:
  2055   0010B8  A0F2               	btfss	242,0,c	;volatile
  2056   0010BA  EF61  F008         	goto	i1u461_21
  2057   0010BE  EF63  F008         	goto	i1u461_20
  2058   0010C2                     i1u461_21:
  2059   0010C2  EF77  F008         	goto	i1l674
  2060   0010C6                     i1u461_20:
  2061   0010C6  B881               	btfsc	129,4,c	;volatile
  2062   0010C8  EF68  F008         	goto	i1u462_21
  2063   0010CC  EF6A  F008         	goto	i1u462_20
  2064   0010D0                     i1u462_21:
  2065   0010D0  EF77  F008         	goto	i1l674
  2066   0010D4                     i1u462_20:
  2067   0010D4  5063               	movf	_RB4_Flag^0,w,c	;volatile
  2068   0010D6  A4D8               	btfss	status,2,c
  2069   0010D8  EF70  F008         	goto	i1u463_21
  2070   0010DC  EF72  F008         	goto	i1u463_20
  2071   0010E0                     i1u463_21:
  2072   0010E0  EF77  F008         	goto	i1l674
  2073   0010E4                     i1u463_20:
  2074   0010E4                     
  2075                           ;MCAL_Layer/Interrupt/mcal_interrupt_manager.c: 55:         RB4_Flag = 1;
  2076   0010E4  0E01               	movlw	1
  2077   0010E6  6E63               	movwf	_RB4_Flag^0,c	;volatile
  2078   0010E8                     
  2079                           ;MCAL_Layer/Interrupt/mcal_interrupt_manager.c: 56:         RB4_ISR(0);
  2080   0010E8  0E00               	movlw	0
  2081   0010EA  EC2A  F011         	call	_RB4_ISR
  2082   0010EE                     i1l674:
  2083                           
  2084                           ;MCAL_Layer/Interrupt/mcal_interrupt_manager.c: 60:     if((1 == INTCONbits.RBIE)&&(1 ==
      +                           INTCONbits.RBIF)&&(PORTBbits.RB5 == GPIO_HIGH) && (RB5_Flag ==1)){
  2085   0010EE  A6F2               	btfss	242,3,c	;volatile
  2086   0010F0  EF7C  F008         	goto	i1u464_21
  2087   0010F4  EF7E  F008         	goto	i1u464_20
  2088   0010F8                     i1u464_21:
  2089   0010F8  EF99  F008         	goto	i1l676
  2090   0010FC                     i1u464_20:
  2091   0010FC  A0F2               	btfss	242,0,c	;volatile
  2092   0010FE  EF83  F008         	goto	i1u465_21
  2093   001102  EF85  F008         	goto	i1u465_20
  2094   001106                     i1u465_21:
  2095   001106  EF99  F008         	goto	i1l676
  2096   00110A                     i1u465_20:
  2097   00110A  AA81               	btfss	129,5,c	;volatile
  2098   00110C  EF8A  F008         	goto	i1u466_21
  2099   001110  EF8C  F008         	goto	i1u466_20
  2100   001114                     i1u466_21:
  2101   001114  EF99  F008         	goto	i1l676
  2102   001118                     i1u466_20:
  2103   001118  0462               	decf	_RB5_Flag^0,w,c	;volatile
  2104   00111A  A4D8               	btfss	status,2,c
  2105   00111C  EF92  F008         	goto	i1u467_21
  2106   001120  EF94  F008         	goto	i1u467_20
  2107   001124                     i1u467_21:
  2108   001124  EF99  F008         	goto	i1l676
  2109   001128                     i1u467_20:
  2110   001128                     
  2111                           ;MCAL_Layer/Interrupt/mcal_interrupt_manager.c: 61:         RB5_Flag = 0;
  2112   001128  0E00               	movlw	0
  2113   00112A  6E62               	movwf	_RB5_Flag^0,c	;volatile
  2114   00112C                     
  2115                           ;MCAL_Layer/Interrupt/mcal_interrupt_manager.c: 62:         RB5_ISR(1);
  2116   00112C  0E01               	movlw	1
  2117   00112E  EC1D  F011         	call	_RB5_ISR
  2118   001132                     i1l676:
  2119                           
  2120                           ;MCAL_Layer/Interrupt/mcal_interrupt_manager.c: 65:     if((1 == INTCONbits.RBIE)&&(1 ==
      +                           INTCONbits.RBIF)&&(PORTBbits.RB5 == GPIO_LOW)&& (RB5_Flag ==0)){
  2121   001132  A6F2               	btfss	242,3,c	;volatile
  2122   001134  EF9E  F008         	goto	i1u468_21
  2123   001138  EFA0  F008         	goto	i1u468_20
  2124   00113C                     i1u468_21:
  2125   00113C  EFBB  F008         	goto	i1l678
  2126   001140                     i1u468_20:
  2127   001140  A0F2               	btfss	242,0,c	;volatile
  2128   001142  EFA5  F008         	goto	i1u469_21
  2129   001146  EFA7  F008         	goto	i1u469_20
  2130   00114A                     i1u469_21:
  2131   00114A  EFBB  F008         	goto	i1l678
  2132   00114E                     i1u469_20:
  2133   00114E  BA81               	btfsc	129,5,c	;volatile
  2134   001150  EFAC  F008         	goto	i1u470_21
  2135   001154  EFAE  F008         	goto	i1u470_20
  2136   001158                     i1u470_21:
  2137   001158  EFBB  F008         	goto	i1l678
  2138   00115C                     i1u470_20:
  2139   00115C  5062               	movf	_RB5_Flag^0,w,c	;volatile
  2140   00115E  A4D8               	btfss	status,2,c
  2141   001160  EFB4  F008         	goto	i1u471_21
  2142   001164  EFB6  F008         	goto	i1u471_20
  2143   001168                     i1u471_21:
  2144   001168  EFBB  F008         	goto	i1l678
  2145   00116C                     i1u471_20:
  2146   00116C                     
  2147                           ;MCAL_Layer/Interrupt/mcal_interrupt_manager.c: 66:         RB5_Flag = 1;
  2148   00116C  0E01               	movlw	1
  2149   00116E  6E62               	movwf	_RB5_Flag^0,c	;volatile
  2150   001170                     
  2151                           ;MCAL_Layer/Interrupt/mcal_interrupt_manager.c: 67:         RB5_ISR(0);
  2152   001170  0E00               	movlw	0
  2153   001172  EC1D  F011         	call	_RB5_ISR
  2154   001176                     i1l678:
  2155                           
  2156                           ;MCAL_Layer/Interrupt/mcal_interrupt_manager.c: 71:     if((1 == INTCONbits.RBIE)&&(1 ==
      +                           INTCONbits.RBIF)&&(PORTBbits.RB6 == GPIO_HIGH) && (RB6_Flag ==1)){
  2157   001176  A6F2               	btfss	242,3,c	;volatile
  2158   001178  EFC0  F008         	goto	i1u472_21
  2159   00117C  EFC2  F008         	goto	i1u472_20
  2160   001180                     i1u472_21:
  2161   001180  EFDD  F008         	goto	i1l680
  2162   001184                     i1u472_20:
  2163   001184  A0F2               	btfss	242,0,c	;volatile
  2164   001186  EFC7  F008         	goto	i1u473_21
  2165   00118A  EFC9  F008         	goto	i1u473_20
  2166   00118E                     i1u473_21:
  2167   00118E  EFDD  F008         	goto	i1l680
  2168   001192                     i1u473_20:
  2169   001192  AC81               	btfss	129,6,c	;volatile
  2170   001194  EFCE  F008         	goto	i1u474_21
  2171   001198  EFD0  F008         	goto	i1u474_20
  2172   00119C                     i1u474_21:
  2173   00119C  EFDD  F008         	goto	i1l680
  2174   0011A0                     i1u474_20:
  2175   0011A0  0461               	decf	_RB6_Flag^0,w,c	;volatile
  2176   0011A2  A4D8               	btfss	status,2,c
  2177   0011A4  EFD6  F008         	goto	i1u475_21
  2178   0011A8  EFD8  F008         	goto	i1u475_20
  2179   0011AC                     i1u475_21:
  2180   0011AC  EFDD  F008         	goto	i1l680
  2181   0011B0                     i1u475_20:
  2182   0011B0                     
  2183                           ;MCAL_Layer/Interrupt/mcal_interrupt_manager.c: 72:         RB6_Flag = 0;
  2184   0011B0  0E00               	movlw	0
  2185   0011B2  6E61               	movwf	_RB6_Flag^0,c	;volatile
  2186   0011B4                     
  2187                           ;MCAL_Layer/Interrupt/mcal_interrupt_manager.c: 73:         RB6_ISR(1);
  2188   0011B4  0E01               	movlw	1
  2189   0011B6  EC10  F011         	call	_RB6_ISR
  2190   0011BA                     i1l680:
  2191                           
  2192                           ;MCAL_Layer/Interrupt/mcal_interrupt_manager.c: 76:     if((1 == INTCONbits.RBIE)&&(1 ==
      +                           INTCONbits.RBIF)&&(PORTBbits.RB6 == GPIO_LOW)&& (RB6_Flag ==0)){
  2193   0011BA  A6F2               	btfss	242,3,c	;volatile
  2194   0011BC  EFE2  F008         	goto	i1u476_21
  2195   0011C0  EFE4  F008         	goto	i1u476_20
  2196   0011C4                     i1u476_21:
  2197   0011C4  EFFF  F008         	goto	i1l682
  2198   0011C8                     i1u476_20:
  2199   0011C8  A0F2               	btfss	242,0,c	;volatile
  2200   0011CA  EFE9  F008         	goto	i1u477_21
  2201   0011CE  EFEB  F008         	goto	i1u477_20
  2202   0011D2                     i1u477_21:
  2203   0011D2  EFFF  F008         	goto	i1l682
  2204   0011D6                     i1u477_20:
  2205   0011D6  BC81               	btfsc	129,6,c	;volatile
  2206   0011D8  EFF0  F008         	goto	i1u478_21
  2207   0011DC  EFF2  F008         	goto	i1u478_20
  2208   0011E0                     i1u478_21:
  2209   0011E0  EFFF  F008         	goto	i1l682
  2210   0011E4                     i1u478_20:
  2211   0011E4  5061               	movf	_RB6_Flag^0,w,c	;volatile
  2212   0011E6  A4D8               	btfss	status,2,c
  2213   0011E8  EFF8  F008         	goto	i1u479_21
  2214   0011EC  EFFA  F008         	goto	i1u479_20
  2215   0011F0                     i1u479_21:
  2216   0011F0  EFFF  F008         	goto	i1l682
  2217   0011F4                     i1u479_20:
  2218   0011F4                     
  2219                           ;MCAL_Layer/Interrupt/mcal_interrupt_manager.c: 77:         RB6_Flag = 1;
  2220   0011F4  0E01               	movlw	1
  2221   0011F6  6E61               	movwf	_RB6_Flag^0,c	;volatile
  2222   0011F8                     
  2223                           ;MCAL_Layer/Interrupt/mcal_interrupt_manager.c: 78:         RB6_ISR(0);
  2224   0011F8  0E00               	movlw	0
  2225   0011FA  EC10  F011         	call	_RB6_ISR
  2226   0011FE                     i1l682:
  2227                           
  2228                           ;MCAL_Layer/Interrupt/mcal_interrupt_manager.c: 82:     if((1 == INTCONbits.RBIE)&&(1 ==
      +                           INTCONbits.RBIF)&&(PORTBbits.RB7 == GPIO_HIGH) && (RB7_Flag ==1)){
  2229   0011FE  A6F2               	btfss	242,3,c	;volatile
  2230   001200  EF04  F009         	goto	i1u480_21
  2231   001204  EF06  F009         	goto	i1u480_20
  2232   001208                     i1u480_21:
  2233   001208  EF21  F009         	goto	i1l684
  2234   00120C                     i1u480_20:
  2235   00120C  A0F2               	btfss	242,0,c	;volatile
  2236   00120E  EF0B  F009         	goto	i1u481_21
  2237   001212  EF0D  F009         	goto	i1u481_20
  2238   001216                     i1u481_21:
  2239   001216  EF21  F009         	goto	i1l684
  2240   00121A                     i1u481_20:
  2241   00121A  AE81               	btfss	129,7,c	;volatile
  2242   00121C  EF12  F009         	goto	i1u482_21
  2243   001220  EF14  F009         	goto	i1u482_20
  2244   001224                     i1u482_21:
  2245   001224  EF21  F009         	goto	i1l684
  2246   001228                     i1u482_20:
  2247   001228  0460               	decf	_RB7_Flag^0,w,c	;volatile
  2248   00122A  A4D8               	btfss	status,2,c
  2249   00122C  EF1A  F009         	goto	i1u483_21
  2250   001230  EF1C  F009         	goto	i1u483_20
  2251   001234                     i1u483_21:
  2252   001234  EF21  F009         	goto	i1l684
  2253   001238                     i1u483_20:
  2254   001238                     
  2255                           ;MCAL_Layer/Interrupt/mcal_interrupt_manager.c: 83:         RB7_Flag = 0;
  2256   001238  0E00               	movlw	0
  2257   00123A  6E60               	movwf	_RB7_Flag^0,c	;volatile
  2258   00123C                     
  2259                           ;MCAL_Layer/Interrupt/mcal_interrupt_manager.c: 84:         RB7_ISR(1);
  2260   00123C  0E01               	movlw	1
  2261   00123E  EC03  F011         	call	_RB7_ISR
  2262   001242                     i1l684:
  2263                           
  2264                           ;MCAL_Layer/Interrupt/mcal_interrupt_manager.c: 87:     if((1 == INTCONbits.RBIE)&&(1 ==
      +                           INTCONbits.RBIF)&&(PORTBbits.RB7 == GPIO_LOW)&& (RB7_Flag ==0)){
  2265   001242  A6F2               	btfss	242,3,c	;volatile
  2266   001244  EF26  F009         	goto	i1u484_21
  2267   001248  EF28  F009         	goto	i1u484_20
  2268   00124C                     i1u484_21:
  2269   00124C  EF43  F009         	goto	i1l686
  2270   001250                     i1u484_20:
  2271   001250  A0F2               	btfss	242,0,c	;volatile
  2272   001252  EF2D  F009         	goto	i1u485_21
  2273   001256  EF2F  F009         	goto	i1u485_20
  2274   00125A                     i1u485_21:
  2275   00125A  EF43  F009         	goto	i1l686
  2276   00125E                     i1u485_20:
  2277   00125E  BE81               	btfsc	129,7,c	;volatile
  2278   001260  EF34  F009         	goto	i1u486_21
  2279   001264  EF36  F009         	goto	i1u486_20
  2280   001268                     i1u486_21:
  2281   001268  EF43  F009         	goto	i1l686
  2282   00126C                     i1u486_20:
  2283   00126C  5060               	movf	_RB7_Flag^0,w,c	;volatile
  2284   00126E  A4D8               	btfss	status,2,c
  2285   001270  EF3C  F009         	goto	i1u487_21
  2286   001274  EF3E  F009         	goto	i1u487_20
  2287   001278                     i1u487_21:
  2288   001278  EF43  F009         	goto	i1l686
  2289   00127C                     i1u487_20:
  2290   00127C                     
  2291                           ;MCAL_Layer/Interrupt/mcal_interrupt_manager.c: 88:         RB7_Flag = 1;
  2292   00127C  0E01               	movlw	1
  2293   00127E  6E60               	movwf	_RB7_Flag^0,c	;volatile
  2294   001280                     
  2295                           ;MCAL_Layer/Interrupt/mcal_interrupt_manager.c: 89:         RB7_ISR(0);
  2296   001280  0E00               	movlw	0
  2297   001282  EC03  F011         	call	_RB7_ISR
  2298   001286                     i1l686:
  2299                           
  2300                           ;MCAL_Layer/Interrupt/mcal_interrupt_manager.c: 95:     if((1 == PIE1bits.ADIE)&&(1 == P
      +                          IR1bits.ADIF)){
  2301   001286  AC9D               	btfss	157,6,c	;volatile
  2302   001288  EF48  F009         	goto	i1u488_21
  2303   00128C  EF4A  F009         	goto	i1u488_20
  2304   001290                     i1u488_21:
  2305   001290  EF53  F009         	goto	i1l688
  2306   001294                     i1u488_20:
  2307   001294  AC9E               	btfss	158,6,c	;volatile
  2308   001296  EF4F  F009         	goto	i1u489_21
  2309   00129A  EF51  F009         	goto	i1u489_20
  2310   00129E                     i1u489_21:
  2311   00129E  EF53  F009         	goto	i1l688
  2312   0012A2                     i1u489_20:
  2313   0012A2                     
  2314                           ;MCAL_Layer/Interrupt/mcal_interrupt_manager.c: 96:         ADC_ISR();
  2315   0012A2  ECB4  F011         	call	_ADC_ISR	;wreg free
  2316   0012A6                     i1l688:
  2317                           
  2318                           ;MCAL_Layer/Interrupt/mcal_interrupt_manager.c: 102:     if((1 == INTCONbits.TMR0IE)&&(1
      +                           == INTCONbits.TMR0IF)){
  2319   0012A6  AAF2               	btfss	242,5,c	;volatile
  2320   0012A8  EF58  F009         	goto	i1u490_21
  2321   0012AC  EF5A  F009         	goto	i1u490_20
  2322   0012B0                     i1u490_21:
  2323   0012B0  EF63  F009         	goto	i1l690
  2324   0012B4                     i1u490_20:
  2325   0012B4  A4F2               	btfss	242,2,c	;volatile
  2326   0012B6  EF5F  F009         	goto	i1u491_21
  2327   0012BA  EF61  F009         	goto	i1u491_20
  2328   0012BE                     i1u491_21:
  2329   0012BE  EF63  F009         	goto	i1l690
  2330   0012C2                     i1u491_20:
  2331   0012C2                     
  2332                           ;MCAL_Layer/Interrupt/mcal_interrupt_manager.c: 103:         TMRO_ISR();
  2333   0012C2  EC07  F00F         	call	_TMRO_ISR	;wreg free
  2334   0012C6                     i1l690:
  2335                           
  2336                           ;MCAL_Layer/Interrupt/mcal_interrupt_manager.c: 109:     if((1 == PIE1bits.TMR1IE)&&(1 =
      +                          = PIR1bits.TMR1IF)){
  2337   0012C6  A09D               	btfss	157,0,c	;volatile
  2338   0012C8  EF68  F009         	goto	i1u492_21
  2339   0012CC  EF6A  F009         	goto	i1u492_20
  2340   0012D0                     i1u492_21:
  2341   0012D0  EF73  F009         	goto	i1l692
  2342   0012D4                     i1u492_20:
  2343   0012D4  A09E               	btfss	158,0,c	;volatile
  2344   0012D6  EF6F  F009         	goto	i1u493_21
  2345   0012DA  EF71  F009         	goto	i1u493_20
  2346   0012DE                     i1u493_21:
  2347   0012DE  EF73  F009         	goto	i1l692
  2348   0012E2                     i1u493_20:
  2349   0012E2                     
  2350                           ;MCAL_Layer/Interrupt/mcal_interrupt_manager.c: 110:         TMR1_ISR();
  2351   0012E2  EC9A  F011         	call	_TMR1_ISR	;wreg free
  2352   0012E6                     i1l692:
  2353                           
  2354                           ;MCAL_Layer/Interrupt/mcal_interrupt_manager.c: 116:     if((1 == PIE1bits.TMR2IE)&&(1 =
      +                          = PIR1bits.TMR2IF)){
  2355   0012E6  A29D               	btfss	157,1,c	;volatile
  2356   0012E8  EF78  F009         	goto	i1u494_21
  2357   0012EC  EF7A  F009         	goto	i1u494_20
  2358   0012F0                     i1u494_21:
  2359   0012F0  EF83  F009         	goto	i1l694
  2360   0012F4                     i1u494_20:
  2361   0012F4  A29E               	btfss	158,1,c	;volatile
  2362   0012F6  EF7F  F009         	goto	i1u495_21
  2363   0012FA  EF81  F009         	goto	i1u495_20
  2364   0012FE                     i1u495_21:
  2365   0012FE  EF83  F009         	goto	i1l694
  2366   001302                     i1u495_20:
  2367   001302                     
  2368                           ;MCAL_Layer/Interrupt/mcal_interrupt_manager.c: 117:         TMR2_ISR();
  2369   001302  ECA6  F011         	call	_TMR2_ISR	;wreg free
  2370   001306                     i1l694:
  2371                           
  2372                           ;MCAL_Layer/Interrupt/mcal_interrupt_manager.c: 123:     if((1 == PIE2bits.TMR3IE)&&(1 =
      +                          = PIR2bits.TMR3IF)){
  2373   001306  A2A0               	btfss	160,1,c	;volatile
  2374   001308  EF88  F009         	goto	i1u496_21
  2375   00130C  EF8A  F009         	goto	i1u496_20
  2376   001310                     i1u496_21:
  2377   001310  EF93  F009         	goto	i1l696
  2378   001314                     i1u496_20:
  2379   001314  A2A1               	btfss	161,1,c	;volatile
  2380   001316  EF8F  F009         	goto	i1u497_21
  2381   00131A  EF91  F009         	goto	i1u497_20
  2382   00131E                     i1u497_21:
  2383   00131E  EF93  F009         	goto	i1l696
  2384   001322                     i1u497_20:
  2385   001322                     
  2386                           ;MCAL_Layer/Interrupt/mcal_interrupt_manager.c: 124:         TMR3_ISR();
  2387   001322  EC22  F00F         	call	_TMR3_ISR	;wreg free
  2388   001326                     i1l696:
  2389                           
  2390                           ;MCAL_Layer/Interrupt/mcal_interrupt_manager.c: 130:     if((1 == PIE1bits.CCP1IE )&&(1 
      +                          == PIR1bits.CCP1IF )){
  2391   001326  A49D               	btfss	157,2,c	;volatile
  2392   001328  EF98  F009         	goto	i1u498_21
  2393   00132C  EF9A  F009         	goto	i1u498_20
  2394   001330                     i1u498_21:
  2395   001330  EFA3  F009         	goto	i1l698
  2396   001334                     i1u498_20:
  2397   001334  A49E               	btfss	158,2,c	;volatile
  2398   001336  EF9F  F009         	goto	i1u499_21
  2399   00133A  EFA1  F009         	goto	i1u499_20
  2400   00133E                     i1u499_21:
  2401   00133E  EFA3  F009         	goto	i1l698
  2402   001342                     i1u499_20:
  2403   001342                     
  2404                           ;MCAL_Layer/Interrupt/mcal_interrupt_manager.c: 131:         CCP1_ISR();
  2405   001342  EC06  F010         	call	_CCP1_ISR	;wreg free
  2406   001346                     i1l698:
  2407                           
  2408                           ;MCAL_Layer/Interrupt/mcal_interrupt_manager.c: 144:     if((1 == PIE1bits.TXIE )&&(1 ==
      +                           PIR1bits.TXIF )){
  2409   001346  A89D               	btfss	157,4,c	;volatile
  2410   001348  EFA8  F009         	goto	i1u500_21
  2411   00134C  EFAA  F009         	goto	i1u500_20
  2412   001350                     i1u500_21:
  2413   001350  EFB3  F009         	goto	i1l700
  2414   001354                     i1u500_20:
  2415   001354  A89E               	btfss	158,4,c	;volatile
  2416   001356  EFAF  F009         	goto	i1u501_21
  2417   00135A  EFB1  F009         	goto	i1u501_20
  2418   00135E                     i1u501_21:
  2419   00135E  EFB3  F009         	goto	i1l700
  2420   001362                     i1u501_20:
  2421   001362                     
  2422                           ;MCAL_Layer/Interrupt/mcal_interrupt_manager.c: 145:         EUSART_TX_ISR();
  2423   001362  ECEF  F00F         	call	_EUSART_TX_ISR	;wreg free
  2424   001366                     i1l700:
  2425                           
  2426                           ;MCAL_Layer/Interrupt/mcal_interrupt_manager.c: 151:     if((1 == PIE1bits.RCIE )&&(1 ==
      +                           PIR1bits.RCIF )){
  2427   001366  AA9D               	btfss	157,5,c	;volatile
  2428   001368  EFB8  F009         	goto	i1u502_21
  2429   00136C  EFBA  F009         	goto	i1u502_20
  2430   001370                     i1u502_21:
  2431   001370  EFC3  F009         	goto	i1l703
  2432   001374                     i1u502_20:
  2433   001374  AA9E               	btfss	158,5,c	;volatile
  2434   001376  EFBF  F009         	goto	i1u503_21
  2435   00137A  EFC1  F009         	goto	i1u503_20
  2436   00137E                     i1u503_21:
  2437   00137E  EFC3  F009         	goto	i1l703
  2438   001382                     i1u503_20:
  2439   001382                     
  2440                           ;MCAL_Layer/Interrupt/mcal_interrupt_manager.c: 152:         EUSART_RX_ISR();
  2441   001382  ECBF  F00F         	call	_EUSART_RX_ISR	;wreg free
  2442   001386                     i1l703:
  2443   001386  0012               	return		;funcret
  2444   001388                     __end_of_InterruptCheck:
  2445                           	callstack 0
  2446                           
  2447 ;; *************** function _TMRO_ISR *****************
  2448 ;; Defined at:
  2449 ;;		line 134 in file "MCAL_Layer/Timer/Timer0/hal_timer0.c"
  2450 ;; Parameters:    Size  Location     Type
  2451 ;;		None
  2452 ;; Auto vars:     Size  Location     Type
  2453 ;;		None
  2454 ;; Return value:  Size  Location     Type
  2455 ;;                  1    wreg      void 
  2456 ;; Registers used:
  2457 ;;		wreg, fsr2l, fsr2h, status,2, status,0, pcl, pclath, pclatu, tosl, cstack
  2458 ;; Tracked objects:
  2459 ;;		On entry : 0/0
  2460 ;;		On exit  : 0/0
  2461 ;;		Unchanged: 0/0
  2462 ;; Data sizes:     COMRAM   BANK0   BANK1   BANK2   BANK3   BANK4   BANK5   BANK6   BANK7   BANK8   BANK9  BANK10  BANK1
      +1  BANK12  BANK13  BANK14  BANK15
  2463 ;;      Params:         0       0       0       0       0       0       0       0       0       0       0       0       
      +0       0       0       0       0
  2464 ;;      Locals:         0       0       0       0       0       0       0       0       0       0       0       0       
      +0       0       0       0       0
  2465 ;;      Temps:          0       0       0       0       0       0       0       0       0       0       0       0       
      +0       0       0       0       0
  2466 ;;      Totals:         0       0       0       0       0       0       0       0       0       0       0       0       
      +0       0       0       0       0
  2467 ;;Total ram usage:        0 bytes
  2468 ;; Hardware stack levels used: 1
  2469 ;; Hardware stack levels required when called: 7
  2470 ;; This function calls:
  2471 ;;		NULL
  2472 ;;		_timer0_interruptHundler
  2473 ;; This function is called by:
  2474 ;;		_InterruptCheck
  2475 ;; This function uses a non-reentrant model
  2476 ;;
  2477                           
  2478                           	psect	text10
  2479   001E0E                     __ptext10:
  2480                           	callstack 0
  2481   001E0E                     _TMRO_ISR:
  2482                           	callstack 17
  2483   001E0E                     
  2484                           ;MCAL_Layer/Timer/Timer0/hal_timer0.c: 135:     (INTCONbits.TMR0IF = 0);
  2485   001E0E  94F2               	bcf	242,2,c	;volatile
  2486   001E10                     
  2487                           ;MCAL_Layer/Timer/Timer0/hal_timer0.c: 136:     TMR0H = timer0_preload >>8;
  2488   001E10  5014               	movf	(_timer0_preload+1)^0,w,c
  2489   001E12  6ED7               	movwf	215,c	;volatile
  2490   001E14                     
  2491                           ;MCAL_Layer/Timer/Timer0/hal_timer0.c: 137:     TMR0L = (uint8)timer0_preload;
  2492   001E14  C013  FFD6         	movff	_timer0_preload,4054	;volatile
  2493   001E18                     
  2494                           ;MCAL_Layer/Timer/Timer0/hal_timer0.c: 138:     if(TMR0_InterruptHandler){
  2495   001E18  5015               	movf	_TMR0_InterruptHandler^0,w,c
  2496   001E1A  1016               	iorwf	(_TMR0_InterruptHandler+1)^0,w,c
  2497   001E1C  B4D8               	btfsc	status,2,c
  2498   001E1E  EF13  F00F         	goto	i1u419_21
  2499   001E22  EF15  F00F         	goto	i1u419_20
  2500   001E26                     i1u419_21:
  2501   001E26  EF21  F00F         	goto	i1l1030
  2502   001E2A                     i1u419_20:
  2503   001E2A                     
  2504                           ;MCAL_Layer/Timer/Timer0/hal_timer0.c: 139:         TMR0_InterruptHandler();
  2505   001E2A  D802               	call	i1u420_28
  2506   001E2C  EF21  F00F         	goto	i1u420_29
  2507   001E30                     i1u420_28:
  2508   001E30  0005               	push	
  2509   001E32  6EFA               	movwf	pclath,c
  2510   001E34  5015               	movf	_TMR0_InterruptHandler^0,w,c
  2511   001E36  6EFD               	movwf	tosl,c
  2512   001E38  5016               	movf	(_TMR0_InterruptHandler+1)^0,w,c
  2513   001E3A  6EFE               	movwf	tosh,c
  2514   001E3C  6AFF               	clrf	tosu,c
  2515   001E3E  50FA               	movf	pclath,w,c
  2516   001E40  0012               	return		;indir
  2517   001E42                     i1u420_29:
  2518   001E42                     i1l1030:
  2519   001E42  0012               	return		;funcret
  2520   001E44                     __end_of_TMRO_ISR:
  2521                           	callstack 0
  2522                           
  2523 ;; *************** function _timer0_interruptHundler *****************
  2524 ;; Defined at:
  2525 ;;		line 152 in file "application.c"
  2526 ;; Parameters:    Size  Location     Type
  2527 ;;		None
  2528 ;; Auto vars:     Size  Location     Type
  2529 ;;		None
  2530 ;; Return value:  Size  Location     Type
  2531 ;;                  1    wreg      void 
  2532 ;; Registers used:
  2533 ;;		wreg, fsr2l, fsr2h, status,2, status,0, cstack
  2534 ;; Tracked objects:
  2535 ;;		On entry : 0/0
  2536 ;;		On exit  : 0/0
  2537 ;;		Unchanged: 0/0
  2538 ;; Data sizes:     COMRAM   BANK0   BANK1   BANK2   BANK3   BANK4   BANK5   BANK6   BANK7   BANK8   BANK9  BANK10  BANK1
      +1  BANK12  BANK13  BANK14  BANK15
  2539 ;;      Params:         0       0       0       0       0       0       0       0       0       0       0       0       
      +0       0       0       0       0
  2540 ;;      Locals:         0       0       0       0       0       0       0       0       0       0       0       0       
      +0       0       0       0       0
  2541 ;;      Temps:          0       0       0       0       0       0       0       0       0       0       0       0       
      +0       0       0       0       0
  2542 ;;      Totals:         0       0       0       0       0       0       0       0       0       0       0       0       
      +0       0       0       0       0
  2543 ;;Total ram usage:        0 bytes
  2544 ;; Hardware stack levels used: 1
  2545 ;; Hardware stack levels required when called: 6
  2546 ;; This function calls:
  2547 ;;		_Timer1_Read_value
  2548 ;;		_Timer1_Write_value
  2549 ;; This function is called by:
  2550 ;;		_TMRO_ISR
  2551 ;;		i2_TMRO_ISR
  2552 ;; This function uses a non-reentrant model
  2553 ;;
  2554                           
  2555                           	psect	text11
  2556   001EE6                     __ptext11:
  2557                           	callstack 0
  2558   001EE6                     _timer0_interruptHundler:
  2559                           	callstack 0
  2560                           
  2561                           ;Skip over the trampoline to the duplicate function for level 2
  2562   001EE6  A26B               	btfss	int$flags,1,c
  2563   001EE8  EF78  F00F         	goto	_timer0_interruptHundler$intlevel1
  2564   001EEC  EF60  F010         	goto	i2_timer0_interruptHundler
  2565   001EF0                     _timer0_interruptHundler$intlevel1:
  2566                           	callstack 17
  2567   001EF0                     
  2568                           ;application.c: 153:     Timer1_Read_value(&timer1,&timer1_count);
  2569   001EF0  0E64               	movlw	low _timer1
  2570   001EF2  6E4D               	movwf	Timer1_Read_value@_timer^0,c
  2571   001EF4  0E00               	movlw	high _timer1
  2572   001EF6  6E4E               	movwf	(Timer1_Read_value@_timer+1)^0,c
  2573   001EF8  0E40               	movlw	low _timer1_count
  2574   001EFA  6E4F               	movwf	Timer1_Read_value@_value^0,c
  2575   001EFC  0E00               	movlw	high _timer1_count
  2576   001EFE  6E50               	movwf	(Timer1_Read_value@_value+1)^0,c
  2577   001F00  ECFD  F00D         	call	_Timer1_Read_value	;wreg free
  2578   001F04                     
  2579                           ;application.c: 154:     Timer1_Write_value(&timer1,0);
  2580   001F04  0E64               	movlw	low _timer1
  2581   001F06  6E4D               	movwf	Timer1_Write_value@_timer^0,c
  2582   001F08  0E00               	movlw	high _timer1
  2583   001F0A  6E4E               	movwf	(Timer1_Write_value@_timer+1)^0,c
  2584   001F0C  0E00               	movlw	0
  2585   001F0E  6E50               	movwf	(Timer1_Write_value@_value+1)^0,c
  2586   001F10  0E00               	movlw	0
  2587   001F12  6E4F               	movwf	Timer1_Write_value@_value^0,c
  2588   001F14  EC99  F010         	call	_Timer1_Write_value	;wreg free
  2589   001F18  0012               	return		;funcret
  2590   001F1A                     __end_of_timer0_interruptHundler:
  2591                           	callstack 0
  2592                           
  2593 ;; *************** function _Timer1_Write_value *****************
  2594 ;; Defined at:
  2595 ;;		line 95 in file "MCAL_Layer/Timer/Timer1/hal_timer1.c"
  2596 ;; Parameters:    Size  Location     Type
  2597 ;;  _timer          2   12[COMRAM] PTR const struct .
  2598 ;;		 -> timer1(6), 
  2599 ;;  _value          2   14[COMRAM] unsigned short 
  2600 ;; Auto vars:     Size  Location     Type
  2601 ;;  ret             1    0        unsigned char 
  2602 ;; Return value:  Size  Location     Type
  2603 ;;                  1    wreg      unsigned char 
  2604 ;; Registers used:
  2605 ;;		wreg, status,2, status,0
  2606 ;; Tracked objects:
  2607 ;;		On entry : 0/0
  2608 ;;		On exit  : 0/0
  2609 ;;		Unchanged: 0/0
  2610 ;; Data sizes:     COMRAM   BANK0   BANK1   BANK2   BANK3   BANK4   BANK5   BANK6   BANK7   BANK8   BANK9  BANK10  BANK1
      +1  BANK12  BANK13  BANK14  BANK15
  2611 ;;      Params:         4       0       0       0       0       0       0       0       0       0       0       0       
      +0       0       0       0       0
  2612 ;;      Locals:         0       0       0       0       0       0       0       0       0       0       0       0       
      +0       0       0       0       0
  2613 ;;      Temps:          0       0       0       0       0       0       0       0       0       0       0       0       
      +0       0       0       0       0
  2614 ;;      Totals:         4       0       0       0       0       0       0       0       0       0       0       0       
      +0       0       0       0       0
  2615 ;;Total ram usage:        4 bytes
  2616 ;; Hardware stack levels used: 1
  2617 ;; Hardware stack levels required when called: 5
  2618 ;; This function calls:
  2619 ;;		Nothing
  2620 ;; This function is called by:
  2621 ;;		_timer0_interruptHundler
  2622 ;; This function uses a non-reentrant model
  2623 ;;
  2624                           
  2625                           	psect	text12
  2626   002132                     __ptext12:
  2627                           	callstack 0
  2628   002132                     _Timer1_Write_value:
  2629                           	callstack 17
  2630   002132                     
  2631                           ;MCAL_Layer/Timer/Timer1/hal_timer1.c: 97:     if(((void*)0) == _timer){
  2632   002132  504D               	movf	Timer1_Write_value@_timer^0,w,c
  2633   002134  104E               	iorwf	(Timer1_Write_value@_timer+1)^0,w,c
  2634   002136  A4D8               	btfss	status,2,c
  2635   002138  EFA0  F010         	goto	i1u390_21
  2636   00213C  EFA2  F010         	goto	i1u390_20
  2637   002140                     i1u390_21:
  2638   002140  EFA4  F010         	goto	i1l4976
  2639   002144                     i1u390_20:
  2640   002144                     
  2641                           ;MCAL_Layer/Timer/Timer1/hal_timer1.c: 99:     }
  2642   002144  EFA8  F010         	goto	i1l1096
  2643   002148                     i1l4976:
  2644                           
  2645                           ;MCAL_Layer/Timer/Timer1/hal_timer1.c: 101:     {;MCAL_Layer/Timer/Timer1/hal_timer1.c: 
      +                          102:         TMR1H = (_value) >>8;
  2646   002148  5050               	movf	(Timer1_Write_value@_value+1)^0,w,c
  2647   00214A  6ECF               	movwf	207,c	;volatile
  2648   00214C                     
  2649                           ;MCAL_Layer/Timer/Timer1/hal_timer1.c: 103:         TMR1L = (uint8)(_value);
  2650   00214C  C04F  FFCE         	movff	Timer1_Write_value@_value,4046	;volatile
  2651   002150                     i1l1096:
  2652   002150  0012               	return		;funcret
  2653   002152                     __end_of_Timer1_Write_value:
  2654                           	callstack 0
  2655                           
  2656 ;; *************** function _Timer1_Read_value *****************
  2657 ;; Defined at:
  2658 ;;		line 117 in file "MCAL_Layer/Timer/Timer1/hal_timer1.c"
  2659 ;; Parameters:    Size  Location     Type
  2660 ;;  _timer          2   12[COMRAM] PTR const struct .
  2661 ;;		 -> timer1(6), 
  2662 ;;  _value          2   14[COMRAM] PTR unsigned short 
  2663 ;;		 -> timer1_count(1), 
  2664 ;; Auto vars:     Size  Location     Type
  2665 ;;  tmr1h           1   19[COMRAM] unsigned char 
  2666 ;;  tmr1l           1   18[COMRAM] unsigned char 
  2667 ;;  ret             1    0        unsigned char 
  2668 ;; Return value:  Size  Location     Type
  2669 ;;                  1    wreg      unsigned char 
  2670 ;; Registers used:
  2671 ;;		wreg, fsr2l, fsr2h, status,2, status,0
  2672 ;; Tracked objects:
  2673 ;;		On entry : 0/0
  2674 ;;		On exit  : 0/0
  2675 ;;		Unchanged: 0/0
  2676 ;; Data sizes:     COMRAM   BANK0   BANK1   BANK2   BANK3   BANK4   BANK5   BANK6   BANK7   BANK8   BANK9  BANK10  BANK1
      +1  BANK12  BANK13  BANK14  BANK15
  2677 ;;      Params:         4       0       0       0       0       0       0       0       0       0       0       0       
      +0       0       0       0       0
  2678 ;;      Locals:         2       0       0       0       0       0       0       0       0       0       0       0       
      +0       0       0       0       0
  2679 ;;      Temps:          2       0       0       0       0       0       0       0       0       0       0       0       
      +0       0       0       0       0
  2680 ;;      Totals:         8       0       0       0       0       0       0       0       0       0       0       0       
      +0       0       0       0       0
  2681 ;;Total ram usage:        8 bytes
  2682 ;; Hardware stack levels used: 1
  2683 ;; Hardware stack levels required when called: 5
  2684 ;; This function calls:
  2685 ;;		Nothing
  2686 ;; This function is called by:
  2687 ;;		_timer0_interruptHundler
  2688 ;; This function uses a non-reentrant model
  2689 ;;
  2690                           
  2691                           	psect	text13
  2692   001BFA                     __ptext13:
  2693                           	callstack 0
  2694   001BFA                     _Timer1_Read_value:
  2695                           	callstack 17
  2696   001BFA                     
  2697                           ;MCAL_Layer/Timer/Timer1/hal_timer1.c: 119:     uint8 tmr1l = 0;
  2698   001BFA  0E00               	movlw	0
  2699   001BFC  6E53               	movwf	Timer1_Read_value@tmr1l^0,c
  2700                           
  2701                           ;MCAL_Layer/Timer/Timer1/hal_timer1.c: 120:     uint8 tmr1h = 0;
  2702   001BFE  0E00               	movlw	0
  2703   001C00  6E54               	movwf	Timer1_Read_value@tmr1h^0,c
  2704   001C02                     
  2705                           ;MCAL_Layer/Timer/Timer1/hal_timer1.c: 121:     if(((void*)0) == _timer || ((void*)0) ==
      +                           _value){
  2706   001C02  504D               	movf	Timer1_Read_value@_timer^0,w,c
  2707   001C04  104E               	iorwf	(Timer1_Read_value@_timer+1)^0,w,c
  2708   001C06  B4D8               	btfsc	status,2,c
  2709   001C08  EF08  F00E         	goto	i1u391_21
  2710   001C0C  EF0A  F00E         	goto	i1u391_20
  2711   001C10                     i1u391_21:
  2712   001C10  EF13  F00E         	goto	i1l4988
  2713   001C14                     i1u391_20:
  2714   001C14  504F               	movf	Timer1_Read_value@_value^0,w,c
  2715   001C16  1050               	iorwf	(Timer1_Read_value@_value+1)^0,w,c
  2716   001C18  A4D8               	btfss	status,2,c
  2717   001C1A  EF11  F00E         	goto	i1u392_21
  2718   001C1E  EF13  F00E         	goto	i1u392_20
  2719   001C22                     i1u392_21:
  2720   001C22  EF15  F00E         	goto	i1l1099
  2721   001C26                     i1u392_20:
  2722   001C26                     i1l4988:
  2723                           
  2724                           ;MCAL_Layer/Timer/Timer1/hal_timer1.c: 123:     }
  2725   001C26  EF2B  F00E         	goto	i1l1103
  2726   001C2A                     i1l1099:
  2727                           
  2728                           ;MCAL_Layer/Timer/Timer1/hal_timer1.c: 125:     {;MCAL_Layer/Timer/Timer1/hal_timer1.c: 
      +                          126:         tmr1l = TMR1L;
  2729   001C2A  CFCE F053          	movff	4046,Timer1_Read_value@tmr1l	;volatile
  2730                           
  2731                           ;MCAL_Layer/Timer/Timer1/hal_timer1.c: 127:         tmr1h = TMR1H;
  2732   001C2E  CFCF F054          	movff	4047,Timer1_Read_value@tmr1h	;volatile
  2733   001C32                     
  2734                           ;MCAL_Layer/Timer/Timer1/hal_timer1.c: 128:         *_value = (uint16)((256 * tmr1h) + t
      +                          mr1l);
  2735   001C32  5053               	movf	Timer1_Read_value@tmr1l^0,w,c
  2736   001C34  C054  F051         	movff	Timer1_Read_value@tmr1h,??_Timer1_Read_value
  2737   001C38  6A52               	clrf	(??_Timer1_Read_value+1)^0,c
  2738   001C3A  C051  F052         	movff	??_Timer1_Read_value,??_Timer1_Read_value+1
  2739   001C3E  6A51               	clrf	??_Timer1_Read_value^0,c
  2740   001C40  2651               	addwf	??_Timer1_Read_value^0,f,c
  2741   001C42  0E00               	movlw	0
  2742   001C44  2252               	addwfc	(??_Timer1_Read_value+1)^0,f,c
  2743   001C46  C04F  FFD9         	movff	Timer1_Read_value@_value,fsr2l
  2744   001C4A  C050  FFDA         	movff	Timer1_Read_value@_value+1,fsr2h
  2745   001C4E  C051  FFDE         	movff	??_Timer1_Read_value,postinc2
  2746   001C52  C052  FFDD         	movff	??_Timer1_Read_value+1,postdec2
  2747   001C56                     i1l1103:
  2748   001C56  0012               	return		;funcret
  2749   001C58                     __end_of_Timer1_Read_value:
  2750                           	callstack 0
  2751                           
  2752 ;; *************** function _TMR3_ISR *****************
  2753 ;; Defined at:
  2754 ;;		line 137 in file "MCAL_Layer/Timer/Timer3/hal_timer3.c"
  2755 ;; Parameters:    Size  Location     Type
  2756 ;;		None
  2757 ;; Auto vars:     Size  Location     Type
  2758 ;;		None
  2759 ;; Return value:  Size  Location     Type
  2760 ;;                  1    wreg      void 
  2761 ;; Registers used:
  2762 ;;		wreg, status,2, status,0, pcl, pclath, pclatu, tosl, cstack
  2763 ;; Tracked objects:
  2764 ;;		On entry : 0/0
  2765 ;;		On exit  : 0/0
  2766 ;;		Unchanged: 0/0
  2767 ;; Data sizes:     COMRAM   BANK0   BANK1   BANK2   BANK3   BANK4   BANK5   BANK6   BANK7   BANK8   BANK9  BANK10  BANK1
      +1  BANK12  BANK13  BANK14  BANK15
  2768 ;;      Params:         0       0       0       0       0       0       0       0       0       0       0       0       
      +0       0       0       0       0
  2769 ;;      Locals:         0       0       0       0       0       0       0       0       0       0       0       0       
      +0       0       0       0       0
  2770 ;;      Temps:          0       0       0       0       0       0       0       0       0       0       0       0       
      +0       0       0       0       0
  2771 ;;      Totals:         0       0       0       0       0       0       0       0       0       0       0       0       
      +0       0       0       0       0
  2772 ;;Total ram usage:        0 bytes
  2773 ;; Hardware stack levels used: 1
  2774 ;; Hardware stack levels required when called: 6
  2775 ;; This function calls:
  2776 ;;		NULL
  2777 ;;		_timer3_interruptHundler
  2778 ;; This function is called by:
  2779 ;;		_InterruptCheck
  2780 ;; This function uses a non-reentrant model
  2781 ;;
  2782                           
  2783                           	psect	text14
  2784   001E44                     __ptext14:
  2785                           	callstack 0
  2786   001E44                     _TMR3_ISR:
  2787                           	callstack 18
  2788   001E44                     
  2789                           ;MCAL_Layer/Timer/Timer3/hal_timer3.c: 138:     (PIR2bits.TMR3IF = 0);
  2790   001E44  92A1               	bcf	161,1,c	;volatile
  2791   001E46                     
  2792                           ;MCAL_Layer/Timer/Timer3/hal_timer3.c: 139:     TMR3H = timer3_preload >>8;
  2793   001E46  500A               	movf	(_timer3_preload+1)^0,w,c
  2794   001E48  6EB3               	movwf	179,c	;volatile
  2795   001E4A                     
  2796                           ;MCAL_Layer/Timer/Timer3/hal_timer3.c: 140:     TMR3L = (uint8)timer3_preload;
  2797   001E4A  C009  FFB2         	movff	_timer3_preload,4018	;volatile
  2798   001E4E                     
  2799                           ;MCAL_Layer/Timer/Timer3/hal_timer3.c: 141:     if(TMR3_InterruptHandler){
  2800   001E4E  500B               	movf	_TMR3_InterruptHandler^0,w,c
  2801   001E50  100C               	iorwf	(_TMR3_InterruptHandler+1)^0,w,c
  2802   001E52  B4D8               	btfsc	status,2,c
  2803   001E54  EF2E  F00F         	goto	i1u421_21
  2804   001E58  EF30  F00F         	goto	i1u421_20
  2805   001E5C                     i1u421_21:
  2806   001E5C  EF3C  F00F         	goto	i1l1222
  2807   001E60                     i1u421_20:
  2808   001E60                     
  2809                           ;MCAL_Layer/Timer/Timer3/hal_timer3.c: 142:         TMR3_InterruptHandler();
  2810   001E60  D802               	call	i1u422_28
  2811   001E62  EF3C  F00F         	goto	i1u422_29
  2812   001E66                     i1u422_28:
  2813   001E66  0005               	push	
  2814   001E68  6EFA               	movwf	pclath,c
  2815   001E6A  500B               	movf	_TMR3_InterruptHandler^0,w,c
  2816   001E6C  6EFD               	movwf	tosl,c
  2817   001E6E  500C               	movf	(_TMR3_InterruptHandler+1)^0,w,c
  2818   001E70  6EFE               	movwf	tosh,c
  2819   001E72  6AFF               	clrf	tosu,c
  2820   001E74  50FA               	movf	pclath,w,c
  2821   001E76  0012               	return		;indir
  2822   001E78                     i1u422_29:
  2823   001E78                     i1l1222:
  2824   001E78  0012               	return		;funcret
  2825   001E7A                     __end_of_TMR3_ISR:
  2826                           	callstack 0
  2827                           
  2828 ;; *************** function _timer3_interruptHundler *****************
  2829 ;; Defined at:
  2830 ;;		line 163 in file "application.c"
  2831 ;; Parameters:    Size  Location     Type
  2832 ;;		None
  2833 ;; Auto vars:     Size  Location     Type
  2834 ;;		None
  2835 ;; Return value:  Size  Location     Type
  2836 ;;                  1    wreg      void 
  2837 ;; Registers used:
  2838 ;;		wreg, status,2, status,0
  2839 ;; Tracked objects:
  2840 ;;		On entry : 0/0
  2841 ;;		On exit  : 0/0
  2842 ;;		Unchanged: 0/0
  2843 ;; Data sizes:     COMRAM   BANK0   BANK1   BANK2   BANK3   BANK4   BANK5   BANK6   BANK7   BANK8   BANK9  BANK10  BANK1
      +1  BANK12  BANK13  BANK14  BANK15
  2844 ;;      Params:         0       0       0       0       0       0       0       0       0       0       0       0       
      +0       0       0       0       0
  2845 ;;      Locals:         0       0       0       0       0       0       0       0       0       0       0       0       
      +0       0       0       0       0
  2846 ;;      Temps:          0       0       0       0       0       0       0       0       0       0       0       0       
      +0       0       0       0       0
  2847 ;;      Totals:         0       0       0       0       0       0       0       0       0       0       0       0       
      +0       0       0       0       0
  2848 ;;Total ram usage:        0 bytes
  2849 ;; Hardware stack levels used: 1
  2850 ;; Hardware stack levels required when called: 5
  2851 ;; This function calls:
  2852 ;;		Nothing
  2853 ;; This function is called by:
  2854 ;;		_TMR3_ISR
  2855 ;;		i2_TMR3_ISR
  2856 ;; This function uses a non-reentrant model
  2857 ;;
  2858                           
  2859                           	psect	text15
  2860   0021EC                     __ptext15:
  2861                           	callstack 0
  2862   0021EC                     _timer3_interruptHundler:
  2863                           	callstack 0
  2864                           
  2865                           ;Skip over the trampoline to the duplicate function for level 2
  2866   0021EC  A26B               	btfss	int$flags,1,c
  2867   0021EE  EFFB  F010         	goto	_timer3_interruptHundler$intlevel1
  2868   0021F2  EF82  F011         	goto	i2_timer3_interruptHundler
  2869   0021F6                     _timer3_interruptHundler$intlevel1:
  2870                           	callstack 18
  2871   0021F6                     
  2872                           ;application.c: 164:     timer3_overflow++;
  2873   0021F6  0E01               	movlw	1
  2874   0021F8  0100               	movlb	0	; () banked
  2875   0021FA  27E8               	addwf	_timer3_overflow& (0+255),f,b	;volatile
  2876   0021FC  0E00               	movlw	0
  2877   0021FE  23E9               	addwfc	(_timer3_overflow+1)& (0+255),f,b	;volatile
  2878   002200  23EA               	addwfc	(_timer3_overflow+2)& (0+255),f,b	;volatile
  2879   002202  23EB               	addwfc	(_timer3_overflow+3)& (0+255),f,b	;volatile
  2880   002204                     
  2881                           ; BSR set to: 0
  2882   002204  0012               	return		;funcret
  2883   002206                     __end_of_timer3_interruptHundler:
  2884                           	callstack 0
  2885                           
  2886 ;; *************** function _TMR2_ISR *****************
  2887 ;; Defined at:
  2888 ;;		line 123 in file "MCAL_Layer/Timer/Timer2/hal_timer2.c"
  2889 ;; Parameters:    Size  Location     Type
  2890 ;;		None
  2891 ;; Auto vars:     Size  Location     Type
  2892 ;;		None
  2893 ;; Return value:  Size  Location     Type
  2894 ;;                  1    wreg      void 
  2895 ;; Registers used:
  2896 ;;		None
  2897 ;; Tracked objects:
  2898 ;;		On entry : 0/0
  2899 ;;		On exit  : 0/0
  2900 ;;		Unchanged: 0/0
  2901 ;; Data sizes:     COMRAM   BANK0   BANK1   BANK2   BANK3   BANK4   BANK5   BANK6   BANK7   BANK8   BANK9  BANK10  BANK1
      +1  BANK12  BANK13  BANK14  BANK15
  2902 ;;      Params:         0       0       0       0       0       0       0       0       0       0       0       0       
      +0       0       0       0       0
  2903 ;;      Locals:         0       0       0       0       0       0       0       0       0       0       0       0       
      +0       0       0       0       0
  2904 ;;      Temps:          0       0       0       0       0       0       0       0       0       0       0       0       
      +0       0       0       0       0
  2905 ;;      Totals:         0       0       0       0       0       0       0       0       0       0       0       0       
      +0       0       0       0       0
  2906 ;;Total ram usage:        0 bytes
  2907 ;; Hardware stack levels used: 1
  2908 ;; Hardware stack levels required when called: 5
  2909 ;; This function calls:
  2910 ;;		Nothing
  2911 ;; This function is called by:
  2912 ;;		_InterruptCheck
  2913 ;; This function uses a non-reentrant model
  2914 ;;
  2915                           
  2916                           	psect	text16
  2917   00234C                     __ptext16:
  2918                           	callstack 0
  2919   00234C                     _TMR2_ISR:
  2920                           	callstack 19
  2921   00234C                     
  2922                           ;MCAL_Layer/Timer/Timer2/hal_timer2.c: 124:     (PIR1bits.TMR2IF = 0);
  2923   00234C  929E               	bcf	158,1,c	;volatile
  2924                           
  2925                           ;MCAL_Layer/Timer/Timer2/hal_timer2.c: 125:     TMR2 = timer2_preload;
  2926   00234E  C036  FFCC         	movff	_timer2_preload,4044	;volatile
  2927   002352  0012               	return		;funcret
  2928   002354                     __end_of_TMR2_ISR:
  2929                           	callstack 0
  2930                           
  2931 ;; *************** function _TMR1_ISR *****************
  2932 ;; Defined at:
  2933 ;;		line 137 in file "MCAL_Layer/Timer/Timer1/hal_timer1.c"
  2934 ;; Parameters:    Size  Location     Type
  2935 ;;		None
  2936 ;; Auto vars:     Size  Location     Type
  2937 ;;		None
  2938 ;; Return value:  Size  Location     Type
  2939 ;;                  1    wreg      void 
  2940 ;; Registers used:
  2941 ;;		wreg, status,2
  2942 ;; Tracked objects:
  2943 ;;		On entry : 0/0
  2944 ;;		On exit  : 0/0
  2945 ;;		Unchanged: 0/0
  2946 ;; Data sizes:     COMRAM   BANK0   BANK1   BANK2   BANK3   BANK4   BANK5   BANK6   BANK7   BANK8   BANK9  BANK10  BANK1
      +1  BANK12  BANK13  BANK14  BANK15
  2947 ;;      Params:         0       0       0       0       0       0       0       0       0       0       0       0       
      +0       0       0       0       0
  2948 ;;      Locals:         0       0       0       0       0       0       0       0       0       0       0       0       
      +0       0       0       0       0
  2949 ;;      Temps:          0       0       0       0       0       0       0       0       0       0       0       0       
      +0       0       0       0       0
  2950 ;;      Totals:         0       0       0       0       0       0       0       0       0       0       0       0       
      +0       0       0       0       0
  2951 ;;Total ram usage:        0 bytes
  2952 ;; Hardware stack levels used: 1
  2953 ;; Hardware stack levels required when called: 5
  2954 ;; This function calls:
  2955 ;;		Nothing
  2956 ;; This function is called by:
  2957 ;;		_InterruptCheck
  2958 ;; This function uses a non-reentrant model
  2959 ;;
  2960                           
  2961                           	psect	text17
  2962   002334                     __ptext17:
  2963                           	callstack 0
  2964   002334                     _TMR1_ISR:
  2965                           	callstack 19
  2966   002334                     
  2967                           ;MCAL_Layer/Timer/Timer1/hal_timer1.c: 138:     (PIR1bits.TMR1IF = 0);
  2968   002334  909E               	bcf	158,0,c	;volatile
  2969   002336                     
  2970                           ;MCAL_Layer/Timer/Timer1/hal_timer1.c: 139:     TMR1H = timer1_preload >>8;
  2971   002336  5010               	movf	(_timer1_preload+1)^0,w,c
  2972   002338  6ECF               	movwf	207,c	;volatile
  2973   00233A                     
  2974                           ;MCAL_Layer/Timer/Timer1/hal_timer1.c: 140:     TMR1L = (uint8)timer1_preload;
  2975   00233A  C00F  FFCE         	movff	_timer1_preload,4046	;volatile
  2976   00233E  0012               	return		;funcret
  2977   002340                     __end_of_TMR1_ISR:
  2978                           	callstack 0
  2979                           
  2980 ;; *************** function _RB7_ISR *****************
  2981 ;; Defined at:
  2982 ;;		line 605 in file "MCAL_Layer/Interrupt/mcal_external_interrupt.c"
  2983 ;; Parameters:    Size  Location     Type
  2984 ;;  RB7_Source      1    wreg     unsigned char 
  2985 ;; Auto vars:     Size  Location     Type
  2986 ;;  RB7_Source      1   12[COMRAM] unsigned char 
  2987 ;; Return value:  Size  Location     Type
  2988 ;;                  1    wreg      void 
  2989 ;; Registers used:
  2990 ;;		wreg, status,2, status,0
  2991 ;; Tracked objects:
  2992 ;;		On entry : 0/0
  2993 ;;		On exit  : 0/0
  2994 ;;		Unchanged: 0/0
  2995 ;; Data sizes:     COMRAM   BANK0   BANK1   BANK2   BANK3   BANK4   BANK5   BANK6   BANK7   BANK8   BANK9  BANK10  BANK1
      +1  BANK12  BANK13  BANK14  BANK15
  2996 ;;      Params:         0       0       0       0       0       0       0       0       0       0       0       0       
      +0       0       0       0       0
  2997 ;;      Locals:         1       0       0       0       0       0       0       0       0       0       0       0       
      +0       0       0       0       0
  2998 ;;      Temps:          0       0       0       0       0       0       0       0       0       0       0       0       
      +0       0       0       0       0
  2999 ;;      Totals:         1       0       0       0       0       0       0       0       0       0       0       0       
      +0       0       0       0       0
  3000 ;;Total ram usage:        1 bytes
  3001 ;; Hardware stack levels used: 1
  3002 ;; Hardware stack levels required when called: 5
  3003 ;; This function calls:
  3004 ;;		Nothing
  3005 ;; This function is called by:
  3006 ;;		_InterruptCheck
  3007 ;; This function uses a non-reentrant model
  3008 ;;
  3009                           
  3010                           	psect	text18
  3011   002206                     __ptext18:
  3012                           	callstack 0
  3013   002206                     _RB7_ISR:
  3014                           	callstack 19
  3015                           
  3016                           ;incstack = 0
  3017                           ;RB7_ISR@RB7_Source stored from wreg
  3018   002206  6E4D               	movwf	RB7_ISR@RB7_Source^0,c
  3019   002208                     
  3020                           ;MCAL_Layer/Interrupt/mcal_external_interrupt.c: 607:     (INTCONbits.RBIF = 0);
  3021   002208  90F2               	bcf	242,0,c	;volatile
  3022   00220A                     
  3023                           ;MCAL_Layer/Interrupt/mcal_external_interrupt.c: 611:     if(0 == RB7_Source){
  3024   00220A  504D               	movf	RB7_ISR@RB7_Source^0,w,c
  3025   00220C  A4D8               	btfss	status,2,c
  3026   00220E  EF0B  F011         	goto	i1u44_21
  3027   002212  EF0D  F011         	goto	i1u44_20
  3028   002216                     i1u44_21:
  3029   002216  EF0F  F011         	goto	i1l2660
  3030   00221A                     i1u44_20:
  3031   00221A  EF0F  F011         	goto	i1l978
  3032   00221E                     i1l2660:
  3033   00221E                     i1l978:
  3034   00221E  0012               	return		;funcret
  3035   002220                     __end_of_RB7_ISR:
  3036                           	callstack 0
  3037                           
  3038 ;; *************** function _RB6_ISR *****************
  3039 ;; Defined at:
  3040 ;;		line 587 in file "MCAL_Layer/Interrupt/mcal_external_interrupt.c"
  3041 ;; Parameters:    Size  Location     Type
  3042 ;;  RB6_Source      1    wreg     unsigned char 
  3043 ;; Auto vars:     Size  Location     Type
  3044 ;;  RB6_Source      1   12[COMRAM] unsigned char 
  3045 ;; Return value:  Size  Location     Type
  3046 ;;                  1    wreg      void 
  3047 ;; Registers used:
  3048 ;;		wreg, status,2, status,0
  3049 ;; Tracked objects:
  3050 ;;		On entry : 0/0
  3051 ;;		On exit  : 0/0
  3052 ;;		Unchanged: 0/0
  3053 ;; Data sizes:     COMRAM   BANK0   BANK1   BANK2   BANK3   BANK4   BANK5   BANK6   BANK7   BANK8   BANK9  BANK10  BANK1
      +1  BANK12  BANK13  BANK14  BANK15
  3054 ;;      Params:         0       0       0       0       0       0       0       0       0       0       0       0       
      +0       0       0       0       0
  3055 ;;      Locals:         1       0       0       0       0       0       0       0       0       0       0       0       
      +0       0       0       0       0
  3056 ;;      Temps:          0       0       0       0       0       0       0       0       0       0       0       0       
      +0       0       0       0       0
  3057 ;;      Totals:         1       0       0       0       0       0       0       0       0       0       0       0       
      +0       0       0       0       0
  3058 ;;Total ram usage:        1 bytes
  3059 ;; Hardware stack levels used: 1
  3060 ;; Hardware stack levels required when called: 5
  3061 ;; This function calls:
  3062 ;;		Nothing
  3063 ;; This function is called by:
  3064 ;;		_InterruptCheck
  3065 ;; This function uses a non-reentrant model
  3066 ;;
  3067                           
  3068                           	psect	text19
  3069   002220                     __ptext19:
  3070                           	callstack 0
  3071   002220                     _RB6_ISR:
  3072                           	callstack 19
  3073                           
  3074                           ;incstack = 0
  3075                           ;RB6_ISR@RB6_Source stored from wreg
  3076   002220  6E4D               	movwf	RB6_ISR@RB6_Source^0,c
  3077   002222                     
  3078                           ;MCAL_Layer/Interrupt/mcal_external_interrupt.c: 589:     (INTCONbits.RBIF = 0);
  3079   002222  90F2               	bcf	242,0,c	;volatile
  3080   002224                     
  3081                           ;MCAL_Layer/Interrupt/mcal_external_interrupt.c: 593:     if(0 == RB6_Source){
  3082   002224  504D               	movf	RB6_ISR@RB6_Source^0,w,c
  3083   002226  A4D8               	btfss	status,2,c
  3084   002228  EF18  F011         	goto	i1u43_21
  3085   00222C  EF1A  F011         	goto	i1u43_20
  3086   002230                     i1u43_21:
  3087   002230  EF1C  F011         	goto	i1l2646
  3088   002234                     i1u43_20:
  3089   002234  EF1C  F011         	goto	i1l967
  3090   002238                     i1l2646:
  3091   002238                     i1l967:
  3092   002238  0012               	return		;funcret
  3093   00223A                     __end_of_RB6_ISR:
  3094                           	callstack 0
  3095                           
  3096 ;; *************** function _RB5_ISR *****************
  3097 ;; Defined at:
  3098 ;;		line 569 in file "MCAL_Layer/Interrupt/mcal_external_interrupt.c"
  3099 ;; Parameters:    Size  Location     Type
  3100 ;;  RB5_Source      1    wreg     unsigned char 
  3101 ;; Auto vars:     Size  Location     Type
  3102 ;;  RB5_Source      1   12[COMRAM] unsigned char 
  3103 ;; Return value:  Size  Location     Type
  3104 ;;                  1    wreg      void 
  3105 ;; Registers used:
  3106 ;;		wreg, status,2, status,0
  3107 ;; Tracked objects:
  3108 ;;		On entry : 0/0
  3109 ;;		On exit  : 0/0
  3110 ;;		Unchanged: 0/0
  3111 ;; Data sizes:     COMRAM   BANK0   BANK1   BANK2   BANK3   BANK4   BANK5   BANK6   BANK7   BANK8   BANK9  BANK10  BANK1
      +1  BANK12  BANK13  BANK14  BANK15
  3112 ;;      Params:         0       0       0       0       0       0       0       0       0       0       0       0       
      +0       0       0       0       0
  3113 ;;      Locals:         1       0       0       0       0       0       0       0       0       0       0       0       
      +0       0       0       0       0
  3114 ;;      Temps:          0       0       0       0       0       0       0       0       0       0       0       0       
      +0       0       0       0       0
  3115 ;;      Totals:         1       0       0       0       0       0       0       0       0       0       0       0       
      +0       0       0       0       0
  3116 ;;Total ram usage:        1 bytes
  3117 ;; Hardware stack levels used: 1
  3118 ;; Hardware stack levels required when called: 5
  3119 ;; This function calls:
  3120 ;;		Nothing
  3121 ;; This function is called by:
  3122 ;;		_InterruptCheck
  3123 ;; This function uses a non-reentrant model
  3124 ;;
  3125                           
  3126                           	psect	text20
  3127   00223A                     __ptext20:
  3128                           	callstack 0
  3129   00223A                     _RB5_ISR:
  3130                           	callstack 19
  3131                           
  3132                           ;incstack = 0
  3133                           ;RB5_ISR@RB5_Source stored from wreg
  3134   00223A  6E4D               	movwf	RB5_ISR@RB5_Source^0,c
  3135   00223C                     
  3136                           ;MCAL_Layer/Interrupt/mcal_external_interrupt.c: 571:     (INTCONbits.RBIF = 0);
  3137   00223C  90F2               	bcf	242,0,c	;volatile
  3138   00223E                     
  3139                           ;MCAL_Layer/Interrupt/mcal_external_interrupt.c: 575:     if(0 == RB5_Source){
  3140   00223E  504D               	movf	RB5_ISR@RB5_Source^0,w,c
  3141   002240  A4D8               	btfss	status,2,c
  3142   002242  EF25  F011         	goto	i1u42_21
  3143   002246  EF27  F011         	goto	i1u42_20
  3144   00224A                     i1u42_21:
  3145   00224A  EF29  F011         	goto	i1l2632
  3146   00224E                     i1u42_20:
  3147   00224E  EF29  F011         	goto	i1l956
  3148   002252                     i1l2632:
  3149   002252                     i1l956:
  3150   002252  0012               	return		;funcret
  3151   002254                     __end_of_RB5_ISR:
  3152                           	callstack 0
  3153                           
  3154 ;; *************** function _RB4_ISR *****************
  3155 ;; Defined at:
  3156 ;;		line 551 in file "MCAL_Layer/Interrupt/mcal_external_interrupt.c"
  3157 ;; Parameters:    Size  Location     Type
  3158 ;;  RB4_Source      1    wreg     unsigned char 
  3159 ;; Auto vars:     Size  Location     Type
  3160 ;;  RB4_Source      1   12[COMRAM] unsigned char 
  3161 ;; Return value:  Size  Location     Type
  3162 ;;                  1    wreg      void 
  3163 ;; Registers used:
  3164 ;;		wreg, status,2, status,0
  3165 ;; Tracked objects:
  3166 ;;		On entry : 0/0
  3167 ;;		On exit  : 0/0
  3168 ;;		Unchanged: 0/0
  3169 ;; Data sizes:     COMRAM   BANK0   BANK1   BANK2   BANK3   BANK4   BANK5   BANK6   BANK7   BANK8   BANK9  BANK10  BANK1
      +1  BANK12  BANK13  BANK14  BANK15
  3170 ;;      Params:         0       0       0       0       0       0       0       0       0       0       0       0       
      +0       0       0       0       0
  3171 ;;      Locals:         1       0       0       0       0       0       0       0       0       0       0       0       
      +0       0       0       0       0
  3172 ;;      Temps:          0       0       0       0       0       0       0       0       0       0       0       0       
      +0       0       0       0       0
  3173 ;;      Totals:         1       0       0       0       0       0       0       0       0       0       0       0       
      +0       0       0       0       0
  3174 ;;Total ram usage:        1 bytes
  3175 ;; Hardware stack levels used: 1
  3176 ;; Hardware stack levels required when called: 5
  3177 ;; This function calls:
  3178 ;;		Nothing
  3179 ;; This function is called by:
  3180 ;;		_InterruptCheck
  3181 ;; This function uses a non-reentrant model
  3182 ;;
  3183                           
  3184                           	psect	text21
  3185   002254                     __ptext21:
  3186                           	callstack 0
  3187   002254                     _RB4_ISR:
  3188                           	callstack 19
  3189                           
  3190                           ;incstack = 0
  3191                           ;RB4_ISR@RB4_Source stored from wreg
  3192   002254  6E4D               	movwf	RB4_ISR@RB4_Source^0,c
  3193   002256                     
  3194                           ;MCAL_Layer/Interrupt/mcal_external_interrupt.c: 553:     (INTCONbits.RBIF = 0);
  3195   002256  90F2               	bcf	242,0,c	;volatile
  3196   002258                     
  3197                           ;MCAL_Layer/Interrupt/mcal_external_interrupt.c: 557:     if(0 == RB4_Source){
  3198   002258  504D               	movf	RB4_ISR@RB4_Source^0,w,c
  3199   00225A  A4D8               	btfss	status,2,c
  3200   00225C  EF32  F011         	goto	i1u41_21
  3201   002260  EF34  F011         	goto	i1u41_20
  3202   002264                     i1u41_21:
  3203   002264  EF36  F011         	goto	i1l2618
  3204   002268                     i1u41_20:
  3205   002268  EF36  F011         	goto	i1l945
  3206   00226C                     i1l2618:
  3207   00226C                     i1l945:
  3208   00226C  0012               	return		;funcret
  3209   00226E                     __end_of_RB4_ISR:
  3210                           	callstack 0
  3211                           
  3212 ;; *************** function _INT2_ISR *****************
  3213 ;; Defined at:
  3214 ;;		line 540 in file "MCAL_Layer/Interrupt/mcal_external_interrupt.c"
  3215 ;; Parameters:    Size  Location     Type
  3216 ;;		None
  3217 ;; Auto vars:     Size  Location     Type
  3218 ;;		None
  3219 ;; Return value:  Size  Location     Type
  3220 ;;                  1    wreg      void 
  3221 ;; Registers used:
  3222 ;;		None
  3223 ;; Tracked objects:
  3224 ;;		On entry : 0/0
  3225 ;;		On exit  : 0/0
  3226 ;;		Unchanged: 0/0
  3227 ;; Data sizes:     COMRAM   BANK0   BANK1   BANK2   BANK3   BANK4   BANK5   BANK6   BANK7   BANK8   BANK9  BANK10  BANK1
      +1  BANK12  BANK13  BANK14  BANK15
  3228 ;;      Params:         0       0       0       0       0       0       0       0       0       0       0       0       
      +0       0       0       0       0
  3229 ;;      Locals:         0       0       0       0       0       0       0       0       0       0       0       0       
      +0       0       0       0       0
  3230 ;;      Temps:          0       0       0       0       0       0       0       0       0       0       0       0       
      +0       0       0       0       0
  3231 ;;      Totals:         0       0       0       0       0       0       0       0       0       0       0       0       
      +0       0       0       0       0
  3232 ;;Total ram usage:        0 bytes
  3233 ;; Hardware stack levels used: 1
  3234 ;; Hardware stack levels required when called: 5
  3235 ;; This function calls:
  3236 ;;		Nothing
  3237 ;; This function is called by:
  3238 ;;		_InterruptCheck
  3239 ;; This function uses a non-reentrant model
  3240 ;;
  3241                           
  3242                           	psect	text22
  3243   00235C                     __ptext22:
  3244                           	callstack 0
  3245   00235C                     _INT2_ISR:
  3246                           	callstack 19
  3247   00235C                     
  3248                           ;MCAL_Layer/Interrupt/mcal_external_interrupt.c: 542:     (INTCON3bits.INT2IF = 0);
  3249   00235C  92F0               	bcf	240,1,c	;volatile
  3250   00235E  0012               	return		;funcret
  3251   002360                     __end_of_INT2_ISR:
  3252                           	callstack 0
  3253                           
  3254 ;; *************** function _INT1_ISR *****************
  3255 ;; Defined at:
  3256 ;;		line 530 in file "MCAL_Layer/Interrupt/mcal_external_interrupt.c"
  3257 ;; Parameters:    Size  Location     Type
  3258 ;;		None
  3259 ;; Auto vars:     Size  Location     Type
  3260 ;;		None
  3261 ;; Return value:  Size  Location     Type
  3262 ;;                  1    wreg      void 
  3263 ;; Registers used:
  3264 ;;		None
  3265 ;; Tracked objects:
  3266 ;;		On entry : 0/0
  3267 ;;		On exit  : 0/0
  3268 ;;		Unchanged: 0/0
  3269 ;; Data sizes:     COMRAM   BANK0   BANK1   BANK2   BANK3   BANK4   BANK5   BANK6   BANK7   BANK8   BANK9  BANK10  BANK1
      +1  BANK12  BANK13  BANK14  BANK15
  3270 ;;      Params:         0       0       0       0       0       0       0       0       0       0       0       0       
      +0       0       0       0       0
  3271 ;;      Locals:         0       0       0       0       0       0       0       0       0       0       0       0       
      +0       0       0       0       0
  3272 ;;      Temps:          0       0       0       0       0       0       0       0       0       0       0       0       
      +0       0       0       0       0
  3273 ;;      Totals:         0       0       0       0       0       0       0       0       0       0       0       0       
      +0       0       0       0       0
  3274 ;;Total ram usage:        0 bytes
  3275 ;; Hardware stack levels used: 1
  3276 ;; Hardware stack levels required when called: 5
  3277 ;; This function calls:
  3278 ;;		Nothing
  3279 ;; This function is called by:
  3280 ;;		_InterruptCheck
  3281 ;; This function uses a non-reentrant model
  3282 ;;
  3283                           
  3284                           	psect	text23
  3285   002360                     __ptext23:
  3286                           	callstack 0
  3287   002360                     _INT1_ISR:
  3288                           	callstack 19
  3289   002360                     
  3290                           ;MCAL_Layer/Interrupt/mcal_external_interrupt.c: 532:     (INTCON3bits.INT1IF = 0);
  3291   002360  90F0               	bcf	240,0,c	;volatile
  3292   002362  0012               	return		;funcret
  3293   002364                     __end_of_INT1_ISR:
  3294                           	callstack 0
  3295                           
  3296 ;; *************** function _INT0_ISR *****************
  3297 ;; Defined at:
  3298 ;;		line 520 in file "MCAL_Layer/Interrupt/mcal_external_interrupt.c"
  3299 ;; Parameters:    Size  Location     Type
  3300 ;;		None
  3301 ;; Auto vars:     Size  Location     Type
  3302 ;;		None
  3303 ;; Return value:  Size  Location     Type
  3304 ;;                  1    wreg      void 
  3305 ;; Registers used:
  3306 ;;		None
  3307 ;; Tracked objects:
  3308 ;;		On entry : 0/0
  3309 ;;		On exit  : 0/0
  3310 ;;		Unchanged: 0/0
  3311 ;; Data sizes:     COMRAM   BANK0   BANK1   BANK2   BANK3   BANK4   BANK5   BANK6   BANK7   BANK8   BANK9  BANK10  BANK1
      +1  BANK12  BANK13  BANK14  BANK15
  3312 ;;      Params:         0       0       0       0       0       0       0       0       0       0       0       0       
      +0       0       0       0       0
  3313 ;;      Locals:         0       0       0       0       0       0       0       0       0       0       0       0       
      +0       0       0       0       0
  3314 ;;      Temps:          0       0       0       0       0       0       0       0       0       0       0       0       
      +0       0       0       0       0
  3315 ;;      Totals:         0       0       0       0       0       0       0       0       0       0       0       0       
      +0       0       0       0       0
  3316 ;;Total ram usage:        0 bytes
  3317 ;; Hardware stack levels used: 1
  3318 ;; Hardware stack levels required when called: 5
  3319 ;; This function calls:
  3320 ;;		Nothing
  3321 ;; This function is called by:
  3322 ;;		_InterruptCheck
  3323 ;; This function uses a non-reentrant model
  3324 ;;
  3325                           
  3326                           	psect	text24
  3327   002364                     __ptext24:
  3328                           	callstack 0
  3329   002364                     _INT0_ISR:
  3330                           	callstack 19
  3331   002364                     
  3332                           ;MCAL_Layer/Interrupt/mcal_external_interrupt.c: 522:     (INTCONbits.INT0IF = 0);
  3333   002364  92F2               	bcf	242,1,c	;volatile
  3334   002366  0012               	return		;funcret
  3335   002368                     __end_of_INT0_ISR:
  3336                           	callstack 0
  3337                           
  3338 ;; *************** function _EUSART_TX_ISR *****************
  3339 ;; Defined at:
  3340 ;;		line 228 in file "MCAL_Layer/USART/hal_usart.c"
  3341 ;; Parameters:    Size  Location     Type
  3342 ;;		None
  3343 ;; Auto vars:     Size  Location     Type
  3344 ;;		None
  3345 ;; Return value:  Size  Location     Type
  3346 ;;                  1    wreg      void 
  3347 ;; Registers used:
  3348 ;;		wreg, status,2, status,0, pcl, pclath, pclatu, tosl, cstack
  3349 ;; Tracked objects:
  3350 ;;		On entry : 0/0
  3351 ;;		On exit  : 0/0
  3352 ;;		Unchanged: 0/0
  3353 ;; Data sizes:     COMRAM   BANK0   BANK1   BANK2   BANK3   BANK4   BANK5   BANK6   BANK7   BANK8   BANK9  BANK10  BANK1
      +1  BANK12  BANK13  BANK14  BANK15
  3354 ;;      Params:         0       0       0       0       0       0       0       0       0       0       0       0       
      +0       0       0       0       0
  3355 ;;      Locals:         0       0       0       0       0       0       0       0       0       0       0       0       
      +0       0       0       0       0
  3356 ;;      Temps:          0       0       0       0       0       0       0       0       0       0       0       0       
      +0       0       0       0       0
  3357 ;;      Totals:         0       0       0       0       0       0       0       0       0       0       0       0       
      +0       0       0       0       0
  3358 ;;Total ram usage:        0 bytes
  3359 ;; Hardware stack levels used: 1
  3360 ;; Hardware stack levels required when called: 6
  3361 ;; This function calls:
  3362 ;;		NULL
  3363 ;;		_EUSART_Tx_InterruptHandler
  3364 ;; This function is called by:
  3365 ;;		_InterruptCheck
  3366 ;; This function uses a non-reentrant model
  3367 ;;
  3368                           
  3369                           	psect	text25
  3370   001FDE                     __ptext25:
  3371                           	callstack 0
  3372   001FDE                     _EUSART_TX_ISR:
  3373                           	callstack 18
  3374   001FDE                     
  3375                           ;MCAL_Layer/USART/hal_usart.c: 229:     (PIE1bits.TXIE = 0);
  3376   001FDE  989D               	bcf	157,4,c	;volatile
  3377   001FE0                     
  3378                           ;MCAL_Layer/USART/hal_usart.c: 230:     if(EUSART_Tx_InterruptHandler){
  3379   001FE0  5007               	movf	_EUSART_Tx_InterruptHandler@hal_usart$F3612^0,w,c
  3380   001FE2  1008               	iorwf	(_EUSART_Tx_InterruptHandler@hal_usart$F3612+1)^0,w,c
  3381   001FE4  B4D8               	btfsc	status,2,c
  3382   001FE6  EFF7  F00F         	goto	i1u423_21
  3383   001FEA  EFF9  F00F         	goto	i1u423_20
  3384   001FEE                     i1u423_21:
  3385   001FEE  EF05  F010         	goto	i1l1346
  3386   001FF2                     i1u423_20:
  3387   001FF2                     
  3388                           ;MCAL_Layer/USART/hal_usart.c: 231:         EUSART_Tx_InterruptHandler();
  3389   001FF2  D802               	call	i1u424_28
  3390   001FF4  EF05  F010         	goto	i1u424_29
  3391   001FF8                     i1u424_28:
  3392   001FF8  0005               	push	
  3393   001FFA  6EFA               	movwf	pclath,c
  3394   001FFC  5007               	movf	_EUSART_Tx_InterruptHandler@hal_usart$F3612^0,w,c
  3395   001FFE  6EFD               	movwf	tosl,c
  3396   002000  5008               	movf	(_EUSART_Tx_InterruptHandler@hal_usart$F3612+1)^0,w,c
  3397   002002  6EFE               	movwf	tosh,c
  3398   002004  6AFF               	clrf	tosu,c
  3399   002006  50FA               	movf	pclath,w,c
  3400   002008  0012               	return		;indir
  3401   00200A                     i1u424_29:
  3402   00200A                     i1l1346:
  3403   00200A  0012               	return		;funcret
  3404   00200C                     __end_of_EUSART_TX_ISR:
  3405                           	callstack 0
  3406                           
  3407 ;; *************** function _EUSART_Tx_InterruptHandler *****************
  3408 ;; Defined at:
  3409 ;;		line 181 in file "application.c"
  3410 ;; Parameters:    Size  Location     Type
  3411 ;;		None
  3412 ;; Auto vars:     Size  Location     Type
  3413 ;;		None
  3414 ;; Return value:  Size  Location     Type
  3415 ;;                  1    wreg      void 
  3416 ;; Registers used:
  3417 ;;		wreg, status,2, status,0
  3418 ;; Tracked objects:
  3419 ;;		On entry : 0/0
  3420 ;;		On exit  : 0/0
  3421 ;;		Unchanged: 0/0
  3422 ;; Data sizes:     COMRAM   BANK0   BANK1   BANK2   BANK3   BANK4   BANK5   BANK6   BANK7   BANK8   BANK9  BANK10  BANK1
      +1  BANK12  BANK13  BANK14  BANK15
  3423 ;;      Params:         0       0       0       0       0       0       0       0       0       0       0       0       
      +0       0       0       0       0
  3424 ;;      Locals:         0       0       0       0       0       0       0       0       0       0       0       0       
      +0       0       0       0       0
  3425 ;;      Temps:          0       0       0       0       0       0       0       0       0       0       0       0       
      +0       0       0       0       0
  3426 ;;      Totals:         0       0       0       0       0       0       0       0       0       0       0       0       
      +0       0       0       0       0
  3427 ;;Total ram usage:        0 bytes
  3428 ;; Hardware stack levels used: 1
  3429 ;; Hardware stack levels required when called: 5
  3430 ;; This function calls:
  3431 ;;		Nothing
  3432 ;; This function is called by:
  3433 ;;		_EUSART_TX_ISR
  3434 ;;		i2_EUSART_TX_ISR
  3435 ;; This function uses a non-reentrant model
  3436 ;;
  3437                           
  3438                           	psect	text26
  3439   00226E                     __ptext26:
  3440                           	callstack 0
  3441   00226E                     _EUSART_Tx_InterruptHandler:
  3442                           	callstack 0
  3443                           
  3444                           ;Skip over the trampoline to the duplicate function for level 2
  3445   00226E  A26B               	btfss	int$flags,1,c
  3446   002270  EF3C  F011         	goto	_EUSART_Tx_InterruptHandler$intlevel1
  3447   002274  EF8A  F011         	goto	i2_EUSART_Tx_InterruptHandler
  3448   002278                     _EUSART_Tx_InterruptHandler$intlevel1:
  3449                           	callstack 18
  3450   002278                     
  3451                           ;application.c: 182:     usart_tx_valid++;
  3452   002278  0E01               	movlw	1
  3453   00227A  0100               	movlb	0	; () banked
  3454   00227C  27E0               	addwf	_usart_tx_valid& (0+255),f,b	;volatile
  3455   00227E  0E00               	movlw	0
  3456   002280  23E1               	addwfc	(_usart_tx_valid+1)& (0+255),f,b	;volatile
  3457   002282  23E2               	addwfc	(_usart_tx_valid+2)& (0+255),f,b	;volatile
  3458   002284  23E3               	addwfc	(_usart_tx_valid+3)& (0+255),f,b	;volatile
  3459   002286                     
  3460                           ; BSR set to: 0
  3461   002286  0012               	return		;funcret
  3462   002288                     __end_of_EUSART_Tx_InterruptHandler:
  3463                           	callstack 0
  3464                           
  3465 ;; *************** function _EUSART_RX_ISR *****************
  3466 ;; Defined at:
  3467 ;;		line 236 in file "MCAL_Layer/USART/hal_usart.c"
  3468 ;; Parameters:    Size  Location     Type
  3469 ;;		None
  3470 ;; Auto vars:     Size  Location     Type
  3471 ;;		None
  3472 ;; Return value:  Size  Location     Type
  3473 ;;                  1    wreg      void 
  3474 ;; Registers used:
  3475 ;;		wreg, fsr2l, fsr2h, status,2, status,0, pcl, pclath, pclatu, tosl, cstack
  3476 ;; Tracked objects:
  3477 ;;		On entry : 0/0
  3478 ;;		On exit  : 0/0
  3479 ;;		Unchanged: 0/0
  3480 ;; Data sizes:     COMRAM   BANK0   BANK1   BANK2   BANK3   BANK4   BANK5   BANK6   BANK7   BANK8   BANK9  BANK10  BANK1
      +1  BANK12  BANK13  BANK14  BANK15
  3481 ;;      Params:         0       0       0       0       0       0       0       0       0       0       0       0       
      +0       0       0       0       0
  3482 ;;      Locals:         0       0       0       0       0       0       0       0       0       0       0       0       
      +0       0       0       0       0
  3483 ;;      Temps:          0       0       0       0       0       0       0       0       0       0       0       0       
      +0       0       0       0       0
  3484 ;;      Totals:         0       0       0       0       0       0       0       0       0       0       0       0       
      +0       0       0       0       0
  3485 ;;Total ram usage:        0 bytes
  3486 ;; Hardware stack levels used: 1
  3487 ;; Hardware stack levels required when called: 7
  3488 ;; This function calls:
  3489 ;;		NULL
  3490 ;;		_EUSART_Rx_InterruptHandler
  3491 ;; This function is called by:
  3492 ;;		_InterruptCheck
  3493 ;; This function uses a non-reentrant model
  3494 ;;
  3495                           
  3496                           	psect	text27
  3497   001F7E                     __ptext27:
  3498                           	callstack 0
  3499   001F7E                     _EUSART_RX_ISR:
  3500                           	callstack 17
  3501   001F7E                     
  3502                           ;MCAL_Layer/USART/hal_usart.c: 238:     if(EUSART_Rx_InterruptHandler){
  3503   001F7E  5005               	movf	_EUSART_Rx_InterruptHandler@hal_usart$F3613^0,w,c
  3504   001F80  1006               	iorwf	(_EUSART_Rx_InterruptHandler@hal_usart$F3613+1)^0,w,c
  3505   001F82  B4D8               	btfsc	status,2,c
  3506   001F84  EFC6  F00F         	goto	i1u425_21
  3507   001F88  EFC8  F00F         	goto	i1u425_20
  3508   001F8C                     i1u425_21:
  3509   001F8C  EFD6  F00F         	goto	i1l5292
  3510   001F90                     i1u425_20:
  3511   001F90                     
  3512                           ;MCAL_Layer/USART/hal_usart.c: 239:         EUSART_Rx_InterruptHandler();
  3513   001F90  D802               	call	i1u426_28
  3514   001F92  EFD4  F00F         	goto	i1u426_29
  3515   001F96                     i1u426_28:
  3516   001F96  0005               	push	
  3517   001F98  6EFA               	movwf	pclath,c
  3518   001F9A  5005               	movf	_EUSART_Rx_InterruptHandler@hal_usart$F3613^0,w,c
  3519   001F9C  6EFD               	movwf	tosl,c
  3520   001F9E  5006               	movf	(_EUSART_Rx_InterruptHandler@hal_usart$F3613+1)^0,w,c
  3521   001FA0  6EFE               	movwf	tosh,c
  3522   001FA2  6AFF               	clrf	tosu,c
  3523   001FA4  50FA               	movf	pclath,w,c
  3524   001FA6  0012               	return		;indir
  3525   001FA8                     i1u426_29:
  3526                           
  3527                           ;MCAL_Layer/USART/hal_usart.c: 240:     }else{ }
  3528   001FA8  EFD6  F00F         	goto	i1l1355
  3529   001FAC                     i1l5292:
  3530   001FAC                     i1l1355:
  3531   001FAC  0012               	return		;funcret
  3532   001FAE                     __end_of_EUSART_RX_ISR:
  3533                           	callstack 0
  3534                           
  3535 ;; *************** function _EUSART_Rx_InterruptHandler *****************
  3536 ;; Defined at:
  3537 ;;		line 184 in file "application.c"
  3538 ;; Parameters:    Size  Location     Type
  3539 ;;		None
  3540 ;; Auto vars:     Size  Location     Type
  3541 ;;		None
  3542 ;; Return value:  Size  Location     Type
  3543 ;;                  1    wreg      void 
  3544 ;; Registers used:
  3545 ;;		wreg, fsr2l, fsr2h, status,2, status,0, cstack
  3546 ;; Tracked objects:
  3547 ;;		On entry : 0/0
  3548 ;;		On exit  : 0/0
  3549 ;;		Unchanged: 0/0
  3550 ;; Data sizes:     COMRAM   BANK0   BANK1   BANK2   BANK3   BANK4   BANK5   BANK6   BANK7   BANK8   BANK9  BANK10  BANK1
      +1  BANK12  BANK13  BANK14  BANK15
  3551 ;;      Params:         0       0       0       0       0       0       0       0       0       0       0       0       
      +0       0       0       0       0
  3552 ;;      Locals:         0       0       0       0       0       0       0       0       0       0       0       0       
      +0       0       0       0       0
  3553 ;;      Temps:          0       0       0       0       0       0       0       0       0       0       0       0       
      +0       0       0       0       0
  3554 ;;      Totals:         0       0       0       0       0       0       0       0       0       0       0       0       
      +0       0       0       0       0
  3555 ;;Total ram usage:        0 bytes
  3556 ;; Hardware stack levels used: 1
  3557 ;; Hardware stack levels required when called: 6
  3558 ;; This function calls:
  3559 ;;		_EUSART_ASYNC_ReadByteNonBlocking
  3560 ;; This function is called by:
  3561 ;;		_EUSART_RX_ISR
  3562 ;;		i2_EUSART_RX_ISR
  3563 ;; This function uses a non-reentrant model
  3564 ;;
  3565                           
  3566                           	psect	text28
  3567   0020EA                     __ptext28:
  3568                           	callstack 0
  3569   0020EA                     _EUSART_Rx_InterruptHandler:
  3570                           	callstack 0
  3571                           
  3572                           ;Skip over the trampoline to the duplicate function for level 2
  3573   0020EA  A26B               	btfss	int$flags,1,c
  3574   0020EC  EF7A  F010         	goto	_EUSART_Rx_InterruptHandler$intlevel1
  3575   0020F0  EFE8  F010         	goto	i2_EUSART_Rx_InterruptHandler
  3576   0020F4                     _EUSART_Rx_InterruptHandler$intlevel1:
  3577                           	callstack 17
  3578   0020F4                     
  3579                           ;application.c: 185:     usart_rx_valid++;
  3580   0020F4  0E01               	movlw	1
  3581   0020F6  0100               	movlb	0	; () banked
  3582   0020F8  27E4               	addwf	_usart_rx_valid& (0+255),f,b	;volatile
  3583   0020FA  0E00               	movlw	0
  3584   0020FC  23E5               	addwfc	(_usart_rx_valid+1)& (0+255),f,b	;volatile
  3585   0020FE  23E6               	addwfc	(_usart_rx_valid+2)& (0+255),f,b	;volatile
  3586   002100  23E7               	addwfc	(_usart_rx_valid+3)& (0+255),f,b	;volatile
  3587   002102                     
  3588                           ; BSR set to: 0
  3589                           ;application.c: 186:     EUSART_ASYNC_ReadByteNonBlocking(&rec_uart_data);
  3590   002102  0E3F               	movlw	low _rec_uart_data
  3591   002104  6E4D               	movwf	EUSART_ASYNC_ReadByteNonBlocking@_data^0,c
  3592   002106  0E00               	movlw	high _rec_uart_data
  3593   002108  6E4E               	movwf	(EUSART_ASYNC_ReadByteNonBlocking@_data+1)^0,c
  3594   00210A  EC8D  F00F         	call	_EUSART_ASYNC_ReadByteNonBlocking	;wreg free
  3595   00210E  0012               	return		;funcret
  3596   002110                     __end_of_EUSART_Rx_InterruptHandler:
  3597                           	callstack 0
  3598                           
  3599 ;; *************** function _EUSART_ASYNC_ReadByteNonBlocking *****************
  3600 ;; Defined at:
  3601 ;;		line 78 in file "MCAL_Layer/USART/hal_usart.c"
  3602 ;; Parameters:    Size  Location     Type
  3603 ;;  _data           2   12[COMRAM] PTR unsigned char 
  3604 ;;		 -> rec_uart_data(1), 
  3605 ;; Auto vars:     Size  Location     Type
  3606 ;;  ret             1    0        unsigned char 
  3607 ;; Return value:  Size  Location     Type
  3608 ;;                  1    wreg      unsigned char 
  3609 ;; Registers used:
  3610 ;;		wreg, fsr2l, fsr2h, status,2, status,0
  3611 ;; Tracked objects:
  3612 ;;		On entry : 0/0
  3613 ;;		On exit  : 0/0
  3614 ;;		Unchanged: 0/0
  3615 ;; Data sizes:     COMRAM   BANK0   BANK1   BANK2   BANK3   BANK4   BANK5   BANK6   BANK7   BANK8   BANK9  BANK10  BANK1
      +1  BANK12  BANK13  BANK14  BANK15
  3616 ;;      Params:         2       0       0       0       0       0       0       0       0       0       0       0       
      +0       0       0       0       0
  3617 ;;      Locals:         0       0       0       0       0       0       0       0       0       0       0       0       
      +0       0       0       0       0
  3618 ;;      Temps:          0       0       0       0       0       0       0       0       0       0       0       0       
      +0       0       0       0       0
  3619 ;;      Totals:         2       0       0       0       0       0       0       0       0       0       0       0       
      +0       0       0       0       0
  3620 ;;Total ram usage:        2 bytes
  3621 ;; Hardware stack levels used: 1
  3622 ;; Hardware stack levels required when called: 5
  3623 ;; This function calls:
  3624 ;;		Nothing
  3625 ;; This function is called by:
  3626 ;;		_EUSART_Rx_InterruptHandler
  3627 ;; This function uses a non-reentrant model
  3628 ;;
  3629                           
  3630                           	psect	text29
  3631   001F1A                     __ptext29:
  3632                           	callstack 0
  3633   001F1A                     _EUSART_ASYNC_ReadByteNonBlocking:
  3634                           	callstack 17
  3635   001F1A                     
  3636                           ;MCAL_Layer/USART/hal_usart.c: 80:     if(((void*)0) == _data){
  3637   001F1A  504D               	movf	EUSART_ASYNC_ReadByteNonBlocking@_data^0,w,c
  3638   001F1C  104E               	iorwf	(EUSART_ASYNC_ReadByteNonBlocking@_data+1)^0,w,c
  3639   001F1E  A4D8               	btfss	status,2,c
  3640   001F20  EF94  F00F         	goto	i1u394_21
  3641   001F24  EF96  F00F         	goto	i1u394_20
  3642   001F28                     i1u394_21:
  3643   001F28  EF98  F00F         	goto	i1l1294
  3644   001F2C                     i1u394_20:
  3645   001F2C                     i1l5012:
  3646                           
  3647                           ;MCAL_Layer/USART/hal_usart.c: 82:     }else{
  3648   001F2C  EFA5  F00F         	goto	i1l1298
  3649   001F30                     i1l1294:
  3650                           
  3651                           ;MCAL_Layer/USART/hal_usart.c: 83:         if(PIR1bits.RCIF)
  3652   001F30  AA9E               	btfss	158,5,c	;volatile
  3653   001F32  EF9D  F00F         	goto	i1u395_21
  3654   001F36  EF9F  F00F         	goto	i1u395_20
  3655   001F3A                     i1u395_21:
  3656   001F3A  EF96  F00F         	goto	i1l5012
  3657   001F3E                     i1u395_20:
  3658   001F3E                     
  3659                           ;MCAL_Layer/USART/hal_usart.c: 84:         {;MCAL_Layer/USART/hal_usart.c: 85:          
      +                             *_data = RCREG ;
  3660   001F3E  C04D  FFD9         	movff	EUSART_ASYNC_ReadByteNonBlocking@_data,fsr2l
  3661   001F42  C04E  FFDA         	movff	EUSART_ASYNC_ReadByteNonBlocking@_data+1,fsr2h
  3662   001F46  CFAE FFDF          	movff	4014,indf2	;volatile
  3663   001F4A                     i1l1298:
  3664   001F4A  0012               	return		;funcret
  3665   001F4C                     __end_of_EUSART_ASYNC_ReadByteNonBlocking:
  3666                           	callstack 0
  3667                           
  3668 ;; *************** function _CCP1_ISR *****************
  3669 ;; Defined at:
  3670 ;;		line 200 in file "MCAL_Layer/CCP/CCP1/hal_ccp1.c"
  3671 ;; Parameters:    Size  Location     Type
  3672 ;;		None
  3673 ;; Auto vars:     Size  Location     Type
  3674 ;;		None
  3675 ;; Return value:  Size  Location     Type
  3676 ;;                  1    wreg      void 
  3677 ;; Registers used:
  3678 ;;		wreg, fsr2l, fsr2h, status,2, status,0, pcl, pclath, pclatu, tosl, cstack
  3679 ;; Tracked objects:
  3680 ;;		On entry : 0/0
  3681 ;;		On exit  : 0/0
  3682 ;;		Unchanged: 0/0
  3683 ;; Data sizes:     COMRAM   BANK0   BANK1   BANK2   BANK3   BANK4   BANK5   BANK6   BANK7   BANK8   BANK9  BANK10  BANK1
      +1  BANK12  BANK13  BANK14  BANK15
  3684 ;;      Params:         0       0       0       0       0       0       0       0       0       0       0       0       
      +0       0       0       0       0
  3685 ;;      Locals:         0       0       0       0       0       0       0       0       0       0       0       0       
      +0       0       0       0       0
  3686 ;;      Temps:          0       0       0       0       0       0       0       0       0       0       0       0       
      +0       0       0       0       0
  3687 ;;      Totals:         0       0       0       0       0       0       0       0       0       0       0       0       
      +0       0       0       0       0
  3688 ;;Total ram usage:        0 bytes
  3689 ;; Hardware stack levels used: 1
  3690 ;; Hardware stack levels required when called: 7
  3691 ;; This function calls:
  3692 ;;		NULL
  3693 ;;		_CCP1_interruptHundler
  3694 ;; This function is called by:
  3695 ;;		_InterruptCheck
  3696 ;; This function uses a non-reentrant model
  3697 ;;
  3698                           
  3699                           	psect	text30
  3700   00200C                     __ptext30:
  3701                           	callstack 0
  3702   00200C                     _CCP1_ISR:
  3703                           	callstack 17
  3704   00200C                     
  3705                           ;MCAL_Layer/CCP/CCP1/hal_ccp1.c: 201:     (PIR1bits.CCP1IF = 0);
  3706   00200C  949E               	bcf	158,2,c	;volatile
  3707   00200E                     
  3708                           ;MCAL_Layer/CCP/CCP1/hal_ccp1.c: 203:     if(CCP1_InterruptHandler){
  3709   00200E  502F               	movf	_CCP1_InterruptHandler^0,w,c
  3710   002010  1030               	iorwf	(_CCP1_InterruptHandler+1)^0,w,c
  3711   002012  B4D8               	btfsc	status,2,c
  3712   002014  EF0E  F010         	goto	i1u417_21
  3713   002018  EF10  F010         	goto	i1u417_20
  3714   00201C                     i1u417_21:
  3715   00201C  EF1C  F010         	goto	i1l458
  3716   002020                     i1u417_20:
  3717   002020                     
  3718                           ;MCAL_Layer/CCP/CCP1/hal_ccp1.c: 204:         CCP1_InterruptHandler();
  3719   002020  D802               	call	i1u418_28
  3720   002022  EF1C  F010         	goto	i1u418_29
  3721   002026                     i1u418_28:
  3722   002026  0005               	push	
  3723   002028  6EFA               	movwf	pclath,c
  3724   00202A  502F               	movf	_CCP1_InterruptHandler^0,w,c
  3725   00202C  6EFD               	movwf	tosl,c
  3726   00202E  5030               	movf	(_CCP1_InterruptHandler+1)^0,w,c
  3727   002030  6EFE               	movwf	tosh,c
  3728   002032  6AFF               	clrf	tosu,c
  3729   002034  50FA               	movf	pclath,w,c
  3730   002036  0012               	return		;indir
  3731   002038                     i1u418_29:
  3732   002038                     i1l458:
  3733   002038  0012               	return		;funcret
  3734   00203A                     __end_of_CCP1_ISR:
  3735                           	callstack 0
  3736                           
  3737 ;; *************** function _CCP1_interruptHundler *****************
  3738 ;; Defined at:
  3739 ;;		line 166 in file "application.c"
  3740 ;; Parameters:    Size  Location     Type
  3741 ;;		None
  3742 ;; Auto vars:     Size  Location     Type
  3743 ;;		None
  3744 ;; Return value:  Size  Location     Type
  3745 ;;                  1    wreg      void 
  3746 ;; Registers used:
  3747 ;;		wreg, fsr2l, fsr2h, status,2, status,0, cstack
  3748 ;; Tracked objects:
  3749 ;;		On entry : 0/0
  3750 ;;		On exit  : 0/0
  3751 ;;		Unchanged: 0/0
  3752 ;; Data sizes:     COMRAM   BANK0   BANK1   BANK2   BANK3   BANK4   BANK5   BANK6   BANK7   BANK8   BANK9  BANK10  BANK1
      +1  BANK12  BANK13  BANK14  BANK15
  3753 ;;      Params:         0       0       0       0       0       0       0       0       0       0       0       0       
      +0       0       0       0       0
  3754 ;;      Locals:         0       0       0       0       0       0       0       0       0       0       0       0       
      +0       0       0       0       0
  3755 ;;      Temps:          0       0       0       0       0       0       0       0       0       0       0       0       
      +0       0       0       0       0
  3756 ;;      Totals:         0       0       0       0       0       0       0       0       0       0       0       0       
      +0       0       0       0       0
  3757 ;;Total ram usage:        0 bytes
  3758 ;; Hardware stack levels used: 1
  3759 ;; Hardware stack levels required when called: 6
  3760 ;; This function calls:
  3761 ;;		_CCP1_Capture_Mode_Read_Value
  3762 ;;		_Timer3_Write_value
  3763 ;; This function is called by:
  3764 ;;		_CCP1_ISR
  3765 ;;		i2_CCP1_ISR
  3766 ;; This function uses a non-reentrant model
  3767 ;;
  3768                           
  3769                           	psect	text31
  3770   001B2C                     __ptext31:
  3771                           	callstack 0
  3772   001B2C                     _CCP1_interruptHundler:
  3773                           	callstack 0
  3774                           
  3775                           ;Skip over the trampoline to the duplicate function for level 2
  3776   001B2C  A26B               	btfss	int$flags,1,c
  3777   001B2E  EF9B  F00D         	goto	_CCP1_interruptHundler$intlevel1
  3778   001B32  EFCC  F00D         	goto	i2_CCP1_interruptHundler
  3779   001B36                     _CCP1_interruptHundler$intlevel1:
  3780                           	callstack 17
  3781   001B36                     
  3782                           ;application.c: 167:     CCP1_Interrupt_flag++;
  3783   001B36  2A34               	incf	_CCP1_Interrupt_flag^0,f,c	;volatile
  3784                           
  3785                           ;application.c: 168:     CCP1_Interrupt_flag_2++;
  3786   001B38  2A33               	incf	_CCP1_Interrupt_flag_2^0,f,c	;volatile
  3787   001B3A                     
  3788                           ;application.c: 169:     if(CCP1_Interrupt_flag == 1){
  3789   001B3A  0434               	decf	_CCP1_Interrupt_flag^0,w,c	;volatile
  3790   001B3C  A4D8               	btfss	status,2,c
  3791   001B3E  EFA3  F00D         	goto	i1u404_21
  3792   001B42  EFA5  F00D         	goto	i1u404_20
  3793   001B46                     i1u404_21:
  3794   001B46  EFBA  F00D         	goto	i1l5114
  3795   001B4A                     i1u404_20:
  3796   001B4A                     
  3797                           ;application.c: 170:         Timer3_Write_value(&timer3,0);
  3798   001B4A  0EC1               	movlw	low _timer3
  3799   001B4C  6E4D               	movwf	Timer3_Write_value@_timer^0,c
  3800   001B4E  0E00               	movlw	high _timer3
  3801   001B50  6E4E               	movwf	(Timer3_Write_value@_timer+1)^0,c
  3802   001B52  0E00               	movlw	0
  3803   001B54  6E50               	movwf	(Timer3_Write_value@_value+1)^0,c
  3804   001B56  0E00               	movlw	0
  3805   001B58  6E4F               	movwf	Timer3_Write_value@_value^0,c
  3806   001B5A  ECA9  F010         	call	_Timer3_Write_value	;wreg free
  3807   001B5E                     
  3808                           ;application.c: 171:         timer3_overflow = 0;
  3809   001B5E  0E00               	movlw	0
  3810   001B60  0100               	movlb	0	; () banked
  3811   001B62  6FE8               	movwf	_timer3_overflow& (0+255),b	;volatile
  3812   001B64  0E00               	movlw	0
  3813   001B66  6FE9               	movwf	(_timer3_overflow+1)& (0+255),b	;volatile
  3814   001B68  0E00               	movlw	0
  3815   001B6A  6FEA               	movwf	(_timer3_overflow+2)& (0+255),b	;volatile
  3816   001B6C  0E00               	movlw	0
  3817   001B6E  6FEB               	movwf	(_timer3_overflow+3)& (0+255),b	;volatile
  3818                           
  3819                           ;application.c: 172:     }
  3820   001B70  EFCB  F00D         	goto	i1l1458
  3821   001B74                     i1l5114:
  3822   001B74  0E02               	movlw	2
  3823   001B76  1834               	xorwf	_CCP1_Interrupt_flag^0,w,c	;volatile
  3824   001B78  A4D8               	btfss	status,2,c
  3825   001B7A  EFC1  F00D         	goto	i1u405_21
  3826   001B7E  EFC3  F00D         	goto	i1u405_20
  3827   001B82                     i1u405_21:
  3828   001B82  EFCB  F00D         	goto	i1l1458
  3829   001B86                     i1u405_20:
  3830   001B86                     
  3831                           ;application.c: 175:         CCP1_Interrupt_flag = 0;
  3832   001B86  0E00               	movlw	0
  3833   001B88  6E34               	movwf	_CCP1_Interrupt_flag^0,c	;volatile
  3834   001B8A                     
  3835                           ;application.c: 176:         CCP1_Capture_Mode_Read_Value(&ccp1_capature_value);
  3836   001B8A  0E3B               	movlw	low _ccp1_capature_value
  3837   001B8C  6E4D               	movwf	CCP1_Capture_Mode_Read_Value@_capture_value^0,c
  3838   001B8E  0E00               	movlw	high _ccp1_capature_value
  3839   001B90  6E4E               	movwf	(CCP1_Capture_Mode_Read_Value@_capture_value+1)^0,c
  3840   001B92  ECCF  F00E         	call	_CCP1_Capture_Mode_Read_Value	;wreg free
  3841   001B96                     i1l1458:
  3842   001B96  0012               	return		;funcret
  3843   001B98                     __end_of_CCP1_interruptHundler:
  3844                           	callstack 0
  3845                           
  3846 ;; *************** function _Timer3_Write_value *****************
  3847 ;; Defined at:
  3848 ;;		line 95 in file "MCAL_Layer/Timer/Timer3/hal_timer3.c"
  3849 ;; Parameters:    Size  Location     Type
  3850 ;;  _timer          2   12[COMRAM] PTR const struct .
  3851 ;;		 -> timer3(6), 
  3852 ;;  _value          2   14[COMRAM] unsigned short 
  3853 ;; Auto vars:     Size  Location     Type
  3854 ;;  ret             1    0        unsigned char 
  3855 ;; Return value:  Size  Location     Type
  3856 ;;                  1    wreg      unsigned char 
  3857 ;; Registers used:
  3858 ;;		wreg, status,2, status,0
  3859 ;; Tracked objects:
  3860 ;;		On entry : 0/0
  3861 ;;		On exit  : 0/0
  3862 ;;		Unchanged: 0/0
  3863 ;; Data sizes:     COMRAM   BANK0   BANK1   BANK2   BANK3   BANK4   BANK5   BANK6   BANK7   BANK8   BANK9  BANK10  BANK1
      +1  BANK12  BANK13  BANK14  BANK15
  3864 ;;      Params:         4       0       0       0       0       0       0       0       0       0       0       0       
      +0       0       0       0       0
  3865 ;;      Locals:         0       0       0       0       0       0       0       0       0       0       0       0       
      +0       0       0       0       0
  3866 ;;      Temps:          0       0       0       0       0       0       0       0       0       0       0       0       
      +0       0       0       0       0
  3867 ;;      Totals:         4       0       0       0       0       0       0       0       0       0       0       0       
      +0       0       0       0       0
  3868 ;;Total ram usage:        4 bytes
  3869 ;; Hardware stack levels used: 1
  3870 ;; Hardware stack levels required when called: 5
  3871 ;; This function calls:
  3872 ;;		Nothing
  3873 ;; This function is called by:
  3874 ;;		_CCP1_interruptHundler
  3875 ;; This function uses a non-reentrant model
  3876 ;;
  3877                           
  3878                           	psect	text32
  3879   002152                     __ptext32:
  3880                           	callstack 0
  3881   002152                     _Timer3_Write_value:
  3882                           	callstack 17
  3883   002152                     
  3884                           ;MCAL_Layer/Timer/Timer3/hal_timer3.c: 97:     if(((void*)0) == _timer){
  3885   002152  504D               	movf	Timer3_Write_value@_timer^0,w,c
  3886   002154  104E               	iorwf	(Timer3_Write_value@_timer+1)^0,w,c
  3887   002156  A4D8               	btfss	status,2,c
  3888   002158  EFB0  F010         	goto	i1u393_21
  3889   00215C  EFB2  F010         	goto	i1u393_20
  3890   002160                     i1u393_21:
  3891   002160  EFB4  F010         	goto	i1l5002
  3892   002164                     i1u393_20:
  3893   002164                     
  3894                           ;MCAL_Layer/Timer/Timer3/hal_timer3.c: 99:     }
  3895   002164  EFB8  F010         	goto	i1l1211
  3896   002168                     i1l5002:
  3897                           
  3898                           ;MCAL_Layer/Timer/Timer3/hal_timer3.c: 101:     {;MCAL_Layer/Timer/Timer3/hal_timer3.c: 
      +                          102:         TMR3H = (_value) >>8;
  3899   002168  5050               	movf	(Timer3_Write_value@_value+1)^0,w,c
  3900   00216A  6EB3               	movwf	179,c	;volatile
  3901   00216C                     
  3902                           ;MCAL_Layer/Timer/Timer3/hal_timer3.c: 103:         TMR3L = (uint8)(_value);
  3903   00216C  C04F  FFB2         	movff	Timer3_Write_value@_value,4018	;volatile
  3904   002170                     i1l1211:
  3905   002170  0012               	return		;funcret
  3906   002172                     __end_of_Timer3_Write_value:
  3907                           	callstack 0
  3908                           
  3909 ;; *************** function _CCP1_Capture_Mode_Read_Value *****************
  3910 ;; Defined at:
  3911 ;;		line 108 in file "MCAL_Layer/CCP/CCP1/hal_ccp1.c"
  3912 ;; Parameters:    Size  Location     Type
  3913 ;;  _capture_val    2   12[COMRAM] PTR unsigned short 
  3914 ;;		 -> ccp1_capature_value(4), 
  3915 ;; Auto vars:     Size  Location     Type
  3916 ;;  compare_temp    2   14[COMRAM] struct .
  3917 ;;  ret             1    0        unsigned char 
  3918 ;; Return value:  Size  Location     Type
  3919 ;;                  1    wreg      unsigned char 
  3920 ;; Registers used:
  3921 ;;		wreg, fsr2l, fsr2h, status,2, status,0
  3922 ;; Tracked objects:
  3923 ;;		On entry : 0/0
  3924 ;;		On exit  : 0/0
  3925 ;;		Unchanged: 0/0
  3926 ;; Data sizes:     COMRAM   BANK0   BANK1   BANK2   BANK3   BANK4   BANK5   BANK6   BANK7   BANK8   BANK9  BANK10  BANK1
      +1  BANK12  BANK13  BANK14  BANK15
  3927 ;;      Params:         2       0       0       0       0       0       0       0       0       0       0       0       
      +0       0       0       0       0
  3928 ;;      Locals:         2       0       0       0       0       0       0       0       0       0       0       0       
      +0       0       0       0       0
  3929 ;;      Temps:          0       0       0       0       0       0       0       0       0       0       0       0       
      +0       0       0       0       0
  3930 ;;      Totals:         4       0       0       0       0       0       0       0       0       0       0       0       
      +0       0       0       0       0
  3931 ;;Total ram usage:        4 bytes
  3932 ;; Hardware stack levels used: 1
  3933 ;; Hardware stack levels required when called: 5
  3934 ;; This function calls:
  3935 ;;		Nothing
  3936 ;; This function is called by:
  3937 ;;		_CCP1_interruptHundler
  3938 ;; This function uses a non-reentrant model
  3939 ;;
  3940                           
  3941                           	psect	text33
  3942   001D9E                     __ptext33:
  3943                           	callstack 0
  3944   001D9E                     _CCP1_Capture_Mode_Read_Value:
  3945                           	callstack 17
  3946   001D9E                     
  3947                           ;MCAL_Layer/CCP/CCP1/hal_ccp1.c: 110:     CCP1_REG_T compare_temp_value = {.ccpr1_16Bit 
      +                          = 0};
  3948   001D9E  C02D  F04F         	movff	CCP1_Capture_Mode_Read_Value@F3086,CCP1_Capture_Mode_Read_Value@compare_temp_valu
      +                          e
  3949   001DA2  C02E  F050         	movff	CCP1_Capture_Mode_Read_Value@F3086+1,CCP1_Capture_Mode_Read_Value@compare_temp_va
      +                          lue+1
  3950   001DA6                     
  3951                           ;MCAL_Layer/CCP/CCP1/hal_ccp1.c: 111:     if(((void*)0) == _capture_value){
  3952   001DA6  504D               	movf	CCP1_Capture_Mode_Read_Value@_capture_value^0,w,c
  3953   001DA8  104E               	iorwf	(CCP1_Capture_Mode_Read_Value@_capture_value+1)^0,w,c
  3954   001DAA  A4D8               	btfss	status,2,c
  3955   001DAC  EFDA  F00E         	goto	i1u389_21
  3956   001DB0  EFDC  F00E         	goto	i1u389_20
  3957   001DB4                     i1u389_21:
  3958   001DB4  EFDE  F00E         	goto	i1l443
  3959   001DB8                     i1u389_20:
  3960   001DB8                     
  3961                           ;MCAL_Layer/CCP/CCP1/hal_ccp1.c: 113:     }
  3962   001DB8  EFEA  F00E         	goto	i1l445
  3963   001DBC                     i1l443:
  3964                           
  3965                           ;MCAL_Layer/CCP/CCP1/hal_ccp1.c: 115:     {;MCAL_Layer/CCP/CCP1/hal_ccp1.c: 116:        
      +                           compare_temp_value.ccpr1_low = CCPR1L;
  3966   001DBC  CFBE F04F          	movff	4030,CCP1_Capture_Mode_Read_Value@compare_temp_value	;volatile
  3967                           
  3968                           ;MCAL_Layer/CCP/CCP1/hal_ccp1.c: 117:         compare_temp_value.ccpr1_high = CCPR1H;
  3969   001DC0  CFBF F050          	movff	4031,CCP1_Capture_Mode_Read_Value@compare_temp_value+1	;volatile
  3970   001DC4                     
  3971                           ;MCAL_Layer/CCP/CCP1/hal_ccp1.c: 118:         *_capture_value = compare_temp_value.ccpr1
      +                          _16Bit;
  3972   001DC4  C04D  FFD9         	movff	CCP1_Capture_Mode_Read_Value@_capture_value,fsr2l
  3973   001DC8  C04E  FFDA         	movff	CCP1_Capture_Mode_Read_Value@_capture_value+1,fsr2h
  3974   001DCC  C04F  FFDE         	movff	CCP1_Capture_Mode_Read_Value@compare_temp_value,postinc2
  3975   001DD0  C050  FFDD         	movff	CCP1_Capture_Mode_Read_Value@compare_temp_value+1,postdec2
  3976   001DD4                     i1l445:
  3977   001DD4  0012               	return		;funcret
  3978   001DD6                     __end_of_CCP1_Capture_Mode_Read_Value:
  3979                           	callstack 0
  3980                           
  3981 ;; *************** function _ADC_ISR *****************
  3982 ;; Defined at:
  3983 ;;		line 348 in file "MCAL_Layer/ADC/hal_adc.c"
  3984 ;; Parameters:    Size  Location     Type
  3985 ;;		None
  3986 ;; Auto vars:     Size  Location     Type
  3987 ;;		None
  3988 ;; Return value:  Size  Location     Type
  3989 ;;                  1    wreg      void 
  3990 ;; Registers used:
  3991 ;;		None
  3992 ;; Tracked objects:
  3993 ;;		On entry : 0/0
  3994 ;;		On exit  : 0/0
  3995 ;;		Unchanged: 0/0
  3996 ;; Data sizes:     COMRAM   BANK0   BANK1   BANK2   BANK3   BANK4   BANK5   BANK6   BANK7   BANK8   BANK9  BANK10  BANK1
      +1  BANK12  BANK13  BANK14  BANK15
  3997 ;;      Params:         0       0       0       0       0       0       0       0       0       0       0       0       
      +0       0       0       0       0
  3998 ;;      Locals:         0       0       0       0       0       0       0       0       0       0       0       0       
      +0       0       0       0       0
  3999 ;;      Temps:          0       0       0       0       0       0       0       0       0       0       0       0       
      +0       0       0       0       0
  4000 ;;      Totals:         0       0       0       0       0       0       0       0       0       0       0       0       
      +0       0       0       0       0
  4001 ;;Total ram usage:        0 bytes
  4002 ;; Hardware stack levels used: 1
  4003 ;; Hardware stack levels required when called: 5
  4004 ;; This function calls:
  4005 ;;		Nothing
  4006 ;; This function is called by:
  4007 ;;		_InterruptCheck
  4008 ;; This function uses a non-reentrant model
  4009 ;;
  4010                           
  4011                           	psect	text34
  4012   002368                     __ptext34:
  4013                           	callstack 0
  4014   002368                     _ADC_ISR:
  4015                           	callstack 19
  4016   002368                     
  4017                           ;MCAL_Layer/ADC/hal_adc.c: 349:     (PIR1bits.ADIF = 0);
  4018   002368  9C9E               	bcf	158,6,c	;volatile
  4019   00236A  0012               	return		;funcret
  4020   00236C                     __end_of_ADC_ISR:
  4021                           	callstack 0
  4022                           
  4023 ;; *************** function _InterruptManagerHigh *****************
  4024 ;; Defined at:
  4025 ;;		line 16 in file "MCAL_Layer/Interrupt/mcal_interrupt_manager.c"
  4026 ;; Parameters:    Size  Location     Type
  4027 ;;		None
  4028 ;; Auto vars:     Size  Location     Type
  4029 ;;		None
  4030 ;; Return value:  Size  Location     Type
  4031 ;;                  1    wreg      void 
  4032 ;; Registers used:
  4033 ;;		wreg, fsr2l, fsr2h, status,2, status,0, pcl, pclath, pclatu, tosl, cstack
  4034 ;; Tracked objects:
  4035 ;;		On entry : 0/0
  4036 ;;		On exit  : 0/0
  4037 ;;		Unchanged: 0/0
  4038 ;; Data sizes:     COMRAM   BANK0   BANK1   BANK2   BANK3   BANK4   BANK5   BANK6   BANK7   BANK8   BANK9  BANK10  BANK1
      +1  BANK12  BANK13  BANK14  BANK15
  4039 ;;      Params:         0       0       0       0       0       0       0       0       0       0       0       0       
      +0       0       0       0       0
  4040 ;;      Locals:         0       0       0       0       0       0       0       0       0       0       0       0       
      +0       0       0       0       0
  4041 ;;      Temps:          4       0       0       0       0       0       0       0       0       0       0       0       
      +0       0       0       0       0
  4042 ;;      Totals:         4       0       0       0       0       0       0       0       0       0       0       0       
      +0       0       0       0       0
  4043 ;;Total ram usage:        4 bytes
  4044 ;; Hardware stack levels used: 1
  4045 ;; Hardware stack levels required when called: 4
  4046 ;; This function calls:
  4047 ;;		i2_InterruptCheck
  4048 ;; This function is called by:
  4049 ;;		Interrupt level 2
  4050 ;; This function uses a non-reentrant model
  4051 ;;
  4052                           
  4053                           	psect	intcode
  4054   000008                     __pintcode:
  4055                           	callstack 0
  4056   000008                     _InterruptManagerHigh:
  4057                           	callstack 17
  4058                           
  4059                           ;incstack = 0
  4060   000008  826B               	bsf	int$flags,1,c	;set compiler interrupt flag (level 2)
  4061   00000A  ED4B  F010         	call	int_func,f	;refresh shadow registers
  4062                           
  4063                           	psect	intcode_body
  4064   002096                     __pintcode_body:
  4065                           	callstack 17
  4066   002096                     int_func:
  4067                           	callstack 17
  4068   002096  0006               	pop		; remove dummy address from shadow register refresh
  4069   002098  CFFA F049          	movff	pclath,??_InterruptManagerHigh
  4070   00209C  CFFB F04A          	movff	pclatu,??_InterruptManagerHigh+1
  4071   0020A0  CFD9 F04B          	movff	fsr2l,??_InterruptManagerHigh+2
  4072   0020A4  CFDA F04C          	movff	fsr2h,??_InterruptManagerHigh+3
  4073   0020A8                     
  4074                           ;MCAL_Layer/Interrupt/mcal_interrupt_manager.c: 17:     InterruptCheck();
  4075   0020A8  ECC4  F009         	call	i2_InterruptCheck	;wreg free
  4076   0020AC  C04C  FFDA         	movff	??_InterruptManagerHigh+3,fsr2h
  4077   0020B0  C04B  FFD9         	movff	??_InterruptManagerHigh+2,fsr2l
  4078   0020B4  C04A  FFFB         	movff	??_InterruptManagerHigh+1,pclatu
  4079   0020B8  C049  FFFA         	movff	??_InterruptManagerHigh,pclath
  4080   0020BC  926B               	bcf	int$flags,1,c	;clear compiler interrupt flag (level 2)
  4081   0020BE  0011               	retfie		f
  4082   0020C0                     __end_of_InterruptManagerHigh:
  4083                           	callstack 0
  4084                           
  4085 ;; *************** function i2_InterruptCheck *****************
  4086 ;; Defined at:
  4087 ;;		line 31 in file "MCAL_Layer/Interrupt/mcal_interrupt_manager.c"
  4088 ;; Parameters:    Size  Location     Type
  4089 ;;		None
  4090 ;; Auto vars:     Size  Location     Type
  4091 ;;		None
  4092 ;; Return value:  Size  Location     Type
  4093 ;;                  1    wreg      void 
  4094 ;; Registers used:
  4095 ;;		wreg, fsr2l, fsr2h, status,2, status,0, pcl, pclath, pclatu, tosl, cstack
  4096 ;; Tracked objects:
  4097 ;;		On entry : 0/0
  4098 ;;		On exit  : 0/0
  4099 ;;		Unchanged: 0/0
  4100 ;; Data sizes:     COMRAM   BANK0   BANK1   BANK2   BANK3   BANK4   BANK5   BANK6   BANK7   BANK8   BANK9  BANK10  BANK1
      +1  BANK12  BANK13  BANK14  BANK15
  4101 ;;      Params:         0       0       0       0       0       0       0       0       0       0       0       0       
      +0       0       0       0       0
  4102 ;;      Locals:         0       0       0       0       0       0       0       0       0       0       0       0       
      +0       0       0       0       0
  4103 ;;      Temps:          0       0       0       0       0       0       0       0       0       0       0       0       
      +0       0       0       0       0
  4104 ;;      Totals:         0       0       0       0       0       0       0       0       0       0       0       0       
      +0       0       0       0       0
  4105 ;;Total ram usage:        0 bytes
  4106 ;; Hardware stack levels used: 1
  4107 ;; Hardware stack levels required when called: 3
  4108 ;; This function calls:
  4109 ;;		i2_ADC_ISR
  4110 ;;		i2_CCP1_ISR
  4111 ;;		i2_EUSART_RX_ISR
  4112 ;;		i2_EUSART_TX_ISR
  4113 ;;		i2_INT0_ISR
  4114 ;;		i2_INT1_ISR
  4115 ;;		i2_INT2_ISR
  4116 ;;		i2_RB4_ISR
  4117 ;;		i2_RB5_ISR
  4118 ;;		i2_RB6_ISR
  4119 ;;		i2_RB7_ISR
  4120 ;;		i2_TMR1_ISR
  4121 ;;		i2_TMR2_ISR
  4122 ;;		i2_TMR3_ISR
  4123 ;;		i2_TMRO_ISR
  4124 ;; This function is called by:
  4125 ;;		_InterruptManagerHigh
  4126 ;; This function uses a non-reentrant model
  4127 ;;
  4128                           
  4129                           	psect	text36
  4130   001388                     __ptext36:
  4131                           	callstack 0
  4132   001388                     i2_InterruptCheck:
  4133                           	callstack 17
  4134   001388                     
  4135                           ;MCAL_Layer/Interrupt/mcal_interrupt_manager.c: 33:     if((1 == INTCONbits.INT0IE)&&(1 
      +                          == INTCONbits.INT0IF)){
  4136   001388  A8F2               	btfss	242,4,c	;volatile
  4137   00138A  EFC9  F009         	goto	i2u504_41
  4138   00138E  EFCB  F009         	goto	i2u504_40
  4139   001392                     i2u504_41:
  4140   001392  EFD4  F009         	goto	i2l666
  4141   001396                     i2u504_40:
  4142   001396  A2F2               	btfss	242,1,c	;volatile
  4143   001398  EFD0  F009         	goto	i2u505_41
  4144   00139C  EFD2  F009         	goto	i2u505_40
  4145   0013A0                     i2u505_41:
  4146   0013A0  EFD4  F009         	goto	i2l666
  4147   0013A4                     i2u505_40:
  4148   0013A4                     
  4149                           ;MCAL_Layer/Interrupt/mcal_interrupt_manager.c: 34:         INT0_ISR();
  4150   0013A4  ECBA  F011         	call	i2_INT0_ISR	;wreg free
  4151   0013A8                     i2l666:
  4152                           
  4153                           ;MCAL_Layer/Interrupt/mcal_interrupt_manager.c: 38:     if((1 == INTCON3bits.INT1IE)&&(1
      +                           == INTCON3bits.INT1IF)){
  4154   0013A8  A6F0               	btfss	240,3,c	;volatile
  4155   0013AA  EFD9  F009         	goto	i2u506_41
  4156   0013AE  EFDB  F009         	goto	i2u506_40
  4157   0013B2                     i2u506_41:
  4158   0013B2  EFE4  F009         	goto	i2l668
  4159   0013B6                     i2u506_40:
  4160   0013B6  A0F0               	btfss	240,0,c	;volatile
  4161   0013B8  EFE0  F009         	goto	i2u507_41
  4162   0013BC  EFE2  F009         	goto	i2u507_40
  4163   0013C0                     i2u507_41:
  4164   0013C0  EFE4  F009         	goto	i2l668
  4165   0013C4                     i2u507_40:
  4166   0013C4                     
  4167                           ;MCAL_Layer/Interrupt/mcal_interrupt_manager.c: 39:         INT1_ISR();
  4168   0013C4  ECB8  F011         	call	i2_INT1_ISR	;wreg free
  4169   0013C8                     i2l668:
  4170                           
  4171                           ;MCAL_Layer/Interrupt/mcal_interrupt_manager.c: 43:     if((1 == INTCON3bits.INT2IE)&&(1
      +                           == INTCON3bits.INT2IF)){
  4172   0013C8  A8F0               	btfss	240,4,c	;volatile
  4173   0013CA  EFE9  F009         	goto	i2u508_41
  4174   0013CE  EFEB  F009         	goto	i2u508_40
  4175   0013D2                     i2u508_41:
  4176   0013D2  EFF4  F009         	goto	i2l670
  4177   0013D6                     i2u508_40:
  4178   0013D6  A2F0               	btfss	240,1,c	;volatile
  4179   0013D8  EFF0  F009         	goto	i2u509_41
  4180   0013DC  EFF2  F009         	goto	i2u509_40
  4181   0013E0                     i2u509_41:
  4182   0013E0  EFF4  F009         	goto	i2l670
  4183   0013E4                     i2u509_40:
  4184   0013E4                     
  4185                           ;MCAL_Layer/Interrupt/mcal_interrupt_manager.c: 44:         INT2_ISR();
  4186   0013E4  ECB6  F011         	call	i2_INT2_ISR	;wreg free
  4187   0013E8                     i2l670:
  4188                           
  4189                           ;MCAL_Layer/Interrupt/mcal_interrupt_manager.c: 49:     if((1 == INTCONbits.RBIE)&&(1 ==
      +                           INTCONbits.RBIF)&&(PORTBbits.RB4 == GPIO_HIGH) && (RB4_Flag ==1)){
  4190   0013E8  A6F2               	btfss	242,3,c	;volatile
  4191   0013EA  EFF9  F009         	goto	i2u510_41
  4192   0013EE  EFFB  F009         	goto	i2u510_40
  4193   0013F2                     i2u510_41:
  4194   0013F2  EF16  F00A         	goto	i2l672
  4195   0013F6                     i2u510_40:
  4196   0013F6  A0F2               	btfss	242,0,c	;volatile
  4197   0013F8  EF00  F00A         	goto	i2u511_41
  4198   0013FC  EF02  F00A         	goto	i2u511_40
  4199   001400                     i2u511_41:
  4200   001400  EF16  F00A         	goto	i2l672
  4201   001404                     i2u511_40:
  4202   001404  A881               	btfss	129,4,c	;volatile
  4203   001406  EF07  F00A         	goto	i2u512_41
  4204   00140A  EF09  F00A         	goto	i2u512_40
  4205   00140E                     i2u512_41:
  4206   00140E  EF16  F00A         	goto	i2l672
  4207   001412                     i2u512_40:
  4208   001412  0463               	decf	_RB4_Flag^0,w,c	;volatile
  4209   001414  A4D8               	btfss	status,2,c
  4210   001416  EF0F  F00A         	goto	i2u513_41
  4211   00141A  EF11  F00A         	goto	i2u513_40
  4212   00141E                     i2u513_41:
  4213   00141E  EF16  F00A         	goto	i2l672
  4214   001422                     i2u513_40:
  4215   001422                     
  4216                           ;MCAL_Layer/Interrupt/mcal_interrupt_manager.c: 50:         RB4_Flag = 0;
  4217   001422  0E00               	movlw	0
  4218   001424  6E63               	movwf	_RB4_Flag^0,c	;volatile
  4219   001426                     
  4220                           ;MCAL_Layer/Interrupt/mcal_interrupt_manager.c: 51:         RB4_ISR(1);
  4221   001426  0E01               	movlw	1
  4222   001428  EC6B  F011         	call	i2_RB4_ISR
  4223   00142C                     i2l672:
  4224                           
  4225                           ;MCAL_Layer/Interrupt/mcal_interrupt_manager.c: 54:     if((1 == INTCONbits.RBIE)&&(1 ==
      +                           INTCONbits.RBIF)&&(PORTBbits.RB4 == GPIO_LOW)&& (RB4_Flag ==0)){
  4226   00142C  A6F2               	btfss	242,3,c	;volatile
  4227   00142E  EF1B  F00A         	goto	i2u514_41
  4228   001432  EF1D  F00A         	goto	i2u514_40
  4229   001436                     i2u514_41:
  4230   001436  EF38  F00A         	goto	i2l674
  4231   00143A                     i2u514_40:
  4232   00143A  A0F2               	btfss	242,0,c	;volatile
  4233   00143C  EF22  F00A         	goto	i2u515_41
  4234   001440  EF24  F00A         	goto	i2u515_40
  4235   001444                     i2u515_41:
  4236   001444  EF38  F00A         	goto	i2l674
  4237   001448                     i2u515_40:
  4238   001448  B881               	btfsc	129,4,c	;volatile
  4239   00144A  EF29  F00A         	goto	i2u516_41
  4240   00144E  EF2B  F00A         	goto	i2u516_40
  4241   001452                     i2u516_41:
  4242   001452  EF38  F00A         	goto	i2l674
  4243   001456                     i2u516_40:
  4244   001456  5063               	movf	_RB4_Flag^0,w,c	;volatile
  4245   001458  A4D8               	btfss	status,2,c
  4246   00145A  EF31  F00A         	goto	i2u517_41
  4247   00145E  EF33  F00A         	goto	i2u517_40
  4248   001462                     i2u517_41:
  4249   001462  EF38  F00A         	goto	i2l674
  4250   001466                     i2u517_40:
  4251   001466                     
  4252                           ;MCAL_Layer/Interrupt/mcal_interrupt_manager.c: 55:         RB4_Flag = 1;
  4253   001466  0E01               	movlw	1
  4254   001468  6E63               	movwf	_RB4_Flag^0,c	;volatile
  4255   00146A                     
  4256                           ;MCAL_Layer/Interrupt/mcal_interrupt_manager.c: 56:         RB4_ISR(0);
  4257   00146A  0E00               	movlw	0
  4258   00146C  EC6B  F011         	call	i2_RB4_ISR
  4259   001470                     i2l674:
  4260                           
  4261                           ;MCAL_Layer/Interrupt/mcal_interrupt_manager.c: 60:     if((1 == INTCONbits.RBIE)&&(1 ==
      +                           INTCONbits.RBIF)&&(PORTBbits.RB5 == GPIO_HIGH) && (RB5_Flag ==1)){
  4262   001470  A6F2               	btfss	242,3,c	;volatile
  4263   001472  EF3D  F00A         	goto	i2u518_41
  4264   001476  EF3F  F00A         	goto	i2u518_40
  4265   00147A                     i2u518_41:
  4266   00147A  EF5A  F00A         	goto	i2l676
  4267   00147E                     i2u518_40:
  4268   00147E  A0F2               	btfss	242,0,c	;volatile
  4269   001480  EF44  F00A         	goto	i2u519_41
  4270   001484  EF46  F00A         	goto	i2u519_40
  4271   001488                     i2u519_41:
  4272   001488  EF5A  F00A         	goto	i2l676
  4273   00148C                     i2u519_40:
  4274   00148C  AA81               	btfss	129,5,c	;volatile
  4275   00148E  EF4B  F00A         	goto	i2u520_41
  4276   001492  EF4D  F00A         	goto	i2u520_40
  4277   001496                     i2u520_41:
  4278   001496  EF5A  F00A         	goto	i2l676
  4279   00149A                     i2u520_40:
  4280   00149A  0462               	decf	_RB5_Flag^0,w,c	;volatile
  4281   00149C  A4D8               	btfss	status,2,c
  4282   00149E  EF53  F00A         	goto	i2u521_41
  4283   0014A2  EF55  F00A         	goto	i2u521_40
  4284   0014A6                     i2u521_41:
  4285   0014A6  EF5A  F00A         	goto	i2l676
  4286   0014AA                     i2u521_40:
  4287   0014AA                     
  4288                           ;MCAL_Layer/Interrupt/mcal_interrupt_manager.c: 61:         RB5_Flag = 0;
  4289   0014AA  0E00               	movlw	0
  4290   0014AC  6E62               	movwf	_RB5_Flag^0,c	;volatile
  4291   0014AE                     
  4292                           ;MCAL_Layer/Interrupt/mcal_interrupt_manager.c: 62:         RB5_ISR(1);
  4293   0014AE  0E01               	movlw	1
  4294   0014B0  EC5E  F011         	call	i2_RB5_ISR
  4295   0014B4                     i2l676:
  4296                           
  4297                           ;MCAL_Layer/Interrupt/mcal_interrupt_manager.c: 65:     if((1 == INTCONbits.RBIE)&&(1 ==
      +                           INTCONbits.RBIF)&&(PORTBbits.RB5 == GPIO_LOW)&& (RB5_Flag ==0)){
  4298   0014B4  A6F2               	btfss	242,3,c	;volatile
  4299   0014B6  EF5F  F00A         	goto	i2u522_41
  4300   0014BA  EF61  F00A         	goto	i2u522_40
  4301   0014BE                     i2u522_41:
  4302   0014BE  EF7C  F00A         	goto	i2l678
  4303   0014C2                     i2u522_40:
  4304   0014C2  A0F2               	btfss	242,0,c	;volatile
  4305   0014C4  EF66  F00A         	goto	i2u523_41
  4306   0014C8  EF68  F00A         	goto	i2u523_40
  4307   0014CC                     i2u523_41:
  4308   0014CC  EF7C  F00A         	goto	i2l678
  4309   0014D0                     i2u523_40:
  4310   0014D0  BA81               	btfsc	129,5,c	;volatile
  4311   0014D2  EF6D  F00A         	goto	i2u524_41
  4312   0014D6  EF6F  F00A         	goto	i2u524_40
  4313   0014DA                     i2u524_41:
  4314   0014DA  EF7C  F00A         	goto	i2l678
  4315   0014DE                     i2u524_40:
  4316   0014DE  5062               	movf	_RB5_Flag^0,w,c	;volatile
  4317   0014E0  A4D8               	btfss	status,2,c
  4318   0014E2  EF75  F00A         	goto	i2u525_41
  4319   0014E6  EF77  F00A         	goto	i2u525_40
  4320   0014EA                     i2u525_41:
  4321   0014EA  EF7C  F00A         	goto	i2l678
  4322   0014EE                     i2u525_40:
  4323   0014EE                     
  4324                           ;MCAL_Layer/Interrupt/mcal_interrupt_manager.c: 66:         RB5_Flag = 1;
  4325   0014EE  0E01               	movlw	1
  4326   0014F0  6E62               	movwf	_RB5_Flag^0,c	;volatile
  4327   0014F2                     
  4328                           ;MCAL_Layer/Interrupt/mcal_interrupt_manager.c: 67:         RB5_ISR(0);
  4329   0014F2  0E00               	movlw	0
  4330   0014F4  EC5E  F011         	call	i2_RB5_ISR
  4331   0014F8                     i2l678:
  4332                           
  4333                           ;MCAL_Layer/Interrupt/mcal_interrupt_manager.c: 71:     if((1 == INTCONbits.RBIE)&&(1 ==
      +                           INTCONbits.RBIF)&&(PORTBbits.RB6 == GPIO_HIGH) && (RB6_Flag ==1)){
  4334   0014F8  A6F2               	btfss	242,3,c	;volatile
  4335   0014FA  EF81  F00A         	goto	i2u526_41
  4336   0014FE  EF83  F00A         	goto	i2u526_40
  4337   001502                     i2u526_41:
  4338   001502  EF9E  F00A         	goto	i2l680
  4339   001506                     i2u526_40:
  4340   001506  A0F2               	btfss	242,0,c	;volatile
  4341   001508  EF88  F00A         	goto	i2u527_41
  4342   00150C  EF8A  F00A         	goto	i2u527_40
  4343   001510                     i2u527_41:
  4344   001510  EF9E  F00A         	goto	i2l680
  4345   001514                     i2u527_40:
  4346   001514  AC81               	btfss	129,6,c	;volatile
  4347   001516  EF8F  F00A         	goto	i2u528_41
  4348   00151A  EF91  F00A         	goto	i2u528_40
  4349   00151E                     i2u528_41:
  4350   00151E  EF9E  F00A         	goto	i2l680
  4351   001522                     i2u528_40:
  4352   001522  0461               	decf	_RB6_Flag^0,w,c	;volatile
  4353   001524  A4D8               	btfss	status,2,c
  4354   001526  EF97  F00A         	goto	i2u529_41
  4355   00152A  EF99  F00A         	goto	i2u529_40
  4356   00152E                     i2u529_41:
  4357   00152E  EF9E  F00A         	goto	i2l680
  4358   001532                     i2u529_40:
  4359   001532                     
  4360                           ;MCAL_Layer/Interrupt/mcal_interrupt_manager.c: 72:         RB6_Flag = 0;
  4361   001532  0E00               	movlw	0
  4362   001534  6E61               	movwf	_RB6_Flag^0,c	;volatile
  4363   001536                     
  4364                           ;MCAL_Layer/Interrupt/mcal_interrupt_manager.c: 73:         RB6_ISR(1);
  4365   001536  0E01               	movlw	1
  4366   001538  EC51  F011         	call	i2_RB6_ISR
  4367   00153C                     i2l680:
  4368                           
  4369                           ;MCAL_Layer/Interrupt/mcal_interrupt_manager.c: 76:     if((1 == INTCONbits.RBIE)&&(1 ==
      +                           INTCONbits.RBIF)&&(PORTBbits.RB6 == GPIO_LOW)&& (RB6_Flag ==0)){
  4370   00153C  A6F2               	btfss	242,3,c	;volatile
  4371   00153E  EFA3  F00A         	goto	i2u530_41
  4372   001542  EFA5  F00A         	goto	i2u530_40
  4373   001546                     i2u530_41:
  4374   001546  EFC0  F00A         	goto	i2l682
  4375   00154A                     i2u530_40:
  4376   00154A  A0F2               	btfss	242,0,c	;volatile
  4377   00154C  EFAA  F00A         	goto	i2u531_41
  4378   001550  EFAC  F00A         	goto	i2u531_40
  4379   001554                     i2u531_41:
  4380   001554  EFC0  F00A         	goto	i2l682
  4381   001558                     i2u531_40:
  4382   001558  BC81               	btfsc	129,6,c	;volatile
  4383   00155A  EFB1  F00A         	goto	i2u532_41
  4384   00155E  EFB3  F00A         	goto	i2u532_40
  4385   001562                     i2u532_41:
  4386   001562  EFC0  F00A         	goto	i2l682
  4387   001566                     i2u532_40:
  4388   001566  5061               	movf	_RB6_Flag^0,w,c	;volatile
  4389   001568  A4D8               	btfss	status,2,c
  4390   00156A  EFB9  F00A         	goto	i2u533_41
  4391   00156E  EFBB  F00A         	goto	i2u533_40
  4392   001572                     i2u533_41:
  4393   001572  EFC0  F00A         	goto	i2l682
  4394   001576                     i2u533_40:
  4395   001576                     
  4396                           ;MCAL_Layer/Interrupt/mcal_interrupt_manager.c: 77:         RB6_Flag = 1;
  4397   001576  0E01               	movlw	1
  4398   001578  6E61               	movwf	_RB6_Flag^0,c	;volatile
  4399   00157A                     
  4400                           ;MCAL_Layer/Interrupt/mcal_interrupt_manager.c: 78:         RB6_ISR(0);
  4401   00157A  0E00               	movlw	0
  4402   00157C  EC51  F011         	call	i2_RB6_ISR
  4403   001580                     i2l682:
  4404                           
  4405                           ;MCAL_Layer/Interrupt/mcal_interrupt_manager.c: 82:     if((1 == INTCONbits.RBIE)&&(1 ==
      +                           INTCONbits.RBIF)&&(PORTBbits.RB7 == GPIO_HIGH) && (RB7_Flag ==1)){
  4406   001580  A6F2               	btfss	242,3,c	;volatile
  4407   001582  EFC5  F00A         	goto	i2u534_41
  4408   001586  EFC7  F00A         	goto	i2u534_40
  4409   00158A                     i2u534_41:
  4410   00158A  EFE2  F00A         	goto	i2l684
  4411   00158E                     i2u534_40:
  4412   00158E  A0F2               	btfss	242,0,c	;volatile
  4413   001590  EFCC  F00A         	goto	i2u535_41
  4414   001594  EFCE  F00A         	goto	i2u535_40
  4415   001598                     i2u535_41:
  4416   001598  EFE2  F00A         	goto	i2l684
  4417   00159C                     i2u535_40:
  4418   00159C  AE81               	btfss	129,7,c	;volatile
  4419   00159E  EFD3  F00A         	goto	i2u536_41
  4420   0015A2  EFD5  F00A         	goto	i2u536_40
  4421   0015A6                     i2u536_41:
  4422   0015A6  EFE2  F00A         	goto	i2l684
  4423   0015AA                     i2u536_40:
  4424   0015AA  0460               	decf	_RB7_Flag^0,w,c	;volatile
  4425   0015AC  A4D8               	btfss	status,2,c
  4426   0015AE  EFDB  F00A         	goto	i2u537_41
  4427   0015B2  EFDD  F00A         	goto	i2u537_40
  4428   0015B6                     i2u537_41:
  4429   0015B6  EFE2  F00A         	goto	i2l684
  4430   0015BA                     i2u537_40:
  4431   0015BA                     
  4432                           ;MCAL_Layer/Interrupt/mcal_interrupt_manager.c: 83:         RB7_Flag = 0;
  4433   0015BA  0E00               	movlw	0
  4434   0015BC  6E60               	movwf	_RB7_Flag^0,c	;volatile
  4435   0015BE                     
  4436                           ;MCAL_Layer/Interrupt/mcal_interrupt_manager.c: 84:         RB7_ISR(1);
  4437   0015BE  0E01               	movlw	1
  4438   0015C0  EC44  F011         	call	i2_RB7_ISR
  4439   0015C4                     i2l684:
  4440                           
  4441                           ;MCAL_Layer/Interrupt/mcal_interrupt_manager.c: 87:     if((1 == INTCONbits.RBIE)&&(1 ==
      +                           INTCONbits.RBIF)&&(PORTBbits.RB7 == GPIO_LOW)&& (RB7_Flag ==0)){
  4442   0015C4  A6F2               	btfss	242,3,c	;volatile
  4443   0015C6  EFE7  F00A         	goto	i2u538_41
  4444   0015CA  EFE9  F00A         	goto	i2u538_40
  4445   0015CE                     i2u538_41:
  4446   0015CE  EF04  F00B         	goto	i2l686
  4447   0015D2                     i2u538_40:
  4448   0015D2  A0F2               	btfss	242,0,c	;volatile
  4449   0015D4  EFEE  F00A         	goto	i2u539_41
  4450   0015D8  EFF0  F00A         	goto	i2u539_40
  4451   0015DC                     i2u539_41:
  4452   0015DC  EF04  F00B         	goto	i2l686
  4453   0015E0                     i2u539_40:
  4454   0015E0  BE81               	btfsc	129,7,c	;volatile
  4455   0015E2  EFF5  F00A         	goto	i2u540_41
  4456   0015E6  EFF7  F00A         	goto	i2u540_40
  4457   0015EA                     i2u540_41:
  4458   0015EA  EF04  F00B         	goto	i2l686
  4459   0015EE                     i2u540_40:
  4460   0015EE  5060               	movf	_RB7_Flag^0,w,c	;volatile
  4461   0015F0  A4D8               	btfss	status,2,c
  4462   0015F2  EFFD  F00A         	goto	i2u541_41
  4463   0015F6  EFFF  F00A         	goto	i2u541_40
  4464   0015FA                     i2u541_41:
  4465   0015FA  EF04  F00B         	goto	i2l686
  4466   0015FE                     i2u541_40:
  4467   0015FE                     
  4468                           ;MCAL_Layer/Interrupt/mcal_interrupt_manager.c: 88:         RB7_Flag = 1;
  4469   0015FE  0E01               	movlw	1
  4470   001600  6E60               	movwf	_RB7_Flag^0,c	;volatile
  4471   001602                     
  4472                           ;MCAL_Layer/Interrupt/mcal_interrupt_manager.c: 89:         RB7_ISR(0);
  4473   001602  0E00               	movlw	0
  4474   001604  EC44  F011         	call	i2_RB7_ISR
  4475   001608                     i2l686:
  4476                           
  4477                           ;MCAL_Layer/Interrupt/mcal_interrupt_manager.c: 95:     if((1 == PIE1bits.ADIE)&&(1 == P
      +                          IR1bits.ADIF)){
  4478   001608  AC9D               	btfss	157,6,c	;volatile
  4479   00160A  EF09  F00B         	goto	i2u542_41
  4480   00160E  EF0B  F00B         	goto	i2u542_40
  4481   001612                     i2u542_41:
  4482   001612  EF14  F00B         	goto	i2l688
  4483   001616                     i2u542_40:
  4484   001616  AC9E               	btfss	158,6,c	;volatile
  4485   001618  EF10  F00B         	goto	i2u543_41
  4486   00161C  EF12  F00B         	goto	i2u543_40
  4487   001620                     i2u543_41:
  4488   001620  EF14  F00B         	goto	i2l688
  4489   001624                     i2u543_40:
  4490   001624                     
  4491                           ;MCAL_Layer/Interrupt/mcal_interrupt_manager.c: 96:         ADC_ISR();
  4492   001624  ECBC  F011         	call	i2_ADC_ISR	;wreg free
  4493   001628                     i2l688:
  4494                           
  4495                           ;MCAL_Layer/Interrupt/mcal_interrupt_manager.c: 102:     if((1 == INTCONbits.TMR0IE)&&(1
      +                           == INTCONbits.TMR0IF)){
  4496   001628  AAF2               	btfss	242,5,c	;volatile
  4497   00162A  EF19  F00B         	goto	i2u544_41
  4498   00162E  EF1B  F00B         	goto	i2u544_40
  4499   001632                     i2u544_41:
  4500   001632  EF24  F00B         	goto	i2l690
  4501   001636                     i2u544_40:
  4502   001636  A4F2               	btfss	242,2,c	;volatile
  4503   001638  EF20  F00B         	goto	i2u545_41
  4504   00163C  EF22  F00B         	goto	i2u545_40
  4505   001640                     i2u545_41:
  4506   001640  EF24  F00B         	goto	i2l690
  4507   001644                     i2u545_40:
  4508   001644                     
  4509                           ;MCAL_Layer/Interrupt/mcal_interrupt_manager.c: 103:         TMRO_ISR();
  4510   001644  EC3D  F00F         	call	i2_TMRO_ISR	;wreg free
  4511   001648                     i2l690:
  4512                           
  4513                           ;MCAL_Layer/Interrupt/mcal_interrupt_manager.c: 109:     if((1 == PIE1bits.TMR1IE)&&(1 =
      +                          = PIR1bits.TMR1IF)){
  4514   001648  A09D               	btfss	157,0,c	;volatile
  4515   00164A  EF29  F00B         	goto	i2u546_41
  4516   00164E  EF2B  F00B         	goto	i2u546_40
  4517   001652                     i2u546_41:
  4518   001652  EF34  F00B         	goto	i2l692
  4519   001656                     i2u546_40:
  4520   001656  A09E               	btfss	158,0,c	;volatile
  4521   001658  EF30  F00B         	goto	i2u547_41
  4522   00165C  EF32  F00B         	goto	i2u547_40
  4523   001660                     i2u547_41:
  4524   001660  EF34  F00B         	goto	i2l692
  4525   001664                     i2u547_40:
  4526   001664                     
  4527                           ;MCAL_Layer/Interrupt/mcal_interrupt_manager.c: 110:         TMR1_ISR();
  4528   001664  ECA0  F011         	call	i2_TMR1_ISR	;wreg free
  4529   001668                     i2l692:
  4530                           
  4531                           ;MCAL_Layer/Interrupt/mcal_interrupt_manager.c: 116:     if((1 == PIE1bits.TMR2IE)&&(1 =
      +                          = PIR1bits.TMR2IF)){
  4532   001668  A29D               	btfss	157,1,c	;volatile
  4533   00166A  EF39  F00B         	goto	i2u548_41
  4534   00166E  EF3B  F00B         	goto	i2u548_40
  4535   001672                     i2u548_41:
  4536   001672  EF44  F00B         	goto	i2l694
  4537   001676                     i2u548_40:
  4538   001676  A29E               	btfss	158,1,c	;volatile
  4539   001678  EF40  F00B         	goto	i2u549_41
  4540   00167C  EF42  F00B         	goto	i2u549_40
  4541   001680                     i2u549_41:
  4542   001680  EF44  F00B         	goto	i2l694
  4543   001684                     i2u549_40:
  4544   001684                     
  4545                           ;MCAL_Layer/Interrupt/mcal_interrupt_manager.c: 117:         TMR2_ISR();
  4546   001684  ECAA  F011         	call	i2_TMR2_ISR	;wreg free
  4547   001688                     i2l694:
  4548                           
  4549                           ;MCAL_Layer/Interrupt/mcal_interrupt_manager.c: 123:     if((1 == PIE2bits.TMR3IE)&&(1 =
      +                          = PIR2bits.TMR3IF)){
  4550   001688  A2A0               	btfss	160,1,c	;volatile
  4551   00168A  EF49  F00B         	goto	i2u550_41
  4552   00168E  EF4B  F00B         	goto	i2u550_40
  4553   001692                     i2u550_41:
  4554   001692  EF54  F00B         	goto	i2l696
  4555   001696                     i2u550_40:
  4556   001696  A2A1               	btfss	161,1,c	;volatile
  4557   001698  EF50  F00B         	goto	i2u551_41
  4558   00169C  EF52  F00B         	goto	i2u551_40
  4559   0016A0                     i2u551_41:
  4560   0016A0  EF54  F00B         	goto	i2l696
  4561   0016A4                     i2u551_40:
  4562   0016A4                     
  4563                           ;MCAL_Layer/Interrupt/mcal_interrupt_manager.c: 124:         TMR3_ISR();
  4564   0016A4  EC58  F00F         	call	i2_TMR3_ISR	;wreg free
  4565   0016A8                     i2l696:
  4566                           
  4567                           ;MCAL_Layer/Interrupt/mcal_interrupt_manager.c: 130:     if((1 == PIE1bits.CCP1IE )&&(1 
      +                          == PIR1bits.CCP1IF )){
  4568   0016A8  A49D               	btfss	157,2,c	;volatile
  4569   0016AA  EF59  F00B         	goto	i2u552_41
  4570   0016AE  EF5B  F00B         	goto	i2u552_40
  4571   0016B2                     i2u552_41:
  4572   0016B2  EF64  F00B         	goto	i2l698
  4573   0016B6                     i2u552_40:
  4574   0016B6  A49E               	btfss	158,2,c	;volatile
  4575   0016B8  EF60  F00B         	goto	i2u553_41
  4576   0016BC  EF62  F00B         	goto	i2u553_40
  4577   0016C0                     i2u553_41:
  4578   0016C0  EF64  F00B         	goto	i2l698
  4579   0016C4                     i2u553_40:
  4580   0016C4                     
  4581                           ;MCAL_Layer/Interrupt/mcal_interrupt_manager.c: 131:         CCP1_ISR();
  4582   0016C4  EC34  F010         	call	i2_CCP1_ISR	;wreg free
  4583   0016C8                     i2l698:
  4584                           
  4585                           ;MCAL_Layer/Interrupt/mcal_interrupt_manager.c: 144:     if((1 == PIE1bits.TXIE )&&(1 ==
      +                           PIR1bits.TXIF )){
  4586   0016C8  A89D               	btfss	157,4,c	;volatile
  4587   0016CA  EF69  F00B         	goto	i2u554_41
  4588   0016CE  EF6B  F00B         	goto	i2u554_40
  4589   0016D2                     i2u554_41:
  4590   0016D2  EF74  F00B         	goto	i2l700
  4591   0016D6                     i2u554_40:
  4592   0016D6  A89E               	btfss	158,4,c	;volatile
  4593   0016D8  EF70  F00B         	goto	i2u555_41
  4594   0016DC  EF72  F00B         	goto	i2u555_40
  4595   0016E0                     i2u555_41:
  4596   0016E0  EF74  F00B         	goto	i2l700
  4597   0016E4                     i2u555_40:
  4598   0016E4                     
  4599                           ;MCAL_Layer/Interrupt/mcal_interrupt_manager.c: 145:         EUSART_TX_ISR();
  4600   0016E4  EC1D  F010         	call	i2_EUSART_TX_ISR	;wreg free
  4601   0016E8                     i2l700:
  4602                           
  4603                           ;MCAL_Layer/Interrupt/mcal_interrupt_manager.c: 151:     if((1 == PIE1bits.RCIE )&&(1 ==
      +                           PIR1bits.RCIF )){
  4604   0016E8  AA9D               	btfss	157,5,c	;volatile
  4605   0016EA  EF79  F00B         	goto	i2u556_41
  4606   0016EE  EF7B  F00B         	goto	i2u556_40
  4607   0016F2                     i2u556_41:
  4608   0016F2  EF84  F00B         	goto	i2l703
  4609   0016F6                     i2u556_40:
  4610   0016F6  AA9E               	btfss	158,5,c	;volatile
  4611   0016F8  EF80  F00B         	goto	i2u557_41
  4612   0016FC  EF82  F00B         	goto	i2u557_40
  4613   001700                     i2u557_41:
  4614   001700  EF84  F00B         	goto	i2l703
  4615   001704                     i2u557_40:
  4616   001704                     
  4617                           ;MCAL_Layer/Interrupt/mcal_interrupt_manager.c: 152:         EUSART_RX_ISR();
  4618   001704  ECD7  F00F         	call	i2_EUSART_RX_ISR	;wreg free
  4619   001708                     i2l703:
  4620   001708  0012               	return		;funcret
  4621   00170A                     __end_ofi2_InterruptCheck:
  4622                           	callstack 0
  4623                           
  4624 ;; *************** function i2_TMRO_ISR *****************
  4625 ;; Defined at:
  4626 ;;		line 134 in file "MCAL_Layer/Timer/Timer0/hal_timer0.c"
  4627 ;; Parameters:    Size  Location     Type
  4628 ;;		None
  4629 ;; Auto vars:     Size  Location     Type
  4630 ;;		None
  4631 ;; Return value:  Size  Location     Type
  4632 ;;                  1    wreg      void 
  4633 ;; Registers used:
  4634 ;;		wreg, fsr2l, fsr2h, status,2, status,0, pcl, pclath, pclatu, tosl, cstack
  4635 ;; Tracked objects:
  4636 ;;		On entry : 0/0
  4637 ;;		On exit  : 0/0
  4638 ;;		Unchanged: 0/0
  4639 ;; Data sizes:     COMRAM   BANK0   BANK1   BANK2   BANK3   BANK4   BANK5   BANK6   BANK7   BANK8   BANK9  BANK10  BANK1
      +1  BANK12  BANK13  BANK14  BANK15
  4640 ;;      Params:         0       0       0       0       0       0       0       0       0       0       0       0       
      +0       0       0       0       0
  4641 ;;      Locals:         0       0       0       0       0       0       0       0       0       0       0       0       
      +0       0       0       0       0
  4642 ;;      Temps:          0       0       0       0       0       0       0       0       0       0       0       0       
      +0       0       0       0       0
  4643 ;;      Totals:         0       0       0       0       0       0       0       0       0       0       0       0       
      +0       0       0       0       0
  4644 ;;Total ram usage:        0 bytes
  4645 ;; Hardware stack levels used: 1
  4646 ;; Hardware stack levels required when called: 2
  4647 ;; This function calls:
  4648 ;;		NULL
  4649 ;;		i2_timer0_interruptHundler
  4650 ;; This function is called by:
  4651 ;;		i2_InterruptCheck
  4652 ;; This function uses a non-reentrant model
  4653 ;;
  4654                           
  4655                           	psect	text37
  4656   001E7A                     __ptext37:
  4657                           	callstack 0
  4658   001E7A                     i2_TMRO_ISR:
  4659                           	callstack 17
  4660   001E7A                     
  4661                           ;MCAL_Layer/Timer/Timer0/hal_timer0.c: 135:     (INTCONbits.TMR0IF = 0);
  4662   001E7A  94F2               	bcf	242,2,c	;volatile
  4663   001E7C                     
  4664                           ;MCAL_Layer/Timer/Timer0/hal_timer0.c: 136:     TMR0H = timer0_preload >>8;
  4665   001E7C  5014               	movf	(_timer0_preload+1)^0,w,c
  4666   001E7E  6ED7               	movwf	215,c	;volatile
  4667   001E80                     
  4668                           ;MCAL_Layer/Timer/Timer0/hal_timer0.c: 137:     TMR0L = (uint8)timer0_preload;
  4669   001E80  C013  FFD6         	movff	_timer0_preload,4054	;volatile
  4670   001E84                     
  4671                           ;MCAL_Layer/Timer/Timer0/hal_timer0.c: 138:     if(TMR0_InterruptHandler){
  4672   001E84  5015               	movf	_TMR0_InterruptHandler^0,w,c
  4673   001E86  1016               	iorwf	(_TMR0_InterruptHandler+1)^0,w,c
  4674   001E88  B4D8               	btfsc	status,2,c
  4675   001E8A  EF49  F00F         	goto	i2u434_41
  4676   001E8E  EF4B  F00F         	goto	i2u434_40
  4677   001E92                     i2u434_41:
  4678   001E92  EF57  F00F         	goto	i2l1030
  4679   001E96                     i2u434_40:
  4680   001E96                     
  4681                           ;MCAL_Layer/Timer/Timer0/hal_timer0.c: 139:         TMR0_InterruptHandler();
  4682   001E96  D802               	call	i2u435_48
  4683   001E98  EF57  F00F         	goto	i2u435_49
  4684   001E9C                     i2u435_48:
  4685   001E9C  0005               	push	
  4686   001E9E  6EFA               	movwf	pclath,c
  4687   001EA0  5015               	movf	_TMR0_InterruptHandler^0,w,c
  4688   001EA2  6EFD               	movwf	tosl,c
  4689   001EA4  5016               	movf	(_TMR0_InterruptHandler+1)^0,w,c
  4690   001EA6  6EFE               	movwf	tosh,c
  4691   001EA8  6AFF               	clrf	tosu,c
  4692   001EAA  50FA               	movf	pclath,w,c
  4693   001EAC  0012               	return		;indir
  4694   001EAE                     i2u435_49:
  4695   001EAE                     i2l1030:
  4696   001EAE  0012               	return		;funcret
  4697   001EB0                     __end_ofi2_TMRO_ISR:
  4698                           	callstack 0
  4699                           
  4700 ;; *************** function i2_timer0_interruptHundler *****************
  4701 ;; Defined at:
  4702 ;;		line 152 in file "application.c"
  4703 ;; Parameters:    Size  Location     Type
  4704 ;;		None
  4705 ;; Auto vars:     Size  Location     Type
  4706 ;;		None
  4707 ;; Return value:  Size  Location     Type
  4708 ;;                  1    wreg      void 
  4709 ;; Registers used:
  4710 ;;		wreg, fsr2l, fsr2h, status,2, status,0, cstack
  4711 ;; Tracked objects:
  4712 ;;		On entry : 0/0
  4713 ;;		On exit  : 0/0
  4714 ;;		Unchanged: 0/0
  4715 ;; Data sizes:     COMRAM   BANK0   BANK1   BANK2   BANK3   BANK4   BANK5   BANK6   BANK7   BANK8   BANK9  BANK10  BANK1
      +1  BANK12  BANK13  BANK14  BANK15
  4716 ;;      Params:         0       0       0       0       0       0       0       0       0       0       0       0       
      +0       0       0       0       0
  4717 ;;      Locals:         0       0       0       0       0       0       0       0       0       0       0       0       
      +0       0       0       0       0
  4718 ;;      Temps:          0       0       0       0       0       0       0       0       0       0       0       0       
      +0       0       0       0       0
  4719 ;;      Totals:         0       0       0       0       0       0       0       0       0       0       0       0       
      +0       0       0       0       0
  4720 ;;Total ram usage:        0 bytes
  4721 ;; Hardware stack levels used: 1
  4722 ;; Hardware stack levels required when called: 1
  4723 ;; This function calls:
  4724 ;;		i2_Timer1_Read_value
  4725 ;;		i2_Timer1_Write_value
  4726 ;; This function is called by:
  4727 ;; This function uses a non-reentrant model
  4728 ;;
  4729                           
  4730                           	psect	text38
  4731   0020C0                     __ptext38:
  4732                           	callstack 0
  4733   0020C0                     i2_timer0_interruptHundler:
  4734                           	callstack 17
  4735   0020C0                     
  4736                           ;application.c: 153:     Timer1_Read_value(&timer1,&timer1_count);
  4737   0020C0  0E64               	movlw	low _timer1
  4738   0020C2  6E41               	movwf	i2Timer1_Read_value@_timer^0,c
  4739   0020C4  0E00               	movlw	high _timer1
  4740   0020C6  6E42               	movwf	(i2Timer1_Read_value@_timer+1)^0,c
  4741   0020C8  0E40               	movlw	low _timer1_count
  4742   0020CA  6E43               	movwf	i2Timer1_Read_value@_value^0,c
  4743   0020CC  0E00               	movlw	high _timer1_count
  4744   0020CE  6E44               	movwf	(i2Timer1_Read_value@_value+1)^0,c
  4745   0020D0  EC2C  F00E         	call	i2_Timer1_Read_value	;wreg free
  4746   0020D4                     
  4747                           ;application.c: 154:     Timer1_Write_value(&timer1,0);
  4748   0020D4  0E64               	movlw	low _timer1
  4749   0020D6  6E41               	movwf	i2Timer1_Write_value@_timer^0,c
  4750   0020D8  0E00               	movlw	high _timer1
  4751   0020DA  6E42               	movwf	(i2Timer1_Write_value@_timer+1)^0,c
  4752   0020DC  0E00               	movlw	0
  4753   0020DE  6E44               	movwf	(i2Timer1_Write_value@_value+1)^0,c
  4754   0020E0  0E00               	movlw	0
  4755   0020E2  6E43               	movwf	i2Timer1_Write_value@_value^0,c
  4756   0020E4  ECB9  F010         	call	i2_Timer1_Write_value	;wreg free
  4757   0020E8  0012               	return		;funcret
  4758   0020EA                     __end_ofi2_timer0_interruptHundler:
  4759                           	callstack 0
  4760                           
  4761 ;; *************** function i2_Timer1_Write_value *****************
  4762 ;; Defined at:
  4763 ;;		line 95 in file "MCAL_Layer/Timer/Timer1/hal_timer1.c"
  4764 ;; Parameters:    Size  Location     Type
  4765 ;;  _timer          2    0[COMRAM] PTR const struct .
  4766 ;;		 -> timer1(6), 
  4767 ;;  _value          2    2[COMRAM] unsigned short 
  4768 ;; Auto vars:     Size  Location     Type
  4769 ;;  ret             1    0        unsigned char 
  4770 ;; Return value:  Size  Location     Type
  4771 ;;                  1    wreg      unsigned char 
  4772 ;; Registers used:
  4773 ;;		wreg, status,2, status,0
  4774 ;; Tracked objects:
  4775 ;;		On entry : 0/0
  4776 ;;		On exit  : 0/0
  4777 ;;		Unchanged: 0/0
  4778 ;; Data sizes:     COMRAM   BANK0   BANK1   BANK2   BANK3   BANK4   BANK5   BANK6   BANK7   BANK8   BANK9  BANK10  BANK1
      +1  BANK12  BANK13  BANK14  BANK15
  4779 ;;      Params:         4       0       0       0       0       0       0       0       0       0       0       0       
      +0       0       0       0       0
  4780 ;;      Locals:         0       0       0       0       0       0       0       0       0       0       0       0       
      +0       0       0       0       0
  4781 ;;      Temps:          0       0       0       0       0       0       0       0       0       0       0       0       
      +0       0       0       0       0
  4782 ;;      Totals:         4       0       0       0       0       0       0       0       0       0       0       0       
      +0       0       0       0       0
  4783 ;;Total ram usage:        4 bytes
  4784 ;; Hardware stack levels used: 1
  4785 ;; This function calls:
  4786 ;;		Nothing
  4787 ;; This function is called by:
  4788 ;;		i2_timer0_interruptHundler
  4789 ;; This function uses a non-reentrant model
  4790 ;;
  4791                           
  4792                           	psect	text39
  4793   002172                     __ptext39:
  4794                           	callstack 0
  4795   002172                     i2_Timer1_Write_value:
  4796                           	callstack 17
  4797   002172                     
  4798                           ;MCAL_Layer/Timer/Timer1/hal_timer1.c: 97:     if(((void*)0) == _timer){
  4799   002172  5041               	movf	i2Timer1_Write_value@_timer^0,w,c
  4800   002174  1042               	iorwf	(i2Timer1_Write_value@_timer+1)^0,w,c
  4801   002176  A4D8               	btfss	status,2,c
  4802   002178  EFC0  F010         	goto	i2u397_41
  4803   00217C  EFC2  F010         	goto	i2u397_40
  4804   002180                     i2u397_41:
  4805   002180  EFC4  F010         	goto	i2l5042
  4806   002184                     i2u397_40:
  4807   002184                     
  4808                           ;MCAL_Layer/Timer/Timer1/hal_timer1.c: 99:     }
  4809   002184  EFC8  F010         	goto	i2l1096
  4810   002188                     i2l5042:
  4811                           
  4812                           ;MCAL_Layer/Timer/Timer1/hal_timer1.c: 101:     {;MCAL_Layer/Timer/Timer1/hal_timer1.c: 
      +                          102:         TMR1H = (_value) >>8;
  4813   002188  5044               	movf	(i2Timer1_Write_value@_value+1)^0,w,c
  4814   00218A  6ECF               	movwf	207,c	;volatile
  4815   00218C                     
  4816                           ;MCAL_Layer/Timer/Timer1/hal_timer1.c: 103:         TMR1L = (uint8)(_value);
  4817   00218C  C043  FFCE         	movff	i2Timer1_Write_value@_value,4046	;volatile
  4818   002190                     i2l1096:
  4819   002190  0012               	return		;funcret
  4820   002192                     __end_ofi2_Timer1_Write_value:
  4821                           	callstack 0
  4822                           
  4823 ;; *************** function i2_Timer1_Read_value *****************
  4824 ;; Defined at:
  4825 ;;		line 117 in file "MCAL_Layer/Timer/Timer1/hal_timer1.c"
  4826 ;; Parameters:    Size  Location     Type
  4827 ;;  _timer          2    0[COMRAM] PTR const struct .
  4828 ;;		 -> timer1(6), 
  4829 ;;  _value          2    2[COMRAM] PTR unsigned short 
  4830 ;;		 -> timer1_count(1), 
  4831 ;; Auto vars:     Size  Location     Type
  4832 ;;  tmr1h           1    7[COMRAM] unsigned char 
  4833 ;;  tmr1l           1    6[COMRAM] unsigned char 
  4834 ;;  ret             1    0        unsigned char 
  4835 ;; Return value:  Size  Location     Type
  4836 ;;                  1    wreg      unsigned char 
  4837 ;; Registers used:
  4838 ;;		wreg, fsr2l, fsr2h, status,2, status,0
  4839 ;; Tracked objects:
  4840 ;;		On entry : 0/0
  4841 ;;		On exit  : 0/0
  4842 ;;		Unchanged: 0/0
  4843 ;; Data sizes:     COMRAM   BANK0   BANK1   BANK2   BANK3   BANK4   BANK5   BANK6   BANK7   BANK8   BANK9  BANK10  BANK1
      +1  BANK12  BANK13  BANK14  BANK15
  4844 ;;      Params:         4       0       0       0       0       0       0       0       0       0       0       0       
      +0       0       0       0       0
  4845 ;;      Locals:         2       0       0       0       0       0       0       0       0       0       0       0       
      +0       0       0       0       0
  4846 ;;      Temps:          2       0       0       0       0       0       0       0       0       0       0       0       
      +0       0       0       0       0
  4847 ;;      Totals:         8       0       0       0       0       0       0       0       0       0       0       0       
      +0       0       0       0       0
  4848 ;;Total ram usage:        8 bytes
  4849 ;; Hardware stack levels used: 1
  4850 ;; This function calls:
  4851 ;;		Nothing
  4852 ;; This function is called by:
  4853 ;;		i2_timer0_interruptHundler
  4854 ;; This function uses a non-reentrant model
  4855 ;;
  4856                           
  4857                           	psect	text40
  4858   001C58                     __ptext40:
  4859                           	callstack 0
  4860   001C58                     i2_Timer1_Read_value:
  4861                           	callstack 17
  4862   001C58                     
  4863                           ;MCAL_Layer/Timer/Timer1/hal_timer1.c: 119:     uint8 tmr1l = 0;
  4864   001C58  0E00               	movlw	0
  4865   001C5A  6E47               	movwf	i2Timer1_Read_value@tmr1l^0,c
  4866                           
  4867                           ;MCAL_Layer/Timer/Timer1/hal_timer1.c: 120:     uint8 tmr1h = 0;
  4868   001C5C  0E00               	movlw	0
  4869   001C5E  6E48               	movwf	i2Timer1_Read_value@tmr1h^0,c
  4870   001C60                     
  4871                           ;MCAL_Layer/Timer/Timer1/hal_timer1.c: 121:     if(((void*)0) == _timer || ((void*)0) ==
      +                           _value){
  4872   001C60  5041               	movf	i2Timer1_Read_value@_timer^0,w,c
  4873   001C62  1042               	iorwf	(i2Timer1_Read_value@_timer+1)^0,w,c
  4874   001C64  B4D8               	btfsc	status,2,c
  4875   001C66  EF37  F00E         	goto	i2u398_41
  4876   001C6A  EF39  F00E         	goto	i2u398_40
  4877   001C6E                     i2u398_41:
  4878   001C6E  EF42  F00E         	goto	i2l5054
  4879   001C72                     i2u398_40:
  4880   001C72  5043               	movf	i2Timer1_Read_value@_value^0,w,c
  4881   001C74  1044               	iorwf	(i2Timer1_Read_value@_value+1)^0,w,c
  4882   001C76  A4D8               	btfss	status,2,c
  4883   001C78  EF40  F00E         	goto	i2u399_41
  4884   001C7C  EF42  F00E         	goto	i2u399_40
  4885   001C80                     i2u399_41:
  4886   001C80  EF44  F00E         	goto	i2l1099
  4887   001C84                     i2u399_40:
  4888   001C84                     i2l5054:
  4889                           
  4890                           ;MCAL_Layer/Timer/Timer1/hal_timer1.c: 123:     }
  4891   001C84  EF5A  F00E         	goto	i2l1103
  4892   001C88                     i2l1099:
  4893                           
  4894                           ;MCAL_Layer/Timer/Timer1/hal_timer1.c: 125:     {;MCAL_Layer/Timer/Timer1/hal_timer1.c: 
      +                          126:         tmr1l = TMR1L;
  4895   001C88  CFCE F047          	movff	4046,i2Timer1_Read_value@tmr1l	;volatile
  4896                           
  4897                           ;MCAL_Layer/Timer/Timer1/hal_timer1.c: 127:         tmr1h = TMR1H;
  4898   001C8C  CFCF F048          	movff	4047,i2Timer1_Read_value@tmr1h	;volatile
  4899   001C90                     
  4900                           ;MCAL_Layer/Timer/Timer1/hal_timer1.c: 128:         *_value = (uint16)((256 * tmr1h) + t
      +                          mr1l);
  4901   001C90  5047               	movf	i2Timer1_Read_value@tmr1l^0,w,c
  4902   001C92  C048  F045         	movff	i2Timer1_Read_value@tmr1h,??i2_Timer1_Read_value
  4903   001C96  6A46               	clrf	(??i2_Timer1_Read_value+1)^0,c
  4904   001C98  C045  F046         	movff	??i2_Timer1_Read_value,??i2_Timer1_Read_value+1
  4905   001C9C  6A45               	clrf	??i2_Timer1_Read_value^0,c
  4906   001C9E  2645               	addwf	??i2_Timer1_Read_value^0,f,c
  4907   001CA0  0E00               	movlw	0
  4908   001CA2  2246               	addwfc	(??i2_Timer1_Read_value+1)^0,f,c
  4909   001CA4  C043  FFD9         	movff	i2Timer1_Read_value@_value,fsr2l
  4910   001CA8  C044  FFDA         	movff	i2Timer1_Read_value@_value+1,fsr2h
  4911   001CAC  C045  FFDE         	movff	??i2_Timer1_Read_value,postinc2
  4912   001CB0  C046  FFDD         	movff	??i2_Timer1_Read_value+1,postdec2
  4913   001CB4                     i2l1103:
  4914   001CB4  0012               	return		;funcret
  4915   001CB6                     __end_ofi2_Timer1_Read_value:
  4916                           	callstack 0
  4917                           
  4918 ;; *************** function i2_TMR3_ISR *****************
  4919 ;; Defined at:
  4920 ;;		line 137 in file "MCAL_Layer/Timer/Timer3/hal_timer3.c"
  4921 ;; Parameters:    Size  Location     Type
  4922 ;;		None
  4923 ;; Auto vars:     Size  Location     Type
  4924 ;;		None
  4925 ;; Return value:  Size  Location     Type
  4926 ;;                  1    wreg      void 
  4927 ;; Registers used:
  4928 ;;		wreg, status,2, status,0, pcl, pclath, pclatu, tosl, cstack
  4929 ;; Tracked objects:
  4930 ;;		On entry : 0/0
  4931 ;;		On exit  : 0/0
  4932 ;;		Unchanged: 0/0
  4933 ;; Data sizes:     COMRAM   BANK0   BANK1   BANK2   BANK3   BANK4   BANK5   BANK6   BANK7   BANK8   BANK9  BANK10  BANK1
      +1  BANK12  BANK13  BANK14  BANK15
  4934 ;;      Params:         0       0       0       0       0       0       0       0       0       0       0       0       
      +0       0       0       0       0
  4935 ;;      Locals:         0       0       0       0       0       0       0       0       0       0       0       0       
      +0       0       0       0       0
  4936 ;;      Temps:          0       0       0       0       0       0       0       0       0       0       0       0       
      +0       0       0       0       0
  4937 ;;      Totals:         0       0       0       0       0       0       0       0       0       0       0       0       
      +0       0       0       0       0
  4938 ;;Total ram usage:        0 bytes
  4939 ;; Hardware stack levels used: 1
  4940 ;; Hardware stack levels required when called: 1
  4941 ;; This function calls:
  4942 ;;		NULL
  4943 ;;		i2_timer3_interruptHundler
  4944 ;; This function is called by:
  4945 ;;		i2_InterruptCheck
  4946 ;; This function uses a non-reentrant model
  4947 ;;
  4948                           
  4949                           	psect	text41
  4950   001EB0                     __ptext41:
  4951                           	callstack 0
  4952   001EB0                     i2_TMR3_ISR:
  4953                           	callstack 18
  4954   001EB0                     
  4955                           ;MCAL_Layer/Timer/Timer3/hal_timer3.c: 138:     (PIR2bits.TMR3IF = 0);
  4956   001EB0  92A1               	bcf	161,1,c	;volatile
  4957   001EB2                     
  4958                           ;MCAL_Layer/Timer/Timer3/hal_timer3.c: 139:     TMR3H = timer3_preload >>8;
  4959   001EB2  500A               	movf	(_timer3_preload+1)^0,w,c
  4960   001EB4  6EB3               	movwf	179,c	;volatile
  4961   001EB6                     
  4962                           ;MCAL_Layer/Timer/Timer3/hal_timer3.c: 140:     TMR3L = (uint8)timer3_preload;
  4963   001EB6  C009  FFB2         	movff	_timer3_preload,4018	;volatile
  4964   001EBA                     
  4965                           ;MCAL_Layer/Timer/Timer3/hal_timer3.c: 141:     if(TMR3_InterruptHandler){
  4966   001EBA  500B               	movf	_TMR3_InterruptHandler^0,w,c
  4967   001EBC  100C               	iorwf	(_TMR3_InterruptHandler+1)^0,w,c
  4968   001EBE  B4D8               	btfsc	status,2,c
  4969   001EC0  EF64  F00F         	goto	i2u436_41
  4970   001EC4  EF66  F00F         	goto	i2u436_40
  4971   001EC8                     i2u436_41:
  4972   001EC8  EF72  F00F         	goto	i2l1222
  4973   001ECC                     i2u436_40:
  4974   001ECC                     
  4975                           ;MCAL_Layer/Timer/Timer3/hal_timer3.c: 142:         TMR3_InterruptHandler();
  4976   001ECC  D802               	call	i2u437_48
  4977   001ECE  EF72  F00F         	goto	i2u437_49
  4978   001ED2                     i2u437_48:
  4979   001ED2  0005               	push	
  4980   001ED4  6EFA               	movwf	pclath,c
  4981   001ED6  500B               	movf	_TMR3_InterruptHandler^0,w,c
  4982   001ED8  6EFD               	movwf	tosl,c
  4983   001EDA  500C               	movf	(_TMR3_InterruptHandler+1)^0,w,c
  4984   001EDC  6EFE               	movwf	tosh,c
  4985   001EDE  6AFF               	clrf	tosu,c
  4986   001EE0  50FA               	movf	pclath,w,c
  4987   001EE2  0012               	return		;indir
  4988   001EE4                     i2u437_49:
  4989   001EE4                     i2l1222:
  4990   001EE4  0012               	return		;funcret
  4991   001EE6                     __end_ofi2_TMR3_ISR:
  4992                           	callstack 0
  4993                           
  4994 ;; *************** function i2_timer3_interruptHundler *****************
  4995 ;; Defined at:
  4996 ;;		line 163 in file "application.c"
  4997 ;; Parameters:    Size  Location     Type
  4998 ;;		None
  4999 ;; Auto vars:     Size  Location     Type
  5000 ;;		None
  5001 ;; Return value:  Size  Location     Type
  5002 ;;                  1    wreg      void 
  5003 ;; Registers used:
  5004 ;;		wreg, status,2, status,0
  5005 ;; Tracked objects:
  5006 ;;		On entry : 0/0
  5007 ;;		On exit  : 0/0
  5008 ;;		Unchanged: 0/0
  5009 ;; Data sizes:     COMRAM   BANK0   BANK1   BANK2   BANK3   BANK4   BANK5   BANK6   BANK7   BANK8   BANK9  BANK10  BANK1
      +1  BANK12  BANK13  BANK14  BANK15
  5010 ;;      Params:         0       0       0       0       0       0       0       0       0       0       0       0       
      +0       0       0       0       0
  5011 ;;      Locals:         0       0       0       0       0       0       0       0       0       0       0       0       
      +0       0       0       0       0
  5012 ;;      Temps:          0       0       0       0       0       0       0       0       0       0       0       0       
      +0       0       0       0       0
  5013 ;;      Totals:         0       0       0       0       0       0       0       0       0       0       0       0       
      +0       0       0       0       0
  5014 ;;Total ram usage:        0 bytes
  5015 ;; Hardware stack levels used: 1
  5016 ;; This function calls:
  5017 ;;		Nothing
  5018 ;; This function is called by:
  5019 ;; This function uses a non-reentrant model
  5020 ;;
  5021                           
  5022                           	psect	text42
  5023   002304                     __ptext42:
  5024                           	callstack 0
  5025   002304                     i2_timer3_interruptHundler:
  5026                           	callstack 18
  5027   002304                     
  5028                           ;application.c: 164:     timer3_overflow++;
  5029   002304  0E01               	movlw	1
  5030   002306  0100               	movlb	0	; () banked
  5031   002308  27E8               	addwf	_timer3_overflow& (0+255),f,b	;volatile
  5032   00230A  0E00               	movlw	0
  5033   00230C  23E9               	addwfc	(_timer3_overflow+1)& (0+255),f,b	;volatile
  5034   00230E  23EA               	addwfc	(_timer3_overflow+2)& (0+255),f,b	;volatile
  5035   002310  23EB               	addwfc	(_timer3_overflow+3)& (0+255),f,b	;volatile
  5036   002312                     
  5037                           ; BSR set to: 0
  5038   002312  0012               	return		;funcret
  5039   002314                     __end_ofi2_timer3_interruptHundler:
  5040                           	callstack 0
  5041                           
  5042 ;; *************** function i2_TMR2_ISR *****************
  5043 ;; Defined at:
  5044 ;;		line 123 in file "MCAL_Layer/Timer/Timer2/hal_timer2.c"
  5045 ;; Parameters:    Size  Location     Type
  5046 ;;		None
  5047 ;; Auto vars:     Size  Location     Type
  5048 ;;		None
  5049 ;; Return value:  Size  Location     Type
  5050 ;;                  1    wreg      void 
  5051 ;; Registers used:
  5052 ;;		None
  5053 ;; Tracked objects:
  5054 ;;		On entry : 0/0
  5055 ;;		On exit  : 0/0
  5056 ;;		Unchanged: 0/0
  5057 ;; Data sizes:     COMRAM   BANK0   BANK1   BANK2   BANK3   BANK4   BANK5   BANK6   BANK7   BANK8   BANK9  BANK10  BANK1
      +1  BANK12  BANK13  BANK14  BANK15
  5058 ;;      Params:         0       0       0       0       0       0       0       0       0       0       0       0       
      +0       0       0       0       0
  5059 ;;      Locals:         0       0       0       0       0       0       0       0       0       0       0       0       
      +0       0       0       0       0
  5060 ;;      Temps:          0       0       0       0       0       0       0       0       0       0       0       0       
      +0       0       0       0       0
  5061 ;;      Totals:         0       0       0       0       0       0       0       0       0       0       0       0       
      +0       0       0       0       0
  5062 ;;Total ram usage:        0 bytes
  5063 ;; Hardware stack levels used: 1
  5064 ;; This function calls:
  5065 ;;		Nothing
  5066 ;; This function is called by:
  5067 ;;		i2_InterruptCheck
  5068 ;; This function uses a non-reentrant model
  5069 ;;
  5070                           
  5071                           	psect	text43
  5072   002354                     __ptext43:
  5073                           	callstack 0
  5074   002354                     i2_TMR2_ISR:
  5075                           	callstack 19
  5076   002354                     
  5077                           ;MCAL_Layer/Timer/Timer2/hal_timer2.c: 124:     (PIR1bits.TMR2IF = 0);
  5078   002354  929E               	bcf	158,1,c	;volatile
  5079                           
  5080                           ;MCAL_Layer/Timer/Timer2/hal_timer2.c: 125:     TMR2 = timer2_preload;
  5081   002356  C036  FFCC         	movff	_timer2_preload,4044	;volatile
  5082   00235A  0012               	return		;funcret
  5083   00235C                     __end_ofi2_TMR2_ISR:
  5084                           	callstack 0
  5085                           
  5086 ;; *************** function i2_TMR1_ISR *****************
  5087 ;; Defined at:
  5088 ;;		line 137 in file "MCAL_Layer/Timer/Timer1/hal_timer1.c"
  5089 ;; Parameters:    Size  Location     Type
  5090 ;;		None
  5091 ;; Auto vars:     Size  Location     Type
  5092 ;;		None
  5093 ;; Return value:  Size  Location     Type
  5094 ;;                  1    wreg      void 
  5095 ;; Registers used:
  5096 ;;		wreg, status,2
  5097 ;; Tracked objects:
  5098 ;;		On entry : 0/0
  5099 ;;		On exit  : 0/0
  5100 ;;		Unchanged: 0/0
  5101 ;; Data sizes:     COMRAM   BANK0   BANK1   BANK2   BANK3   BANK4   BANK5   BANK6   BANK7   BANK8   BANK9  BANK10  BANK1
      +1  BANK12  BANK13  BANK14  BANK15
  5102 ;;      Params:         0       0       0       0       0       0       0       0       0       0       0       0       
      +0       0       0       0       0
  5103 ;;      Locals:         0       0       0       0       0       0       0       0       0       0       0       0       
      +0       0       0       0       0
  5104 ;;      Temps:          0       0       0       0       0       0       0       0       0       0       0       0       
      +0       0       0       0       0
  5105 ;;      Totals:         0       0       0       0       0       0       0       0       0       0       0       0       
      +0       0       0       0       0
  5106 ;;Total ram usage:        0 bytes
  5107 ;; Hardware stack levels used: 1
  5108 ;; This function calls:
  5109 ;;		Nothing
  5110 ;; This function is called by:
  5111 ;;		i2_InterruptCheck
  5112 ;; This function uses a non-reentrant model
  5113 ;;
  5114                           
  5115                           	psect	text44
  5116   002340                     __ptext44:
  5117                           	callstack 0
  5118   002340                     i2_TMR1_ISR:
  5119                           	callstack 19
  5120   002340                     
  5121                           ;MCAL_Layer/Timer/Timer1/hal_timer1.c: 138:     (PIR1bits.TMR1IF = 0);
  5122   002340  909E               	bcf	158,0,c	;volatile
  5123   002342                     
  5124                           ;MCAL_Layer/Timer/Timer1/hal_timer1.c: 139:     TMR1H = timer1_preload >>8;
  5125   002342  5010               	movf	(_timer1_preload+1)^0,w,c
  5126   002344  6ECF               	movwf	207,c	;volatile
  5127   002346                     
  5128                           ;MCAL_Layer/Timer/Timer1/hal_timer1.c: 140:     TMR1L = (uint8)timer1_preload;
  5129   002346  C00F  FFCE         	movff	_timer1_preload,4046	;volatile
  5130   00234A  0012               	return		;funcret
  5131   00234C                     __end_ofi2_TMR1_ISR:
  5132                           	callstack 0
  5133                           
  5134 ;; *************** function i2_RB7_ISR *****************
  5135 ;; Defined at:
  5136 ;;		line 605 in file "MCAL_Layer/Interrupt/mcal_external_interrupt.c"
  5137 ;; Parameters:    Size  Location     Type
  5138 ;;  RB7_Source      1    wreg     unsigned char 
  5139 ;; Auto vars:     Size  Location     Type
  5140 ;;  RB7_Source      1    0[COMRAM] unsigned char 
  5141 ;; Return value:  Size  Location     Type
  5142 ;;                  1    wreg      void 
  5143 ;; Registers used:
  5144 ;;		wreg, status,2, status,0
  5145 ;; Tracked objects:
  5146 ;;		On entry : 0/0
  5147 ;;		On exit  : 0/0
  5148 ;;		Unchanged: 0/0
  5149 ;; Data sizes:     COMRAM   BANK0   BANK1   BANK2   BANK3   BANK4   BANK5   BANK6   BANK7   BANK8   BANK9  BANK10  BANK1
      +1  BANK12  BANK13  BANK14  BANK15
  5150 ;;      Params:         0       0       0       0       0       0       0       0       0       0       0       0       
      +0       0       0       0       0
  5151 ;;      Locals:         1       0       0       0       0       0       0       0       0       0       0       0       
      +0       0       0       0       0
  5152 ;;      Temps:          0       0       0       0       0       0       0       0       0       0       0       0       
      +0       0       0       0       0
  5153 ;;      Totals:         1       0       0       0       0       0       0       0       0       0       0       0       
      +0       0       0       0       0
  5154 ;;Total ram usage:        1 bytes
  5155 ;; Hardware stack levels used: 1
  5156 ;; This function calls:
  5157 ;;		Nothing
  5158 ;; This function is called by:
  5159 ;;		i2_InterruptCheck
  5160 ;; This function uses a non-reentrant model
  5161 ;;
  5162                           
  5163                           	psect	text45
  5164   002288                     __ptext45:
  5165                           	callstack 0
  5166   002288                     i2_RB7_ISR:
  5167                           	callstack 19
  5168                           
  5169                           ;incstack = 0
  5170                           ;i2RB7_ISR@RB7_Source stored from wreg
  5171   002288  6E41               	movwf	i2RB7_ISR@RB7_Source^0,c
  5172   00228A                     
  5173                           ;MCAL_Layer/Interrupt/mcal_external_interrupt.c: 607:     (INTCONbits.RBIF = 0);
  5174   00228A  90F2               	bcf	242,0,c	;volatile
  5175   00228C                     
  5176                           ;MCAL_Layer/Interrupt/mcal_external_interrupt.c: 611:     if(0 == RB7_Source){
  5177   00228C  5041               	movf	i2RB7_ISR@RB7_Source^0,w,c
  5178   00228E  A4D8               	btfss	status,2,c
  5179   002290  EF4C  F011         	goto	i2u433_41
  5180   002294  EF4E  F011         	goto	i2u433_40
  5181   002298                     i2u433_41:
  5182   002298  EF50  F011         	goto	i2l5372
  5183   00229C                     i2u433_40:
  5184   00229C  EF50  F011         	goto	i2l978
  5185   0022A0                     i2l5372:
  5186   0022A0                     i2l978:
  5187   0022A0  0012               	return		;funcret
  5188   0022A2                     __end_ofi2_RB7_ISR:
  5189                           	callstack 0
  5190                           
  5191 ;; *************** function i2_RB6_ISR *****************
  5192 ;; Defined at:
  5193 ;;		line 587 in file "MCAL_Layer/Interrupt/mcal_external_interrupt.c"
  5194 ;; Parameters:    Size  Location     Type
  5195 ;;  RB6_Source      1    wreg     unsigned char 
  5196 ;; Auto vars:     Size  Location     Type
  5197 ;;  RB6_Source      1    0[COMRAM] unsigned char 
  5198 ;; Return value:  Size  Location     Type
  5199 ;;                  1    wreg      void 
  5200 ;; Registers used:
  5201 ;;		wreg, status,2, status,0
  5202 ;; Tracked objects:
  5203 ;;		On entry : 0/0
  5204 ;;		On exit  : 0/0
  5205 ;;		Unchanged: 0/0
  5206 ;; Data sizes:     COMRAM   BANK0   BANK1   BANK2   BANK3   BANK4   BANK5   BANK6   BANK7   BANK8   BANK9  BANK10  BANK1
      +1  BANK12  BANK13  BANK14  BANK15
  5207 ;;      Params:         0       0       0       0       0       0       0       0       0       0       0       0       
      +0       0       0       0       0
  5208 ;;      Locals:         1       0       0       0       0       0       0       0       0       0       0       0       
      +0       0       0       0       0
  5209 ;;      Temps:          0       0       0       0       0       0       0       0       0       0       0       0       
      +0       0       0       0       0
  5210 ;;      Totals:         1       0       0       0       0       0       0       0       0       0       0       0       
      +0       0       0       0       0
  5211 ;;Total ram usage:        1 bytes
  5212 ;; Hardware stack levels used: 1
  5213 ;; This function calls:
  5214 ;;		Nothing
  5215 ;; This function is called by:
  5216 ;;		i2_InterruptCheck
  5217 ;; This function uses a non-reentrant model
  5218 ;;
  5219                           
  5220                           	psect	text46
  5221   0022A2                     __ptext46:
  5222                           	callstack 0
  5223   0022A2                     i2_RB6_ISR:
  5224                           	callstack 19
  5225                           
  5226                           ;incstack = 0
  5227                           ;i2RB6_ISR@RB6_Source stored from wreg
  5228   0022A2  6E41               	movwf	i2RB6_ISR@RB6_Source^0,c
  5229   0022A4                     
  5230                           ;MCAL_Layer/Interrupt/mcal_external_interrupt.c: 589:     (INTCONbits.RBIF = 0);
  5231   0022A4  90F2               	bcf	242,0,c	;volatile
  5232   0022A6                     
  5233                           ;MCAL_Layer/Interrupt/mcal_external_interrupt.c: 593:     if(0 == RB6_Source){
  5234   0022A6  5041               	movf	i2RB6_ISR@RB6_Source^0,w,c
  5235   0022A8  A4D8               	btfss	status,2,c
  5236   0022AA  EF59  F011         	goto	i2u432_41
  5237   0022AE  EF5B  F011         	goto	i2u432_40
  5238   0022B2                     i2u432_41:
  5239   0022B2  EF5D  F011         	goto	i2l5358
  5240   0022B6                     i2u432_40:
  5241   0022B6  EF5D  F011         	goto	i2l967
  5242   0022BA                     i2l5358:
  5243   0022BA                     i2l967:
  5244   0022BA  0012               	return		;funcret
  5245   0022BC                     __end_ofi2_RB6_ISR:
  5246                           	callstack 0
  5247                           
  5248 ;; *************** function i2_RB5_ISR *****************
  5249 ;; Defined at:
  5250 ;;		line 569 in file "MCAL_Layer/Interrupt/mcal_external_interrupt.c"
  5251 ;; Parameters:    Size  Location     Type
  5252 ;;  RB5_Source      1    wreg     unsigned char 
  5253 ;; Auto vars:     Size  Location     Type
  5254 ;;  RB5_Source      1    0[COMRAM] unsigned char 
  5255 ;; Return value:  Size  Location     Type
  5256 ;;                  1    wreg      void 
  5257 ;; Registers used:
  5258 ;;		wreg, status,2, status,0
  5259 ;; Tracked objects:
  5260 ;;		On entry : 0/0
  5261 ;;		On exit  : 0/0
  5262 ;;		Unchanged: 0/0
  5263 ;; Data sizes:     COMRAM   BANK0   BANK1   BANK2   BANK3   BANK4   BANK5   BANK6   BANK7   BANK8   BANK9  BANK10  BANK1
      +1  BANK12  BANK13  BANK14  BANK15
  5264 ;;      Params:         0       0       0       0       0       0       0       0       0       0       0       0       
      +0       0       0       0       0
  5265 ;;      Locals:         1       0       0       0       0       0       0       0       0       0       0       0       
      +0       0       0       0       0
  5266 ;;      Temps:          0       0       0       0       0       0       0       0       0       0       0       0       
      +0       0       0       0       0
  5267 ;;      Totals:         1       0       0       0       0       0       0       0       0       0       0       0       
      +0       0       0       0       0
  5268 ;;Total ram usage:        1 bytes
  5269 ;; Hardware stack levels used: 1
  5270 ;; This function calls:
  5271 ;;		Nothing
  5272 ;; This function is called by:
  5273 ;;		i2_InterruptCheck
  5274 ;; This function uses a non-reentrant model
  5275 ;;
  5276                           
  5277                           	psect	text47
  5278   0022BC                     __ptext47:
  5279                           	callstack 0
  5280   0022BC                     i2_RB5_ISR:
  5281                           	callstack 19
  5282                           
  5283                           ;incstack = 0
  5284                           ;i2RB5_ISR@RB5_Source stored from wreg
  5285   0022BC  6E41               	movwf	i2RB5_ISR@RB5_Source^0,c
  5286   0022BE                     
  5287                           ;MCAL_Layer/Interrupt/mcal_external_interrupt.c: 571:     (INTCONbits.RBIF = 0);
  5288   0022BE  90F2               	bcf	242,0,c	;volatile
  5289   0022C0                     
  5290                           ;MCAL_Layer/Interrupt/mcal_external_interrupt.c: 575:     if(0 == RB5_Source){
  5291   0022C0  5041               	movf	i2RB5_ISR@RB5_Source^0,w,c
  5292   0022C2  A4D8               	btfss	status,2,c
  5293   0022C4  EF66  F011         	goto	i2u431_41
  5294   0022C8  EF68  F011         	goto	i2u431_40
  5295   0022CC                     i2u431_41:
  5296   0022CC  EF6A  F011         	goto	i2l5344
  5297   0022D0                     i2u431_40:
  5298   0022D0  EF6A  F011         	goto	i2l956
  5299   0022D4                     i2l5344:
  5300   0022D4                     i2l956:
  5301   0022D4  0012               	return		;funcret
  5302   0022D6                     __end_ofi2_RB5_ISR:
  5303                           	callstack 0
  5304                           
  5305 ;; *************** function i2_RB4_ISR *****************
  5306 ;; Defined at:
  5307 ;;		line 551 in file "MCAL_Layer/Interrupt/mcal_external_interrupt.c"
  5308 ;; Parameters:    Size  Location     Type
  5309 ;;  RB4_Source      1    wreg     unsigned char 
  5310 ;; Auto vars:     Size  Location     Type
  5311 ;;  RB4_Source      1    0[COMRAM] unsigned char 
  5312 ;; Return value:  Size  Location     Type
  5313 ;;                  1    wreg      void 
  5314 ;; Registers used:
  5315 ;;		wreg, status,2, status,0
  5316 ;; Tracked objects:
  5317 ;;		On entry : 0/0
  5318 ;;		On exit  : 0/0
  5319 ;;		Unchanged: 0/0
  5320 ;; Data sizes:     COMRAM   BANK0   BANK1   BANK2   BANK3   BANK4   BANK5   BANK6   BANK7   BANK8   BANK9  BANK10  BANK1
      +1  BANK12  BANK13  BANK14  BANK15
  5321 ;;      Params:         0       0       0       0       0       0       0       0       0       0       0       0       
      +0       0       0       0       0
  5322 ;;      Locals:         1       0       0       0       0       0       0       0       0       0       0       0       
      +0       0       0       0       0
  5323 ;;      Temps:          0       0       0       0       0       0       0       0       0       0       0       0       
      +0       0       0       0       0
  5324 ;;      Totals:         1       0       0       0       0       0       0       0       0       0       0       0       
      +0       0       0       0       0
  5325 ;;Total ram usage:        1 bytes
  5326 ;; Hardware stack levels used: 1
  5327 ;; This function calls:
  5328 ;;		Nothing
  5329 ;; This function is called by:
  5330 ;;		i2_InterruptCheck
  5331 ;; This function uses a non-reentrant model
  5332 ;;
  5333                           
  5334                           	psect	text48
  5335   0022D6                     __ptext48:
  5336                           	callstack 0
  5337   0022D6                     i2_RB4_ISR:
  5338                           	callstack 19
  5339                           
  5340                           ;incstack = 0
  5341                           ;i2RB4_ISR@RB4_Source stored from wreg
  5342   0022D6  6E41               	movwf	i2RB4_ISR@RB4_Source^0,c
  5343   0022D8                     
  5344                           ;MCAL_Layer/Interrupt/mcal_external_interrupt.c: 553:     (INTCONbits.RBIF = 0);
  5345   0022D8  90F2               	bcf	242,0,c	;volatile
  5346   0022DA                     
  5347                           ;MCAL_Layer/Interrupt/mcal_external_interrupt.c: 557:     if(0 == RB4_Source){
  5348   0022DA  5041               	movf	i2RB4_ISR@RB4_Source^0,w,c
  5349   0022DC  A4D8               	btfss	status,2,c
  5350   0022DE  EF73  F011         	goto	i2u430_41
  5351   0022E2  EF75  F011         	goto	i2u430_40
  5352   0022E6                     i2u430_41:
  5353   0022E6  EF77  F011         	goto	i2l5330
  5354   0022EA                     i2u430_40:
  5355   0022EA  EF77  F011         	goto	i2l945
  5356   0022EE                     i2l5330:
  5357   0022EE                     i2l945:
  5358   0022EE  0012               	return		;funcret
  5359   0022F0                     __end_ofi2_RB4_ISR:
  5360                           	callstack 0
  5361                           
  5362 ;; *************** function i2_INT2_ISR *****************
  5363 ;; Defined at:
  5364 ;;		line 540 in file "MCAL_Layer/Interrupt/mcal_external_interrupt.c"
  5365 ;; Parameters:    Size  Location     Type
  5366 ;;		None
  5367 ;; Auto vars:     Size  Location     Type
  5368 ;;		None
  5369 ;; Return value:  Size  Location     Type
  5370 ;;                  1    wreg      void 
  5371 ;; Registers used:
  5372 ;;		None
  5373 ;; Tracked objects:
  5374 ;;		On entry : 0/0
  5375 ;;		On exit  : 0/0
  5376 ;;		Unchanged: 0/0
  5377 ;; Data sizes:     COMRAM   BANK0   BANK1   BANK2   BANK3   BANK4   BANK5   BANK6   BANK7   BANK8   BANK9  BANK10  BANK1
      +1  BANK12  BANK13  BANK14  BANK15
  5378 ;;      Params:         0       0       0       0       0       0       0       0       0       0       0       0       
      +0       0       0       0       0
  5379 ;;      Locals:         0       0       0       0       0       0       0       0       0       0       0       0       
      +0       0       0       0       0
  5380 ;;      Temps:          0       0       0       0       0       0       0       0       0       0       0       0       
      +0       0       0       0       0
  5381 ;;      Totals:         0       0       0       0       0       0       0       0       0       0       0       0       
      +0       0       0       0       0
  5382 ;;Total ram usage:        0 bytes
  5383 ;; Hardware stack levels used: 1
  5384 ;; This function calls:
  5385 ;;		Nothing
  5386 ;; This function is called by:
  5387 ;;		i2_InterruptCheck
  5388 ;; This function uses a non-reentrant model
  5389 ;;
  5390                           
  5391                           	psect	text49
  5392   00236C                     __ptext49:
  5393                           	callstack 0
  5394   00236C                     i2_INT2_ISR:
  5395                           	callstack 19
  5396   00236C                     
  5397                           ;MCAL_Layer/Interrupt/mcal_external_interrupt.c: 542:     (INTCON3bits.INT2IF = 0);
  5398   00236C  92F0               	bcf	240,1,c	;volatile
  5399   00236E  0012               	return		;funcret
  5400   002370                     __end_ofi2_INT2_ISR:
  5401                           	callstack 0
  5402                           
  5403 ;; *************** function i2_INT1_ISR *****************
  5404 ;; Defined at:
  5405 ;;		line 530 in file "MCAL_Layer/Interrupt/mcal_external_interrupt.c"
  5406 ;; Parameters:    Size  Location     Type
  5407 ;;		None
  5408 ;; Auto vars:     Size  Location     Type
  5409 ;;		None
  5410 ;; Return value:  Size  Location     Type
  5411 ;;                  1    wreg      void 
  5412 ;; Registers used:
  5413 ;;		None
  5414 ;; Tracked objects:
  5415 ;;		On entry : 0/0
  5416 ;;		On exit  : 0/0
  5417 ;;		Unchanged: 0/0
  5418 ;; Data sizes:     COMRAM   BANK0   BANK1   BANK2   BANK3   BANK4   BANK5   BANK6   BANK7   BANK8   BANK9  BANK10  BANK1
      +1  BANK12  BANK13  BANK14  BANK15
  5419 ;;      Params:         0       0       0       0       0       0       0       0       0       0       0       0       
      +0       0       0       0       0
  5420 ;;      Locals:         0       0       0       0       0       0       0       0       0       0       0       0       
      +0       0       0       0       0
  5421 ;;      Temps:          0       0       0       0       0       0       0       0       0       0       0       0       
      +0       0       0       0       0
  5422 ;;      Totals:         0       0       0       0       0       0       0       0       0       0       0       0       
      +0       0       0       0       0
  5423 ;;Total ram usage:        0 bytes
  5424 ;; Hardware stack levels used: 1
  5425 ;; This function calls:
  5426 ;;		Nothing
  5427 ;; This function is called by:
  5428 ;;		i2_InterruptCheck
  5429 ;; This function uses a non-reentrant model
  5430 ;;
  5431                           
  5432                           	psect	text50
  5433   002370                     __ptext50:
  5434                           	callstack 0
  5435   002370                     i2_INT1_ISR:
  5436                           	callstack 19
  5437   002370                     
  5438                           ;MCAL_Layer/Interrupt/mcal_external_interrupt.c: 532:     (INTCON3bits.INT1IF = 0);
  5439   002370  90F0               	bcf	240,0,c	;volatile
  5440   002372  0012               	return		;funcret
  5441   002374                     __end_ofi2_INT1_ISR:
  5442                           	callstack 0
  5443                           
  5444 ;; *************** function i2_INT0_ISR *****************
  5445 ;; Defined at:
  5446 ;;		line 520 in file "MCAL_Layer/Interrupt/mcal_external_interrupt.c"
  5447 ;; Parameters:    Size  Location     Type
  5448 ;;		None
  5449 ;; Auto vars:     Size  Location     Type
  5450 ;;		None
  5451 ;; Return value:  Size  Location     Type
  5452 ;;                  1    wreg      void 
  5453 ;; Registers used:
  5454 ;;		None
  5455 ;; Tracked objects:
  5456 ;;		On entry : 0/0
  5457 ;;		On exit  : 0/0
  5458 ;;		Unchanged: 0/0
  5459 ;; Data sizes:     COMRAM   BANK0   BANK1   BANK2   BANK3   BANK4   BANK5   BANK6   BANK7   BANK8   BANK9  BANK10  BANK1
      +1  BANK12  BANK13  BANK14  BANK15
  5460 ;;      Params:         0       0       0       0       0       0       0       0       0       0       0       0       
      +0       0       0       0       0
  5461 ;;      Locals:         0       0       0       0       0       0       0       0       0       0       0       0       
      +0       0       0       0       0
  5462 ;;      Temps:          0       0       0       0       0       0       0       0       0       0       0       0       
      +0       0       0       0       0
  5463 ;;      Totals:         0       0       0       0       0       0       0       0       0       0       0       0       
      +0       0       0       0       0
  5464 ;;Total ram usage:        0 bytes
  5465 ;; Hardware stack levels used: 1
  5466 ;; This function calls:
  5467 ;;		Nothing
  5468 ;; This function is called by:
  5469 ;;		i2_InterruptCheck
  5470 ;; This function uses a non-reentrant model
  5471 ;;
  5472                           
  5473                           	psect	text51
  5474   002374                     __ptext51:
  5475                           	callstack 0
  5476   002374                     i2_INT0_ISR:
  5477                           	callstack 19
  5478   002374                     
  5479                           ;MCAL_Layer/Interrupt/mcal_external_interrupt.c: 522:     (INTCONbits.INT0IF = 0);
  5480   002374  92F2               	bcf	242,1,c	;volatile
  5481   002376  0012               	return		;funcret
  5482   002378                     __end_ofi2_INT0_ISR:
  5483                           	callstack 0
  5484                           
  5485 ;; *************** function i2_EUSART_TX_ISR *****************
  5486 ;; Defined at:
  5487 ;;		line 228 in file "MCAL_Layer/USART/hal_usart.c"
  5488 ;; Parameters:    Size  Location     Type
  5489 ;;		None
  5490 ;; Auto vars:     Size  Location     Type
  5491 ;;		None
  5492 ;; Return value:  Size  Location     Type
  5493 ;;                  1    wreg      void 
  5494 ;; Registers used:
  5495 ;;		wreg, status,2, status,0, pcl, pclath, pclatu, tosl, cstack
  5496 ;; Tracked objects:
  5497 ;;		On entry : 0/0
  5498 ;;		On exit  : 0/0
  5499 ;;		Unchanged: 0/0
  5500 ;; Data sizes:     COMRAM   BANK0   BANK1   BANK2   BANK3   BANK4   BANK5   BANK6   BANK7   BANK8   BANK9  BANK10  BANK1
      +1  BANK12  BANK13  BANK14  BANK15
  5501 ;;      Params:         0       0       0       0       0       0       0       0       0       0       0       0       
      +0       0       0       0       0
  5502 ;;      Locals:         0       0       0       0       0       0       0       0       0       0       0       0       
      +0       0       0       0       0
  5503 ;;      Temps:          0       0       0       0       0       0       0       0       0       0       0       0       
      +0       0       0       0       0
  5504 ;;      Totals:         0       0       0       0       0       0       0       0       0       0       0       0       
      +0       0       0       0       0
  5505 ;;Total ram usage:        0 bytes
  5506 ;; Hardware stack levels used: 1
  5507 ;; Hardware stack levels required when called: 1
  5508 ;; This function calls:
  5509 ;;		NULL
  5510 ;;		i2_EUSART_Tx_InterruptHandler
  5511 ;; This function is called by:
  5512 ;;		i2_InterruptCheck
  5513 ;; This function uses a non-reentrant model
  5514 ;;
  5515                           
  5516                           	psect	text52
  5517   00203A                     __ptext52:
  5518                           	callstack 0
  5519   00203A                     i2_EUSART_TX_ISR:
  5520                           	callstack 18
  5521   00203A                     
  5522                           ;MCAL_Layer/USART/hal_usart.c: 229:     (PIE1bits.TXIE = 0);
  5523   00203A  989D               	bcf	157,4,c	;volatile
  5524   00203C                     
  5525                           ;MCAL_Layer/USART/hal_usart.c: 230:     if(EUSART_Tx_InterruptHandler){
  5526   00203C  5007               	movf	_EUSART_Tx_InterruptHandler@hal_usart$F3612^0,w,c
  5527   00203E  1008               	iorwf	(_EUSART_Tx_InterruptHandler@hal_usart$F3612+1)^0,w,c
  5528   002040  B4D8               	btfsc	status,2,c
  5529   002042  EF25  F010         	goto	i2u438_41
  5530   002046  EF27  F010         	goto	i2u438_40
  5531   00204A                     i2u438_41:
  5532   00204A  EF33  F010         	goto	i2l1346
  5533   00204E                     i2u438_40:
  5534   00204E                     
  5535                           ;MCAL_Layer/USART/hal_usart.c: 231:         EUSART_Tx_InterruptHandler();
  5536   00204E  D802               	call	i2u439_48
  5537   002050  EF33  F010         	goto	i2u439_49
  5538   002054                     i2u439_48:
  5539   002054  0005               	push	
  5540   002056  6EFA               	movwf	pclath,c
  5541   002058  5007               	movf	_EUSART_Tx_InterruptHandler@hal_usart$F3612^0,w,c
  5542   00205A  6EFD               	movwf	tosl,c
  5543   00205C  5008               	movf	(_EUSART_Tx_InterruptHandler@hal_usart$F3612+1)^0,w,c
  5544   00205E  6EFE               	movwf	tosh,c
  5545   002060  6AFF               	clrf	tosu,c
  5546   002062  50FA               	movf	pclath,w,c
  5547   002064  0012               	return		;indir
  5548   002066                     i2u439_49:
  5549   002066                     i2l1346:
  5550   002066  0012               	return		;funcret
  5551   002068                     __end_ofi2_EUSART_TX_ISR:
  5552                           	callstack 0
  5553                           
  5554 ;; *************** function i2_EUSART_Tx_InterruptHandler *****************
  5555 ;; Defined at:
  5556 ;;		line 181 in file "application.c"
  5557 ;; Parameters:    Size  Location     Type
  5558 ;;		None
  5559 ;; Auto vars:     Size  Location     Type
  5560 ;;		None
  5561 ;; Return value:  Size  Location     Type
  5562 ;;                  1    wreg      void 
  5563 ;; Registers used:
  5564 ;;		wreg, status,2, status,0
  5565 ;; Tracked objects:
  5566 ;;		On entry : 0/0
  5567 ;;		On exit  : 0/0
  5568 ;;		Unchanged: 0/0
  5569 ;; Data sizes:     COMRAM   BANK0   BANK1   BANK2   BANK3   BANK4   BANK5   BANK6   BANK7   BANK8   BANK9  BANK10  BANK1
      +1  BANK12  BANK13  BANK14  BANK15
  5570 ;;      Params:         0       0       0       0       0       0       0       0       0       0       0       0       
      +0       0       0       0       0
  5571 ;;      Locals:         0       0       0       0       0       0       0       0       0       0       0       0       
      +0       0       0       0       0
  5572 ;;      Temps:          0       0       0       0       0       0       0       0       0       0       0       0       
      +0       0       0       0       0
  5573 ;;      Totals:         0       0       0       0       0       0       0       0       0       0       0       0       
      +0       0       0       0       0
  5574 ;;Total ram usage:        0 bytes
  5575 ;; Hardware stack levels used: 1
  5576 ;; This function calls:
  5577 ;;		Nothing
  5578 ;; This function is called by:
  5579 ;; This function uses a non-reentrant model
  5580 ;;
  5581                           
  5582                           	psect	text53
  5583   002314                     __ptext53:
  5584                           	callstack 0
  5585   002314                     i2_EUSART_Tx_InterruptHandler:
  5586                           	callstack 18
  5587   002314                     
  5588                           ;application.c: 182:     usart_tx_valid++;
  5589   002314  0E01               	movlw	1
  5590   002316  0100               	movlb	0	; () banked
  5591   002318  27E0               	addwf	_usart_tx_valid& (0+255),f,b	;volatile
  5592   00231A  0E00               	movlw	0
  5593   00231C  23E1               	addwfc	(_usart_tx_valid+1)& (0+255),f,b	;volatile
  5594   00231E  23E2               	addwfc	(_usart_tx_valid+2)& (0+255),f,b	;volatile
  5595   002320  23E3               	addwfc	(_usart_tx_valid+3)& (0+255),f,b	;volatile
  5596   002322                     
  5597                           ; BSR set to: 0
  5598   002322  0012               	return		;funcret
  5599   002324                     __end_ofi2_EUSART_Tx_InterruptHandler:
  5600                           	callstack 0
  5601                           
  5602 ;; *************** function i2_EUSART_RX_ISR *****************
  5603 ;; Defined at:
  5604 ;;		line 236 in file "MCAL_Layer/USART/hal_usart.c"
  5605 ;; Parameters:    Size  Location     Type
  5606 ;;		None
  5607 ;; Auto vars:     Size  Location     Type
  5608 ;;		None
  5609 ;; Return value:  Size  Location     Type
  5610 ;;                  1    wreg      void 
  5611 ;; Registers used:
  5612 ;;		wreg, fsr2l, fsr2h, status,2, status,0, pcl, pclath, pclatu, tosl, cstack
  5613 ;; Tracked objects:
  5614 ;;		On entry : 0/0
  5615 ;;		On exit  : 0/0
  5616 ;;		Unchanged: 0/0
  5617 ;; Data sizes:     COMRAM   BANK0   BANK1   BANK2   BANK3   BANK4   BANK5   BANK6   BANK7   BANK8   BANK9  BANK10  BANK1
      +1  BANK12  BANK13  BANK14  BANK15
  5618 ;;      Params:         0       0       0       0       0       0       0       0       0       0       0       0       
      +0       0       0       0       0
  5619 ;;      Locals:         0       0       0       0       0       0       0       0       0       0       0       0       
      +0       0       0       0       0
  5620 ;;      Temps:          0       0       0       0       0       0       0       0       0       0       0       0       
      +0       0       0       0       0
  5621 ;;      Totals:         0       0       0       0       0       0       0       0       0       0       0       0       
      +0       0       0       0       0
  5622 ;;Total ram usage:        0 bytes
  5623 ;; Hardware stack levels used: 1
  5624 ;; Hardware stack levels required when called: 2
  5625 ;; This function calls:
  5626 ;;		NULL
  5627 ;;		i2_EUSART_Rx_InterruptHandler
  5628 ;; This function is called by:
  5629 ;;		i2_InterruptCheck
  5630 ;; This function uses a non-reentrant model
  5631 ;;
  5632                           
  5633                           	psect	text54
  5634   001FAE                     __ptext54:
  5635                           	callstack 0
  5636   001FAE                     i2_EUSART_RX_ISR:
  5637                           	callstack 17
  5638   001FAE                     
  5639                           ;MCAL_Layer/USART/hal_usart.c: 238:     if(EUSART_Rx_InterruptHandler){
  5640   001FAE  5005               	movf	_EUSART_Rx_InterruptHandler@hal_usart$F3613^0,w,c
  5641   001FB0  1006               	iorwf	(_EUSART_Rx_InterruptHandler@hal_usart$F3613+1)^0,w,c
  5642   001FB2  B4D8               	btfsc	status,2,c
  5643   001FB4  EFDE  F00F         	goto	i2u440_41
  5644   001FB8  EFE0  F00F         	goto	i2u440_40
  5645   001FBC                     i2u440_41:
  5646   001FBC  EFEE  F00F         	goto	i2l5408
  5647   001FC0                     i2u440_40:
  5648   001FC0                     
  5649                           ;MCAL_Layer/USART/hal_usart.c: 239:         EUSART_Rx_InterruptHandler();
  5650   001FC0  D802               	call	i2u441_48
  5651   001FC2  EFEC  F00F         	goto	i2u441_49
  5652   001FC6                     i2u441_48:
  5653   001FC6  0005               	push	
  5654   001FC8  6EFA               	movwf	pclath,c
  5655   001FCA  5005               	movf	_EUSART_Rx_InterruptHandler@hal_usart$F3613^0,w,c
  5656   001FCC  6EFD               	movwf	tosl,c
  5657   001FCE  5006               	movf	(_EUSART_Rx_InterruptHandler@hal_usart$F3613+1)^0,w,c
  5658   001FD0  6EFE               	movwf	tosh,c
  5659   001FD2  6AFF               	clrf	tosu,c
  5660   001FD4  50FA               	movf	pclath,w,c
  5661   001FD6  0012               	return		;indir
  5662   001FD8                     i2u441_49:
  5663                           
  5664                           ;MCAL_Layer/USART/hal_usart.c: 240:     }else{ }
  5665   001FD8  EFEE  F00F         	goto	i2l1355
  5666   001FDC                     i2l5408:
  5667   001FDC                     i2l1355:
  5668   001FDC  0012               	return		;funcret
  5669   001FDE                     __end_ofi2_EUSART_RX_ISR:
  5670                           	callstack 0
  5671                           
  5672 ;; *************** function i2_EUSART_Rx_InterruptHandler *****************
  5673 ;; Defined at:
  5674 ;;		line 184 in file "application.c"
  5675 ;; Parameters:    Size  Location     Type
  5676 ;;		None
  5677 ;; Auto vars:     Size  Location     Type
  5678 ;;		None
  5679 ;; Return value:  Size  Location     Type
  5680 ;;                  1    wreg      void 
  5681 ;; Registers used:
  5682 ;;		wreg, fsr2l, fsr2h, status,2, status,0, cstack
  5683 ;; Tracked objects:
  5684 ;;		On entry : 0/0
  5685 ;;		On exit  : 0/0
  5686 ;;		Unchanged: 0/0
  5687 ;; Data sizes:     COMRAM   BANK0   BANK1   BANK2   BANK3   BANK4   BANK5   BANK6   BANK7   BANK8   BANK9  BANK10  BANK1
      +1  BANK12  BANK13  BANK14  BANK15
  5688 ;;      Params:         0       0       0       0       0       0       0       0       0       0       0       0       
      +0       0       0       0       0
  5689 ;;      Locals:         0       0       0       0       0       0       0       0       0       0       0       0       
      +0       0       0       0       0
  5690 ;;      Temps:          0       0       0       0       0       0       0       0       0       0       0       0       
      +0       0       0       0       0
  5691 ;;      Totals:         0       0       0       0       0       0       0       0       0       0       0       0       
      +0       0       0       0       0
  5692 ;;Total ram usage:        0 bytes
  5693 ;; Hardware stack levels used: 1
  5694 ;; Hardware stack levels required when called: 1
  5695 ;; This function calls:
  5696 ;;		i2_EUSART_ASYNC_ReadByteNonBlocking
  5697 ;; This function is called by:
  5698 ;; This function uses a non-reentrant model
  5699 ;;
  5700                           
  5701                           	psect	text55
  5702   0021D0                     __ptext55:
  5703                           	callstack 0
  5704   0021D0                     i2_EUSART_Rx_InterruptHandler:
  5705                           	callstack 17
  5706   0021D0                     
  5707                           ;application.c: 185:     usart_rx_valid++;
  5708   0021D0  0E01               	movlw	1
  5709   0021D2  0100               	movlb	0	; () banked
  5710   0021D4  27E4               	addwf	_usart_rx_valid& (0+255),f,b	;volatile
  5711   0021D6  0E00               	movlw	0
  5712   0021D8  23E5               	addwfc	(_usart_rx_valid+1)& (0+255),f,b	;volatile
  5713   0021DA  23E6               	addwfc	(_usart_rx_valid+2)& (0+255),f,b	;volatile
  5714   0021DC  23E7               	addwfc	(_usart_rx_valid+3)& (0+255),f,b	;volatile
  5715   0021DE                     
  5716                           ; BSR set to: 0
  5717                           ;application.c: 186:     EUSART_ASYNC_ReadByteNonBlocking(&rec_uart_data);
  5718   0021DE  0E3F               	movlw	low _rec_uart_data
  5719   0021E0  6E41               	movwf	i2EUSART_ASYNC_ReadByteNonBlocking@_data^0,c
  5720   0021E2  0E00               	movlw	high _rec_uart_data
  5721   0021E4  6E42               	movwf	(i2EUSART_ASYNC_ReadByteNonBlocking@_data+1)^0,c
  5722   0021E6  ECA6  F00F         	call	i2_EUSART_ASYNC_ReadByteNonBlocking	;wreg free
  5723   0021EA  0012               	return		;funcret
  5724   0021EC                     __end_ofi2_EUSART_Rx_InterruptHandler:
  5725                           	callstack 0
  5726                           
  5727 ;; *************** function i2_EUSART_ASYNC_ReadByteNonBlocking *****************
  5728 ;; Defined at:
  5729 ;;		line 78 in file "MCAL_Layer/USART/hal_usart.c"
  5730 ;; Parameters:    Size  Location     Type
  5731 ;;  _data           2    0[COMRAM] PTR unsigned char 
  5732 ;;		 -> rec_uart_data(1), 
  5733 ;; Auto vars:     Size  Location     Type
  5734 ;;  ret             1    0        unsigned char 
  5735 ;; Return value:  Size  Location     Type
  5736 ;;                  1    wreg      unsigned char 
  5737 ;; Registers used:
  5738 ;;		wreg, fsr2l, fsr2h, status,2, status,0
  5739 ;; Tracked objects:
  5740 ;;		On entry : 0/0
  5741 ;;		On exit  : 0/0
  5742 ;;		Unchanged: 0/0
  5743 ;; Data sizes:     COMRAM   BANK0   BANK1   BANK2   BANK3   BANK4   BANK5   BANK6   BANK7   BANK8   BANK9  BANK10  BANK1
      +1  BANK12  BANK13  BANK14  BANK15
  5744 ;;      Params:         2       0       0       0       0       0       0       0       0       0       0       0       
      +0       0       0       0       0
  5745 ;;      Locals:         0       0       0       0       0       0       0       0       0       0       0       0       
      +0       0       0       0       0
  5746 ;;      Temps:          0       0       0       0       0       0       0       0       0       0       0       0       
      +0       0       0       0       0
  5747 ;;      Totals:         2       0       0       0       0       0       0       0       0       0       0       0       
      +0       0       0       0       0
  5748 ;;Total ram usage:        2 bytes
  5749 ;; Hardware stack levels used: 1
  5750 ;; This function calls:
  5751 ;;		Nothing
  5752 ;; This function is called by:
  5753 ;;		i2_EUSART_Rx_InterruptHandler
  5754 ;; This function uses a non-reentrant model
  5755 ;;
  5756                           
  5757                           	psect	text56
  5758   001F4C                     __ptext56:
  5759                           	callstack 0
  5760   001F4C                     i2_EUSART_ASYNC_ReadByteNonBlocking:
  5761                           	callstack 17
  5762   001F4C                     
  5763                           ;MCAL_Layer/USART/hal_usart.c: 80:     if(((void*)0) == _data){
  5764   001F4C  5041               	movf	i2EUSART_ASYNC_ReadByteNonBlocking@_data^0,w,c
  5765   001F4E  1042               	iorwf	(i2EUSART_ASYNC_ReadByteNonBlocking@_data+1)^0,w,c
  5766   001F50  A4D8               	btfss	status,2,c
  5767   001F52  EFAD  F00F         	goto	i2u401_41
  5768   001F56  EFAF  F00F         	goto	i2u401_40
  5769   001F5A                     i2u401_41:
  5770   001F5A  EFB1  F00F         	goto	i2l1294
  5771   001F5E                     i2u401_40:
  5772   001F5E                     i2l5078:
  5773                           
  5774                           ;MCAL_Layer/USART/hal_usart.c: 82:     }else{
  5775   001F5E  EFBE  F00F         	goto	i2l1298
  5776   001F62                     i2l1294:
  5777                           
  5778                           ;MCAL_Layer/USART/hal_usart.c: 83:         if(PIR1bits.RCIF)
  5779   001F62  AA9E               	btfss	158,5,c	;volatile
  5780   001F64  EFB6  F00F         	goto	i2u402_41
  5781   001F68  EFB8  F00F         	goto	i2u402_40
  5782   001F6C                     i2u402_41:
  5783   001F6C  EFAF  F00F         	goto	i2l5078
  5784   001F70                     i2u402_40:
  5785   001F70                     
  5786                           ;MCAL_Layer/USART/hal_usart.c: 84:         {;MCAL_Layer/USART/hal_usart.c: 85:          
      +                             *_data = RCREG ;
  5787   001F70  C041  FFD9         	movff	i2EUSART_ASYNC_ReadByteNonBlocking@_data,fsr2l
  5788   001F74  C042  FFDA         	movff	i2EUSART_ASYNC_ReadByteNonBlocking@_data+1,fsr2h
  5789   001F78  CFAE FFDF          	movff	4014,indf2	;volatile
  5790   001F7C                     i2l1298:
  5791   001F7C  0012               	return		;funcret
  5792   001F7E                     __end_ofi2_EUSART_ASYNC_ReadByteNonBlocking:
  5793                           	callstack 0
  5794                           
  5795 ;; *************** function i2_CCP1_ISR *****************
  5796 ;; Defined at:
  5797 ;;		line 200 in file "MCAL_Layer/CCP/CCP1/hal_ccp1.c"
  5798 ;; Parameters:    Size  Location     Type
  5799 ;;		None
  5800 ;; Auto vars:     Size  Location     Type
  5801 ;;		None
  5802 ;; Return value:  Size  Location     Type
  5803 ;;                  1    wreg      void 
  5804 ;; Registers used:
  5805 ;;		wreg, fsr2l, fsr2h, status,2, status,0, pcl, pclath, pclatu, tosl, cstack
  5806 ;; Tracked objects:
  5807 ;;		On entry : 0/0
  5808 ;;		On exit  : 0/0
  5809 ;;		Unchanged: 0/0
  5810 ;; Data sizes:     COMRAM   BANK0   BANK1   BANK2   BANK3   BANK4   BANK5   BANK6   BANK7   BANK8   BANK9  BANK10  BANK1
      +1  BANK12  BANK13  BANK14  BANK15
  5811 ;;      Params:         0       0       0       0       0       0       0       0       0       0       0       0       
      +0       0       0       0       0
  5812 ;;      Locals:         0       0       0       0       0       0       0       0       0       0       0       0       
      +0       0       0       0       0
  5813 ;;      Temps:          0       0       0       0       0       0       0       0       0       0       0       0       
      +0       0       0       0       0
  5814 ;;      Totals:         0       0       0       0       0       0       0       0       0       0       0       0       
      +0       0       0       0       0
  5815 ;;Total ram usage:        0 bytes
  5816 ;; Hardware stack levels used: 1
  5817 ;; Hardware stack levels required when called: 2
  5818 ;; This function calls:
  5819 ;;		NULL
  5820 ;;		i2_CCP1_interruptHundler
  5821 ;; This function is called by:
  5822 ;;		i2_InterruptCheck
  5823 ;; This function uses a non-reentrant model
  5824 ;;
  5825                           
  5826                           	psect	text57
  5827   002068                     __ptext57:
  5828                           	callstack 0
  5829   002068                     i2_CCP1_ISR:
  5830                           	callstack 17
  5831   002068                     
  5832                           ;MCAL_Layer/CCP/CCP1/hal_ccp1.c: 201:     (PIR1bits.CCP1IF = 0);
  5833   002068  949E               	bcf	158,2,c	;volatile
  5834   00206A                     
  5835                           ;MCAL_Layer/CCP/CCP1/hal_ccp1.c: 203:     if(CCP1_InterruptHandler){
  5836   00206A  502F               	movf	_CCP1_InterruptHandler^0,w,c
  5837   00206C  1030               	iorwf	(_CCP1_InterruptHandler+1)^0,w,c
  5838   00206E  B4D8               	btfsc	status,2,c
  5839   002070  EF3C  F010         	goto	i2u428_41
  5840   002074  EF3E  F010         	goto	i2u428_40
  5841   002078                     i2u428_41:
  5842   002078  EF4A  F010         	goto	i2l458
  5843   00207C                     i2u428_40:
  5844   00207C                     
  5845                           ;MCAL_Layer/CCP/CCP1/hal_ccp1.c: 204:         CCP1_InterruptHandler();
  5846   00207C  D802               	call	i2u429_48
  5847   00207E  EF4A  F010         	goto	i2u429_49
  5848   002082                     i2u429_48:
  5849   002082  0005               	push	
  5850   002084  6EFA               	movwf	pclath,c
  5851   002086  502F               	movf	_CCP1_InterruptHandler^0,w,c
  5852   002088  6EFD               	movwf	tosl,c
  5853   00208A  5030               	movf	(_CCP1_InterruptHandler+1)^0,w,c
  5854   00208C  6EFE               	movwf	tosh,c
  5855   00208E  6AFF               	clrf	tosu,c
  5856   002090  50FA               	movf	pclath,w,c
  5857   002092  0012               	return		;indir
  5858   002094                     i2u429_49:
  5859   002094                     i2l458:
  5860   002094  0012               	return		;funcret
  5861   002096                     __end_ofi2_CCP1_ISR:
  5862                           	callstack 0
  5863                           
  5864 ;; *************** function i2_CCP1_interruptHundler *****************
  5865 ;; Defined at:
  5866 ;;		line 166 in file "application.c"
  5867 ;; Parameters:    Size  Location     Type
  5868 ;;		None
  5869 ;; Auto vars:     Size  Location     Type
  5870 ;;		None
  5871 ;; Return value:  Size  Location     Type
  5872 ;;                  1    wreg      void 
  5873 ;; Registers used:
  5874 ;;		wreg, fsr2l, fsr2h, status,2, status,0, cstack
  5875 ;; Tracked objects:
  5876 ;;		On entry : 0/0
  5877 ;;		On exit  : 0/0
  5878 ;;		Unchanged: 0/0
  5879 ;; Data sizes:     COMRAM   BANK0   BANK1   BANK2   BANK3   BANK4   BANK5   BANK6   BANK7   BANK8   BANK9  BANK10  BANK1
      +1  BANK12  BANK13  BANK14  BANK15
  5880 ;;      Params:         0       0       0       0       0       0       0       0       0       0       0       0       
      +0       0       0       0       0
  5881 ;;      Locals:         0       0       0       0       0       0       0       0       0       0       0       0       
      +0       0       0       0       0
  5882 ;;      Temps:          0       0       0       0       0       0       0       0       0       0       0       0       
      +0       0       0       0       0
  5883 ;;      Totals:         0       0       0       0       0       0       0       0       0       0       0       0       
      +0       0       0       0       0
  5884 ;;Total ram usage:        0 bytes
  5885 ;; Hardware stack levels used: 1
  5886 ;; Hardware stack levels required when called: 1
  5887 ;; This function calls:
  5888 ;;		i2_CCP1_Capture_Mode_Read_Value
  5889 ;;		i2_Timer3_Write_value
  5890 ;; This function is called by:
  5891 ;; This function uses a non-reentrant model
  5892 ;;
  5893                           
  5894                           	psect	text58
  5895   001B98                     __ptext58:
  5896                           	callstack 0
  5897   001B98                     i2_CCP1_interruptHundler:
  5898                           	callstack 17
  5899   001B98                     
  5900                           ;application.c: 167:     CCP1_Interrupt_flag++;
  5901   001B98  2A34               	incf	_CCP1_Interrupt_flag^0,f,c	;volatile
  5902                           
  5903                           ;application.c: 168:     CCP1_Interrupt_flag_2++;
  5904   001B9A  2A33               	incf	_CCP1_Interrupt_flag_2^0,f,c	;volatile
  5905   001B9C                     
  5906                           ;application.c: 169:     if(CCP1_Interrupt_flag == 1){
  5907   001B9C  0434               	decf	_CCP1_Interrupt_flag^0,w,c	;volatile
  5908   001B9E  A4D8               	btfss	status,2,c
  5909   001BA0  EFD4  F00D         	goto	i2u406_41
  5910   001BA4  EFD6  F00D         	goto	i2u406_40
  5911   001BA8                     i2u406_41:
  5912   001BA8  EFEB  F00D         	goto	i2l5140
  5913   001BAC                     i2u406_40:
  5914   001BAC                     
  5915                           ;application.c: 170:         Timer3_Write_value(&timer3,0);
  5916   001BAC  0EC1               	movlw	low _timer3
  5917   001BAE  6E41               	movwf	i2Timer3_Write_value@_timer^0,c
  5918   001BB0  0E00               	movlw	high _timer3
  5919   001BB2  6E42               	movwf	(i2Timer3_Write_value@_timer+1)^0,c
  5920   001BB4  0E00               	movlw	0
  5921   001BB6  6E44               	movwf	(i2Timer3_Write_value@_value+1)^0,c
  5922   001BB8  0E00               	movlw	0
  5923   001BBA  6E43               	movwf	i2Timer3_Write_value@_value^0,c
  5924   001BBC  ECC9  F010         	call	i2_Timer3_Write_value	;wreg free
  5925   001BC0                     
  5926                           ;application.c: 171:         timer3_overflow = 0;
  5927   001BC0  0E00               	movlw	0
  5928   001BC2  0100               	movlb	0	; () banked
  5929   001BC4  6FE8               	movwf	_timer3_overflow& (0+255),b	;volatile
  5930   001BC6  0E00               	movlw	0
  5931   001BC8  6FE9               	movwf	(_timer3_overflow+1)& (0+255),b	;volatile
  5932   001BCA  0E00               	movlw	0
  5933   001BCC  6FEA               	movwf	(_timer3_overflow+2)& (0+255),b	;volatile
  5934   001BCE  0E00               	movlw	0
  5935   001BD0  6FEB               	movwf	(_timer3_overflow+3)& (0+255),b	;volatile
  5936                           
  5937                           ;application.c: 172:     }
  5938   001BD2  EFFC  F00D         	goto	i2l1458
  5939   001BD6                     i2l5140:
  5940   001BD6  0E02               	movlw	2
  5941   001BD8  1834               	xorwf	_CCP1_Interrupt_flag^0,w,c	;volatile
  5942   001BDA  A4D8               	btfss	status,2,c
  5943   001BDC  EFF2  F00D         	goto	i2u407_41
  5944   001BE0  EFF4  F00D         	goto	i2u407_40
  5945   001BE4                     i2u407_41:
  5946   001BE4  EFFC  F00D         	goto	i2l1458
  5947   001BE8                     i2u407_40:
  5948   001BE8                     
  5949                           ;application.c: 175:         CCP1_Interrupt_flag = 0;
  5950   001BE8  0E00               	movlw	0
  5951   001BEA  6E34               	movwf	_CCP1_Interrupt_flag^0,c	;volatile
  5952   001BEC                     
  5953                           ;application.c: 176:         CCP1_Capture_Mode_Read_Value(&ccp1_capature_value);
  5954   001BEC  0E3B               	movlw	low _ccp1_capature_value
  5955   001BEE  6E41               	movwf	i2CCP1_Capture_Mode_Read_Value@_capture_value^0,c
  5956   001BF0  0E00               	movlw	high _ccp1_capature_value
  5957   001BF2  6E42               	movwf	(i2CCP1_Capture_Mode_Read_Value@_capture_value+1)^0,c
  5958   001BF4  ECEB  F00E         	call	i2_CCP1_Capture_Mode_Read_Value	;wreg free
  5959   001BF8                     i2l1458:
  5960   001BF8  0012               	return		;funcret
  5961   001BFA                     __end_ofi2_CCP1_interruptHundler:
  5962                           	callstack 0
  5963                           
  5964 ;; *************** function i2_Timer3_Write_value *****************
  5965 ;; Defined at:
  5966 ;;		line 95 in file "MCAL_Layer/Timer/Timer3/hal_timer3.c"
  5967 ;; Parameters:    Size  Location     Type
  5968 ;;  _timer          2    0[COMRAM] PTR const struct .
  5969 ;;		 -> timer3(6), 
  5970 ;;  _value          2    2[COMRAM] unsigned short 
  5971 ;; Auto vars:     Size  Location     Type
  5972 ;;  ret             1    0        unsigned char 
  5973 ;; Return value:  Size  Location     Type
  5974 ;;                  1    wreg      unsigned char 
  5975 ;; Registers used:
  5976 ;;		wreg, status,2, status,0
  5977 ;; Tracked objects:
  5978 ;;		On entry : 0/0
  5979 ;;		On exit  : 0/0
  5980 ;;		Unchanged: 0/0
  5981 ;; Data sizes:     COMRAM   BANK0   BANK1   BANK2   BANK3   BANK4   BANK5   BANK6   BANK7   BANK8   BANK9  BANK10  BANK1
      +1  BANK12  BANK13  BANK14  BANK15
  5982 ;;      Params:         4       0       0       0       0       0       0       0       0       0       0       0       
      +0       0       0       0       0
  5983 ;;      Locals:         0       0       0       0       0       0       0       0       0       0       0       0       
      +0       0       0       0       0
  5984 ;;      Temps:          0       0       0       0       0       0       0       0       0       0       0       0       
      +0       0       0       0       0
  5985 ;;      Totals:         4       0       0       0       0       0       0       0       0       0       0       0       
      +0       0       0       0       0
  5986 ;;Total ram usage:        4 bytes
  5987 ;; Hardware stack levels used: 1
  5988 ;; This function calls:
  5989 ;;		Nothing
  5990 ;; This function is called by:
  5991 ;;		i2_CCP1_interruptHundler
  5992 ;; This function uses a non-reentrant model
  5993 ;;
  5994                           
  5995                           	psect	text59
  5996   002192                     __ptext59:
  5997                           	callstack 0
  5998   002192                     i2_Timer3_Write_value:
  5999                           	callstack 17
  6000   002192                     
  6001                           ;MCAL_Layer/Timer/Timer3/hal_timer3.c: 97:     if(((void*)0) == _timer){
  6002   002192  5041               	movf	i2Timer3_Write_value@_timer^0,w,c
  6003   002194  1042               	iorwf	(i2Timer3_Write_value@_timer+1)^0,w,c
  6004   002196  A4D8               	btfss	status,2,c
  6005   002198  EFD0  F010         	goto	i2u400_41
  6006   00219C  EFD2  F010         	goto	i2u400_40
  6007   0021A0                     i2u400_41:
  6008   0021A0  EFD4  F010         	goto	i2l5068
  6009   0021A4                     i2u400_40:
  6010   0021A4                     
  6011                           ;MCAL_Layer/Timer/Timer3/hal_timer3.c: 99:     }
  6012   0021A4  EFD8  F010         	goto	i2l1211
  6013   0021A8                     i2l5068:
  6014                           
  6015                           ;MCAL_Layer/Timer/Timer3/hal_timer3.c: 101:     {;MCAL_Layer/Timer/Timer3/hal_timer3.c: 
      +                          102:         TMR3H = (_value) >>8;
  6016   0021A8  5044               	movf	(i2Timer3_Write_value@_value+1)^0,w,c
  6017   0021AA  6EB3               	movwf	179,c	;volatile
  6018   0021AC                     
  6019                           ;MCAL_Layer/Timer/Timer3/hal_timer3.c: 103:         TMR3L = (uint8)(_value);
  6020   0021AC  C043  FFB2         	movff	i2Timer3_Write_value@_value,4018	;volatile
  6021   0021B0                     i2l1211:
  6022   0021B0  0012               	return		;funcret
  6023   0021B2                     __end_ofi2_Timer3_Write_value:
  6024                           	callstack 0
  6025                           
  6026 ;; *************** function i2_CCP1_Capture_Mode_Read_Value *****************
  6027 ;; Defined at:
  6028 ;;		line 108 in file "MCAL_Layer/CCP/CCP1/hal_ccp1.c"
  6029 ;; Parameters:    Size  Location     Type
  6030 ;;  _capture_val    2    0[COMRAM] PTR unsigned short 
  6031 ;;		 -> ccp1_capature_value(4), 
  6032 ;; Auto vars:     Size  Location     Type
  6033 ;;  compare_temp    2    2[COMRAM] struct .
  6034 ;;  ret             1    0        unsigned char 
  6035 ;; Return value:  Size  Location     Type
  6036 ;;                  1    wreg      unsigned char 
  6037 ;; Registers used:
  6038 ;;		wreg, fsr2l, fsr2h, status,2, status,0
  6039 ;; Tracked objects:
  6040 ;;		On entry : 0/0
  6041 ;;		On exit  : 0/0
  6042 ;;		Unchanged: 0/0
  6043 ;; Data sizes:     COMRAM   BANK0   BANK1   BANK2   BANK3   BANK4   BANK5   BANK6   BANK7   BANK8   BANK9  BANK10  BANK1
      +1  BANK12  BANK13  BANK14  BANK15
  6044 ;;      Params:         2       0       0       0       0       0       0       0       0       0       0       0       
      +0       0       0       0       0
  6045 ;;      Locals:         2       0       0       0       0       0       0       0       0       0       0       0       
      +0       0       0       0       0
  6046 ;;      Temps:          0       0       0       0       0       0       0       0       0       0       0       0       
      +0       0       0       0       0
  6047 ;;      Totals:         4       0       0       0       0       0       0       0       0       0       0       0       
      +0       0       0       0       0
  6048 ;;Total ram usage:        4 bytes
  6049 ;; Hardware stack levels used: 1
  6050 ;; This function calls:
  6051 ;;		Nothing
  6052 ;; This function is called by:
  6053 ;;		i2_CCP1_interruptHundler
  6054 ;; This function uses a non-reentrant model
  6055 ;;
  6056                           
  6057                           	psect	text60
  6058   001DD6                     __ptext60:
  6059                           	callstack 0
  6060   001DD6                     i2_CCP1_Capture_Mode_Read_Value:
  6061                           	callstack 17
  6062   001DD6                     
  6063                           ;MCAL_Layer/CCP/CCP1/hal_ccp1.c: 110:     CCP1_REG_T compare_temp_value = {.ccpr1_16Bit 
      +                          = 0};
  6064   001DD6  C02D  F043         	movff	CCP1_Capture_Mode_Read_Value@F3086,i2CCP1_Capture_Mode_Read_Value@compare_temp_va
      +                          lue
  6065   001DDA  C02E  F044         	movff	CCP1_Capture_Mode_Read_Value@F3086+1,i2CCP1_Capture_Mode_Read_Value@compare_temp_
      +                          value+1
  6066   001DDE                     
  6067                           ;MCAL_Layer/CCP/CCP1/hal_ccp1.c: 111:     if(((void*)0) == _capture_value){
  6068   001DDE  5041               	movf	i2CCP1_Capture_Mode_Read_Value@_capture_value^0,w,c
  6069   001DE0  1042               	iorwf	(i2CCP1_Capture_Mode_Read_Value@_capture_value+1)^0,w,c
  6070   001DE2  A4D8               	btfss	status,2,c
  6071   001DE4  EFF6  F00E         	goto	i2u396_41
  6072   001DE8  EFF8  F00E         	goto	i2u396_40
  6073   001DEC                     i2u396_41:
  6074   001DEC  EFFA  F00E         	goto	i2l443
  6075   001DF0                     i2u396_40:
  6076   001DF0                     
  6077                           ;MCAL_Layer/CCP/CCP1/hal_ccp1.c: 113:     }
  6078   001DF0  EF06  F00F         	goto	i2l445
  6079   001DF4                     i2l443:
  6080                           
  6081                           ;MCAL_Layer/CCP/CCP1/hal_ccp1.c: 115:     {;MCAL_Layer/CCP/CCP1/hal_ccp1.c: 116:        
      +                           compare_temp_value.ccpr1_low = CCPR1L;
  6082   001DF4  CFBE F043          	movff	4030,i2CCP1_Capture_Mode_Read_Value@compare_temp_value	;volatile
  6083                           
  6084                           ;MCAL_Layer/CCP/CCP1/hal_ccp1.c: 117:         compare_temp_value.ccpr1_high = CCPR1H;
  6085   001DF8  CFBF F044          	movff	4031,i2CCP1_Capture_Mode_Read_Value@compare_temp_value+1	;volatile
  6086   001DFC                     
  6087                           ;MCAL_Layer/CCP/CCP1/hal_ccp1.c: 118:         *_capture_value = compare_temp_value.ccpr1
      +                          _16Bit;
  6088   001DFC  C041  FFD9         	movff	i2CCP1_Capture_Mode_Read_Value@_capture_value,fsr2l
  6089   001E00  C042  FFDA         	movff	i2CCP1_Capture_Mode_Read_Value@_capture_value+1,fsr2h
  6090   001E04  C043  FFDE         	movff	i2CCP1_Capture_Mode_Read_Value@compare_temp_value,postinc2
  6091   001E08  C044  FFDD         	movff	i2CCP1_Capture_Mode_Read_Value@compare_temp_value+1,postdec2
  6092   001E0C                     i2l445:
  6093   001E0C  0012               	return		;funcret
  6094   001E0E                     __end_ofi2_CCP1_Capture_Mode_Read_Value:
  6095                           	callstack 0
  6096                           
  6097 ;; *************** function i2_ADC_ISR *****************
  6098 ;; Defined at:
  6099 ;;		line 348 in file "MCAL_Layer/ADC/hal_adc.c"
  6100 ;; Parameters:    Size  Location     Type
  6101 ;;		None
  6102 ;; Auto vars:     Size  Location     Type
  6103 ;;		None
  6104 ;; Return value:  Size  Location     Type
  6105 ;;                  1    wreg      void 
  6106 ;; Registers used:
  6107 ;;		None
  6108 ;; Tracked objects:
  6109 ;;		On entry : 0/0
  6110 ;;		On exit  : 0/0
  6111 ;;		Unchanged: 0/0
  6112 ;; Data sizes:     COMRAM   BANK0   BANK1   BANK2   BANK3   BANK4   BANK5   BANK6   BANK7   BANK8   BANK9  BANK10  BANK1
      +1  BANK12  BANK13  BANK14  BANK15
  6113 ;;      Params:         0       0       0       0       0       0       0       0       0       0       0       0       
      +0       0       0       0       0
  6114 ;;      Locals:         0       0       0       0       0       0       0       0       0       0       0       0       
      +0       0       0       0       0
  6115 ;;      Temps:          0       0       0       0       0       0       0       0       0       0       0       0       
      +0       0       0       0       0
  6116 ;;      Totals:         0       0       0       0       0       0       0       0       0       0       0       0       
      +0       0       0       0       0
  6117 ;;Total ram usage:        0 bytes
  6118 ;; Hardware stack levels used: 1
  6119 ;; This function calls:
  6120 ;;		Nothing
  6121 ;; This function is called by:
  6122 ;;		i2_InterruptCheck
  6123 ;; This function uses a non-reentrant model
  6124 ;;
  6125                           
  6126                           	psect	text61
  6127   002378                     __ptext61:
  6128                           	callstack 0
  6129   002378                     i2_ADC_ISR:
  6130                           	callstack 19
  6131   002378                     
  6132                           ;MCAL_Layer/ADC/hal_adc.c: 349:     (PIR1bits.ADIF = 0);
  6133   002378  9C9E               	bcf	158,6,c	;volatile
  6134   00237A  0012               	return		;funcret
  6135   00237C                     __end_ofi2_ADC_ISR:
  6136                           	callstack 0
  6137                           
  6138                           	psect	text62
  6139   000000                     __ptext62:
  6140                           	callstack 0
  6141   000000                     
  6142                           	psect	rparam
  6143   000000                     
  6144                           	psect	temp
  6145   00006B                     btemp:
  6146                           	callstack 0
  6147   00006B                     	ds	1
  6148   000000                     int$flags	set	btemp
  6149   000000                     wtemp8	set	btemp+1
  6150   000000                     ttemp5	set	btemp+1
  6151   000000                     ttemp6	set	btemp+4
  6152   000000                     ttemp7	set	btemp+8
  6153                           
  6154                           	psect	idloc
  6155                           
  6156                           ;Config register IDLOC0 @ 0x200000
  6157                           ;	unspecified, using default values
  6158   200000                     	org	2097152
  6159   200000  FF                 	db	255
  6160                           
  6161                           ;Config register IDLOC1 @ 0x200001
  6162                           ;	unspecified, using default values
  6163   200001                     	org	2097153
  6164   200001  FF                 	db	255
  6165                           
  6166                           ;Config register IDLOC2 @ 0x200002
  6167                           ;	unspecified, using default values
  6168   200002                     	org	2097154
  6169   200002  FF                 	db	255
  6170                           
  6171                           ;Config register IDLOC3 @ 0x200003
  6172                           ;	unspecified, using default values
  6173   200003                     	org	2097155
  6174   200003  FF                 	db	255
  6175                           
  6176                           ;Config register IDLOC4 @ 0x200004
  6177                           ;	unspecified, using default values
  6178   200004                     	org	2097156
  6179   200004  FF                 	db	255
  6180                           
  6181                           ;Config register IDLOC5 @ 0x200005
  6182                           ;	unspecified, using default values
  6183   200005                     	org	2097157
  6184   200005  FF                 	db	255
  6185                           
  6186                           ;Config register IDLOC6 @ 0x200006
  6187                           ;	unspecified, using default values
  6188   200006                     	org	2097158
  6189   200006  FF                 	db	255
  6190                           
  6191                           ;Config register IDLOC7 @ 0x200007
  6192                           ;	unspecified, using default values
  6193   200007                     	org	2097159
  6194   200007  FF                 	db	255
  6195                           
  6196                           	psect	config
  6197                           
  6198                           ; Padding undefined space
  6199   300000                     	org	3145728
  6200   300000  FF                 	db	255
  6201                           
  6202                           ;Config register CONFIG1H @ 0x300001
  6203                           ;	Oscillator Selection bits
  6204                           ;	OSC = HS, HS oscillator
  6205                           ;	Fail-Safe Clock Monitor Enable bit
  6206                           ;	FCMEN = OFF, Fail-Safe Clock Monitor disabled
  6207                           ;	Internal/External Oscillator Switchover bit
  6208                           ;	IESO = OFF, Oscillator Switchover mode disabled
  6209   300001                     	org	3145729
  6210   300001  02                 	db	2
  6211                           
  6212                           ;Config register CONFIG2L @ 0x300002
  6213                           ;	Power-up Timer Enable bit
  6214                           ;	PWRT = OFF, PWRT disabled
  6215                           ;	Brown-out Reset Enable bits
  6216                           ;	BOREN = OFF, Brown-out Reset disabled in hardware and software
  6217                           ;	Brown Out Reset Voltage bits
  6218                           ;	BORV = 1, 
  6219   300002                     	org	3145730
  6220   300002  09                 	db	9
  6221                           
  6222                           ;Config register CONFIG2H @ 0x300003
  6223                           ;	Watchdog Timer Enable bit
  6224                           ;	WDT = OFF, WDT disabled (control is placed on the SWDTEN bit)
  6225                           ;	Watchdog Timer Postscale Select bits
  6226                           ;	WDTPS = 32768, 1:32768
  6227   300003                     	org	3145731
  6228   300003  1E                 	db	30
  6229                           
  6230                           ; Padding undefined space
  6231   300004                     	org	3145732
  6232   300004  FF                 	db	255
  6233                           
  6234                           ;Config register CONFIG3H @ 0x300005
  6235                           ;	CCP2 MUX bit
  6236                           ;	CCP2MX = PORTC, CCP2 input/output is multiplexed with RC1
  6237                           ;	PORTB A/D Enable bit
  6238                           ;	PBADEN = OFF, PORTB<4:0> pins are configured as digital I/O on Reset
  6239                           ;	Low-Power Timer1 Oscillator Enable bit
  6240                           ;	LPT1OSC = OFF, Timer1 configured for higher power operation
  6241                           ;	MCLR Pin Enable bit
  6242                           ;	MCLRE = ON, MCLR pin enabled; RE3 input pin disabled
  6243   300005                     	org	3145733
  6244   300005  81                 	db	129
  6245                           
  6246                           ;Config register CONFIG4L @ 0x300006
  6247                           ;	Stack Full/Underflow Reset Enable bit
  6248                           ;	STVREN = ON, Stack full/underflow will cause Reset
  6249                           ;	Single-Supply ICSP Enable bit
  6250                           ;	LVP = OFF, Single-Supply ICSP disabled
  6251                           ;	Extended Instruction Set Enable bit
  6252                           ;	XINST = OFF, Instruction set extension and Indexed Addressing mode disabled (Legacy mo
      +                          de)
  6253                           ;	Background Debugger Enable bit
  6254                           ;	DEBUG = 0x1, unprogrammed default
  6255   300006                     	org	3145734
  6256   300006  81                 	db	129
  6257                           
  6258                           ; Padding undefined space
  6259   300007                     	org	3145735
  6260   300007  FF                 	db	255
  6261                           
  6262                           ;Config register CONFIG5L @ 0x300008
  6263                           ;	Code Protection bit
  6264                           ;	CP0 = OFF, Block 0 (000800-003FFFh) not code-protected
  6265                           ;	Code Protection bit
  6266                           ;	CP1 = OFF, Block 1 (004000-007FFFh) not code-protected
  6267                           ;	Code Protection bit
  6268                           ;	CP2 = OFF, Block 2 (008000-00BFFFh) not code-protected
  6269                           ;	Code Protection bit
  6270                           ;	CP3 = OFF, Block 3 (00C000-00FFFFh) not code-protected
  6271   300008                     	org	3145736
  6272   300008  0F                 	db	15
  6273                           
  6274                           ;Config register CONFIG5H @ 0x300009
  6275                           ;	Boot Block Code Protection bit
  6276                           ;	CPB = OFF, Boot block (000000-0007FFh) not code-protected
  6277                           ;	Data EEPROM Code Protection bit
  6278                           ;	CPD = OFF, Data EEPROM not code-protected
  6279   300009                     	org	3145737
  6280   300009  C0                 	db	192
  6281                           
  6282                           ;Config register CONFIG6L @ 0x30000A
  6283                           ;	Write Protection bit
  6284                           ;	WRT0 = OFF, Block 0 (000800-003FFFh) not write-protected
  6285                           ;	Write Protection bit
  6286                           ;	WRT1 = OFF, Block 1 (004000-007FFFh) not write-protected
  6287                           ;	Write Protection bit
  6288                           ;	WRT2 = OFF, Block 2 (008000-00BFFFh) not write-protected
  6289                           ;	Write Protection bit
  6290                           ;	WRT3 = OFF, Block 3 (00C000-00FFFFh) not write-protected
  6291   30000A                     	org	3145738
  6292   30000A  0F                 	db	15
  6293                           
  6294                           ;Config register CONFIG6H @ 0x30000B
  6295                           ;	Configuration Register Write Protection bit
  6296                           ;	WRTC = OFF, Configuration registers (300000-3000FFh) not write-protected
  6297                           ;	Boot Block Write Protection bit
  6298                           ;	WRTB = OFF, Boot Block (000000-0007FFh) not write-protected
  6299                           ;	Data EEPROM Write Protection bit
  6300                           ;	WRTD = OFF, Data EEPROM not write-protected
  6301   30000B                     	org	3145739
  6302   30000B  E0                 	db	224
  6303                           
  6304                           ;Config register CONFIG7L @ 0x30000C
  6305                           ;	Table Read Protection bit
  6306                           ;	EBTR0 = OFF, Block 0 (000800-003FFFh) not protected from table reads executed in other
      +                           blocks
  6307                           ;	Table Read Protection bit
  6308                           ;	EBTR1 = OFF, Block 1 (004000-007FFFh) not protected from table reads executed in other
      +                           blocks
  6309                           ;	Table Read Protection bit
  6310                           ;	EBTR2 = OFF, Block 2 (008000-00BFFFh) not protected from table reads executed in other
      +                           blocks
  6311                           ;	Table Read Protection bit
  6312                           ;	EBTR3 = OFF, Block 3 (00C000-00FFFFh) not protected from table reads executed in other
      +                           blocks
  6313   30000C                     	org	3145740
  6314   30000C  0F                 	db	15
  6315                           
  6316                           ;Config register CONFIG7H @ 0x30000D
  6317                           ;	Boot Block Table Read Protection bit
  6318                           ;	EBTRB = OFF, Boot Block (000000-0007FFh) not protected from table reads executed in ot
      +                          her blocks
  6319   30000D                     	org	3145741
  6320   30000D  40                 	db	64
  6321                           tosu	equ	0xFFF
  6322                           tosh	equ	0xFFE
  6323                           tosl	equ	0xFFD
  6324                           stkptr	equ	0xFFC
  6325                           pclatu	equ	0xFFB
  6326                           pclath	equ	0xFFA
  6327                           pcl	equ	0xFF9
  6328                           tblptru	equ	0xFF8
  6329                           tblptrh	equ	0xFF7
  6330                           tblptrl	equ	0xFF6
  6331                           tablat	equ	0xFF5
  6332                           prodh	equ	0xFF4
  6333                           prodl	equ	0xFF3
  6334                           indf0	equ	0xFEF
  6335                           postinc0	equ	0xFEE
  6336                           postdec0	equ	0xFED
  6337                           preinc0	equ	0xFEC
  6338                           plusw0	equ	0xFEB
  6339                           fsr0h	equ	0xFEA
  6340                           fsr0l	equ	0xFE9
  6341                           wreg	equ	0xFE8
  6342                           indf1	equ	0xFE7
  6343                           postinc1	equ	0xFE6
  6344                           postdec1	equ	0xFE5
  6345                           preinc1	equ	0xFE4
  6346                           plusw1	equ	0xFE3
  6347                           fsr1h	equ	0xFE2
  6348                           fsr1l	equ	0xFE1
  6349                           bsr	equ	0xFE0
  6350                           indf2	equ	0xFDF
  6351                           postinc2	equ	0xFDE
  6352                           postdec2	equ	0xFDD
  6353                           preinc2	equ	0xFDC
  6354                           plusw2	equ	0xFDB
  6355                           fsr2h	equ	0xFDA
  6356                           fsr2l	equ	0xFD9
  6357                           status	equ	0xFD8

Data Sizes:
    Strings     3
    Constant    0
    Data        105
    BSS         109
    Persistent  0
    Stack       0

Auto Spaces:
    Space          Size  Autos    Used
    COMRAM          126     27     106
    BANK0           128     12     128
    BANK1           256      8      27
    BANK2           256      0       0
    BANK3           256      0       0
    BANK4           256      0       0
    BANK5           256      0       0
    BANK6           256      0       0
    BANK7           256      0       0
    BANK8           256      0       0
    BANK9           256      0       0
    BANK10          256      0       0
    BANK11          256      0       0
    BANK12          256      0       0
    BANK13          256      0       0
    BANK14          256      0       0
    BANK15          128      0       0

Pointer List with Targets:

    vfprintf$2	PTR PTR void  size(2) Largest target is 2
		 -> sprintf@ap(COMRAM[2]), 

    vfprintf$1	PTR const unsigned char  size(2) Largest target is 3
		 -> STR_3(CODE[3]), STR_2(CODE[3]), STR_1(CODE[3]), 

    vfprintf$0	PTR struct _IO_FILE size(2) Largest target is 12
		 -> sprintf@f(COMRAM[12]), 

    S4852$source	PTR const unsigned char  size(2) Largest target is 0

    f...source	PTR const unsigned char  size(2) Largest target is 0

    S4852$buffer	PTR unsigned char  size(2) Largest target is 0

    f...buffer	PTR unsigned char  size(2) Largest target is 0

    SPI_Init_Master@_spi	PTR const struct . size(2) Largest target is 4
		 -> SPI_Master_obj(BANK0[4]), 

    usart_obj.EUSART_OverrunErrorHandler	PTR FTN()void  size(2) Largest target is 1
		 -> NULL(), 

    usart_obj.EUSART_FramingErrorHandler	PTR FTN()void  size(2) Largest target is 1
		 -> NULL(), 

    usart_obj.EUSART_RxDefailtInterruptHandler	PTR FTN()void  size(2) Largest target is 1
		 -> i2_EUSART_Rx_InterruptHandler(), EUSART_Rx_InterruptHandler(), 

    usart_obj.EUSART_TxDefailtInterruptHandler	PTR FTN()void  size(2) Largest target is 1
		 -> i2_EUSART_Tx_InterruptHandler(), EUSART_Tx_InterruptHandler(), 

    timer3.TMR3_InterruptHandler	PTR FTN()void  size(2) Largest target is 1
		 -> i2_timer3_interruptHundler(), timer3_interruptHundler(), 

    timer2.TMR2_InterruptHandler	PTR FTN()void  size(2) Largest target is 1
		 -> NULL(), 

    timer1.TMR1_InterruptHandler	PTR FTN()void  size(2) Largest target is 1
		 -> NULL(), 

    timer0.TMR0_InterruptHandler	PTR FTN()void  size(2) Largest target is 1
		 -> i2_timer0_interruptHundler(), timer0_interruptHundler(), 

    ccp1_obj.CCP1_InterruptHandler	PTR FTN()void  size(2) Largest target is 1
		 -> i2_CCP1_interruptHundler(), CCP1_interruptHundler(), 

    EUSART_OverrunErrorHandler	PTR FTN()void  size(2) Largest target is 1
		 -> NULL(), 

    EUSART_FramingErrorHandler	PTR FTN()void  size(2) Largest target is 1
		 -> NULL(), 

    EUSART_Rx_InterruptHandler@hal_usart$F3613	PTR FTN()void  size(2) Largest target is 1
		 -> EUSART_Rx_InterruptHandler(), NULL(), 

    EUSART_ASYNC_RX_Init@_eusart.EUSART_OverrunErrorHandler	PTR FTN()void  size(2) Largest target is 1
		 -> NULL(), 

    EUSART_ASYNC_RX_Init@_eusart.EUSART_FramingErrorHandler	PTR FTN()void  size(2) Largest target is 1
		 -> NULL(), 

    EUSART_ASYNC_RX_Init@_eusart.EUSART_RxDefailtInterruptHandler	PTR FTN()void  size(2) Largest target is 1
		 -> EUSART_Rx_InterruptHandler(), 

    EUSART_ASYNC_RX_Init@_eusart.EUSART_TxDefailtInterruptHandler	PTR FTN()void  size(2) Largest target is 1
		 -> EUSART_Tx_InterruptHandler(), 

    EUSART_Tx_InterruptHandler@hal_usart$F3612	PTR FTN()void  size(2) Largest target is 1
		 -> EUSART_Tx_InterruptHandler(), NULL(), 

    EUSART_ASYNC_TX_Init@_eusart.EUSART_OverrunErrorHandler	PTR FTN()void  size(2) Largest target is 1
		 -> NULL(), 

    EUSART_ASYNC_TX_Init@_eusart.EUSART_FramingErrorHandler	PTR FTN()void  size(2) Largest target is 1
		 -> NULL(), 

    EUSART_ASYNC_TX_Init@_eusart.EUSART_RxDefailtInterruptHandler	PTR FTN()void  size(2) Largest target is 1
		 -> EUSART_Rx_InterruptHandler(), 

    EUSART_ASYNC_TX_Init@_eusart.EUSART_TxDefailtInterruptHandler	PTR FTN()void  size(2) Largest target is 1
		 -> EUSART_Tx_InterruptHandler(), 

    S3278$EUSART_OverrunErrorHandler	PTR FTN()void  size(2) Largest target is 1
		 -> NULL(), 

    EUSART_Baud_Rate_Calculation@_eusart.EUSART_OverrunErrorHandler	PTR FTN()void  size(2) Largest target is 1
		 -> NULL(), 

    S3278$EUSART_FramingErrorHandler	PTR FTN()void  size(2) Largest target is 1
		 -> NULL(), 

    EUSART_Baud_Rate_Calculation@_eusart.EUSART_FramingErrorHandler	PTR FTN()void  size(2) Largest target is 1
		 -> NULL(), 

    S3278$EUSART_RxDefailtInterruptHandler	PTR FTN()void  size(2) Largest target is 1
		 -> EUSART_Rx_InterruptHandler(), 

    EUSART_Baud_Rate_Calculation@_eusart.EUSART_RxDefailtInterruptHandler	PTR FTN()void  size(2) Largest target is 1
		 -> EUSART_Rx_InterruptHandler(), 

    S3278$EUSART_TxDefailtInterruptHandler	PTR FTN()void  size(2) Largest target is 1
		 -> EUSART_Tx_InterruptHandler(), 

    EUSART_Baud_Rate_Calculation@_eusart.EUSART_TxDefailtInterruptHandler	PTR FTN()void  size(2) Largest target is 1
		 -> EUSART_Tx_InterruptHandler(), 

    EUSART_ASYNC_ReadByteNonBlocking@_data	PTR unsigned char  size(2) Largest target is 1
		 -> rec_uart_data(COMRAM[1]), 

    Timer3_Mode_Select@_timer.TMR3_InterruptHandler	PTR FTN()void  size(2) Largest target is 1
		 -> timer3_interruptHundler(), 

    Timer3_Write_value@_timer	PTR const struct . size(2) Largest target is 6
		 -> timer3(BANK0[6]), 

    TMR3_InterruptHandler	PTR FTN()void  size(2) Largest target is 1
		 -> timer3_interruptHundler(), NULL(), 

    S3027$TMR3_InterruptHandler	PTR FTN()void  size(2) Largest target is 1
		 -> timer3_interruptHundler(), 

    Timer3_Init@_timer.TMR3_InterruptHandler	PTR FTN()void  size(2) Largest target is 1
		 -> timer3_interruptHundler(), 

    TMR2_InterruptHandler	PTR FTN()void  size(2) Largest target is 1
		 -> NULL(), 

    S2841$TMR2_InterruptHandler	PTR FTN()void  size(2) Largest target is 1
		 -> NULL(), 

    Timer2_Init@_timer.TMR2_InterruptHandler	PTR FTN()void  size(2) Largest target is 1
		 -> NULL(), 

    Timer1_Mode_Select@_timer.TMR1_InterruptHandler	PTR FTN()void  size(2) Largest target is 1
		 -> NULL(), 

    Timer1_Read_value@_value	PTR unsigned short  size(2) Largest target is 1
		 -> timer1_count(COMRAM[1]), 

    Timer1_Read_value@_timer	PTR const struct . size(2) Largest target is 6
		 -> timer1(COMRAM[6]), 

    Timer1_Write_value@_timer	PTR const struct . size(2) Largest target is 6
		 -> timer1(COMRAM[6]), 

    TMR1_InterruptHandler	PTR FTN()void  size(2) Largest target is 1
		 -> NULL(), 

    S2597$TMR1_InterruptHandler	PTR FTN()void  size(2) Largest target is 1
		 -> NULL(), 

    Timer1_Init@_timer.TMR1_InterruptHandler	PTR FTN()void  size(2) Largest target is 1
		 -> NULL(), 

    Timer0_Register_Size@_timer.TMR0_InterruptHandler	PTR FTN()void  size(2) Largest target is 1
		 -> timer0_interruptHundler(), 

    Timer0_Mode_Select@_timer.TMR0_InterruptHandler	PTR FTN()void  size(2) Largest target is 1
		 -> timer0_interruptHundler(), 

    Timer0_prescaler_config@_timer.TMR0_InterruptHandler	PTR FTN()void  size(2) Largest target is 1
		 -> timer0_interruptHundler(), 

    TMR0_InterruptHandler	PTR FTN()void  size(2) Largest target is 1
		 -> timer0_interruptHundler(), NULL(), 

    S2374$TMR0_InterruptHandler	PTR FTN()void  size(2) Largest target is 1
		 -> timer0_interruptHundler(), 

    Timer0_Init@_timer.TMR0_InterruptHandler	PTR FTN()void  size(2) Largest target is 1
		 -> timer0_interruptHundler(), 

    Interrupt_INTx_SetInterruptHandler@int_obj.InterruptHandler	PTR FTN()void  size(2) Largest target is 0

    INT2_InterruptHandler	PTR FTN()void  size(2) Largest target is 1
		 -> NULL(), 

    INT1_InterruptHandler	PTR FTN()void  size(2) Largest target is 1
		 -> NULL(), 

    INT0_InterruptHandler	PTR FTN()void  size(2) Largest target is 1
		 -> NULL(), 

    Interrupt_RBx_Pin_Init@int_obj.InterruptHandler_LOW	PTR FTN()void  size(2) Largest target is 0

    Interrupt_RBx_Pin_Init@int_obj.InterruptHandler_HIGH	PTR FTN()void  size(2) Largest target is 0

    Interrupt_RBx_Priority_Init@int_obj.InterruptHandler_LOW	PTR FTN()void  size(2) Largest target is 0

    Interrupt_RBx_Priority_Init@int_obj.InterruptHandler_HIGH	PTR FTN()void  size(2) Largest target is 0

    Interrupt_INTx_Clear_Flag@int_obj.InterruptHandler	PTR FTN()void  size(2) Largest target is 0

    Interrupt_INTx_Pin_Init@int_obj.InterruptHandler	PTR FTN()void  size(2) Largest target is 0

    Interrupt_INTx_Edge_Init@int_obj.InterruptHandler	PTR FTN()void  size(2) Largest target is 0

    Interrupt_INTx_Priority_Init@int_obj.InterruptHandler	PTR FTN()void  size(2) Largest target is 0

    Interrupt_INTx_Disable@int_obj.InterruptHandler	PTR FTN()void  size(2) Largest target is 0

    S1974$InterruptHandler	PTR FTN()void  size(2) Largest target is 0

    Interrupt_INTx_Enable@int_obj.InterruptHandler	PTR FTN()void  size(2) Largest target is 0

    RB7_InterruptHandler_LOW	PTR FTN()void  size(2) Largest target is 1
		 -> NULL(), 

    RB7_InterruptHandler_HIGH	PTR FTN()void  size(2) Largest target is 1
		 -> NULL(), 

    RB6_InterruptHandler_LOW	PTR FTN()void  size(2) Largest target is 1
		 -> NULL(), 

    RB6_InterruptHandler_HIGH	PTR FTN()void  size(2) Largest target is 1
		 -> NULL(), 

    RB5_InterruptHandler_LOW	PTR FTN()void  size(2) Largest target is 1
		 -> NULL(), 

    RB5_InterruptHandler_HIGH	PTR FTN()void  size(2) Largest target is 1
		 -> NULL(), 

    RB4_InterruptHandler_LOW	PTR FTN()void  size(2) Largest target is 1
		 -> NULL(), 

    RB4_InterruptHandler_HIGH	PTR FTN()void  size(2) Largest target is 1
		 -> NULL(), 

    S2017$InterruptHandler_LOW	PTR FTN()void  size(2) Largest target is 0

    Interrupt_RBx_Init@int_obj.InterruptHandler_LOW	PTR FTN()void  size(2) Largest target is 0

    S2017$InterruptHandler_HIGH	PTR FTN()void  size(2) Largest target is 0

    Interrupt_RBx_Init@int_obj.InterruptHandler_HIGH	PTR FTN()void  size(2) Largest target is 0

    gpio_pin_intialize@_pin_config	PTR const struct . size(2) Largest target is 1
		 -> led_initialize@pin_obj(BANK1[1]), 

    gpio_pin_write_logic@_pin_config	PTR const struct . size(2) Largest target is 1
		 -> led_turn_off@pin_obj(COMRAM[1]), led_turn_on@pin_obj(COMRAM[1]), led_initialize@pin_obj(BANK1[1]), 

    gpio_pin_direction_intialize@_pin_config	PTR const struct . size(2) Largest target is 1
		 -> led_initialize@pin_obj(BANK1[1]), 

    port_registers	PTR volatile unsigned char [5] size(2) Largest target is 1
		 -> PORTE(BITBIGSFRlllll[1]), PORTD(BITBIGSFRlllll[1]), PORTC(BITBIGSFRlllll[1]), PORTB(BITBIGSFRlllll[1]), 
		 -> PORTA(BITBIGSFRlllll[1]), 

    lat_registers	PTR volatile unsigned char [5] size(2) Largest target is 1
		 -> LATE(BITBIGSFRllllh[1]), LATD(BITBIGSFRllllh[1]), LATC(BITBIGSFRllllh[1]), LATB(BITBIGSFRllllh[1]), 
		 -> LATA(BITBIGSFRlllll[1]), 

    tris_registers	PTR volatile unsigned char [5] size(2) Largest target is 1
		 -> TRISD(ABS[1]), TRISC(ABS[1]), TRISB(ABS[1]), TRISE(ABS[1]), 
		 -> TRISA(BITBIGSFRlllll[1]), 

    CCP1_Capture_Mode_Timer_Select@_ccp_obj.CCP1_InterruptHandler	PTR FTN()void  size(2) Largest target is 1
		 -> CCP1_interruptHundler(), 

    CCP1_Capture_Mode_Read_Value@_capture_value	PTR unsigned short  size(2) Largest target is 4
		 -> ccp1_capature_value(COMRAM[4]), 

    CCP1_InterruptHandler	PTR FTN()void  size(2) Largest target is 1
		 -> CCP1_interruptHundler(), NULL(), 

    S1109$CCP1_InterruptHandler	PTR FTN()void  size(2) Largest target is 1
		 -> CCP1_interruptHundler(), 

    CCP1_Init@_ccp.CCP1_InterruptHandler	PTR FTN()void  size(2) Largest target is 1
		 -> CCP1_interruptHundler(), 

    select_voltage_referance@_adc.ADC_InterruptHandler	PTR FTN()void  size(2) Largest target is 0

    select_result_format@_adc.ADC_InterruptHandler	PTR FTN()void  size(2) Largest target is 0

    ADC_GetConversionResult@_adc.ADC_InterruptHandler	PTR FTN()void  size(2) Largest target is 0

    ADC_InterruptHandler	PTR FTN()void  size(2) Largest target is 1
		 -> NULL(), 

    S592$ADC_InterruptHandler	PTR FTN()void  size(2) Largest target is 0

    ADC_Init@_adc.ADC_InterruptHandler	PTR FTN()void  size(2) Largest target is 0

    led_initialize@led	PTR const struct . size(2) Largest target is 1
		 -> led1(COMRAM[1]), 

    sp__memset	PTR void  size(2) Largest target is 0


Critical Paths under _main in COMRAM

    None.

Critical Paths under _InterruptManagerLow in COMRAM

    _timer0_interruptHundler->_Timer1_Read_value
    _EUSART_Rx_InterruptHandler->_EUSART_ASYNC_ReadByteNonBlocking
    _CCP1_interruptHundler->_CCP1_Capture_Mode_Read_Value
    _CCP1_interruptHundler->_Timer3_Write_value

Critical Paths under _InterruptManagerHigh in COMRAM

    i2_timer0_interruptHundler->i2_Timer1_Read_value
    i2_EUSART_Rx_InterruptHandler->i2_EUSART_ASYNC_ReadByteNonBlocking
    i2_CCP1_interruptHundler->i2_CCP1_Capture_Mode_Read_Value
    i2_CCP1_interruptHundler->i2_Timer3_Write_value

Critical Paths under _main in BANK0

    _led_initialize->_gpio_pin_intialize
    _gpio_pin_intialize->_gpio_pin_write_logic

Critical Paths under _InterruptManagerLow in BANK0

    None.

Critical Paths under _InterruptManagerHigh in BANK0

    None.

Critical Paths under _main in BANK1

    _app_intialize->_led_initialize
    _led_initialize->_gpio_pin_intialize

Critical Paths under _InterruptManagerLow in BANK1

    None.

Critical Paths under _InterruptManagerHigh in BANK1

    None.

Critical Paths under _main in BANK2

    None.

Critical Paths under _InterruptManagerLow in BANK2

    None.

Critical Paths under _InterruptManagerHigh in BANK2

    None.

Critical Paths under _main in BANK3

    None.

Critical Paths under _InterruptManagerLow in BANK3

    None.

Critical Paths under _InterruptManagerHigh in BANK3

    None.

Critical Paths under _main in BANK4

    None.

Critical Paths under _InterruptManagerLow in BANK4

    None.

Critical Paths under _InterruptManagerHigh in BANK4

    None.

Critical Paths under _main in BANK5

    None.

Critical Paths under _InterruptManagerLow in BANK5

    None.

Critical Paths under _InterruptManagerHigh in BANK5

    None.

Critical Paths under _main in BANK6

    None.

Critical Paths under _InterruptManagerLow in BANK6

    None.

Critical Paths under _InterruptManagerHigh in BANK6

    None.

Critical Paths under _main in BANK7

    None.

Critical Paths under _InterruptManagerLow in BANK7

    None.

Critical Paths under _InterruptManagerHigh in BANK7

    None.

Critical Paths under _main in BANK8

    None.

Critical Paths under _InterruptManagerLow in BANK8

    None.

Critical Paths under _InterruptManagerHigh in BANK8

    None.

Critical Paths under _main in BANK9

    None.

Critical Paths under _InterruptManagerLow in BANK9

    None.

Critical Paths under _InterruptManagerHigh in BANK9

    None.

Critical Paths under _main in BANK10

    None.

Critical Paths under _InterruptManagerLow in BANK10

    None.

Critical Paths under _InterruptManagerHigh in BANK10

    None.

Critical Paths under _main in BANK11

    None.

Critical Paths under _InterruptManagerLow in BANK11

    None.

Critical Paths under _InterruptManagerHigh in BANK11

    None.

Critical Paths under _main in BANK12

    None.

Critical Paths under _InterruptManagerLow in BANK12

    None.

Critical Paths under _InterruptManagerHigh in BANK12

    None.

Critical Paths under _main in BANK13

    None.

Critical Paths under _InterruptManagerLow in BANK13

    None.

Critical Paths under _InterruptManagerHigh in BANK13

    None.

Critical Paths under _main in BANK14

    None.

Critical Paths under _InterruptManagerLow in BANK14

    None.

Critical Paths under _InterruptManagerHigh in BANK14

    None.

Critical Paths under _main in BANK15

    None.

Critical Paths under _InterruptManagerLow in BANK15

    None.

Critical Paths under _InterruptManagerHigh in BANK15

    None.

Call Graph Tables:

 ---------------------------------------------------------------------------------
 (Depth) Function   	        Calls       Base Space   Used Autos Params    Refs
 ---------------------------------------------------------------------------------
 (0) _main                                                 3     3      0    6653
                                              6 BANK1      2     2      0
              _SPI_WriteByteBlocking
                      _app_intialize
 ---------------------------------------------------------------------------------
 (1) _app_intialize                                        1     1      0    6618
                    _SPI_Init_Master
                     _led_initialize
 ---------------------------------------------------------------------------------
 (2) _led_initialize                                       5     3      2    6324
                                              1 BANK1      5     3      2
                 _gpio_pin_intialize
 ---------------------------------------------------------------------------------
 (3) _gpio_pin_intialize                                   3     1      2    5991
                                             10 BANK0      2     0      2
                                              0 BANK1      1     1      0
       _gpio_pin_direction_intialize
               _gpio_pin_write_logic
 ---------------------------------------------------------------------------------
 (4) _gpio_pin_write_logic                                10     7      3    4037
                                              0 BANK0     10     7      3
 ---------------------------------------------------------------------------------
 (4) _gpio_pin_direction_intialize                         9     7      2     707
                                              0 BANK0      9     7      2
 ---------------------------------------------------------------------------------
 (2) _SPI_Init_Master                                      4     2      2     285
                                              0 BANK0      4     2      2
 ---------------------------------------------------------------------------------
 (1) _SPI_WriteByteBlocking                                3     3      0      26
                                              0 BANK0      2     2      0
 ---------------------------------------------------------------------------------
 Estimated maximum stack depth 4
 ---------------------------------------------------------------------------------
 (Depth) Function   	        Calls       Base Space   Used Autos Params    Refs
 ---------------------------------------------------------------------------------
 (5) _InterruptManagerLow                                  7     7      0    1156
                                             20 COMRAM     7     7      0
                     _InterruptCheck
 ---------------------------------------------------------------------------------
 (6) _InterruptCheck                                       0     0      0    1156
                            _ADC_ISR
                           _CCP1_ISR
                      _EUSART_RX_ISR
                      _EUSART_TX_ISR
                           _INT0_ISR
                           _INT1_ISR
                           _INT2_ISR
                            _RB4_ISR
                            _RB5_ISR
                            _RB6_ISR
                            _RB7_ISR
                           _TMR1_ISR
                           _TMR2_ISR
                           _TMR3_ISR
                           _TMRO_ISR
 ---------------------------------------------------------------------------------
 (7) _TMRO_ISR                                             0     0      0     502
                                NULL *
            _timer0_interruptHundler *
 ---------------------------------------------------------------------------------
 (8) _timer0_interruptHundler                              0     0      0     502
                  _Timer1_Read_value
                 _Timer1_Write_value
 ---------------------------------------------------------------------------------
 (9) _Timer1_Write_value                                   5     1      4     227
                                             12 COMRAM     4     0      4
 ---------------------------------------------------------------------------------
 (9) _Timer1_Read_value                                    9     5      4     275
                                             12 COMRAM     8     4      4
 ---------------------------------------------------------------------------------
 (7) _TMR3_ISR                                             0     0      0       0
                                NULL *
            _timer3_interruptHundler *
 ---------------------------------------------------------------------------------
 (8) _timer3_interruptHundler                              0     0      0       0
 ---------------------------------------------------------------------------------
 (7) _TMR2_ISR                                             0     0      0       0
 ---------------------------------------------------------------------------------
 (7) _TMR1_ISR                                             0     0      0       0
 ---------------------------------------------------------------------------------
 (7) _RB7_ISR                                              1     1      0      30
                                             12 COMRAM     1     1      0
 ---------------------------------------------------------------------------------
 (7) _RB6_ISR                                              1     1      0      30
                                             12 COMRAM     1     1      0
 ---------------------------------------------------------------------------------
 (7) _RB5_ISR                                              1     1      0      30
                                             12 COMRAM     1     1      0
 ---------------------------------------------------------------------------------
 (7) _RB4_ISR                                              1     1      0      30
                                             12 COMRAM     1     1      0
 ---------------------------------------------------------------------------------
 (7) _INT2_ISR                                             0     0      0       0
 ---------------------------------------------------------------------------------
 (7) _INT1_ISR                                             0     0      0       0
 ---------------------------------------------------------------------------------
 (7) _INT0_ISR                                             0     0      0       0
 ---------------------------------------------------------------------------------
 (7) _EUSART_TX_ISR                                        0     0      0       0
                                NULL *
         _EUSART_Tx_InterruptHandler *
 ---------------------------------------------------------------------------------
 (8) _EUSART_Tx_InterruptHandler                           0     0      0       0
 ---------------------------------------------------------------------------------
 (7) _EUSART_RX_ISR                                        0     0      0     130
                                NULL *
         _EUSART_Rx_InterruptHandler *
 ---------------------------------------------------------------------------------
 (8) _EUSART_Rx_InterruptHandler                           0     0      0     130
   _EUSART_ASYNC_ReadByteNonBlocking
 ---------------------------------------------------------------------------------
 (9) _EUSART_ASYNC_ReadByteNonBlocking                     3     1      2     130
                                             12 COMRAM     2     0      2
 ---------------------------------------------------------------------------------
 (7) _CCP1_ISR                                             0     0      0     404
                                NULL *
              _CCP1_interruptHundler *
 ---------------------------------------------------------------------------------
 (8) _CCP1_interruptHundler                                0     0      0     404
       _CCP1_Capture_Mode_Read_Value
                 _Timer3_Write_value
 ---------------------------------------------------------------------------------
 (9) _Timer3_Write_value                                   5     1      4     227
                                             12 COMRAM     4     0      4
 ---------------------------------------------------------------------------------
 (9) _CCP1_Capture_Mode_Read_Value                         5     3      2     177
                                             12 COMRAM     4     2      2
 ---------------------------------------------------------------------------------
 (13) NULL(Fake)                                           0     0      0       0
 ---------------------------------------------------------------------------------
 (7) _ADC_ISR                                              0     0      0       0
 ---------------------------------------------------------------------------------
 Estimated maximum stack depth 13
 ---------------------------------------------------------------------------------
 (Depth) Function   	        Calls       Base Space   Used Autos Params    Refs
 ---------------------------------------------------------------------------------
 (10) _InterruptManagerHigh                                4     4      0     812
                                              8 COMRAM     4     4      0
                   i2_InterruptCheck
 ---------------------------------------------------------------------------------
 (11) i2_InterruptCheck                                    0     0      0     812
                          i2_ADC_ISR
                         i2_CCP1_ISR
                    i2_EUSART_RX_ISR
                    i2_EUSART_TX_ISR
                         i2_INT0_ISR
                         i2_INT1_ISR
                         i2_INT2_ISR
                          i2_RB4_ISR
                          i2_RB5_ISR
                          i2_RB6_ISR
                          i2_RB7_ISR
                         i2_TMR1_ISR
                         i2_TMR2_ISR
                         i2_TMR3_ISR
                         i2_TMRO_ISR
 ---------------------------------------------------------------------------------
 (12) i2_TMRO_ISR                                          0     0      0     302
                                NULL *
          i2_timer0_interruptHundler *
 ---------------------------------------------------------------------------------
 (13) i2_timer0_interruptHundler                           0     0      0     302
                i2_Timer1_Read_value
               i2_Timer1_Write_value
 ---------------------------------------------------------------------------------
 (14) i2_Timer1_Write_value                                5     1      4     127
                                              0 COMRAM     4     0      4
 ---------------------------------------------------------------------------------
 (14) i2_Timer1_Read_value                                 9     5      4     175
                                              0 COMRAM     8     4      4
 ---------------------------------------------------------------------------------
 (12) i2_TMR3_ISR                                          0     0      0       0
                                NULL *
          i2_timer3_interruptHundler *
 ---------------------------------------------------------------------------------
 (13) i2_timer3_interruptHundler                           0     0      0       0
 ---------------------------------------------------------------------------------
 (12) i2_TMR2_ISR                                          0     0      0       0
 ---------------------------------------------------------------------------------
 (12) i2_TMR1_ISR                                          0     0      0       0
 ---------------------------------------------------------------------------------
 (12) i2_RB7_ISR                                           1     1      0      44
                                              0 COMRAM     1     1      0
 ---------------------------------------------------------------------------------
 (12) i2_RB6_ISR                                           1     1      0      44
                                              0 COMRAM     1     1      0
 ---------------------------------------------------------------------------------
 (12) i2_RB5_ISR                                           1     1      0      44
                                              0 COMRAM     1     1      0
 ---------------------------------------------------------------------------------
 (12) i2_RB4_ISR                                           1     1      0      44
                                              0 COMRAM     1     1      0
 ---------------------------------------------------------------------------------
 (12) i2_INT2_ISR                                          0     0      0       0
 ---------------------------------------------------------------------------------
 (12) i2_INT1_ISR                                          0     0      0       0
 ---------------------------------------------------------------------------------
 (12) i2_INT0_ISR                                          0     0      0       0
 ---------------------------------------------------------------------------------
 (12) i2_EUSART_TX_ISR                                     0     0      0       0
                                NULL *
       i2_EUSART_Tx_InterruptHandler *
 ---------------------------------------------------------------------------------
 (13) i2_EUSART_Tx_InterruptHandler                        0     0      0       0
 ---------------------------------------------------------------------------------
 (12) i2_EUSART_RX_ISR                                     0     0      0      80
                                NULL *
       i2_EUSART_Rx_InterruptHandler *
 ---------------------------------------------------------------------------------
 (13) i2_EUSART_Rx_InterruptHandler                        0     0      0      80
 i2_EUSART_ASYNC_ReadByteNonBlocking
 ---------------------------------------------------------------------------------
 (14) i2_EUSART_ASYNC_ReadByteNonBlocking                  3     1      2      80
                                              0 COMRAM     2     0      2
 ---------------------------------------------------------------------------------
 (12) i2_CCP1_ISR                                          0     0      0     254
                                NULL *
            i2_CCP1_interruptHundler *
 ---------------------------------------------------------------------------------
 (13) i2_CCP1_interruptHundler                             0     0      0     254
     i2_CCP1_Capture_Mode_Read_Value
               i2_Timer3_Write_value
 ---------------------------------------------------------------------------------
 (14) i2_Timer3_Write_value                                5     1      4     127
                                              0 COMRAM     4     0      4
 ---------------------------------------------------------------------------------
 (14) i2_CCP1_Capture_Mode_Read_Value                      5     3      2     127
                                              0 COMRAM     4     2      2
 ---------------------------------------------------------------------------------
 (13) NULL(Fake)                                           0     0      0       0
 ---------------------------------------------------------------------------------
 (12) i2_ADC_ISR                                           0     0      0       0
 ---------------------------------------------------------------------------------
 Estimated maximum stack depth 14
 ---------------------------------------------------------------------------------

 Call Graph Graphs:

 _main (ROOT)
   _SPI_WriteByteBlocking
   _app_intialize
     _SPI_Init_Master
     _led_initialize
       _gpio_pin_intialize
         _gpio_pin_direction_intialize
         _gpio_pin_write_logic

 _InterruptManagerLow (ROOT)
   _InterruptCheck
     _ADC_ISR
     _CCP1_ISR
       NULL(Fake) *
       _CCP1_interruptHundler *
         _CCP1_Capture_Mode_Read_Value
         _Timer3_Write_value
     _EUSART_RX_ISR
       NULL(Fake) *
       _EUSART_Rx_InterruptHandler *
         _EUSART_ASYNC_ReadByteNonBlocking
     _EUSART_TX_ISR
       NULL(Fake) *
       _EUSART_Tx_InterruptHandler *
     _INT0_ISR
     _INT1_ISR
     _INT2_ISR
     _RB4_ISR
     _RB5_ISR
     _RB6_ISR
     _RB7_ISR
     _TMR1_ISR
     _TMR2_ISR
     _TMR3_ISR
       NULL(Fake) *
       _timer3_interruptHundler *
     _TMRO_ISR
       NULL(Fake) *
       _timer0_interruptHundler *
         _Timer1_Read_value
         _Timer1_Write_value

 _InterruptManagerHigh (ROOT)
   i2_InterruptCheck
     i2_ADC_ISR
     i2_CCP1_ISR
       NULL(Fake) *
       i2_CCP1_interruptHundler *
         i2_CCP1_Capture_Mode_Read_Value
         i2_Timer3_Write_value
     i2_EUSART_RX_ISR
       NULL(Fake) *
       i2_EUSART_Rx_InterruptHandler *
         i2_EUSART_ASYNC_ReadByteNonBlocking
     i2_EUSART_TX_ISR
       NULL(Fake) *
       i2_EUSART_Tx_InterruptHandler *
     i2_INT0_ISR
     i2_INT1_ISR
     i2_INT2_ISR
     i2_RB4_ISR
     i2_RB5_ISR
     i2_RB6_ISR
     i2_RB7_ISR
     i2_TMR1_ISR
     i2_TMR2_ISR
     i2_TMR3_ISR
       NULL(Fake) *
       i2_timer3_interruptHundler *
     i2_TMRO_ISR
       NULL(Fake) *
       i2_timer0_interruptHundler *
         i2_Timer1_Read_value
         i2_Timer1_Write_value

 Address spaces:
Name               Size   Autos  Total    Cost      Usage
BIGRAM             F7F      0       0      49        0.0%
EEDATA             400      0       0       0        0.0%
BITBANK14          100      0       0      33        0.0%
BANK14             100      0       0      34        0.0%
BITBANK13          100      0       0      31        0.0%
BANK13             100      0       0      32        0.0%
BITBANK12          100      0       0      29        0.0%
BANK12             100      0       0      30        0.0%
BITBANK11          100      0       0      27        0.0%
BANK11             100      0       0      28        0.0%
BITBANK10          100      0       0      25        0.0%
BANK10             100      0       0      26        0.0%
BITBANK9           100      0       0      23        0.0%
BANK9              100      0       0      24        0.0%
BITBANK8           100      0       0      21        0.0%
BANK8              100      0       0      22        0.0%
BITBANK7           100      0       0      19        0.0%
BANK7              100      0       0      20        0.0%
BITBANK6           100      0       0      17        0.0%
BANK6              100      0       0      18        0.0%
BITBANK5           100      0       0      15        0.0%
BANK5              100      0       0      16        0.0%
BITBANK4           100      0       0      13        0.0%
BANK4              100      0       0      14        0.0%
BITBANK3           100      0       0      10        0.0%
BANK3              100      0       0      11        0.0%
BITBANK2           100      0       0       8        0.0%
BANK2              100      0       0       9        0.0%
BITBANK1           100      0       0       6        0.0%
BANK1              100      8      1B       7       10.5%
BITBANK15           80      0       0      35        0.0%
BANK15              80      0       0      36        0.0%
BITBANK0            80      0       0       4        0.0%
BANK0               80      C      80       5      100.0%
BITCOMRAM           7E      0       0       0        0.0%
COMRAM              7E     1B      6A       1       84.1%
BITBIGSFRhhllhh     18      0       0      38        0.0%
BITBIGSFRhhh         D      0       0      37        0.0%
BITBIGSFRlllhh       6      0       0      46        0.0%
BITBIGSFRllhlhh      4      0       0      43        0.0%
BITBIGSFRllhlhh      4      0       0      44        0.0%
BITBIGSFRllllh       4      0       0      47        0.0%
BITBIGSFRhhlll       4      0       0      39        0.0%
BITBIGSFRllhlll      4      0       0      45        0.0%
BITBIGSFRlllll       4      0       0      48        0.0%
BITBIGSFRhlhllh      1      0       0      41        0.0%
BITBIGSFRhlhlh       1      0       0      40        0.0%
BITBIGSFRhlhlll      1      0       0      42        0.0%
BIGSFR               0      0       0     200        0.0%
BITSFR               0      0       0     200        0.0%
SFR                  0      0       0     200        0.0%
STACK                0      0       0       2        0.0%
NULL                 0      0       0       0        0.0%
ABS                  0      0     105      12        0.0%
DATA                 0      0     105       3        0.0%
CODE                 0      0       0       0        0.0%


Microchip Technology PIC18 Macro Assembler V2.41 build 20230208172133 
Symbol Table                                                                                   Wed May 31 21:49:18 2023

                                  _SPI_Master_obj 00F0                                       _SSPSTATbits 0FC7  
                                              bsr 0FE0                             ??_InterruptManagerLow 0055  
                                             l230 1AA8                                               l226 1A46  
                                             l531 1852                                               l550 1984  
                                             l569 1D08                                   ??_app_intialize 0100  
                          ??_InterruptManagerHigh 0049                                       ?i2_CCP1_ISR 0041  
                       _RB5_InterruptHandler_HIGH 0021                                   __end_of_ADC_ISR 236C  
                             led_initialize@F3048 003A                                               prod 0FF3  
                                             tosl 0FFD                                               wreg 0FE8  
                                   _SPI_Slave_obj 005C                                   __end_of_RB4_ISR 226E  
                                 __end_of_RB5_ISR 2254                                   __end_of_RB6_ISR 223A  
                                 __end_of_RB7_ISR 2220                                              l1440 21CE  
                                            l1514 211E                                              l1516 212C  
                                            l1517 2130                                              l1481 1A24  
                                            l1479 19A2                   __end_of_timer3_interruptHundler 2206  
                                            l6440 188E                                              l7080 1D0A  
                                            l7146 196C                                              l6442 1896  
                                            l6450 1982                                              l6434 1854  
                                            l7082 1D0E                                              l7148 183A  
                                            l6460 1710                                              l6444 18FA  
                                            l6436 185A                                              l7084 1D14  
                                            l6462 1722                                              l6438 186C  
                                            l7086 1D2E                                              l7078 1D0A  
                                            l6472 180E                                              l6464 1744  
                                            l6448 1958                                              l7088 1D34  
                                            l6466 174C                                              l6474 1850  
                                            l6458 170A                                              l6490 1D06  
                                            l6482 1CB6                                              l6570 1A2C  
                                            l6468 17B0                                              l6484 1CB6  
                                            l6580 1A96                                              l6572 1A3E  
                                            l6670 2114                                              l6590 199A  
                                            l6486 1CCA                                              l6574 1A4A  
                                            l6582 1AA4                                              l6672 211A  
                                            l6592 19AC                                              l6488 1CD4  
                                            l6576 1A80                                              l6568 1A26  
                                            l6664 21B2                                              l6674 2130  
                                            l6594 1A1C                                              l6586 1986  
                                            l6578 1A82                                              l6666 21B2  
                                            l6596 1A1E                                              l6588 1986  
                                            l6668 21C0                                              l6598 1A22  
                                            STR_1 1001                                              _LATA 0F89  
                                            _LATB 0F8A                                              _LATC 0F8B  
                                            _LATD 0F8C                                              _LATE 0F8D  
                                            u6300 1744                                              u6301 1740  
                                            u6400 1A3E                                              u6401 1A3A  
                                            u6330 1826                                              u6314 176C  
                                            u6250 186C                                              u6331 1820  
                                            u6315 1768                                              u6251 1868  
                                            u6420 199A                                              u6340 1828  
                                            u6324 17D0                                              u6260 188E  
                                            u6421 1996                                              u6325 17CC  
                                            u6261 188A                                              u6350 1CCA  
                                            u6351 1CC6                                              u6415 1A92  
                                            u6417 1A96                                              u6290 1722  
                                            u6274 18B6                                              u6291 171E  
                                            u6275 18B2                                              u6284 191A  
                                            u6285 1916                                              u6490 212C  
                                            u6491 2128                                              u6857 1D20  
                                            u6867 1D40                                              _TMR2 0FCC  
                        _RB4_InterruptHandler_LOW 0023                                              _led1 006A  
                                            _led2 005F                                       ?i2_INT0_ISR 0041  
                                            _main 1D0A                                       ?i2_INT1_ISR 0041  
                                     ?i2_INT2_ISR 0041                                  __end_of_CCP1_ISR 203A  
                             i2RB7_ISR@RB7_Source 0041                          _RB7_InterruptHandler_LOW 0017  
                                            fsr2h 0FDA                                              indf2 0FDF  
                                            fsr1l 0FE1                                              fsr2l 0FD9  
                                            btemp 006B                            __end_of_led_initialize 1AAA  
                                            prodl 0FF3                                              start 005A  
                                    ___param_bank 0000                                       ?i2_TMR1_ISR 0041  
                                     ?i2_TMR2_ISR 0041                                       ?i2_TMR3_ISR 0041  
                            _gpio_pin_write_logic 1854                                  __end_of_INT0_ISR 2368  
                                __end_of_INT1_ISR 2364                                  __end_of_INT2_ISR 2360  
                                     ?i2_TMRO_ISR 0041                                     _EUSART_RX_ISR 1F7E  
                                   _EUSART_TX_ISR 1FDE                                             ?_main 0041  
                                           _EEADR 0FA9                       ??i2_timer3_interruptHundler 0041  
                                           i1l443 1DBC                                             i1l700 1366  
                                           i1l445 1DD4                                             i1l703 1386  
                                           i1l393 236A                                             i1l458 2038  
                                           i1l670 1066                                             i1l662 003A  
                                           i1l680 11BA                                             i1l672 10AA  
                                           i1l690 12C6                                             i1l682 11FE  
                                           i1l674 10EE                                             i1l666 1026  
                                           i2l443 1DF4                                             i2l700 16E8  
                                           i1l924 2366                                             i1l692 12E6  
                                           i1l684 1242                                             i1l676 1132  
                                           i1l668 1046                                             i2l445 1E0C  
                                           i1l934 235E                                             i1l694 1306  
                                           i1l686 1286                                             i1l678 1176  
                                           i2l703 1708                                             i1l696 1326  
                                           i1l688 12A6                                             i2l393 237A  
                                           i1l929 2362                                             i1l945 226C  
                                           i2l458 2094                                             i1l698 1346  
                                           i1l956 2252                                             i2l670 13E8  
                                           i1l967 2238                                             i2l680 153C  
                                           i2l672 142C                                             i2l657 20AC  
                                           i2l690 1648                                             i2l682 1580  
                                           i2l674 1470                                             i2l666 13A8  
                                           i1l978 221E                                             i2l924 2376  
                                           i2l692 1668                                             i2l684 15C4  
                                           i2l676 14B4                                             i2l668 13C8  
                                           i2l934 236E                                             i2l694 1688  
                                           i2l686 1608                                             i2l678 14F8  
                                           i2l696 16A8                                             i2l688 1628  
                                           i2l929 2372                                             i2l945 22EE  
                                           i2l698 16C8                                             i2l956 22D4  
                                           i2l967 22BA                                             i2l978 22A0  
                                           _RCREG 0FAE                                             _TMR0H 0FD7  
                                           _TMR1H 0FCF                                             _TMR0L 0FD6  
                                           _TMR1L 0FCE                                             _TMR3H 0FB3  
                                           _TMR3L 0FB2                                             _SPBRG 0FAF  
                                           _PORTA 0F80                                             _PORTB 0F81  
                                           _PORTC 0F82                                             _PORTD 0F83  
                                           _PORTE 0F84                                             _TRISA 0F92  
                                           _TRISB 0F93                                             _TRISC 0F94  
                                           _TRISD 0F95                                             _TRISE 0F96  
                      i2Timer1_Write_value@_value 0043                        i2Timer1_Write_value@_timer 0041  
                                           _TXREG 0FAD                      fp_i2_timer0_interruptHundler 0000  
                                __end_of_TMR1_ISR 2340                                  __end_of_TMR2_ISR 2354  
                                __end_of_TMR3_ISR 1E7A                           __end_of_SPI_Init_Master 1A26  
                                           _lcd_1 00B6                                             _lcd_2 009E  
                         ??_SPI_WriteByteBlocking 00F4                                  __end_of_TMRO_ISR 1E44  
                                           pclath 0FFA                                             pclatu 0FFB  
                                           tablat 0FF5                 SPI_WriteByteBlocking@buff_removed 00F4  
                                           ttemp5 006C                                             ttemp6 006F  
                                           ttemp7 0073                                             status 0FD8  
            __end_ofi2_EUSART_Tx_InterruptHandler 2324                      i2_EUSART_Tx_InterruptHandler 2314  
                                           wtemp8 006C                                   ?_led_initialize 0114  
                                 _timer3_overflow 00E8                          i2Timer1_Read_value@tmr1h 0048  
                        i2Timer1_Read_value@tmr1l 0047                                   __initialization 1AAA  
               _timer3_interruptHundler$intlevel1 21F6                                      __end_of_main 1D56  
                           ?_gpio_pin_write_logic 00F4                               i2_Timer1_Read_value 1C58  
                                       ??_ADC_ISR 004D                                    ?_EUSART_RX_ISR 0041  
                                  ?_EUSART_TX_ISR 0041                                     _lat_registers 008A  
                              _Timer1_Write_value 2132                                            ??_main 0119  
      _EUSART_Tx_InterruptHandler@hal_usart$F3612 0007        _EUSART_Rx_InterruptHandler@hal_usart$F3613 0005  
                                   __activetblptr 0003                             _CCP1_interruptHundler 1B2C  
                           _TMR3_InterruptHandler 000B                                  led_turn_on@F3053 0039  
                                       ??_RB4_ISR 004D                                         ??_RB5_ISR 004D  
                                       ??_RB6_ISR 004D                                         ??_RB7_ISR 004D  
                             ?_Timer1_Write_value 004D                                 __end_ofi2_ADC_ISR 237C  
                      _EUSART_OverrunErrorHandler 0001                                            _ADRESH 0FC4  
                                          _EEADRH 0FAA                                            _ADRESL 0FC3  
                                          _EEDATA 0FA8                                            _CCPR1H 0FBF  
                                          _CCPR1L 0FBE                                            _EECON2 0FA7  
                            ?i2_Timer1_Read_value 0041                                            i1l1030 1E42  
                                          i1l1103 1C56                                            i1l1211 2170  
                                          i1l1107 233E                                            i1l1222 1E78  
                                          i1l1166 2352                                            i1l1096 2150  
                                          i1l1346 200A                                            i1l1355 1FAC  
                                          i1l1099 1C2A                                            i1l1443 1F18  
                                          i1l1452 2204                                            i1l1461 2286  
                                          i1l1294 1F30                                            i1l5000 2164  
                                          i1l1464 210E                                            i1l5002 2168  
                                          i1l1458 1B96                                            i1l1298 1F4A  
                                          i1l5010 1F1A                                            i1l2610 2256  
                                          i1l5004 216C                                            i1l5012 1F2C  
                                          i1l2604 235C                                            i1l2612 2258  
                                          i1l5100 1EF0                                            i2l1030 1EAE  
                                          i1l5110 1B4A                                            i1l5014 1F3E  
                                          i1l5102 1F04                                            i2l1103 1CB4  
                                          i1l5112 1B5E                                            i1l5016 1F4A  
                                          i1l5008 1F1A                                            i1l5120 2278  
                                          i1l2632 2252                                            i1l2624 223C  
                                          i1l2640 2224                                            i1l5104 21F6  
                                          i1l5114 1B74                                            i1l5106 1B36  
                                          i1l5122 20F4                                            i1l2618 226C  
                                          i1l2626 223E                                            i2l1211 21B0  
                                          i2l1107 234A                                            i1l2580 2368  
                                          i1l5116 1B86                                            i1l5108 1B3A  
                                          i1l5124 2102                                            i1l2660 221E  
                                          i1l2652 2208                                            i2l1222 1EE4  
                                          i1l5118 1B8A                                            i1l2646 2238  
                                          i1l2638 2222                                            i1l2654 220A  
                                          i1l2592 2364                                            i1l2680 233A  
                                          i1l5260 2020                                            i1l2676 2334  
                                          i1l2684 234C                                            i1l5500 1034  
                                          i2l1166 235A                                            i1l2598 2360  
                                          i1l2678 2336                                            i1l5270 1E2A  
                                          i1l5262 1E0E                                            i1l5510 1082  
                                          i1l5502 1042                                            i2l1096 2190  
                                          i1l5256 200C                                            i1l5280 1E60  
                                          i1l5272 1E44                                            i1l5264 1E10  
                                          i1l5600 12F4                                            i1l5520 10C6  
                                          i1l5512 1090                                            i1l5504 1054  
                                          i2l1346 2066                                            i1l5258 200E  
                                          i1l5290 1F90                                            i1l5282 1FDE  
                                          i1l5274 1E46                                            i1l5266 1E14  
                                          i1l5610 1342                                            i1l5602 1302  
                                          i1l5530 110A                                            i1l5522 10D4  
                                          i1l5514 10A0                                            i1l5506 1062  
                                          i2l1355 1FDC                                            i2l1099 1C88  
                                          i2l1443 20E8                                            i2l1452 2312  
                                          i1l5292 1FAC                                            i1l5284 1FE0  
                                          i1l5276 1E4A                                            i1l5268 1E18  
                                          i1l5612 1354                                            i1l5604 1314  
                                          i1l5540 114E                                            i1l5532 1118  
                                          i1l5524 10E4                                            i1l5516 10A4  
                                          i1l5508 1074                                            i2l1461 2322  
                                          i2l1294 1F62                                            i1l5286 1FF2  
                                          i1l5278 1E4E                                            i1l5614 1362  
                                          i1l5606 1322                                            i1l5550 1192  
                                          i1l5542 115C                                            i1l5534 1128  
                                          i1l5526 10E8                                            i1l5518 10B8  
                                          i2l1464 21EA                                            i1l5288 1F7E  
                                          i1l5616 1374                                            i1l5608 1334  
                                          i1l5560 11D6                                            i1l5552 11A0  
                                          i1l5544 116C                                            i1l5536 112C  
                                          i1l5528 10FC                                            i2l1458 1BF8  
                                          i2l1298 1F7C                                            i1l5618 1382  
                                          i1l5570 121A                                            i1l5562 11E4  
                                          i1l5554 11B0                                            i1l5546 1170  
                                          i1l5538 1140                                            i1l5580 125E  
                                          i1l5572 1228                                            i1l5564 11F4  
                                          i1l5556 11B4                                            i1l5548 1184  
                                          i2l5030 1DFC                                            i2l5022 1DD6  
                                          i1l5590 12A2                                            i1l5582 126C  
                                          i1l5574 1238                                            i1l5566 11F8  
                                          i1l5558 11C8                                            i1l5494 1006  
                                          i2l5032 1E0C                                            i2l5024 1DD6  
                               __end_ofi2_RB4_ISR 22F0                                            i2l5040 2184  
                                          i1l4960 1DA6                                            i1l5592 12B4  
                                          i1l5584 127C                                            i1l5576 123C  
                                          i1l5568 120C                                            i1l5496 1014  
                                          i2l5026 1DDE                                            i2l5130 2304  
                                          i2l5050 1C60                                            i2l5042 2188  
                                          i1l4962 1DB8                                            i1l4970 2132  
                                          i1l5594 12C2                                            i1l5586 1280  
                                          i1l5578 1250                                            i1l5498 1022  
                                          i1l6298 0036                                            i2l2732 2378  
                                          i2l5028 1DF0                                            i2l5140 1BD6  
                                          i2l5132 1B98                                            i2l5052 1C72  
                                          i2l5044 218C                                            i2l5036 2172  
                                          i1l4964 1DC4                                            i1l4956 1D9E  
                                          i1l4972 2132                                            i1l5596 12D4  
                                          i1l5588 1294                                            i2l5070 21AC  
                                          i2l5062 2192                                            i2l5142 1BE8  
                                          i2l5134 1B9C                                            i2l5150 21DE  
                                          i2l2750 2370                                            i2l2830 2342  
                                          i2l5054 1C84                                            i2l5038 2172  
                                          i2l5126 20C0                                            i1l4966 1DD4  
                                          i1l4958 1D9E                                            i1l4990 1C32  
                                          i1l4982 1BFA                                            i1l4974 2144  
                                          i1l5598 12E2                                            i2l5064 2192  
                                          i2l5144 1BEC                                            i2l5136 1BAC  
                                          i2l5320 207C                                            i2l5080 1F70  
                                          i2l5400 203C                                            i2l2744 2374  
                                          i2l2832 2346                                            i2l5056 1C90  
                                          i2l5048 1C58                                            i2l5128 20D4  
                                          i1l4992 1C56                                            i1l4984 1C02  
                                          i1l4976 2148                                            i2l5066 21A4  
                                          i2l5138 1BC0                                            i2l5082 1F7C  
                                          i2l5074 1F4C                                            i2l5146 2314  
                                          i2l5402 204E                                            i2l5330 22EE  
                                          i2l5322 22D8                                            i2l5058 1CB4  
                                          i1l4986 1C14                                            i1l4978 214C  
                                          i2l5068 21A8                                            i2l5316 2068  
                                          i2l5076 1F4C                                            i2l5148 21D0  
                                          i2l5404 1FAE                                            i2l2756 236C  
                                          i2l5324 22DA                                            i2l2828 2340  
                                          i2l2836 2354                                            i1l4996 2152  
                                          i1l4988 1C26                                            i2l5318 206A  
                                          i2l5078 1F5E                                            i2l5406 1FC0  
                                          i2l5350 22A4                                            i1l4998 2152  
                                          i2l5408 1FDC                                 __end_ofi2_RB5_ISR 22D6  
                                          i2l5344 22D4                                            i2l5336 22BE  
                                          i2l5352 22A6                                            i2l5338 22C0  
                                          i2l5372 22A0                                            i2l5364 228A  
                                          i2l5380 1E7C                                            i2l5700 158E  
                                          i2l5358 22BA                                            i2l5366 228C  
                                          i2l5390 1EB2                                            i2l5382 1E80  
                                          i2l5710 15D2                                            i2l5702 159C  
                                          i2l5630 13A4                                            i2l5392 1EB6  
                                          i2l5384 1E84                                            i2l5720 1616  
                                          i2l5712 15E0                                            i2l5704 15AA  
                                          i2l5640 13F6                                            i2l5632 13B6  
                                          i2l5394 1EBA                                            i2l5386 1E96  
                                          i2l5378 1E7A                                            i2l5730 1664  
                                          i2l5722 1624                                            i2l5714 15EE  
                                          i2l5706 15BA                                            i2l5650 143A  
                                          i2l5642 1404                                            i2l5634 13C4  
                                          i2l5626 1388                                            i2l5396 1ECC  
                                          i2l5388 1EB0                                            i2l5740 16B6  
                                          i2l5732 1676                                            i2l5724 1636  
                                          i2l5716 15FE                                            i2l5708 15BE  
                                          i2l5660 147E                                            i2l5652 1448  
                                          i2l5644 1412                                            i2l5636 13D6  
                                          i2l5628 1396                                            i2l5398 203A  
                                          i2l5750 1704                                            i2l5742 16C4  
                                          i2l5734 1684                                            i2l5726 1644  
                                          i2l5718 1602                                            i2l5670 14C2  
                                          i2l5662 148C                                            i2l5654 1456  
                                          i2l5646 1422                                            i2l5638 13E4  
                               __end_ofi2_RB6_ISR 22BC                                            i2l5744 16D6  
                                          i2l5736 1696                                            i2l5728 1656  
                                          i2l5680 1506                                            i2l5672 14D0  
                                          i2l5664 149A                                            i2l5656 1466  
                                          i2l5648 1426                                            i2l6296 20A8  
                                          i2l5746 16E4                                            i2l5738 16A4  
                                          i2l5690 154A                                            i2l5682 1514  
                                          i2l5674 14DE                                            i2l5666 14AA  
                                          i2l5658 146A                                            i2l5748 16F6  
                                          i2l5692 1558                                            i2l5684 1522  
                                          i2l5676 14EE                                            i2l5668 14AE  
                                          i2l5694 1566                                            i2l5686 1532  
                                          i2l5678 14F2                                            i2l5696 1576  
                                          i2l5688 1536                                            i2l5698 157A  
                               __end_ofi2_RB7_ISR 22A2                                            _SPBRGH 0FB0  
                                          _SSPBUF 0FC9                         i2_timer3_interruptHundler 2304  
                 fp_i2_EUSART_Tx_InterruptHandler 0000                __end_of_EUSART_Tx_InterruptHandler 2288  
                   ?i2_EUSART_Tx_InterruptHandler 0041                        _EUSART_Tx_InterruptHandler 226E  
                            ??_Timer1_Write_value 0051                                            clear_0 1B10  
                                          clear_1 1B1C                             led_initialize@pin_obj 0118  
                                          _timer0 00A8                                            _timer1 0064  
                                          _timer2 00BC                                            _timer3 00C1  
                                          isa$std 0001           gpio_pin_direction_intialize@_pin_config 00F4  
                                       ?_CCP1_ISR 0041                                      __pdataCOMRAM 005C  
                                    __mediumconst 0000                                            tblptrh 0FF7  
                                          tblptrl 0FF6                                            tblptru 0FF8  
                  ??_CCP1_Capture_Mode_Read_Value 004F                                  ?_SPI_Init_Master 00F4  
                           ??i2_Timer1_Read_value 0045                                        __accesstop 0080  
                         __end_of__initialization 1B22                                         ?_INT0_ISR 0041  
                                       ?_INT1_ISR 0041                                         ?_INT2_ISR 0041  
                                   ___rparam_used 0001                                 ??i2_EUSART_RX_ISR 0043  
                               ??i2_EUSART_TX_ISR 0041                                 led_initialize@led 0114  
                               led_initialize@ret 0117                                 RB5_ISR@RB5_Source 004D  
                          ??_gpio_pin_write_logic 00F7                                    __pcstackCOMRAM 0041  
                                    __pidataBANK0 1D56                                      __pidataBANK1 22F0  
                                 ??_EUSART_RX_ISR 004F                                         ?_TMR1_ISR 0041  
                                       ?_TMR2_ISR 0041                                         ?_TMR3_ISR 0041  
                                 ??_EUSART_TX_ISR 004D                                         ?_TMRO_ISR 0041  
                          ?_CCP1_interruptHundler 0041                                _Timer3_Write_value 2152  
                                    ??i2_CCP1_ISR 0045                                        ??_CCP1_ISR 0051  
                             ?_Timer3_Write_value 004D            __end_ofi2_CCP1_Capture_Mode_Read_Value 1E0E  
                  i2_CCP1_Capture_Mode_Read_Value 1DD6                                        __pbssBANK0 00C7  
                                    ??i2_INT0_ISR 0041                                      ??i2_INT1_ISR 0041  
                           _INT0_InterruptHandler 002B                                        ??_INT0_ISR 004D  
                                    ??i2_INT2_ISR 0041                                        ??_INT1_ISR 004D  
                                      ??_INT2_ISR 004D                        ?i2_timer0_interruptHundler 0041  
                         _timer0_interruptHundler 1EE6                        fp__timer0_interruptHundler 0000  
                    ??_EUSART_Rx_InterruptHandler 004F                       __end_of_InterruptManagerLow 005A  
                        ?_timer3_interruptHundler 0041                              ??_Timer3_Write_value 0051  
                              __end_ofi2_CCP1_ISR 2096                                      ??i2_TMR1_ISR 0041  
                                    ??i2_TMR2_ISR 0041                                        ??_TMR1_ISR 004D  
                                    ??i2_TMR3_ISR 0041                                        ??_TMR2_ISR 004D  
                  ??i2_EUSART_Tx_InterruptHandler 0041                                        ??_TMR3_ISR 004D  
                               led_turn_off@F3058 0038                                           _ADC_ISR 2368  
                                    ??i2_TMRO_ISR 0049                                        ??_TMRO_ISR 0055  
                         i2_CCP1_interruptHundler 1B98                        fp_i2_CCP1_interruptHundler 0000  
                               RB7_ISR@RB7_Source 004D                                           _RB4_ISR 2254  
                                         _RB5_ISR 223A                                           _RB6_ISR 2220  
                                         _RB7_ISR 2206                                __end_ofi2_INT0_ISR 2378  
                              __end_ofi2_INT1_ISR 2374                                __end_ofi2_INT2_ISR 2370  
                       _RB6_InterruptHandler_HIGH 001D                          Timer1_Write_value@_value 004F  
                        Timer1_Write_value@_timer 004D                             __end_of_app_intialize 21D0  
                                         i1u41_20 2268                                           i1u41_21 2264  
                                         i1u42_20 224E                              led_turn_toggle@F3063 0037  
                                         i1u42_21 224A                                           i1u43_20 2234  
                                         i1u43_21 2230                                           i1u44_20 221A  
                                         i1u44_21 2216                                  ??_led_initialize 0116  
                    __end_ofi2_Timer1_Write_value 2192                     __end_of_SPI_WriteByteBlocking 2132  
                              __end_ofi2_TMR1_ISR 234C                                __end_ofi2_TMR2_ISR 235C  
                              __end_ofi2_TMR3_ISR 1EE6                                    _tris_registers 0094  
                        _RB6_InterruptHandler_LOW 001B                                __end_ofi2_TMRO_ISR 1EB0  
               __end_ofi2_timer0_interruptHundler 20EA                              _ADC_InterruptHandler 0031  
                                         __Hparam 0000                                           __Lparam 0000  
                              SPI_Init_Master@ret 00F7                                      __psmallconst 1000  
                      __end_of_gpio_pin_intialize 1D0A                                           __pcinit 1AAA  
                                         __ramtop 1000                                     _rec_uart_data 003F  
                                         __ptext0 1D0A                                           __ptext1 21B2  
                                         __ptext2 1A26                                           __ptext3 1CB6  
                                         __ptext4 1854                                           __ptext5 170A  
                                         __ptext6 1986                                           __ptext7 2110  
                                         __ptext9 1006                                         _T0CONbits 0FD5  
                             i2RB4_ISR@RB4_Source 0041                                         _T1CONbits 0FCD  
                                       _T2CONbits 0FCA                        i2Timer3_Write_value@_value 0043  
                      i2Timer3_Write_value@_timer 0041                                         _T3CONbits 0FB1  
                                  _usart_rx_valid 00E4                                    _usart_tx_valid 00E0  
                                  __pintcode_body 2096                              end_of_initialization 1B22  
                       ??_timer0_interruptHundler 0055                                 _Timer1_Read_value 1BFA  
                                       i2_ADC_ISR 2378              __end_ofi2_EUSART_Rx_InterruptHandler 21EC  
                    i2_EUSART_Rx_InterruptHandler 21D0                                ?_Timer1_Read_value 004D  
                                         int_func 2096                          _Total_period_microSecond 00DC  
  CCP1_Capture_Mode_Read_Value@compare_temp_value 004F  i2CCP1_Capture_Mode_Read_Value@compare_temp_value 0043  
                                i2_InterruptCheck 1388                                         i2_RB4_ISR 22D6  
                                       i2_RB5_ISR 22BC                                         i2_RB6_ISR 22A2  
                                       i2_RB7_ISR 2288                       ?_EUSART_Tx_InterruptHandler 0041  
                           gpio_pin_intialize@ret 0113                               ??_Timer1_Read_value 0051  
                                       _RCSTAbits 0FAB                                           postdec1 0FE5  
                                         postdec2 0FDD                                           postinc0 0FEE  
                                         postinc2 0FDE                         ??i2_CCP1_interruptHundler 0045  
      CCP1_Capture_Mode_Read_Value@_capture_value 004D      i2CCP1_Capture_Mode_Read_Value@_capture_value 0041  
                         Timer1_Read_value@_value 004F                           Timer1_Read_value@_timer 004D  
                           _INT1_InterruptHandler 0029                                         _PORTBbits 0F81  
                   gpio_pin_intialize@_pin_config 00FE              __end_of_gpio_pin_direction_intialize 1854  
                    _gpio_pin_direction_intialize 170A                                         _TRISAbits 0F92  
                                       _TRISCbits 0F94                         __end_of_Timer1_Read_value 1C58  
                                 i2_EUSART_RX_ISR 1FAE                                   i2_EUSART_TX_ISR 203A  
      __end_ofi2_EUSART_ASYNC_ReadByteNonBlocking 1F7E          __end_of_EUSART_ASYNC_ReadByteNonBlocking 1F4C  
              ??_EUSART_ASYNC_ReadByteNonBlocking 004F                 ?_EUSART_ASYNC_ReadByteNonBlocking 004D  
            ??i2_EUSART_ASYNC_ReadByteNonBlocking 0043               ?i2_EUSART_ASYNC_ReadByteNonBlocking 0041  
              i2_EUSART_ASYNC_ReadByteNonBlocking 1F4C                  _EUSART_ASYNC_ReadByteNonBlocking 1F1A  
                             i2RB6_ISR@RB6_Source 0041                                        ?i2_ADC_ISR 0041  
                    __end_ofi2_Timer3_Write_value 21B2                                       _CCP1CONbits 0FBD  
                                       _TXSTAbits 0FAC                   fp_i2_EUSART_Rx_InterruptHandler 0000  
              __end_of_EUSART_Rx_InterruptHandler 2110                     ?i2_EUSART_Rx_InterruptHandler 0041  
                                      ?i2_RB4_ISR 0041                        _EUSART_Rx_InterruptHandler 20EA  
                                      ?i2_RB5_ISR 0041                                        ?i2_RB6_ISR 0041  
                                      ?i2_RB7_ISR 0041                           ??_CCP1_interruptHundler 0051  
                   convert_uint16_to_string@F3201 00D2                     convert_uint32_to_string@F3208 00C7  
                 __end_of_timer0_interruptHundler 1F1A                                       _BAUDCONbits 0FB8  
                                   __pidataCOMRAM 2324                              i2_Timer1_Write_value 2172  
                                  _timer0_preload 0013                                    _timer1_preload 000F  
                     __end_ofi2_Timer1_Read_value 1CB6                                    _timer2_preload 0036  
                             start_initialization 1AAA                                    _timer3_preload 0009  
                   ?_gpio_pin_direction_intialize 00F4                       ??i2_timer0_interruptHundler 0049  
                 _CCP1_interruptHundler$intlevel1 1B36                      fp_i2_timer3_interruptHundler 0000  
               CCP1_Capture_Mode_Read_Value@F3086 002D                        _EUSART_FramingErrorHandler 0003  
            __end_of_CCP1_Capture_Mode_Read_Value 1DD6                  ??i2_CCP1_Capture_Mode_Read_Value 0043  
                 ?i2_CCP1_Capture_Mode_Read_Value 0041                      _CCP1_Capture_Mode_Read_Value 1D9E  
                   fp__EUSART_Tx_InterruptHandler 0000                                       __pdataBANK0 0080  
                                     __pdataBANK1 0100                      convert_uint8_to_string@F3194 00EC  
                                        ?_ADC_ISR 0041                             ?i2_Timer1_Write_value 0041  
                           __end_of_EUSART_RX_ISR 1FAE                             __end_of_EUSART_TX_ISR 200C  
                                  _InterruptCheck 1006                           __end_ofi2_EUSART_RX_ISR 1FDE  
                         __end_ofi2_EUSART_TX_ISR 2068                                          ?_RB4_ISR 0041  
                                        ?_RB5_ISR 0041                                          ?_RB6_ISR 0041  
                                        ?_RB7_ISR 0041                                       __pbssCOMRAM 0001  
                                   __pcstackBANK0 00F4                                     __pcstackBANK1 0113  
                                     ??i2_ADC_ISR 0041                             _INT2_InterruptHandler 0027  
                 gpio_pin_direction_intialize@ret 00FC                             _TMR0_InterruptHandler 0015  
                                     ??i2_RB4_ISR 0041                                       ??i2_RB5_ISR 0041  
                                     ??i2_RB6_ISR 0041                                       ??i2_RB7_ISR 0041  
           EUSART_ASYNC_ReadByteNonBlocking@_data 004D           i2EUSART_ASYNC_ReadByteNonBlocking@_data 0041  
                    __end_of_InterruptManagerHigh 20C0                                         __pintcode 0008  
                 gpio_pin_write_logic@_pin_config 00F4                    ??i2_EUSART_Rx_InterruptHandler 0043  
                          __end_of_InterruptCheck 1388                     ?_CCP1_Capture_Mode_Read_Value 004D  
                                     __pintcodelo 0018                         gpio_pin_write_logic@logic 00F6  
                            i2_Timer3_Write_value 2192                         i2_timer0_interruptHundler 20C0  
                                     __smallconst 1000                         _RB4_InterruptHandler_HIGH 0025  
                        __end_ofi2_InterruptCheck 170A                                          _CCP1_ISR 200C  
                        Timer3_Write_value@_value 004F                          Timer3_Write_value@_timer 004D  
                       _RB7_InterruptHandler_HIGH 0019                                _gpio_pin_intialize 1CB6  
                             _CCP1_Interrupt_flag 0034                    ??_gpio_pin_direction_intialize 00F6  
                        _RB5_InterruptHandler_LOW 001F                                          _INT0_ISR 2364  
                                        _INT1_ISR 2360                                          _INT2_ISR 235C  
                                        _RB4_Flag 0063                                          _RB5_Flag 0062  
                                        _RB6_Flag 0061                                          _RB7_Flag 0060  
                           _SPI_WriteByteBlocking 2110                                 RB4_ISR@RB4_Source 004D  
                             ?_gpio_pin_intialize 00FE                                          _IPR1bits 0F9F  
                                        _PIE1bits 0F9D                                          _PIE2bits 0FA0  
                                        i1u404_20 1B4A                                          i1u500_20 1354  
                                        i1u404_21 1B46                                          i1u500_21 1350  
                                        i1u405_20 1B86                                          i1u421_20 1E60  
                                        i1u420_28 1E30                                          i1u501_20 1362  
                                        i1u405_21 1B82                                          i1u421_21 1E5C  
                                        i1u420_29 1E42                                          i1u501_21 135E  
                                        i1u502_20 1374                                          i1u502_21 1370  
                                        i1u423_20 1FF2                                          i1u422_28 1E66  
                                        i1u503_20 1382                                          i1u423_21 1FEE  
                                        i1u422_29 1E78                                          i1u503_21 137E  
                                        i1u417_20 2020                                          i1u425_20 1F90  
                                        i1u424_28 1FF8                                          i1u417_21 201C  
                                        i1u425_21 1F8C                                          i1u424_29 200A  
                                        i1u450_20 1014                                          i1u450_21 1010  
                                        i1u418_28 2026                                          i1u426_28 1F96  
                                        i1u419_20 1E2A                                          i1u451_20 1022  
                                        i1u418_29 2038                                          i1u426_29 1FA8  
                                        i1u419_21 1E26                                          i1u451_21 101E  
                                        i1u460_20 10B8                                          i1u452_20 1034  
                                        i1u460_21 10B4                                          i1u452_21 1030  
                                        i1u461_20 10C6                                          i1u453_20 1042  
                                        i1u461_21 10C2                                          i1u453_21 103E  
                                        i1u390_20 2144                                          i1u470_20 115C  
                                        i1u462_20 10D4                                          i1u454_20 1054  
                                        i1u390_21 2140                                          i1u470_21 1158  
                                        i1u462_21 10D0                                          i1u454_21 1050  
                                        i1u391_20 1C14                                          i1u471_20 116C  
                                        i1u463_20 10E4                                          i1u455_20 1062  
                                        i1u391_21 1C10                                          i1u471_21 1168  
                                        i1u463_21 10E0                                          i1u455_21 105E  
                                        i1u392_20 1C26                                          i1u480_20 120C  
                                        i1u472_20 1184                                          i1u464_20 10FC  
                                        i1u456_20 1074                                          i1u392_21 1C22  
                                        i1u480_21 1208                                          i1u472_21 1180  
                                        i1u464_21 10F8                                          i1u456_21 1070  
                                        i2u400_40 21A4                                          i2u400_41 21A0  
                                        i1u393_20 2164                                          i1u481_20 121A  
                                        i1u473_20 1192                                          i1u465_20 110A  
                                        i1u457_20 1082                                          i1u393_21 2160  
                                        i1u481_21 1216                                          i1u473_21 118E  
                                        i1u465_21 1106                                          i1u457_21 107E  
                                        i2u401_40 1F5E                                          i2u401_41 1F5A  
                                        i1u394_20 1F2C                                          i1u490_20 12B4  
                                        i1u482_20 1228                                          i1u474_20 11A0  
                                        i1u466_20 1118                                          i1u458_20 1090  
                                        i1u394_21 1F28                                          i1u490_21 12B0  
                                        i1u482_21 1224                                          i1u474_21 119C  
                                        i1u466_21 1114                                          i1u458_21 108C  
                                        i2u402_40 1F70                                          i2u402_41 1F6C  
                                        i1u395_20 1F3E                                          i1u491_20 12C2  
                                        i1u483_20 1238                                          i1u475_20 11B0  
                                        i1u467_20 1128                                          i1u459_20 10A0  
                                        i1u395_21 1F3A                                          i1u491_21 12BE  
                                        i1u483_21 1234                                          i1u475_21 11AC  
                                        i1u467_21 1124                                          i1u459_21 109C  
                                        i1u492_20 12D4                                          i1u484_20 1250  
                                        i1u476_20 11C8                                          i1u468_20 1140  
                                        i1u492_21 12D0                                          i1u484_21 124C  
                                        i1u476_21 11C4                                          i1u468_21 113C  
                                        i1u389_20 1DB8                                          i1u493_20 12E2  
                                        i1u485_20 125E                                          i1u477_20 11D6  
                                        i1u469_20 114E                                          i1u389_21 1DB4  
                                        i1u493_21 12DE                                          i1u485_21 125A  
                                        i1u477_21 11D2                                          i1u469_21 114A  
                                        i1u494_20 12F4                                          i1u486_20 126C  
                                        i1u478_20 11E4                                          i1u494_21 12F0  
                                        i1u486_21 1268                                          i1u478_21 11E0  
                                        i2u406_40 1BAC                                          i2u430_40 22EA  
                                        i2u510_40 13F6                                          i2u406_41 1BA8  
                                        i2u430_41 22E6                                          i2u510_41 13F2  
                                        i1u495_20 1302                                          i1u487_20 127C  
                                        i1u479_20 11F4                                          i1u495_21 12FE  
                                        i1u487_21 1278                                          i1u479_21 11F0  
                                        i2u407_40 1BE8                                          i2u431_40 22D0  
                                        i2u511_40 1404                                          i2u407_41 1BE4  
                                        i2u431_41 22CC                                          i2u511_41 1400  
                                        i1u496_20 1314                                          i1u488_20 1294  
                                        i1u496_21 1310                                          i1u488_21 1290  
                                        i2u440_40 1FC0                                          i2u432_40 22B6  
                                        i2u520_40 149A                                          i2u512_40 1412  
                                        i2u504_40 1396                                          i2u440_41 1FBC  
                                        i2u432_41 22B2                                          i2u520_41 1496  
                                        i2u512_41 140E                                          i2u504_41 1392  
                                        i1u497_20 1322                                          i1u489_20 12A2  
                                        i1u497_21 131E                                          i1u489_21 129E  
                                        i2u433_40 229C                                          i2u521_40 14AA  
                                        i2u513_40 1422                                          i2u505_40 13A4  
                                        i2u433_41 2298                                          i2u521_41 14A6  
                                        i2u513_41 141E                                          i2u505_41 13A0  
                                        _PIR1bits 0F9E                                          i1u498_20 1334  
                                        i1u498_21 1330                                          i2u441_48 1FC6  
                                        i2u434_40 1E96                                          i2u530_40 154A  
                                        i2u522_40 14C2                                          i2u514_40 143A  
                                        i2u506_40 13B6                                          i2u441_49 1FD8  
                                        i2u434_41 1E92                                          i2u530_41 1546  
                                        i2u522_41 14BE                                          i2u514_41 1436  
                                        i2u506_41 13B2                                          i1u499_20 1342  
                                        i1u499_21 133E                                          i2u531_40 1558  
                                        i2u523_40 14D0                                          i2u515_40 1448  
                                        i2u507_40 13C4                                          i2u531_41 1554  
                                        i2u523_41 14CC                                          i2u515_41 1444  
                                        i2u507_41 13C0                                          _PIR2bits 0FA1  
                                        i2u428_40 207C                                          i2u436_40 1ECC  
                                        i2u435_48 1E9C                                          i2u540_40 15EE  
                                        i2u532_40 1566                                          i2u524_40 14DE  
                                        i2u516_40 1456                                          i2u508_40 13D6  
                                        i2u428_41 2078                                          i2u436_41 1EC8  
                                        i2u435_49 1EAE                                          i2u540_41 15EA  
                                        i2u532_41 1562                                          i2u524_41 14DA  
                                        i2u516_41 1452                                          i2u508_41 13D2  
                                        i2u541_40 15FE                                          i2u533_40 1576  
                                        i2u525_40 14EE                                          i2u517_40 1466  
                                        i2u509_40 13E4                                          i2u541_41 15FA  
                                        i2u533_41 1572                                          i2u525_41 14EA  
                                        i2u517_41 1462                                          i2u509_41 13E0  
                                        i2u429_48 2082                                          i2u438_40 204E  
                                        i2u437_48 1ED2                                          i2u550_40 1696  
                                        i2u542_40 1616                                          i2u534_40 158E  
                                        i2u526_40 1506                                          i2u518_40 147E  
                                        i2u429_49 2094                                          i2u438_41 204A  
                                        i2u437_49 1EE4                                          i2u550_41 1692  
                                        i2u542_41 1612                                          i2u534_41 158A  
                                        i2u526_41 1502                                          i2u518_41 147A  
                                        i2u551_40 16A4                                          i2u543_40 1624  
                                        i2u535_40 159C                                          i2u527_40 1514  
                                        i2u519_40 148C                                          i2u551_41 16A0  
                                        i2u543_41 1620                                          i2u535_41 1598  
                                        i2u527_41 1510                                          i2u519_41 1488  
                                        i2u439_48 2054                                          i2u552_40 16B6  
                                        i2u544_40 1636                                          i2u536_40 15AA  
                                        i2u528_40 1522                                          i2u439_49 2066  
                                        i2u552_41 16B2                                          i2u544_41 1632  
                                        i2u536_41 15A6                                          i2u528_41 151E  
                                        i2u553_40 16C4                                          i2u545_40 1644  
                                        i2u537_40 15BA                                          i2u529_40 1532  
                                        i2u553_41 16C0                                          i2u545_41 1640  
                                        i2u537_41 15B6                                          i2u529_41 152E  
                                        i2u554_40 16D6                                          i2u546_40 1656  
                                        i2u538_40 15D2                                          i2u554_41 16D2  
                                        i2u546_41 1652                                          i2u538_41 15CE  
                                        i2u555_40 16E4                                          i2u547_40 1664  
                                        i2u539_40 15E0                                          i2u555_41 16E0  
                                        i2u547_41 1660                                          i2u539_41 15DC  
                                        i2u396_40 1DF0                                          i2u556_40 16F6  
                                        i2u548_40 1676                                          i2u396_41 1DEC  
                                        i2u556_41 16F2                                          i2u548_41 1672  
                                        i2u397_40 2184                                          i2u557_40 1704  
                                        i2u549_40 1684                                          i2u397_41 2180  
                                        i2u557_41 1700                                          i2u549_41 1680  
                                        i2u398_40 1C72                                          i2u398_41 1C6E  
                                        i2u399_40 1C84                                          i2u399_41 1C80  
                                        _RCONbits 0FD0              _EUSART_Tx_InterruptHandler$intlevel1 2278  
                                        _TMR1_ISR 2334                                          _TMR2_ISR 234C  
                                        _TMR3_ISR 1E44                            ??i2_Timer1_Write_value 0045  
                               ??_SPI_Init_Master 00F6                            Timer1_Read_value@tmr1h 0054  
                          Timer1_Read_value@tmr1l 0053                                   ?_InterruptCheck 0041  
                                        _TMRO_ISR 1E0E                             ?i2_Timer3_Write_value 0041  
                                      _ADCON0bits 0FC2                                        _ADCON1bits 0FC1  
                                      _ADCON2bits 0FC0                                  ?i2_EUSART_RX_ISR 0041  
                            ??_gpio_pin_intialize 0100                                  ?i2_EUSART_TX_ISR 0041  
                                       _usart_obj 0100                           gpio_pin_write_logic@ret 00FD  
                                     _INTCON2bits 0FF1                                       _INTCON3bits 0FF0  
                                       copy_data0 1ABE                                         copy_data1 1ADE  
                                       copy_data2 1AFE                                        _EECON1bits 0FA6  
                     ?_EUSART_Rx_InterruptHandler 0041                                          __Hrparam 0000  
                                        __Lrparam 0000                                 RB6_ISR@RB6_Source 004D  
            _EUSART_Rx_InterruptHandler$intlevel1 20F4                             _CCP1_InterruptHandler 002F  
                   __end_of_CCP1_interruptHundler 1B98                                          _ccp1_obj 00AF  
                             SPI_Init_Master@_spi 00F4                        ?i2_timer3_interruptHundler 0041  
                         _timer3_interruptHundler 21EC                        fp__timer3_interruptHundler 0000  
                               _freqenct_measured 00D8                             _TMR1_InterruptHandler 0011  
                             _ccp1_capature_value 003B                          ?_timer0_interruptHundler 0041  
                                   _app_intialize 21B2                              _InterruptManagerHigh 0008  
                           _CCP1_Interrupt_flag_2 0033                                          __ptext10 1E0E  
                                        __ptext11 1EE6                                          __ptext20 223A  
                                        __ptext12 2132                                          __ptext21 2254  
                                        __ptext13 1BFA                                          __ptext30 200C  
                                        __ptext22 235C                                          __ptext14 1E44  
                                        __ptext31 1B2C                                          __ptext23 2360  
                                        __ptext15 21EC                                          __ptext40 1C58  
                                        __ptext32 2152                                          __ptext24 2364  
                                        __ptext16 234C                                          __ptext41 1EB0  
                                        __ptext33 1D9E                                          __ptext25 1FDE  
                                        __ptext17 2334                                          __ptext50 2370  
                                        __ptext42 2304                                          __ptext34 2368  
                                        __ptext26 226E                                          __ptext18 2206  
                                        __ptext51 2374                                          __ptext43 2354  
                                        __ptext27 1F7E                                          __ptext19 2220  
                                        __ptext60 1DD6                                          __ptext52 203A  
                                        __ptext44 2340                                          __ptext36 1388  
                                        __ptext28 20EA                                          __ptext61 2378  
                                        __ptext53 2314                                          __ptext45 2288  
                                        __ptext37 1E7A                                          __ptext29 1F1A  
                                        __ptext62 0000                                          __ptext54 1FAE  
                                        __ptext46 22A2                                          __ptext38 20C0  
                                        __ptext55 21D0                                          __ptext47 22BC  
                                        __ptext39 2172                                          __ptext56 1F4C  
                                        __ptext48 22D6                                          __ptext57 2068  
                                        __ptext49 236C                                          __ptext58 1B98  
                                        __ptext59 2192                         i2Timer1_Read_value@_value 0043  
                       i2Timer1_Read_value@_timer 0041                            ?_SPI_WriteByteBlocking 0041  
                      __end_of_Timer1_Write_value 2152                          ?i2_CCP1_interruptHundler 0041  
                                        isa$xinst 0000                                          int$flags 006B  
                          ??i2_Timer3_Write_value 0045                                      _timer0_count 0035  
                                    _timer1_count 0040                 __end_ofi2_timer3_interruptHundler 2314  
                                      i2_CCP1_ISR 2068                                        _INTCONbits 0FF2  
                                  ?_app_intialize 0041                             ?_InterruptManagerHigh 0041  
                    __end_of_gpio_pin_write_logic 1986                                          intlevel1 0000  
                                        intlevel2 0000                               _InterruptManagerLow 0018  
                                      i2_INT0_ISR 2374                                        i2_INT1_ISR 2370  
                                      i2_INT2_ISR 236C                 _timer0_interruptHundler$intlevel1 1EF0  
                                      i2_TMR1_ISR 2340                                        i2_TMR2_ISR 2354  
                                      i2_TMR3_ISR 1EB0                     fp__EUSART_Rx_InterruptHandler 0000  
                       ??_timer3_interruptHundler 004D                        SPI_WriteByteBlocking@_data 00F5  
                                      i2_TMRO_ISR 1E7A                              ?_InterruptManagerLow 0041  
                                  _port_registers 0080                                 ?i2_InterruptCheck 0041  
                        fp__CCP1_interruptHundler 0000                               i2RB5_ISR@RB5_Source 0041  
                                     _SSPCON1bits 0FC6                                ??i2_InterruptCheck 0049  
                 __end_ofi2_CCP1_interruptHundler 1BFA                                   _SPI_Init_Master 1986  
                           _TMR2_InterruptHandler 000D                        __end_of_Timer3_Write_value 2172  
                                  _led_initialize 1A26                                  ??_InterruptCheck 0055  
                    ??_EUSART_Tx_InterruptHandler 004D  
